ARM GAS  /tmp/ccbOgSVP.s 			page 1


   1              		.syntax unified
   2              		.cpu cortex-m4
   3              		.eabi_attribute 27, 3
   4              		.eabi_attribute 28, 1
   5              		.fpu fpv4-sp-d16
   6              		.eabi_attribute 20, 1
   7              		.eabi_attribute 21, 1
   8              		.eabi_attribute 23, 3
   9              		.eabi_attribute 24, 1
  10              		.eabi_attribute 25, 1
  11              		.eabi_attribute 26, 1
  12              		.eabi_attribute 30, 2
  13              		.eabi_attribute 18, 4
  14              		.thumb
  15              		.file	"adc_lld.c"
  16              		.section	.debug_abbrev,"",%progbits
  17              	.Ldebug_abbrev0:
  18              		.section	.debug_info,"",%progbits
  19              	.Ldebug_info0:
  20              		.section	.debug_line,"",%progbits
  21              	.Ldebug_line0:
  22 0000 EE040000 		.text
  22      02005302 
  22      00000201 
  22      FB0E0D00 
  22      01010101 
  23              	.Ltext0:
  24              		.cfi_sections	.debug_frame
  25              		.section	.text.adc_lld_init,"ax",%progbits
  26              		.align	2
  27              		.p2align 4,,15
  28              		.global	adc_lld_init
  29              		.thumb
  30              		.thumb_func
  31              		.type	adc_lld_init, %function
  32              	adc_lld_init:
  33              	.LFB119:
  34              		.file 1 "../libs/ChibiOS_2.4.0/os/hal/platforms/STM32F4xx/adc_lld.c"
  35              		.loc 1 182 0
  36              		.cfi_startproc
  37              		@ args = 0, pretend = 0, frame = 0
  38              		@ frame_needed = 0, uses_anonymous_args = 0
  39 0000 2DE9F041 		push	{r4, r5, r6, r7, r8, lr}
  40              	.LCFI0:
  41              		.cfi_def_cfa_offset 24
  42              		.loc 1 184 0
  43 0004 144B     		ldr	r3, .L2
  44              		.loc 1 188 0
  45 0006 154E     		ldr	r6, .L2+4
  46              		.cfi_offset 14, -4
  47              		.cfi_offset 8, -8
  48              		.cfi_offset 7, -12
  49              		.cfi_offset 6, -16
  50              		.cfi_offset 5, -20
  51              		.cfi_offset 4, -24
  52              		.loc 1 202 0
  53 0008 154D     		ldr	r5, .L2+8
ARM GAS  /tmp/ccbOgSVP.s 			page 2


  54              		.loc 1 190 0
  55 000a 164F     		ldr	r7, .L2+12
  56              		.loc 1 216 0
  57 000c 164C     		ldr	r4, .L2+16
  58              		.loc 1 184 0
  59 000e 0022     		movs	r2, #0
  60 0010 5A60     		str	r2, [r3, #4]
  61              		.loc 1 188 0
  62 0012 3046     		mov	r0, r6
  63 0014 FFF7FEFF 		bl	adcObjectInit
  64              		.loc 1 189 0
  65 0018 1448     		ldr	r0, .L2+20
  66              		.loc 1 191 0
  67 001a 1549     		ldr	r1, .L2+24
  68              		.loc 1 189 0
  69 001c B062     		str	r0, [r6, #40]
  70              		.loc 1 202 0
  71 001e 2846     		mov	r0, r5
  72              		.loc 1 191 0
  73 0020 3163     		str	r1, [r6, #48]
  74              		.loc 1 190 0
  75 0022 F762     		str	r7, [r6, #44]
  76              		.loc 1 202 0
  77 0024 FFF7FEFF 		bl	adcObjectInit
  78              		.loc 1 203 0
  79 0028 124A     		ldr	r2, .L2+28
  80              		.loc 1 205 0
  81 002a 1349     		ldr	r1, .L2+32
  82              		.loc 1 203 0
  83 002c AA62     		str	r2, [r5, #40]
  84              		.loc 1 204 0
  85 002e A7F11803 		sub	r3, r7, #24
  86              		.loc 1 216 0
  87 0032 2046     		mov	r0, r4
  88              		.loc 1 204 0
  89 0034 EB62     		str	r3, [r5, #44]
  90              		.loc 1 205 0
  91 0036 2963     		str	r1, [r5, #48]
  92              		.loc 1 216 0
  93 0038 FFF7FEFF 		bl	adcObjectInit
  94              		.loc 1 217 0
  95 003c 0F48     		ldr	r0, .L2+36
  96              		.loc 1 219 0
  97 003e 104B     		ldr	r3, .L2+40
  98              		.loc 1 217 0
  99 0040 A062     		str	r0, [r4, #40]
 100              		.loc 1 218 0
 101 0042 A7F12402 		sub	r2, r7, #36
 102              		.loc 1 230 0
 103 0046 1220     		movs	r0, #18
 104 0048 5021     		movs	r1, #80
 105              		.loc 1 218 0
 106 004a E262     		str	r2, [r4, #44]
 107              		.loc 1 219 0
 108 004c 2363     		str	r3, [r4, #48]
 109              		.loc 1 231 0
 110 004e BDE8F041 		pop	{r4, r5, r6, r7, r8, lr}
ARM GAS  /tmp/ccbOgSVP.s 			page 3


 111              		.loc 1 230 0
 112 0052 FFF7FEBF 		b	nvicEnableVector
 113              	.L3:
 114 0056 00BF     		.align	2
 115              	.L2:
 116 0058 00230140 		.word	1073816320
 117 005c 00000000 		.word	.LANCHOR0
 118 0060 00000000 		.word	.LANCHOR1
 119 0064 90000000 		.word	_stm32_dma_streams+144
 120 0068 00000000 		.word	.LANCHOR2
 121 006c 00200140 		.word	1073815552
 122 0070 172C0200 		.word	142359
 123 0074 00210140 		.word	1073815808
 124 0078 172C0202 		.word	33696791
 125 007c 00220140 		.word	1073816064
 126 0080 172C0204 		.word	67251223
 127              		.cfi_endproc
 128              	.LFE119:
 129              		.size	adc_lld_init, .-adc_lld_init
 130 0084 AFF30080 		.section	.text.adc_lld_start,"ax",%progbits
 130      AFF30080 
 130      AFF30080 
 131              		.align	2
 132              		.p2align 4,,15
 133              		.global	adc_lld_start
 134              		.thumb
 135              		.thumb_func
 136              		.type	adc_lld_start, %function
 137              	adc_lld_start:
 138              	.LFB120:
 139              		.loc 1 240 0
 140              		.cfi_startproc
 141              		@ args = 0, pretend = 0, frame = 0
 142              		@ frame_needed = 0, uses_anonymous_args = 0
 143              	.LVL0:
 144              		.loc 1 243 0
 145 0000 0378     		ldrb	r3, [r0, #0]	@ zero_extendqisi2
 146 0002 012B     		cmp	r3, #1
 147              		.loc 1 240 0
 148 0004 10B5     		push	{r4, lr}
 149              	.LCFI1:
 150              		.cfi_def_cfa_offset 8
 151              		.loc 1 240 0
 152 0006 0446     		mov	r4, r0
 153              		.cfi_offset 14, -4
 154              		.cfi_offset 4, -8
 155              		.loc 1 243 0
 156 0008 00D0     		beq	.L10
 157 000a 10BD     		pop	{r4, pc}
 158              	.L10:
 159              		.loc 1 245 0
 160 000c 1F49     		ldr	r1, .L14
 161 000e 8842     		cmp	r0, r1
 162 0010 0CD0     		beq	.L11
 163              		.loc 1 258 0
 164 0012 1F4B     		ldr	r3, .L14+4
 165 0014 9842     		cmp	r0, r3
ARM GAS  /tmp/ccbOgSVP.s 			page 4


 166 0016 19D0     		beq	.L12
 167              		.loc 1 271 0
 168 0018 1E4A     		ldr	r2, .L14+8
 169 001a 9042     		cmp	r0, r2
 170 001c 26D0     		beq	.L13
 171              	.LVL1:
 172              	.L7:
 173              		.loc 1 285 0
 174 001e A16A     		ldr	r1, [r4, #40]
 175 0020 0022     		movs	r2, #0
 176              		.loc 1 287 0
 177 0022 0120     		movs	r0, #1
 178              		.loc 1 285 0
 179 0024 4A60     		str	r2, [r1, #4]
 180              		.loc 1 286 0
 181 0026 8A60     		str	r2, [r1, #8]
 182              		.loc 1 287 0
 183 0028 8860     		str	r0, [r1, #8]
 184 002a 10BD     		pop	{r4, pc}
 185              	.L11:
 186              	.LBB2:
 187              		.loc 1 247 0
 188 002c 1A4A     		ldr	r2, .L14+12
 189 002e C06A     		ldr	r0, [r0, #44]
 190 0030 0521     		movs	r1, #5
 191 0032 2346     		mov	r3, r4
 192 0034 FFF7FEFF 		bl	dmaStreamAllocate
 193              		.loc 1 252 0
 194 0038 E06A     		ldr	r0, [r4, #44]
 195 003a 1849     		ldr	r1, .L14+16
 196 003c 0268     		ldr	r2, [r0, #0]
 197              		.loc 1 253 0
 198 003e 1848     		ldr	r0, .L14+20
 199              		.loc 1 252 0
 200 0040 9160     		str	r1, [r2, #8]
 201              		.loc 1 253 0
 202 0042 436C     		ldr	r3, [r0, #68]
 203 0044 43F48072 		orr	r2, r3, #256
 204 0048 4264     		str	r2, [r0, #68]
 205 004a E8E7     		b	.L7
 206              	.L12:
 207              	.LBE2:
 208              	.LBB3:
 209              		.loc 1 260 0
 210 004c 124A     		ldr	r2, .L14+12
 211 004e C06A     		ldr	r0, [r0, #44]
 212 0050 0521     		movs	r1, #5
 213 0052 2346     		mov	r3, r4
 214 0054 FFF7FEFF 		bl	dmaStreamAllocate
 215              		.loc 1 265 0
 216 0058 E06A     		ldr	r0, [r4, #44]
 217 005a 124B     		ldr	r3, .L14+24
 218 005c 0168     		ldr	r1, [r0, #0]
 219              		.loc 1 266 0
 220 005e 1048     		ldr	r0, .L14+20
 221              		.loc 1 265 0
 222 0060 8B60     		str	r3, [r1, #8]
ARM GAS  /tmp/ccbOgSVP.s 			page 5


 223              		.loc 1 266 0
 224 0062 426C     		ldr	r2, [r0, #68]
 225 0064 42F40071 		orr	r1, r2, #512
 226 0068 4164     		str	r1, [r0, #68]
 227 006a D8E7     		b	.L7
 228              	.L13:
 229              	.LBE3:
 230              	.LBB4:
 231              		.loc 1 273 0
 232 006c 0A4A     		ldr	r2, .L14+12
 233 006e C06A     		ldr	r0, [r0, #44]
 234 0070 0521     		movs	r1, #5
 235 0072 2346     		mov	r3, r4
 236 0074 FFF7FEFF 		bl	dmaStreamAllocate
 237              		.loc 1 278 0
 238 0078 E36A     		ldr	r3, [r4, #44]
 239 007a 0B49     		ldr	r1, .L14+28
 240 007c 1A68     		ldr	r2, [r3, #0]
 241              		.loc 1 279 0
 242 007e 084B     		ldr	r3, .L14+20
 243              		.loc 1 278 0
 244 0080 9160     		str	r1, [r2, #8]
 245              		.loc 1 279 0
 246 0082 586C     		ldr	r0, [r3, #68]
 247 0084 40F48061 		orr	r1, r0, #1024
 248 0088 5964     		str	r1, [r3, #68]
 249 008a C8E7     		b	.L7
 250              	.L15:
 251              		.align	2
 252              	.L14:
 253 008c 00000000 		.word	.LANCHOR0
 254 0090 00000000 		.word	.LANCHOR1
 255 0094 00000000 		.word	.LANCHOR2
 256 0098 00000000 		.word	adc_lld_serve_rx_interrupt
 257 009c 4C200140 		.word	1073815628
 258 00a0 00380240 		.word	1073887232
 259 00a4 4C210140 		.word	1073815884
 260 00a8 4C220140 		.word	1073816140
 261              	.LBE4:
 262              		.cfi_endproc
 263              	.LFE120:
 264              		.size	adc_lld_start, .-adc_lld_start
 265 00ac AFF30080 		.section	.text.adc_lld_stop,"ax",%progbits
 266              		.align	2
 267              		.p2align 4,,15
 268              		.global	adc_lld_stop
 269              		.thumb
 270              		.thumb_func
 271              		.type	adc_lld_stop, %function
 272              	adc_lld_stop:
 273              	.LFB121:
 274              		.loc 1 298 0
 275              		.cfi_startproc
 276              		@ args = 0, pretend = 0, frame = 0
 277              		@ frame_needed = 0, uses_anonymous_args = 0
 278              	.LVL2:
 279              		.loc 1 301 0
ARM GAS  /tmp/ccbOgSVP.s 			page 6


 280 0000 0378     		ldrb	r3, [r0, #0]	@ zero_extendqisi2
 281 0002 022B     		cmp	r3, #2
 282              		.loc 1 298 0
 283 0004 10B5     		push	{r4, lr}
 284              	.LCFI2:
 285              		.cfi_def_cfa_offset 8
 286              		.loc 1 298 0
 287 0006 0446     		mov	r4, r0
 288              		.cfi_offset 14, -4
 289              		.cfi_offset 4, -8
 290              		.loc 1 301 0
 291 0008 00D0     		beq	.L20
 292              	.LVL3:
 293              	.L16:
 294 000a 10BD     		pop	{r4, pc}
 295              	.L20:
 296              		.loc 1 302 0
 297 000c C06A     		ldr	r0, [r0, #44]
 298 000e FFF7FEFF 		bl	dmaStreamRelease
 299              		.loc 1 307 0
 300 0012 0F48     		ldr	r0, .L23
 301              		.loc 1 303 0
 302 0014 A16A     		ldr	r1, [r4, #40]
 303 0016 0022     		movs	r2, #0
 304              		.loc 1 307 0
 305 0018 8442     		cmp	r4, r0
 306              		.loc 1 303 0
 307 001a 4A60     		str	r2, [r1, #4]
 308              		.loc 1 304 0
 309 001c 8A60     		str	r2, [r1, #8]
 310              		.loc 1 307 0
 311 001e 11D0     		beq	.L21
 312              		.loc 1 312 0
 313 0020 0C49     		ldr	r1, .L23+4
 314 0022 8C42     		cmp	r4, r1
 315 0024 08D0     		beq	.L22
 316              		.loc 1 317 0
 317 0026 0C49     		ldr	r1, .L23+8
 318 0028 8C42     		cmp	r4, r1
 319 002a EED1     		bne	.L16
 320              		.loc 1 318 0
 321 002c 0B4B     		ldr	r3, .L23+12
 322 002e 5A6C     		ldr	r2, [r3, #68]
 323 0030 22F48060 		bic	r0, r2, #1024
 324 0034 5864     		str	r0, [r3, #68]
 325 0036 E8E7     		b	.L16
 326              	.L22:
 327              		.loc 1 313 0
 328 0038 084B     		ldr	r3, .L23+12
 329 003a 5A6C     		ldr	r2, [r3, #68]
 330 003c 22F40070 		bic	r0, r2, #512
 331 0040 5864     		str	r0, [r3, #68]
 332 0042 10BD     		pop	{r4, pc}
 333              	.L21:
 334              		.loc 1 308 0
 335 0044 054B     		ldr	r3, .L23+12
 336 0046 5A6C     		ldr	r2, [r3, #68]
ARM GAS  /tmp/ccbOgSVP.s 			page 7


 337 0048 22F48070 		bic	r0, r2, #256
 338 004c 5864     		str	r0, [r3, #68]
 339 004e 10BD     		pop	{r4, pc}
 340              	.L24:
 341              		.align	2
 342              	.L23:
 343 0050 00000000 		.word	.LANCHOR0
 344 0054 00000000 		.word	.LANCHOR1
 345 0058 00000000 		.word	.LANCHOR2
 346 005c 00380240 		.word	1073887232
 347              		.cfi_endproc
 348              	.LFE121:
 349              		.size	adc_lld_stop, .-adc_lld_stop
 350              		.section	.text.adc_lld_start_conversion,"ax",%progbits
 351              		.align	2
 352              		.p2align 4,,15
 353              		.global	adc_lld_start_conversion
 354              		.thumb
 355              		.thumb_func
 356              		.type	adc_lld_start_conversion, %function
 357              	adc_lld_start_conversion:
 358              	.LFB122:
 359              		.loc 1 330 0
 360              		.cfi_startproc
 361              		@ args = 0, pretend = 0, frame = 0
 362              		@ frame_needed = 0, uses_anonymous_args = 0
 363              		@ link register save eliminated.
 364              	.LVL4:
 365              		.loc 1 332 0
 366 0000 0369     		ldr	r3, [r0, #16]
 367              	.LVL5:
 368              		.loc 1 335 0
 369 0002 016B     		ldr	r1, [r0, #48]
 370              	.LVL6:
 371              		.loc 1 336 0
 372 0004 1A68     		ldr	r2, [r3, #0]
 373              		.loc 1 330 0
 374 0006 2DE9F00F 		push	{r4, r5, r6, r7, r8, r9, sl, fp}
 375              	.LCFI3:
 376              		.cfi_def_cfa_offset 32
 377              		.loc 1 336 0
 378 000a 0AB1     		cbz	r2, .L26
 379              		.cfi_offset 11, -4
 380              		.cfi_offset 10, -8
 381              		.cfi_offset 9, -12
 382              		.cfi_offset 8, -16
 383              		.cfi_offset 7, -20
 384              		.cfi_offset 6, -24
 385              		.cfi_offset 5, -28
 386              		.cfi_offset 4, -32
 387              	.LVL7:
 388              		.loc 1 337 0
 389 000c 41F48071 		orr	r1, r1, #256
 390              	.LVL8:
 391              	.L26:
 392              		.loc 1 339 0
 393 0010 C568     		ldr	r5, [r0, #12]
ARM GAS  /tmp/ccbOgSVP.s 			page 8


 394              		.loc 1 344 0
 395 0012 C46A     		ldr	r4, [r0, #44]
 396              		.loc 1 359 0
 397 0014 D3F81090 		ldr	r9, [r3, #16]
 398              		.loc 1 361 0
 399 0018 D3F81480 		ldr	r8, [r3, #20]
 400              		.loc 1 345 0
 401 001c B3F804C0 		ldrh	ip, [r3, #4]
 402              		.loc 1 344 0
 403 0020 D0F808A0 		ldr	sl, [r0, #8]
 404 0024 2468     		ldr	r4, [r4, #0]
 405              		.loc 1 350 0
 406 0026 826A     		ldr	r2, [r0, #40]
 407              		.loc 1 351 0
 408 0028 9F69     		ldr	r7, [r3, #24]
 409              		.loc 1 352 0
 410 002a DE69     		ldr	r6, [r3, #28]
 411              		.loc 1 353 0
 412 002c 186A     		ldr	r0, [r3, #32]
 413              	.LVL9:
 414              		.loc 1 354 0
 415 002e D3F824B0 		ldr	fp, [r3, #36]
 416              		.loc 1 355 0
 417 0032 9B6A     		ldr	r3, [r3, #40]
 418              	.LVL10:
 419              		.loc 1 344 0
 420 0034 C4F80CA0 		str	sl, [r4, #12]
 421              		.loc 1 339 0
 422 0038 012D     		cmp	r5, #1
 423              		.loc 1 342 0
 424 003a 88BF     		it	hi
 425 003c 41F00801 		orrhi	r1, r1, #8
 426              	.LVL11:
 427              		.loc 1 345 0
 428 0040 05FB0CFC 		mul	ip, r5, ip
 429              		.loc 1 359 0
 430 0044 49F08069 		orr	r9, r9, #67108864
 431              		.loc 1 361 0
 432 0048 48F44078 		orr	r8, r8, #768
 433              		.loc 1 345 0
 434 004c C4F804C0 		str	ip, [r4, #4]
 435              		.loc 1 359 0
 436 0050 49F48075 		orr	r5, r9, #256
 437              		.loc 1 347 0
 438 0054 2160     		str	r1, [r4, #0]
 439              		.loc 1 361 0
 440 0056 48F00308 		orr	r8, r8, #3
 441              		.loc 1 350 0
 442 005a 0021     		movs	r1, #0
 443              	.LVL12:
 444 005c 1160     		str	r1, [r2, #0]
 445              		.loc 1 351 0
 446 005e D760     		str	r7, [r2, #12]
 447              		.loc 1 352 0
 448 0060 1661     		str	r6, [r2, #16]
 449              		.loc 1 353 0
 450 0062 D062     		str	r0, [r2, #44]
ARM GAS  /tmp/ccbOgSVP.s 			page 9


 451              		.loc 1 354 0
 452 0064 C2F830B0 		str	fp, [r2, #48]
 453              		.loc 1 355 0
 454 0068 5363     		str	r3, [r2, #52]
 455              		.loc 1 359 0
 456 006a 5560     		str	r5, [r2, #4]
 457              		.loc 1 360 0
 458 006c C2F80880 		str	r8, [r2, #8]
 459              		.loc 1 362 0
 460 0070 BDE8F00F 		pop	{r4, r5, r6, r7, r8, r9, sl, fp}
 461 0074 7047     		bx	lr
 462              		.cfi_endproc
 463              	.LFE122:
 464              		.size	adc_lld_start_conversion, .-adc_lld_start_conversion
 465 0076 00BFAFF3 		.section	.text.adc_lld_stop_conversion,"ax",%progbits
 465      0080AFF3 
 465      0080
 466              		.align	2
 467              		.p2align 4,,15
 468              		.global	adc_lld_stop_conversion
 469              		.thumb
 470              		.thumb_func
 471              		.type	adc_lld_stop_conversion, %function
 472              	adc_lld_stop_conversion:
 473              	.LFB123:
 474              		.loc 1 371 0
 475              		.cfi_startproc
 476              		@ args = 0, pretend = 0, frame = 0
 477              		@ frame_needed = 0, uses_anonymous_args = 0
 478              		@ link register save eliminated.
 479              	.LVL13:
 480              		.loc 1 373 0
 481 0000 C16A     		ldr	r1, [r0, #44]
 482 0002 0A68     		ldr	r2, [r1, #0]
 483              		.loc 1 371 0
 484 0004 10B4     		push	{r4}
 485              	.LCFI4:
 486              		.cfi_def_cfa_offset 4
 487              		.loc 1 373 0
 488 0006 1468     		ldr	r4, [r2, #0]
 489              		.cfi_offset 4, -4
 490 0008 24F00103 		bic	r3, r4, #1
 491 000c 1360     		str	r3, [r2, #0]
 492              	.L29:
 493              		.loc 1 373 0 is_stmt 0 discriminator 1
 494 000e 1368     		ldr	r3, [r2, #0]
 495 0010 13F00103 		ands	r3, r3, #1
 496 0014 FBD1     		bne	.L29
 497              		.loc 1 373 0 discriminator 2
 498 0016 0C7A     		ldrb	r4, [r1, #8]	@ zero_extendqisi2
 499              		.loc 1 374 0 is_stmt 1 discriminator 2
 500 0018 826A     		ldr	r2, [r0, #40]
 501              		.loc 1 373 0 discriminator 2
 502 001a 4968     		ldr	r1, [r1, #4]
 503 001c 3D20     		movs	r0, #61
 504              	.LVL14:
 505 001e A040     		lsls	r0, r0, r4
ARM GAS  /tmp/ccbOgSVP.s 			page 10


 506 0020 0860     		str	r0, [r1, #0]
 507              		.loc 1 376 0 discriminator 2
 508 0022 0120     		movs	r0, #1
 509              		.loc 1 374 0 discriminator 2
 510 0024 5360     		str	r3, [r2, #4]
 511              		.loc 1 375 0 discriminator 2
 512 0026 9360     		str	r3, [r2, #8]
 513              		.loc 1 376 0 discriminator 2
 514 0028 9060     		str	r0, [r2, #8]
 515              		.loc 1 377 0 discriminator 2
 516 002a 10BC     		pop	{r4}
 517 002c 7047     		bx	lr
 518              		.cfi_endproc
 519              	.LFE123:
 520              		.size	adc_lld_stop_conversion, .-adc_lld_stop_conversion
 521 002e 00BF     		.section	.text.adc_lld_serve_rx_interrupt,"ax",%progbits
 522              		.align	2
 523              		.p2align 4,,15
 524              		.thumb
 525              		.thumb_func
 526              		.type	adc_lld_serve_rx_interrupt, %function
 527              	adc_lld_serve_rx_interrupt:
 528              	.LFB117:
 529              		.loc 1 87 0
 530              		.cfi_startproc
 531              		@ args = 0, pretend = 0, frame = 0
 532              		@ frame_needed = 0, uses_anonymous_args = 0
 533              	.LVL15:
 534              		.loc 1 90 0
 535 0000 11F00C0F 		tst	r1, #12
 536              		.loc 1 87 0
 537 0004 38B5     		push	{r3, r4, r5, lr}
 538              	.LCFI5:
 539              		.cfi_def_cfa_offset 16
 540              		.loc 1 87 0
 541 0006 0D46     		mov	r5, r1
 542              		.cfi_offset 14, -4
 543              		.cfi_offset 5, -8
 544              		.cfi_offset 4, -12
 545              		.cfi_offset 3, -16
 546 0008 0446     		mov	r4, r0
 547              		.loc 1 90 0
 548 000a 45D1     		bne	.L44
 549              		.loc 1 98 0
 550 000c 0369     		ldr	r3, [r0, #16]
 551 000e 002B     		cmp	r3, #0
 552 0010 41D0     		beq	.L31
 553              		.loc 1 99 0
 554 0012 11F0100F 		tst	r1, #16
 555 0016 05D0     		beq	.L36
 556              		.loc 1 101 0
 557 0018 9B68     		ldr	r3, [r3, #8]
 558 001a 1BB1     		cbz	r3, .L36
 559              		.loc 1 101 0 is_stmt 0 discriminator 1
 560 001c C268     		ldr	r2, [r0, #12]
 561 001e 8168     		ldr	r1, [r0, #8]
 562              	.LVL16:
ARM GAS  /tmp/ccbOgSVP.s 			page 11


 563 0020 5208     		lsrs	r2, r2, #1
 564 0022 9847     		blx	r3
 565              	.LVL17:
 566              	.L36:
 567              		.loc 1 103 0 is_stmt 1
 568 0024 15F0200F 		tst	r5, #32
 569 0028 35D0     		beq	.L31
 570              		.loc 1 105 0
 571 002a 2369     		ldr	r3, [r4, #16]
 572 002c 1868     		ldr	r0, [r3, #0]
 573 002e 60B1     		cbz	r0, .L37
 574              		.loc 1 105 0 is_stmt 0 discriminator 1
 575 0030 9B68     		ldr	r3, [r3, #8]
 576 0032 002B     		cmp	r3, #0
 577 0034 2FD0     		beq	.L31
 578              		.loc 1 105 0 discriminator 3
 579 0036 E268     		ldr	r2, [r4, #12]
 580 0038 012A     		cmp	r2, #1
 581 003a 4CD9     		bls	.L38
 582              	.LBB5:
 583              		.loc 1 105 0 discriminator 4
 584 003c A168     		ldr	r1, [r4, #8]
 585 003e 5208     		lsrs	r2, r2, #1
 586              	.LVL18:
 587 0040 2046     		mov	r0, r4
 588 0042 01EB4201 		add	r1, r1, r2, lsl #1
 589 0046 9847     		blx	r3
 590              	.LVL19:
 591 0048 38BD     		pop	{r3, r4, r5, pc}
 592              	.L37:
 593              	.LBE5:
 594              		.loc 1 105 0 discriminator 2
 595 004a 2046     		mov	r0, r4
 596 004c FFF7FEFF 		bl	adc_lld_stop_conversion
 597 0050 2369     		ldr	r3, [r4, #16]
 598 0052 9B68     		ldr	r3, [r3, #8]
 599 0054 002B     		cmp	r3, #0
 600 0056 45D0     		beq	.L39
 601              		.loc 1 105 0 discriminator 6
 602 0058 E268     		ldr	r2, [r4, #12]
 603 005a 0420     		movs	r0, #4
 604 005c 012A     		cmp	r2, #1
 605 005e 2070     		strb	r0, [r4, #0]
 606 0060 43D9     		bls	.L40
 607              	.LBB6:
 608              		.loc 1 105 0 discriminator 8
 609 0062 A168     		ldr	r1, [r4, #8]
 610 0064 5208     		lsrs	r2, r2, #1
 611              	.LVL20:
 612 0066 2046     		mov	r0, r4
 613 0068 01EB4201 		add	r1, r1, r2, lsl #1
 614 006c 9847     		blx	r3
 615              	.LVL21:
 616              	.L41:
 617              	.LBE6:
 618              		.loc 1 105 0 discriminator 10
 619 006e 94F800C0 		ldrb	ip, [r4, #0]	@ zero_extendqisi2
ARM GAS  /tmp/ccbOgSVP.s 			page 12


 620 0072 BCF1040F 		cmp	ip, #4
 621 0076 35D0     		beq	.L39
 622              	.L42:
 623              		.loc 1 105 0 discriminator 12
 624 0078 0022     		movs	r2, #0
 625 007a 2261     		str	r2, [r4, #16]
 626              	.LBB7:
 627 007c 2023     		movs	r3, #32
 628              	.LVL22:
 629              	@ 105 "../libs/ChibiOS_2.4.0/os/hal/platforms/STM32F4xx/adc_lld.c" 1
 630 007e 83F31188 		msr     BASEPRI, r3
 631              	@ 0 "" 2
 632              	.LVL23:
 633              		.thumb
 634              	.LBE7:
 635 0082 6369     		ldr	r3, [r4, #20]
 636              	.LVL24:
 637 0084 23B1     		cbz	r3, .L43
 638              	.LVL25:
 639              	.LBB8:
 640              		.loc 1 105 0 discriminator 13
 641 0086 6261     		str	r2, [r4, #20]
 642 0088 1846     		mov	r0, r3
 643 008a 5A62     		str	r2, [r3, #36]
 644 008c FFF7FEFF 		bl	chSchReadyI
 645              	.LVL26:
 646              	.L43:
 647              	.LBE8:
 648              	.LBB9:
 649              		.loc 1 105 0 discriminator 14
 650 0090 0023     		movs	r3, #0
 651              	.LVL27:
 652              	@ 105 "../libs/ChibiOS_2.4.0/os/hal/platforms/STM32F4xx/adc_lld.c" 1
 653 0092 83F31188 		msr     BASEPRI, r3
 654              	@ 0 "" 2
 655              	.LVL28:
 656              		.thumb
 657              	.L31:
 658 0096 38BD     		pop	{r3, r4, r5, pc}
 659              	.LVL29:
 660              	.L44:
 661              	.LBE9:
 662              		.loc 1 93 0 is_stmt 1
 663 0098 FFF7FEFF 		bl	adc_lld_stop_conversion
 664 009c 2369     		ldr	r3, [r4, #16]
 665 009e DB68     		ldr	r3, [r3, #12]
 666 00a0 3BB1     		cbz	r3, .L33
 667              		.loc 1 93 0 is_stmt 0 discriminator 1
 668 00a2 0522     		movs	r2, #5
 669 00a4 2046     		mov	r0, r4
 670 00a6 0021     		movs	r1, #0
 671 00a8 2270     		strb	r2, [r4, #0]
 672 00aa 9847     		blx	r3
 673 00ac 2078     		ldrb	r0, [r4, #0]	@ zero_extendqisi2
 674 00ae 0528     		cmp	r0, #5
 675 00b0 15D0     		beq	.L45
 676              	.L33:
ARM GAS  /tmp/ccbOgSVP.s 			page 13


 677              		.loc 1 93 0 discriminator 2
 678 00b2 0022     		movs	r2, #0
 679 00b4 2261     		str	r2, [r4, #16]
 680              	.LBB10:
 681 00b6 2023     		movs	r3, #32
 682              	.LVL30:
 683              	@ 93 "../libs/ChibiOS_2.4.0/os/hal/platforms/STM32F4xx/adc_lld.c" 1
 684 00b8 83F31188 		msr     BASEPRI, r3
 685              	@ 0 "" 2
 686              	.LVL31:
 687              		.thumb
 688              	.LBE10:
 689 00bc 6369     		ldr	r3, [r4, #20]
 690              	.LVL32:
 691 00be 33B1     		cbz	r3, .L34
 692              	.LVL33:
 693              	.LBB11:
 694              		.loc 1 93 0 discriminator 4
 695 00c0 6261     		str	r2, [r4, #20]
 696 00c2 4FF0FF32 		mov	r2, #-1
 697 00c6 1846     		mov	r0, r3
 698 00c8 5A62     		str	r2, [r3, #36]
 699 00ca FFF7FEFF 		bl	chSchReadyI
 700              	.LVL34:
 701              	.L34:
 702              	.LBE11:
 703              	.LBB12:
 704              		.loc 1 93 0 discriminator 5
 705 00ce 0023     		movs	r3, #0
 706              	.LVL35:
 707              	@ 93 "../libs/ChibiOS_2.4.0/os/hal/platforms/STM32F4xx/adc_lld.c" 1
 708 00d0 83F31188 		msr     BASEPRI, r3
 709              	@ 0 "" 2
 710              	.LVL36:
 711              		.thumb
 712 00d4 38BD     		pop	{r3, r4, r5, pc}
 713              	.LVL37:
 714              	.L38:
 715              	.LBE12:
 716              		.loc 1 105 0 is_stmt 1 discriminator 5
 717 00d6 2046     		mov	r0, r4
 718 00d8 A168     		ldr	r1, [r4, #8]
 719 00da 9847     		blx	r3
 720 00dc 38BD     		pop	{r3, r4, r5, pc}
 721              	.L45:
 722              		.loc 1 93 0 discriminator 3
 723 00de 0221     		movs	r1, #2
 724 00e0 2170     		strb	r1, [r4, #0]
 725 00e2 E6E7     		b	.L33
 726              	.L39:
 727              		.loc 1 105 0 discriminator 7
 728 00e4 0222     		movs	r2, #2
 729 00e6 2270     		strb	r2, [r4, #0]
 730 00e8 C6E7     		b	.L42
 731              	.L40:
 732              		.loc 1 105 0 is_stmt 0 discriminator 9
 733 00ea 2046     		mov	r0, r4
ARM GAS  /tmp/ccbOgSVP.s 			page 14


 734 00ec A168     		ldr	r1, [r4, #8]
 735 00ee 9847     		blx	r3
 736 00f0 BDE7     		b	.L41
 737              		.cfi_endproc
 738              	.LFE117:
 739              		.size	adc_lld_serve_rx_interrupt, .-adc_lld_serve_rx_interrupt
 740 00f2 00BFAFF3 		.section	.text.Vector88,"ax",%progbits
 740      0080AFF3 
 740      0080AFF3 
 740      0080
 741              		.align	2
 742              		.p2align 4,,15
 743              		.global	Vector88
 744              		.thumb
 745              		.thumb_func
 746              		.type	Vector88, %function
 747              	Vector88:
 748              	.LFB118:
 749              		.loc 1 122 0 is_stmt 1
 750              		.cfi_startproc
 751              		@ args = 0, pretend = 0, frame = 0
 752              		@ frame_needed = 0, uses_anonymous_args = 0
 753              		.loc 1 128 0
 754 0000 504B     		ldr	r3, .L61
 755 0002 1A68     		ldr	r2, [r3, #0]
 756              	.LVL38:
 757              		.loc 1 129 0
 758 0004 0021     		movs	r1, #0
 759              		.loc 1 132 0
 760 0006 12F0200F 		tst	r2, #32
 761              		.loc 1 122 0
 762 000a 10B5     		push	{r4, lr}
 763              	.LCFI6:
 764              		.cfi_def_cfa_offset 8
 765              		.loc 1 129 0
 766 000c 1960     		str	r1, [r3, #0]
 767              		.loc 1 132 0
 768 000e 05D0     		beq	.L47
 769              		.cfi_offset 14, -4
 770              		.cfi_offset 4, -8
 771              		.loc 1 132 0 is_stmt 0 discriminator 1
 772 0010 4D4C     		ldr	r4, .L61+4
 773 0012 E16A     		ldr	r1, [r4, #44]
 774 0014 0A68     		ldr	r2, [r1, #0]
 775              	.LVL39:
 776 0016 5068     		ldr	r0, [r2, #4]
 777 0018 0028     		cmp	r0, #0
 778 001a 64D1     		bne	.L56
 779              	.LVL40:
 780              	.L47:
 781              		.loc 1 142 0 is_stmt 1
 782 001c 4B4B     		ldr	r3, .L61+8
 783              	.LVL41:
 784 001e 1868     		ldr	r0, [r3, #0]
 785              	.LVL42:
 786              		.loc 1 143 0
 787 0020 0022     		movs	r2, #0
ARM GAS  /tmp/ccbOgSVP.s 			page 15


 788              		.loc 1 146 0
 789 0022 10F0200F 		tst	r0, #32
 790              		.loc 1 143 0
 791 0026 1A60     		str	r2, [r3, #0]
 792              		.loc 1 146 0
 793 0028 05D0     		beq	.L50
 794              		.loc 1 146 0 is_stmt 0 discriminator 1
 795 002a 494C     		ldr	r4, .L61+12
 796 002c E26A     		ldr	r2, [r4, #44]
 797 002e 1068     		ldr	r0, [r2, #0]
 798              	.LVL43:
 799 0030 4168     		ldr	r1, [r0, #4]
 800 0032 0029     		cmp	r1, #0
 801 0034 32D1     		bne	.L57
 802              	.LVL44:
 803              	.L50:
 804              		.loc 1 156 0 is_stmt 1
 805 0036 474B     		ldr	r3, .L61+16
 806              	.LVL45:
 807 0038 1868     		ldr	r0, [r3, #0]
 808              	.LVL46:
 809              		.loc 1 157 0
 810 003a 0022     		movs	r2, #0
 811              		.loc 1 160 0
 812 003c 10F0200F 		tst	r0, #32
 813              		.loc 1 157 0
 814 0040 1A60     		str	r2, [r3, #0]
 815              		.loc 1 160 0
 816 0042 27D0     		beq	.L53
 817              		.loc 1 160 0 is_stmt 0 discriminator 1
 818 0044 444C     		ldr	r4, .L61+20
 819 0046 E26A     		ldr	r2, [r4, #44]
 820 0048 1068     		ldr	r0, [r2, #0]
 821              	.LVL47:
 822 004a 4168     		ldr	r1, [r0, #4]
 823 004c 11B3     		cbz	r1, .L53
 824              		.loc 1 163 0 is_stmt 1
 825 004e 2369     		ldr	r3, [r4, #16]
 826 0050 03B3     		cbz	r3, .L53
 827              		.loc 1 164 0
 828 0052 2046     		mov	r0, r4
 829 0054 FFF7FEFF 		bl	adc_lld_stop_conversion
 830 0058 2169     		ldr	r1, [r4, #16]
 831 005a CB68     		ldr	r3, [r1, #12]
 832 005c 4BB1     		cbz	r3, .L54
 833              		.loc 1 164 0 is_stmt 0 discriminator 1
 834 005e 0520     		movs	r0, #5
 835 0060 2070     		strb	r0, [r4, #0]
 836 0062 0121     		movs	r1, #1
 837 0064 2046     		mov	r0, r4
 838 0066 9847     		blx	r3
 839 0068 94F800C0 		ldrb	ip, [r4, #0]	@ zero_extendqisi2
 840 006c BCF1050F 		cmp	ip, #5
 841 0070 5ED0     		beq	.L58
 842              	.L54:
 843              		.loc 1 164 0 discriminator 2
 844 0072 0022     		movs	r2, #0
ARM GAS  /tmp/ccbOgSVP.s 			page 16


 845 0074 2261     		str	r2, [r4, #16]
 846              	.LBB13:
 847 0076 2023     		movs	r3, #32
 848              	.LVL48:
 849              	@ 164 "../libs/ChibiOS_2.4.0/os/hal/platforms/STM32F4xx/adc_lld.c" 1
 850 0078 83F31188 		msr     BASEPRI, r3
 851              	@ 0 "" 2
 852              	.LVL49:
 853              		.thumb
 854              	.LBE13:
 855 007c 6069     		ldr	r0, [r4, #20]
 856 007e 30B1     		cbz	r0, .L55
 857              	.LVL50:
 858              	.LBB14:
 859              		.loc 1 164 0 discriminator 4
 860 0080 354B     		ldr	r3, .L61+20
 861              	.LVL51:
 862 0082 4FF0FF31 		mov	r1, #-1
 863 0086 4162     		str	r1, [r0, #36]
 864 0088 5A61     		str	r2, [r3, #20]
 865 008a FFF7FEFF 		bl	chSchReadyI
 866              	.LVL52:
 867              	.L55:
 868              	.LBE14:
 869              	.LBB15:
 870              		.loc 1 164 0 discriminator 5
 871 008e 0023     		movs	r3, #0
 872              	.LVL53:
 873              	@ 164 "../libs/ChibiOS_2.4.0/os/hal/platforms/STM32F4xx/adc_lld.c" 1
 874 0090 83F31188 		msr     BASEPRI, r3
 875              	@ 0 "" 2
 876              	.LVL54:
 877              		.thumb
 878              	.L53:
 879              	.LBE15:
 880              		.loc 1 170 0 is_stmt 1
 881 0094 BDE81040 		pop	{r4, lr}
 882              		.loc 1 169 0
 883 0098 FFF7FEBF 		b	_port_irq_epilogue
 884              	.LVL55:
 885              	.L57:
 886              		.loc 1 149 0
 887 009c 2369     		ldr	r3, [r4, #16]
 888 009e 002B     		cmp	r3, #0
 889 00a0 C9D0     		beq	.L50
 890              		.loc 1 150 0
 891 00a2 2046     		mov	r0, r4
 892 00a4 FFF7FEFF 		bl	adc_lld_stop_conversion
 893 00a8 2169     		ldr	r1, [r4, #16]
 894 00aa CB68     		ldr	r3, [r1, #12]
 895 00ac 4BB1     		cbz	r3, .L51
 896              		.loc 1 150 0 is_stmt 0 discriminator 1
 897 00ae 0520     		movs	r0, #5
 898 00b0 2070     		strb	r0, [r4, #0]
 899 00b2 0121     		movs	r1, #1
 900 00b4 2046     		mov	r0, r4
 901 00b6 9847     		blx	r3
ARM GAS  /tmp/ccbOgSVP.s 			page 17


 902 00b8 94F800C0 		ldrb	ip, [r4, #0]	@ zero_extendqisi2
 903 00bc BCF1050F 		cmp	ip, #5
 904 00c0 3CD0     		beq	.L59
 905              	.L51:
 906              		.loc 1 150 0 discriminator 2
 907 00c2 0022     		movs	r2, #0
 908 00c4 2261     		str	r2, [r4, #16]
 909              	.LBB16:
 910 00c6 2023     		movs	r3, #32
 911              	.LVL56:
 912              	@ 150 "../libs/ChibiOS_2.4.0/os/hal/platforms/STM32F4xx/adc_lld.c" 1
 913 00c8 83F31188 		msr     BASEPRI, r3
 914              	@ 0 "" 2
 915              	.LVL57:
 916              		.thumb
 917              	.LBE16:
 918 00cc 6069     		ldr	r0, [r4, #20]
 919 00ce 30B1     		cbz	r0, .L52
 920              	.LVL58:
 921              	.LBB17:
 922              		.loc 1 150 0 discriminator 4
 923 00d0 1F4B     		ldr	r3, .L61+12
 924              	.LVL59:
 925 00d2 4FF0FF31 		mov	r1, #-1
 926 00d6 4162     		str	r1, [r0, #36]
 927 00d8 5A61     		str	r2, [r3, #20]
 928 00da FFF7FEFF 		bl	chSchReadyI
 929              	.LVL60:
 930              	.L52:
 931              	.LBE17:
 932              	.LBB18:
 933              		.loc 1 150 0 discriminator 5
 934 00de 0023     		movs	r3, #0
 935              	.LVL61:
 936              	@ 150 "../libs/ChibiOS_2.4.0/os/hal/platforms/STM32F4xx/adc_lld.c" 1
 937 00e0 83F31188 		msr     BASEPRI, r3
 938              	@ 0 "" 2
 939              	.LVL62:
 940              		.thumb
 941 00e4 A7E7     		b	.L50
 942              	.LVL63:
 943              	.L56:
 944              	.LBE18:
 945              		.loc 1 135 0 is_stmt 1
 946 00e6 2369     		ldr	r3, [r4, #16]
 947 00e8 002B     		cmp	r3, #0
 948 00ea 97D0     		beq	.L47
 949              		.loc 1 136 0
 950 00ec 2046     		mov	r0, r4
 951 00ee FFF7FEFF 		bl	adc_lld_stop_conversion
 952 00f2 2069     		ldr	r0, [r4, #16]
 953 00f4 C368     		ldr	r3, [r0, #12]
 954 00f6 4BB1     		cbz	r3, .L48
 955              		.loc 1 136 0 is_stmt 0 discriminator 1
 956 00f8 0522     		movs	r2, #5
 957 00fa 0121     		movs	r1, #1
 958 00fc 2270     		strb	r2, [r4, #0]
ARM GAS  /tmp/ccbOgSVP.s 			page 18


 959 00fe 2046     		mov	r0, r4
 960 0100 9847     		blx	r3
 961 0102 94F800C0 		ldrb	ip, [r4, #0]	@ zero_extendqisi2
 962 0106 BCF1050F 		cmp	ip, #5
 963 010a 14D0     		beq	.L60
 964              	.L48:
 965              		.loc 1 136 0 discriminator 2
 966 010c 0022     		movs	r2, #0
 967 010e 2261     		str	r2, [r4, #16]
 968              	.LBB19:
 969 0110 2023     		movs	r3, #32
 970              	.LVL64:
 971              	@ 136 "../libs/ChibiOS_2.4.0/os/hal/platforms/STM32F4xx/adc_lld.c" 1
 972 0112 83F31188 		msr     BASEPRI, r3
 973              	@ 0 "" 2
 974              	.LVL65:
 975              		.thumb
 976              	.LBE19:
 977 0116 6069     		ldr	r0, [r4, #20]
 978 0118 30B1     		cbz	r0, .L49
 979              	.LVL66:
 980              	.LBB20:
 981              		.loc 1 136 0 discriminator 4
 982 011a 0B4B     		ldr	r3, .L61+4
 983              	.LVL67:
 984 011c 4FF0FF31 		mov	r1, #-1
 985 0120 4162     		str	r1, [r0, #36]
 986 0122 5A61     		str	r2, [r3, #20]
 987 0124 FFF7FEFF 		bl	chSchReadyI
 988              	.LVL68:
 989              	.L49:
 990              	.LBE20:
 991              	.LBB21:
 992              		.loc 1 136 0 discriminator 5
 993 0128 0023     		movs	r3, #0
 994              	.LVL69:
 995              	@ 136 "../libs/ChibiOS_2.4.0/os/hal/platforms/STM32F4xx/adc_lld.c" 1
 996 012a 83F31188 		msr     BASEPRI, r3
 997              	@ 0 "" 2
 998              	.LVL70:
 999              		.thumb
 1000 012e 75E7     		b	.L47
 1001              	.LVL71:
 1002              	.L58:
 1003              	.LBE21:
 1004              		.loc 1 164 0 is_stmt 1 discriminator 3
 1005 0130 0222     		movs	r2, #2
 1006 0132 2270     		strb	r2, [r4, #0]
 1007 0134 9DE7     		b	.L54
 1008              	.L60:
 1009              		.loc 1 136 0 discriminator 3
 1010 0136 0221     		movs	r1, #2
 1011 0138 2170     		strb	r1, [r4, #0]
 1012 013a E7E7     		b	.L48
 1013              	.L59:
 1014              		.loc 1 150 0 discriminator 3
 1015 013c 0222     		movs	r2, #2
ARM GAS  /tmp/ccbOgSVP.s 			page 19


 1016 013e 2270     		strb	r2, [r4, #0]
 1017 0140 BFE7     		b	.L51
 1018              	.L62:
 1019 0142 00BF     		.align	2
 1020              	.L61:
 1021 0144 00200140 		.word	1073815552
 1022 0148 00000000 		.word	.LANCHOR0
 1023 014c 00210140 		.word	1073815808
 1024 0150 00000000 		.word	.LANCHOR1
 1025 0154 00220140 		.word	1073816064
 1026 0158 00000000 		.word	.LANCHOR2
 1027              		.cfi_endproc
 1028              	.LFE118:
 1029              		.size	Vector88, .-Vector88
 1030 015c AFF30080 		.section	.text.adcSTM32EnableTSVREFE,"ax",%progbits
 1031              		.align	2
 1032              		.p2align 4,,15
 1033              		.global	adcSTM32EnableTSVREFE
 1034              		.thumb
 1035              		.thumb_func
 1036              		.type	adcSTM32EnableTSVREFE, %function
 1037              	adcSTM32EnableTSVREFE:
 1038              	.LFB124:
 1039              		.loc 1 385 0
 1040              		.cfi_startproc
 1041              		@ args = 0, pretend = 0, frame = 0
 1042              		@ frame_needed = 0, uses_anonymous_args = 0
 1043              		@ link register save eliminated.
 1044              		.loc 1 387 0
 1045 0000 024B     		ldr	r3, .L64
 1046 0002 5868     		ldr	r0, [r3, #4]
 1047 0004 40F40002 		orr	r2, r0, #8388608
 1048 0008 5A60     		str	r2, [r3, #4]
 1049              		.loc 1 388 0
 1050 000a 7047     		bx	lr
 1051              	.L65:
 1052              		.align	2
 1053              	.L64:
 1054 000c 00230140 		.word	1073816320
 1055              		.cfi_endproc
 1056              	.LFE124:
 1057              		.size	adcSTM32EnableTSVREFE, .-adcSTM32EnableTSVREFE
 1058              		.section	.text.adcSTM32DisableTSVREFE,"ax",%progbits
 1059              		.align	2
 1060              		.p2align 4,,15
 1061              		.global	adcSTM32DisableTSVREFE
 1062              		.thumb
 1063              		.thumb_func
 1064              		.type	adcSTM32DisableTSVREFE, %function
 1065              	adcSTM32DisableTSVREFE:
 1066              	.LFB125:
 1067              		.loc 1 396 0
 1068              		.cfi_startproc
 1069              		@ args = 0, pretend = 0, frame = 0
 1070              		@ frame_needed = 0, uses_anonymous_args = 0
 1071              		@ link register save eliminated.
 1072              		.loc 1 398 0
ARM GAS  /tmp/ccbOgSVP.s 			page 20


 1073 0000 024B     		ldr	r3, .L67
 1074 0002 5868     		ldr	r0, [r3, #4]
 1075 0004 20F40002 		bic	r2, r0, #8388608
 1076 0008 5A60     		str	r2, [r3, #4]
 1077              		.loc 1 399 0
 1078 000a 7047     		bx	lr
 1079              	.L68:
 1080              		.align	2
 1081              	.L67:
 1082 000c 00230140 		.word	1073816320
 1083              		.cfi_endproc
 1084              	.LFE125:
 1085              		.size	adcSTM32DisableTSVREFE, .-adcSTM32DisableTSVREFE
 1086              		.section	.text.adcSTM32EnableVBATE,"ax",%progbits
 1087              		.align	2
 1088              		.p2align 4,,15
 1089              		.global	adcSTM32EnableVBATE
 1090              		.thumb
 1091              		.thumb_func
 1092              		.type	adcSTM32EnableVBATE, %function
 1093              	adcSTM32EnableVBATE:
 1094              	.LFB126:
 1095              		.loc 1 406 0
 1096              		.cfi_startproc
 1097              		@ args = 0, pretend = 0, frame = 0
 1098              		@ frame_needed = 0, uses_anonymous_args = 0
 1099              		@ link register save eliminated.
 1100              		.loc 1 408 0
 1101 0000 024B     		ldr	r3, .L70
 1102 0002 5868     		ldr	r0, [r3, #4]
 1103 0004 40F48002 		orr	r2, r0, #4194304
 1104 0008 5A60     		str	r2, [r3, #4]
 1105              		.loc 1 409 0
 1106 000a 7047     		bx	lr
 1107              	.L71:
 1108              		.align	2
 1109              	.L70:
 1110 000c 00230140 		.word	1073816320
 1111              		.cfi_endproc
 1112              	.LFE126:
 1113              		.size	adcSTM32EnableVBATE, .-adcSTM32EnableVBATE
 1114              		.section	.text.adcSTM32DisableVBATE,"ax",%progbits
 1115              		.align	2
 1116              		.p2align 4,,15
 1117              		.global	adcSTM32DisableVBATE
 1118              		.thumb
 1119              		.thumb_func
 1120              		.type	adcSTM32DisableVBATE, %function
 1121              	adcSTM32DisableVBATE:
 1122              	.LFB127:
 1123              		.loc 1 416 0
 1124              		.cfi_startproc
 1125              		@ args = 0, pretend = 0, frame = 0
 1126              		@ frame_needed = 0, uses_anonymous_args = 0
 1127              		@ link register save eliminated.
 1128              		.loc 1 418 0
 1129 0000 024B     		ldr	r3, .L73
ARM GAS  /tmp/ccbOgSVP.s 			page 21


 1130 0002 5868     		ldr	r0, [r3, #4]
 1131 0004 20F48002 		bic	r2, r0, #4194304
 1132 0008 5A60     		str	r2, [r3, #4]
 1133              		.loc 1 419 0
 1134 000a 7047     		bx	lr
 1135              	.L74:
 1136              		.align	2
 1137              	.L73:
 1138 000c 00230140 		.word	1073816320
 1139              		.cfi_endproc
 1140              	.LFE127:
 1141              		.size	adcSTM32DisableVBATE, .-adcSTM32DisableVBATE
 1142              		.global	ADCD1
 1143              		.global	ADCD2
 1144              		.global	ADCD3
 1145              		.section	.bss.ADCD1,"aw",%nobits
 1146              		.align	2
 1147              		.set	.LANCHOR0,. + 0
 1148              		.type	ADCD1, %object
 1149              		.size	ADCD1, 52
 1150              	ADCD1:
 1151 0000 00000000 		.space	52
 1151      00000000 
 1151      00000000 
 1151      00000000 
 1151      00000000 
 1152              		.section	.bss.ADCD2,"aw",%nobits
 1153              		.align	2
 1154              		.set	.LANCHOR1,. + 0
 1155              		.type	ADCD2, %object
 1156              		.size	ADCD2, 52
 1157              	ADCD2:
 1158 0000 00000000 		.space	52
 1158      00000000 
 1158      00000000 
 1158      00000000 
 1158      00000000 
 1159              		.section	.bss.ADCD3,"aw",%nobits
 1160              		.align	2
 1161              		.set	.LANCHOR2,. + 0
 1162              		.type	ADCD3, %object
 1163              		.size	ADCD3, 52
 1164              	ADCD3:
 1165 0000 00000000 		.space	52
 1165      00000000 
 1165      00000000 
 1165      00000000 
 1165      00000000 
 1166              		.text
 1167              	.Letext0:
 1168              		.section	.debug_loc,"",%progbits
 1169              	.Ldebug_loc0:
 1170              	.LLST0:
 1171 0000 00000000 		.4byte	.LFB119
 1172 0004 04000000 		.4byte	.LCFI0
 1173 0008 0200     		.2byte	0x2
 1174 000a 7D       		.byte	0x7d
ARM GAS  /tmp/ccbOgSVP.s 			page 22


 1175 000b 00       		.sleb128 0
 1176 000c 04000000 		.4byte	.LCFI0
 1177 0010 84000000 		.4byte	.LFE119
 1178 0014 0200     		.2byte	0x2
 1179 0016 7D       		.byte	0x7d
 1180 0017 18       		.sleb128 24
 1181 0018 00000000 		.4byte	0x0
 1182 001c 00000000 		.4byte	0x0
 1183              	.LLST1:
 1184 0020 00000000 		.4byte	.LFB120
 1185 0024 06000000 		.4byte	.LCFI1
 1186 0028 0200     		.2byte	0x2
 1187 002a 7D       		.byte	0x7d
 1188 002b 00       		.sleb128 0
 1189 002c 06000000 		.4byte	.LCFI1
 1190 0030 AC000000 		.4byte	.LFE120
 1191 0034 0200     		.2byte	0x2
 1192 0036 7D       		.byte	0x7d
 1193 0037 08       		.sleb128 8
 1194 0038 00000000 		.4byte	0x0
 1195 003c 00000000 		.4byte	0x0
 1196              	.LLST2:
 1197 0040 00000000 		.4byte	.LVL0
 1198 0044 1E000000 		.4byte	.LVL1
 1199 0048 0100     		.2byte	0x1
 1200 004a 50       		.byte	0x50
 1201 004b 1E000000 		.4byte	.LVL1
 1202 004f AC000000 		.4byte	.LFE120
 1203 0053 0100     		.2byte	0x1
 1204 0055 54       		.byte	0x54
 1205 0056 00000000 		.4byte	0x0
 1206 005a 00000000 		.4byte	0x0
 1207              	.LLST3:
 1208 005e 00000000 		.4byte	.LFB121
 1209 0062 06000000 		.4byte	.LCFI2
 1210 0066 0200     		.2byte	0x2
 1211 0068 7D       		.byte	0x7d
 1212 0069 00       		.sleb128 0
 1213 006a 06000000 		.4byte	.LCFI2
 1214 006e 60000000 		.4byte	.LFE121
 1215 0072 0200     		.2byte	0x2
 1216 0074 7D       		.byte	0x7d
 1217 0075 08       		.sleb128 8
 1218 0076 00000000 		.4byte	0x0
 1219 007a 00000000 		.4byte	0x0
 1220              	.LLST4:
 1221 007e 00000000 		.4byte	.LVL2
 1222 0082 0A000000 		.4byte	.LVL3
 1223 0086 0100     		.2byte	0x1
 1224 0088 50       		.byte	0x50
 1225 0089 0A000000 		.4byte	.LVL3
 1226 008d 60000000 		.4byte	.LFE121
 1227 0091 0100     		.2byte	0x1
 1228 0093 54       		.byte	0x54
 1229 0094 00000000 		.4byte	0x0
 1230 0098 00000000 		.4byte	0x0
 1231              	.LLST5:
ARM GAS  /tmp/ccbOgSVP.s 			page 23


 1232 009c 00000000 		.4byte	.LFB122
 1233 00a0 0A000000 		.4byte	.LCFI3
 1234 00a4 0200     		.2byte	0x2
 1235 00a6 7D       		.byte	0x7d
 1236 00a7 00       		.sleb128 0
 1237 00a8 0A000000 		.4byte	.LCFI3
 1238 00ac 76000000 		.4byte	.LFE122
 1239 00b0 0200     		.2byte	0x2
 1240 00b2 7D       		.byte	0x7d
 1241 00b3 20       		.sleb128 32
 1242 00b4 00000000 		.4byte	0x0
 1243 00b8 00000000 		.4byte	0x0
 1244              	.LLST6:
 1245 00bc 00000000 		.4byte	.LVL4
 1246 00c0 0C000000 		.4byte	.LVL7
 1247 00c4 0100     		.2byte	0x1
 1248 00c6 50       		.byte	0x50
 1249 00c7 10000000 		.4byte	.LVL8
 1250 00cb 2E000000 		.4byte	.LVL9
 1251 00cf 0100     		.2byte	0x1
 1252 00d1 50       		.byte	0x50
 1253 00d2 00000000 		.4byte	0x0
 1254 00d6 00000000 		.4byte	0x0
 1255              	.LLST7:
 1256 00da 04000000 		.4byte	.LVL6
 1257 00de 10000000 		.4byte	.LVL8
 1258 00e2 0200     		.2byte	0x2
 1259 00e4 70       		.byte	0x70
 1260 00e5 30       		.sleb128 48
 1261 00e6 10000000 		.4byte	.LVL8
 1262 00ea 40000000 		.4byte	.LVL11
 1263 00ee 0100     		.2byte	0x1
 1264 00f0 51       		.byte	0x51
 1265 00f1 40000000 		.4byte	.LVL11
 1266 00f5 5C000000 		.4byte	.LVL12
 1267 00f9 0100     		.2byte	0x1
 1268 00fb 51       		.byte	0x51
 1269 00fc 5C000000 		.4byte	.LVL12
 1270 0100 76000000 		.4byte	.LFE122
 1271 0104 0200     		.2byte	0x2
 1272 0106 74       		.byte	0x74
 1273 0107 00       		.sleb128 0
 1274 0108 00000000 		.4byte	0x0
 1275 010c 00000000 		.4byte	0x0
 1276              	.LLST8:
 1277 0110 02000000 		.4byte	.LVL5
 1278 0114 2E000000 		.4byte	.LVL9
 1279 0118 0200     		.2byte	0x2
 1280 011a 70       		.byte	0x70
 1281 011b 10       		.sleb128 16
 1282 011c 2E000000 		.4byte	.LVL9
 1283 0120 34000000 		.4byte	.LVL10
 1284 0124 0100     		.2byte	0x1
 1285 0126 53       		.byte	0x53
 1286 0127 00000000 		.4byte	0x0
 1287 012b 00000000 		.4byte	0x0
 1288              	.LLST9:
ARM GAS  /tmp/ccbOgSVP.s 			page 24


 1289 012f 00000000 		.4byte	.LFB123
 1290 0133 06000000 		.4byte	.LCFI4
 1291 0137 0200     		.2byte	0x2
 1292 0139 7D       		.byte	0x7d
 1293 013a 00       		.sleb128 0
 1294 013b 06000000 		.4byte	.LCFI4
 1295 013f 2E000000 		.4byte	.LFE123
 1296 0143 0200     		.2byte	0x2
 1297 0145 7D       		.byte	0x7d
 1298 0146 04       		.sleb128 4
 1299 0147 00000000 		.4byte	0x0
 1300 014b 00000000 		.4byte	0x0
 1301              	.LLST10:
 1302 014f 00000000 		.4byte	.LVL13
 1303 0153 1E000000 		.4byte	.LVL14
 1304 0157 0100     		.2byte	0x1
 1305 0159 50       		.byte	0x50
 1306 015a 00000000 		.4byte	0x0
 1307 015e 00000000 		.4byte	0x0
 1308              	.LLST11:
 1309 0162 00000000 		.4byte	.LFB117
 1310 0166 06000000 		.4byte	.LCFI5
 1311 016a 0200     		.2byte	0x2
 1312 016c 7D       		.byte	0x7d
 1313 016d 00       		.sleb128 0
 1314 016e 06000000 		.4byte	.LCFI5
 1315 0172 F2000000 		.4byte	.LFE117
 1316 0176 0200     		.2byte	0x2
 1317 0178 7D       		.byte	0x7d
 1318 0179 10       		.sleb128 16
 1319 017a 00000000 		.4byte	0x0
 1320 017e 00000000 		.4byte	0x0
 1321              	.LLST12:
 1322 0182 00000000 		.4byte	.LVL15
 1323 0186 23000000 		.4byte	.LVL17-1
 1324 018a 0100     		.2byte	0x1
 1325 018c 50       		.byte	0x50
 1326 018d 23000000 		.4byte	.LVL17-1
 1327 0191 F2000000 		.4byte	.LFE117
 1328 0195 0100     		.2byte	0x1
 1329 0197 54       		.byte	0x54
 1330 0198 00000000 		.4byte	0x0
 1331 019c 00000000 		.4byte	0x0
 1332              	.LLST13:
 1333 01a0 00000000 		.4byte	.LVL15
 1334 01a4 20000000 		.4byte	.LVL16
 1335 01a8 0100     		.2byte	0x1
 1336 01aa 51       		.byte	0x51
 1337 01ab 20000000 		.4byte	.LVL16
 1338 01af F2000000 		.4byte	.LFE117
 1339 01b3 0100     		.2byte	0x1
 1340 01b5 55       		.byte	0x55
 1341 01b6 00000000 		.4byte	0x0
 1342 01ba 00000000 		.4byte	0x0
 1343              	.LLST14:
 1344 01be 40000000 		.4byte	.LVL18
 1345 01c2 47000000 		.4byte	.LVL19-1
ARM GAS  /tmp/ccbOgSVP.s 			page 25


 1346 01c6 0100     		.2byte	0x1
 1347 01c8 52       		.byte	0x52
 1348 01c9 00000000 		.4byte	0x0
 1349 01cd 00000000 		.4byte	0x0
 1350              	.LLST15:
 1351 01d1 66000000 		.4byte	.LVL20
 1352 01d5 6D000000 		.4byte	.LVL21-1
 1353 01d9 0100     		.2byte	0x1
 1354 01db 52       		.byte	0x52
 1355 01dc 00000000 		.4byte	0x0
 1356 01e0 00000000 		.4byte	0x0
 1357              	.LLST16:
 1358 01e4 82000000 		.4byte	.LVL23
 1359 01e8 84000000 		.4byte	.LVL24
 1360 01ec 0100     		.2byte	0x1
 1361 01ee 53       		.byte	0x53
 1362 01ef 00000000 		.4byte	0x0
 1363 01f3 00000000 		.4byte	0x0
 1364              	.LLST17:
 1365 01f7 86000000 		.4byte	.LVL25
 1366 01fb 8F000000 		.4byte	.LVL26-1
 1367 01ff 0200     		.2byte	0x2
 1368 0201 74       		.byte	0x74
 1369 0202 14       		.sleb128 20
 1370 0203 00000000 		.4byte	0x0
 1371 0207 00000000 		.4byte	0x0
 1372              	.LLST18:
 1373 020b 96000000 		.4byte	.LVL28
 1374 020f 98000000 		.4byte	.LVL29
 1375 0213 0100     		.2byte	0x1
 1376 0215 53       		.byte	0x53
 1377 0216 00000000 		.4byte	0x0
 1378 021a 00000000 		.4byte	0x0
 1379              	.LLST19:
 1380 021e BC000000 		.4byte	.LVL31
 1381 0222 BE000000 		.4byte	.LVL32
 1382 0226 0100     		.2byte	0x1
 1383 0228 53       		.byte	0x53
 1384 0229 00000000 		.4byte	0x0
 1385 022d 00000000 		.4byte	0x0
 1386              	.LLST20:
 1387 0231 C0000000 		.4byte	.LVL33
 1388 0235 CD000000 		.4byte	.LVL34-1
 1389 0239 0200     		.2byte	0x2
 1390 023b 74       		.byte	0x74
 1391 023c 14       		.sleb128 20
 1392 023d 00000000 		.4byte	0x0
 1393 0241 00000000 		.4byte	0x0
 1394              	.LLST21:
 1395 0245 D4000000 		.4byte	.LVL36
 1396 0249 D6000000 		.4byte	.LVL37
 1397 024d 0100     		.2byte	0x1
 1398 024f 53       		.byte	0x53
 1399 0250 00000000 		.4byte	0x0
 1400 0254 00000000 		.4byte	0x0
 1401              	.LLST22:
 1402 0258 00000000 		.4byte	.LFB118
ARM GAS  /tmp/ccbOgSVP.s 			page 26


 1403 025c 0C000000 		.4byte	.LCFI6
 1404 0260 0200     		.2byte	0x2
 1405 0262 7D       		.byte	0x7d
 1406 0263 00       		.sleb128 0
 1407 0264 0C000000 		.4byte	.LCFI6
 1408 0268 5C010000 		.4byte	.LFE118
 1409 026c 0200     		.2byte	0x2
 1410 026e 7D       		.byte	0x7d
 1411 026f 08       		.sleb128 8
 1412 0270 00000000 		.4byte	0x0
 1413 0274 00000000 		.4byte	0x0
 1414              	.LLST23:
 1415 0278 04000000 		.4byte	.LVL38
 1416 027c 16000000 		.4byte	.LVL39
 1417 0280 0100     		.2byte	0x1
 1418 0282 52       		.byte	0x52
 1419 0283 20000000 		.4byte	.LVL42
 1420 0287 30000000 		.4byte	.LVL43
 1421 028b 0100     		.2byte	0x1
 1422 028d 50       		.byte	0x50
 1423 028e 3A000000 		.4byte	.LVL46
 1424 0292 4A000000 		.4byte	.LVL47
 1425 0296 0100     		.2byte	0x1
 1426 0298 50       		.byte	0x50
 1427 0299 00000000 		.4byte	0x0
 1428 029d 00000000 		.4byte	0x0
 1429              	.LLST24:
 1430 02a1 7C000000 		.4byte	.LVL49
 1431 02a5 82000000 		.4byte	.LVL51
 1432 02a9 0100     		.2byte	0x1
 1433 02ab 53       		.byte	0x53
 1434 02ac 8E000000 		.4byte	.LVL52
 1435 02b0 90000000 		.4byte	.LVL53
 1436 02b4 0100     		.2byte	0x1
 1437 02b6 53       		.byte	0x53
 1438 02b7 00000000 		.4byte	0x0
 1439 02bb 00000000 		.4byte	0x0
 1440              	.LLST25:
 1441 02bf 80000000 		.4byte	.LVL50
 1442 02c3 8D000000 		.4byte	.LVL52-1
 1443 02c7 0500     		.2byte	0x5
 1444 02c9 03       		.byte	0x3
 1445 02ca 14000000 		.4byte	ADCD3+20
 1446 02ce 00000000 		.4byte	0x0
 1447 02d2 00000000 		.4byte	0x0
 1448              	.LLST26:
 1449 02d6 94000000 		.4byte	.LVL54
 1450 02da 9B000000 		.4byte	.LVL55-1
 1451 02de 0100     		.2byte	0x1
 1452 02e0 53       		.byte	0x53
 1453 02e1 00000000 		.4byte	0x0
 1454 02e5 00000000 		.4byte	0x0
 1455              	.LLST27:
 1456 02e9 CC000000 		.4byte	.LVL57
 1457 02ed D2000000 		.4byte	.LVL59
 1458 02f1 0100     		.2byte	0x1
 1459 02f3 53       		.byte	0x53
ARM GAS  /tmp/ccbOgSVP.s 			page 27


 1460 02f4 DE000000 		.4byte	.LVL60
 1461 02f8 E0000000 		.4byte	.LVL61
 1462 02fc 0100     		.2byte	0x1
 1463 02fe 53       		.byte	0x53
 1464 02ff 00000000 		.4byte	0x0
 1465 0303 00000000 		.4byte	0x0
 1466              	.LLST28:
 1467 0307 D0000000 		.4byte	.LVL58
 1468 030b DD000000 		.4byte	.LVL60-1
 1469 030f 0500     		.2byte	0x5
 1470 0311 03       		.byte	0x3
 1471 0312 14000000 		.4byte	ADCD2+20
 1472 0316 00000000 		.4byte	0x0
 1473 031a 00000000 		.4byte	0x0
 1474              	.LLST29:
 1475 031e 36000000 		.4byte	.LVL44
 1476 0322 38000000 		.4byte	.LVL45
 1477 0326 0100     		.2byte	0x1
 1478 0328 53       		.byte	0x53
 1479 0329 E4000000 		.4byte	.LVL62
 1480 032d E6000000 		.4byte	.LVL63
 1481 0331 0100     		.2byte	0x1
 1482 0333 53       		.byte	0x53
 1483 0334 00000000 		.4byte	0x0
 1484 0338 00000000 		.4byte	0x0
 1485              	.LLST30:
 1486 033c 16010000 		.4byte	.LVL65
 1487 0340 1C010000 		.4byte	.LVL67
 1488 0344 0100     		.2byte	0x1
 1489 0346 53       		.byte	0x53
 1490 0347 28010000 		.4byte	.LVL68
 1491 034b 2A010000 		.4byte	.LVL69
 1492 034f 0100     		.2byte	0x1
 1493 0351 53       		.byte	0x53
 1494 0352 00000000 		.4byte	0x0
 1495 0356 00000000 		.4byte	0x0
 1496              	.LLST31:
 1497 035a 1A010000 		.4byte	.LVL66
 1498 035e 27010000 		.4byte	.LVL68-1
 1499 0362 0500     		.2byte	0x5
 1500 0364 03       		.byte	0x3
 1501 0365 14000000 		.4byte	ADCD1+20
 1502 0369 00000000 		.4byte	0x0
 1503 036d 00000000 		.4byte	0x0
 1504              	.LLST32:
 1505 0371 1C000000 		.4byte	.LVL40
 1506 0375 1E000000 		.4byte	.LVL41
 1507 0379 0100     		.2byte	0x1
 1508 037b 53       		.byte	0x53
 1509 037c 2E010000 		.4byte	.LVL70
 1510 0380 30010000 		.4byte	.LVL71
 1511 0384 0100     		.2byte	0x1
 1512 0386 53       		.byte	0x53
 1513 0387 00000000 		.4byte	0x0
 1514 038b 00000000 		.4byte	0x0
 1515              		.file 2 "/opt/stm32/arm-none-eabi-2011.03/bin/../lib/gcc/arm-none-eabi/4.5.2/include/stddef.h"
 1516              		.file 3 "/opt/stm32/arm-none-eabi-2011.03/bin/../lib/gcc/arm-none-eabi/4.5.2/../../../../arm-none-
ARM GAS  /tmp/ccbOgSVP.s 			page 28


 1517              		.file 4 "../libs/ChibiOS_2.4.0/os/ports/GCC/ARMCMx/chtypes.h"
 1518              		.file 5 "../libs/ChibiOS_2.4.0/os/kernel/include/chlists.h"
 1519              		.file 6 "../libs/ChibiOS_2.4.0/os/kernel/include/chthreads.h"
 1520              		.file 7 "../libs/ChibiOS_2.4.0/os/ports/GCC/ARMCMx/chcore_v7m.h"
 1521              		.file 8 "../libs/ChibiOS_2.4.0/os/kernel/include/chmtx.h"
 1522              		.file 9 "../libs/ChibiOS_2.4.0/os/hal/platforms/STM32F4xx/stm32f4xx.h"
 1523              		.file 10 "../libs/ChibiOS_2.4.0/os/hal/platforms/STM32F4xx/stm32_dma.h"
 1524              		.file 11 "../libs/ChibiOS_2.4.0/os/hal/include/adc.h"
 1525              		.file 12 "../libs/ChibiOS_2.4.0/os/hal/platforms/STM32F4xx/adc_lld.h"
 1526              		.file 13 "../libs/ChibiOS_2.4.0/os/ports/common/ARMCMx/CMSIS/include/core_cm4.h"
 1527              		.section	.debug_info
 1528 0000 5B110000 		.4byte	0x115b
 1529 0004 0200     		.2byte	0x2
 1530 0006 00000000 		.4byte	.Ldebug_abbrev0
 1531 000a 04       		.byte	0x4
 1532 000b 01       		.uleb128 0x1
 1533 000c 12080000 		.4byte	.LASF255
 1534 0010 01       		.byte	0x1
 1535 0011 93080000 		.4byte	.LASF256
 1536 0015 55060000 		.4byte	.LASF257
 1537 0019 00000000 		.4byte	0x0
 1538 001d 00000000 		.4byte	0x0
 1539 0021 00000000 		.4byte	.Ldebug_ranges0+0x0
 1540 0025 00000000 		.4byte	.Ldebug_line0
 1541 0029 02       		.uleb128 0x2
 1542 002a 04       		.byte	0x4
 1543 002b 05       		.byte	0x5
 1544 002c 696E7400 		.ascii	"int\000"
 1545 0030 03       		.uleb128 0x3
 1546 0031 05000000 		.4byte	.LASF2
 1547 0035 02       		.byte	0x2
 1548 0036 D3       		.byte	0xd3
 1549 0037 3B000000 		.4byte	0x3b
 1550 003b 04       		.uleb128 0x4
 1551 003c 04       		.byte	0x4
 1552 003d 07       		.byte	0x7
 1553 003e AA060000 		.4byte	.LASF0
 1554 0042 04       		.uleb128 0x4
 1555 0043 01       		.byte	0x1
 1556 0044 06       		.byte	0x6
 1557 0045 47020000 		.4byte	.LASF1
 1558 0049 03       		.uleb128 0x3
 1559 004a 5A020000 		.4byte	.LASF3
 1560 004e 03       		.byte	0x3
 1561 004f 2A       		.byte	0x2a
 1562 0050 54000000 		.4byte	0x54
 1563 0054 04       		.uleb128 0x4
 1564 0055 01       		.byte	0x1
 1565 0056 08       		.byte	0x8
 1566 0057 9C020000 		.4byte	.LASF4
 1567 005b 04       		.uleb128 0x4
 1568 005c 02       		.byte	0x2
 1569 005d 05       		.byte	0x5
 1570 005e C1090000 		.4byte	.LASF5
 1571 0062 03       		.uleb128 0x3
 1572 0063 3D080000 		.4byte	.LASF6
 1573 0067 03       		.byte	0x3
ARM GAS  /tmp/ccbOgSVP.s 			page 29


 1574 0068 36       		.byte	0x36
 1575 0069 6D000000 		.4byte	0x6d
 1576 006d 04       		.uleb128 0x4
 1577 006e 02       		.byte	0x2
 1578 006f 07       		.byte	0x7
 1579 0070 D20A0000 		.4byte	.LASF7
 1580 0074 03       		.uleb128 0x3
 1581 0075 87000000 		.4byte	.LASF8
 1582 0079 03       		.byte	0x3
 1583 007a 4F       		.byte	0x4f
 1584 007b 7F000000 		.4byte	0x7f
 1585 007f 04       		.uleb128 0x4
 1586 0080 04       		.byte	0x4
 1587 0081 05       		.byte	0x5
 1588 0082 8B010000 		.4byte	.LASF9
 1589 0086 03       		.uleb128 0x3
 1590 0087 740A0000 		.4byte	.LASF10
 1591 008b 03       		.byte	0x3
 1592 008c 50       		.byte	0x50
 1593 008d 91000000 		.4byte	0x91
 1594 0091 04       		.uleb128 0x4
 1595 0092 04       		.byte	0x4
 1596 0093 07       		.byte	0x7
 1597 0094 99040000 		.4byte	.LASF11
 1598 0098 04       		.uleb128 0x4
 1599 0099 08       		.byte	0x8
 1600 009a 05       		.byte	0x5
 1601 009b C8050000 		.4byte	.LASF12
 1602 009f 04       		.uleb128 0x4
 1603 00a0 08       		.byte	0x8
 1604 00a1 07       		.byte	0x7
 1605 00a2 1E080000 		.4byte	.LASF13
 1606 00a6 03       		.uleb128 0x3
 1607 00a7 030A0000 		.4byte	.LASF14
 1608 00ab 04       		.byte	0x4
 1609 00ac 2E       		.byte	0x2e
 1610 00ad 74000000 		.4byte	0x74
 1611 00b1 03       		.uleb128 0x3
 1612 00b2 30090000 		.4byte	.LASF15
 1613 00b6 04       		.byte	0x4
 1614 00b7 2F       		.byte	0x2f
 1615 00b8 49000000 		.4byte	0x49
 1616 00bc 03       		.uleb128 0x3
 1617 00bd BC010000 		.4byte	.LASF16
 1618 00c1 04       		.byte	0x4
 1619 00c2 30       		.byte	0x30
 1620 00c3 49000000 		.4byte	0x49
 1621 00c7 03       		.uleb128 0x3
 1622 00c8 450A0000 		.4byte	.LASF17
 1623 00cc 04       		.byte	0x4
 1624 00cd 31       		.byte	0x31
 1625 00ce 49000000 		.4byte	0x49
 1626 00d2 03       		.uleb128 0x3
 1627 00d3 57000000 		.4byte	.LASF18
 1628 00d7 04       		.byte	0x4
 1629 00d8 32       		.byte	0x32
 1630 00d9 86000000 		.4byte	0x86
ARM GAS  /tmp/ccbOgSVP.s 			page 30


 1631 00dd 03       		.uleb128 0x3
 1632 00de 46080000 		.4byte	.LASF19
 1633 00e2 04       		.byte	0x4
 1634 00e3 33       		.byte	0x33
 1635 00e4 74000000 		.4byte	0x74
 1636 00e8 03       		.uleb128 0x3
 1637 00e9 62020000 		.4byte	.LASF20
 1638 00ed 04       		.byte	0x4
 1639 00ee 35       		.byte	0x35
 1640 00ef 86000000 		.4byte	0x86
 1641 00f3 03       		.uleb128 0x3
 1642 00f4 3C000000 		.4byte	.LASF21
 1643 00f8 04       		.byte	0x4
 1644 00f9 36       		.byte	0x36
 1645 00fa 86000000 		.4byte	0x86
 1646 00fe 03       		.uleb128 0x3
 1647 00ff 190A0000 		.4byte	.LASF22
 1648 0103 05       		.byte	0x5
 1649 0104 2A       		.byte	0x2a
 1650 0105 09010000 		.4byte	0x109
 1651 0109 05       		.uleb128 0x5
 1652 010a 190A0000 		.4byte	.LASF22
 1653 010e 48       		.byte	0x48
 1654 010f 06       		.byte	0x6
 1655 0110 5E       		.byte	0x5e
 1656 0111 20020000 		.4byte	0x220
 1657 0115 06       		.uleb128 0x6
 1658 0116 94010000 		.4byte	.LASF23
 1659 011a 06       		.byte	0x6
 1660 011b 5F       		.byte	0x5f
 1661 011c 45020000 		.4byte	0x245
 1662 0120 02       		.byte	0x2
 1663 0121 23       		.byte	0x23
 1664 0122 00       		.uleb128 0x0
 1665 0123 06       		.uleb128 0x6
 1666 0124 9B010000 		.4byte	.LASF24
 1667 0128 06       		.byte	0x6
 1668 0129 61       		.byte	0x61
 1669 012a 45020000 		.4byte	0x245
 1670 012e 02       		.byte	0x2
 1671 012f 23       		.byte	0x23
 1672 0130 04       		.uleb128 0x4
 1673 0131 06       		.uleb128 0x6
 1674 0132 5B030000 		.4byte	.LASF25
 1675 0136 06       		.byte	0x6
 1676 0137 63       		.byte	0x63
 1677 0138 D2000000 		.4byte	0xd2
 1678 013c 02       		.byte	0x2
 1679 013d 23       		.byte	0x23
 1680 013e 08       		.uleb128 0x8
 1681 013f 06       		.uleb128 0x6
 1682 0140 51000000 		.4byte	.LASF26
 1683 0144 06       		.byte	0x6
 1684 0145 64       		.byte	0x64
 1685 0146 12030000 		.4byte	0x312
 1686 014a 02       		.byte	0x2
 1687 014b 23       		.byte	0x23
ARM GAS  /tmp/ccbOgSVP.s 			page 31


 1688 014c 0C       		.uleb128 0xc
 1689 014d 06       		.uleb128 0x6
 1690 014e 83010000 		.4byte	.LASF27
 1691 0152 06       		.byte	0x6
 1692 0153 66       		.byte	0x66
 1693 0154 45020000 		.4byte	0x245
 1694 0158 02       		.byte	0x2
 1695 0159 23       		.byte	0x23
 1696 015a 10       		.uleb128 0x10
 1697 015b 06       		.uleb128 0x6
 1698 015c 35080000 		.4byte	.LASF28
 1699 0160 06       		.byte	0x6
 1700 0161 67       		.byte	0x67
 1701 0162 45020000 		.4byte	0x245
 1702 0166 02       		.byte	0x2
 1703 0167 23       		.byte	0x23
 1704 0168 14       		.uleb128 0x14
 1705 0169 06       		.uleb128 0x6
 1706 016a 590B0000 		.4byte	.LASF29
 1707 016e 06       		.byte	0x6
 1708 016f 6E       		.byte	0x6e
 1709 0170 BC030000 		.4byte	0x3bc
 1710 0174 02       		.byte	0x2
 1711 0175 23       		.byte	0x23
 1712 0176 18       		.uleb128 0x18
 1713 0177 06       		.uleb128 0x6
 1714 0178 A80B0000 		.4byte	.LASF30
 1715 017c 06       		.byte	0x6
 1716 017d 79       		.byte	0x79
 1717 017e BC000000 		.4byte	0xbc
 1718 0182 02       		.byte	0x2
 1719 0183 23       		.byte	0x23
 1720 0184 1C       		.uleb128 0x1c
 1721 0185 06       		.uleb128 0x6
 1722 0186 98060000 		.4byte	.LASF31
 1723 018a 06       		.byte	0x6
 1724 018b 7D       		.byte	0x7d
 1725 018c B1000000 		.4byte	0xb1
 1726 0190 02       		.byte	0x2
 1727 0191 23       		.byte	0x23
 1728 0192 1D       		.uleb128 0x1d
 1729 0193 06       		.uleb128 0x6
 1730 0194 ED060000 		.4byte	.LASF32
 1731 0198 06       		.byte	0x6
 1732 0199 82       		.byte	0x82
 1733 019a C7000000 		.4byte	0xc7
 1734 019e 02       		.byte	0x2
 1735 019f 23       		.byte	0x23
 1736 01a0 1E       		.uleb128 0x1e
 1737 01a1 06       		.uleb128 0x6
 1738 01a2 85070000 		.4byte	.LASF33
 1739 01a6 06       		.byte	0x6
 1740 01a7 89       		.byte	0x89
 1741 01a8 3A030000 		.4byte	0x33a
 1742 01ac 02       		.byte	0x2
 1743 01ad 23       		.byte	0x23
 1744 01ae 20       		.uleb128 0x20
ARM GAS  /tmp/ccbOgSVP.s 			page 32


 1745 01af 07       		.uleb128 0x7
 1746 01b0 705F7500 		.ascii	"p_u\000"
 1747 01b4 06       		.byte	0x6
 1748 01b5 AE       		.byte	0xae
 1749 01b6 87030000 		.4byte	0x387
 1750 01ba 02       		.byte	0x2
 1751 01bb 23       		.byte	0x23
 1752 01bc 24       		.uleb128 0x24
 1753 01bd 06       		.uleb128 0x6
 1754 01be 7D060000 		.4byte	.LASF34
 1755 01c2 06       		.byte	0x6
 1756 01c3 B3       		.byte	0xb3
 1757 01c4 6D020000 		.4byte	0x26d
 1758 01c8 02       		.byte	0x2
 1759 01c9 23       		.byte	0x23
 1760 01ca 28       		.uleb128 0x28
 1761 01cb 06       		.uleb128 0x6
 1762 01cc 7C000000 		.4byte	.LASF35
 1763 01d0 06       		.byte	0x6
 1764 01d1 B9       		.byte	0xb9
 1765 01d2 4B020000 		.4byte	0x24b
 1766 01d6 02       		.byte	0x2
 1767 01d7 23       		.byte	0x23
 1768 01d8 2C       		.uleb128 0x2c
 1769 01d9 06       		.uleb128 0x6
 1770 01da 980B0000 		.4byte	.LASF36
 1771 01de 06       		.byte	0x6
 1772 01df BD       		.byte	0xbd
 1773 01e0 DD000000 		.4byte	0xdd
 1774 01e4 02       		.byte	0x2
 1775 01e5 23       		.byte	0x23
 1776 01e6 34       		.uleb128 0x34
 1777 01e7 06       		.uleb128 0x6
 1778 01e8 F0030000 		.4byte	.LASF37
 1779 01ec 06       		.byte	0x6
 1780 01ed C3       		.byte	0xc3
 1781 01ee E8000000 		.4byte	0xe8
 1782 01f2 02       		.byte	0x2
 1783 01f3 23       		.byte	0x23
 1784 01f4 38       		.uleb128 0x38
 1785 01f5 06       		.uleb128 0x6
 1786 01f6 CE010000 		.4byte	.LASF38
 1787 01fa 06       		.byte	0x6
 1788 01fb CA       		.byte	0xca
 1789 01fc CE030000 		.4byte	0x3ce
 1790 0200 02       		.byte	0x2
 1791 0201 23       		.byte	0x23
 1792 0202 3C       		.uleb128 0x3c
 1793 0203 06       		.uleb128 0x6
 1794 0204 AC070000 		.4byte	.LASF39
 1795 0208 06       		.byte	0x6
 1796 0209 CE       		.byte	0xce
 1797 020a D2000000 		.4byte	0xd2
 1798 020e 02       		.byte	0x2
 1799 020f 23       		.byte	0x23
 1800 0210 40       		.uleb128 0x40
 1801 0211 06       		.uleb128 0x6
ARM GAS  /tmp/ccbOgSVP.s 			page 33


 1802 0212 D8060000 		.4byte	.LASF40
 1803 0216 06       		.byte	0x6
 1804 0217 D4       		.byte	0xd4
 1805 0218 83020000 		.4byte	0x283
 1806 021c 02       		.byte	0x2
 1807 021d 23       		.byte	0x23
 1808 021e 44       		.uleb128 0x44
 1809 021f 00       		.byte	0x0
 1810 0220 08       		.uleb128 0x8
 1811 0221 08       		.byte	0x8
 1812 0222 05       		.byte	0x5
 1813 0223 61       		.byte	0x61
 1814 0224 45020000 		.4byte	0x245
 1815 0228 06       		.uleb128 0x6
 1816 0229 94010000 		.4byte	.LASF23
 1817 022d 05       		.byte	0x5
 1818 022e 62       		.byte	0x62
 1819 022f 45020000 		.4byte	0x245
 1820 0233 02       		.byte	0x2
 1821 0234 23       		.byte	0x23
 1822 0235 00       		.uleb128 0x0
 1823 0236 06       		.uleb128 0x6
 1824 0237 9B010000 		.4byte	.LASF24
 1825 023b 05       		.byte	0x5
 1826 023c 64       		.byte	0x64
 1827 023d 45020000 		.4byte	0x245
 1828 0241 02       		.byte	0x2
 1829 0242 23       		.byte	0x23
 1830 0243 04       		.uleb128 0x4
 1831 0244 00       		.byte	0x0
 1832 0245 09       		.uleb128 0x9
 1833 0246 04       		.byte	0x4
 1834 0247 FE000000 		.4byte	0xfe
 1835 024b 03       		.uleb128 0x3
 1836 024c 8B0A0000 		.4byte	.LASF41
 1837 0250 05       		.byte	0x5
 1838 0251 66       		.byte	0x66
 1839 0252 20020000 		.4byte	0x220
 1840 0256 08       		.uleb128 0x8
 1841 0257 04       		.byte	0x4
 1842 0258 05       		.byte	0x5
 1843 0259 6B       		.byte	0x6b
 1844 025a 6D020000 		.4byte	0x26d
 1845 025e 06       		.uleb128 0x6
 1846 025f 94010000 		.4byte	.LASF23
 1847 0263 05       		.byte	0x5
 1848 0264 6D       		.byte	0x6d
 1849 0265 45020000 		.4byte	0x245
 1850 0269 02       		.byte	0x2
 1851 026a 23       		.byte	0x23
 1852 026b 00       		.uleb128 0x0
 1853 026c 00       		.byte	0x0
 1854 026d 03       		.uleb128 0x3
 1855 026e 01070000 		.4byte	.LASF42
 1856 0272 05       		.byte	0x5
 1857 0273 70       		.byte	0x70
 1858 0274 56020000 		.4byte	0x256
ARM GAS  /tmp/ccbOgSVP.s 			page 34


 1859 0278 03       		.uleb128 0x3
 1860 0279 F0010000 		.4byte	.LASF43
 1861 027d 07       		.byte	0x7
 1862 027e D7       		.byte	0xd7
 1863 027f 83020000 		.4byte	0x283
 1864 0283 0A       		.uleb128 0xa
 1865 0284 04       		.byte	0x4
 1866 0285 05       		.uleb128 0x5
 1867 0286 E9030000 		.4byte	.LASF44
 1868 028a 24       		.byte	0x24
 1869 028b 07       		.byte	0x7
 1870 028c FE       		.byte	0xfe
 1871 028d 12030000 		.4byte	0x312
 1872 0291 0B       		.uleb128 0xb
 1873 0292 723400   		.ascii	"r4\000"
 1874 0295 07       		.byte	0x7
 1875 0296 1101     		.2byte	0x111
 1876 0298 78020000 		.4byte	0x278
 1877 029c 02       		.byte	0x2
 1878 029d 23       		.byte	0x23
 1879 029e 00       		.uleb128 0x0
 1880 029f 0B       		.uleb128 0xb
 1881 02a0 723500   		.ascii	"r5\000"
 1882 02a3 07       		.byte	0x7
 1883 02a4 1201     		.2byte	0x112
 1884 02a6 78020000 		.4byte	0x278
 1885 02aa 02       		.byte	0x2
 1886 02ab 23       		.byte	0x23
 1887 02ac 04       		.uleb128 0x4
 1888 02ad 0B       		.uleb128 0xb
 1889 02ae 723600   		.ascii	"r6\000"
 1890 02b1 07       		.byte	0x7
 1891 02b2 1301     		.2byte	0x113
 1892 02b4 78020000 		.4byte	0x278
 1893 02b8 02       		.byte	0x2
 1894 02b9 23       		.byte	0x23
 1895 02ba 08       		.uleb128 0x8
 1896 02bb 0B       		.uleb128 0xb
 1897 02bc 723700   		.ascii	"r7\000"
 1898 02bf 07       		.byte	0x7
 1899 02c0 1401     		.2byte	0x114
 1900 02c2 78020000 		.4byte	0x278
 1901 02c6 02       		.byte	0x2
 1902 02c7 23       		.byte	0x23
 1903 02c8 0C       		.uleb128 0xc
 1904 02c9 0B       		.uleb128 0xb
 1905 02ca 723800   		.ascii	"r8\000"
 1906 02cd 07       		.byte	0x7
 1907 02ce 1501     		.2byte	0x115
 1908 02d0 78020000 		.4byte	0x278
 1909 02d4 02       		.byte	0x2
 1910 02d5 23       		.byte	0x23
 1911 02d6 10       		.uleb128 0x10
 1912 02d7 0B       		.uleb128 0xb
 1913 02d8 723900   		.ascii	"r9\000"
 1914 02db 07       		.byte	0x7
 1915 02dc 1601     		.2byte	0x116
ARM GAS  /tmp/ccbOgSVP.s 			page 35


 1916 02de 78020000 		.4byte	0x278
 1917 02e2 02       		.byte	0x2
 1918 02e3 23       		.byte	0x23
 1919 02e4 14       		.uleb128 0x14
 1920 02e5 0B       		.uleb128 0xb
 1921 02e6 72313000 		.ascii	"r10\000"
 1922 02ea 07       		.byte	0x7
 1923 02eb 1701     		.2byte	0x117
 1924 02ed 78020000 		.4byte	0x278
 1925 02f1 02       		.byte	0x2
 1926 02f2 23       		.byte	0x23
 1927 02f3 18       		.uleb128 0x18
 1928 02f4 0B       		.uleb128 0xb
 1929 02f5 72313100 		.ascii	"r11\000"
 1930 02f9 07       		.byte	0x7
 1931 02fa 1801     		.2byte	0x118
 1932 02fc 78020000 		.4byte	0x278
 1933 0300 02       		.byte	0x2
 1934 0301 23       		.byte	0x23
 1935 0302 1C       		.uleb128 0x1c
 1936 0303 0B       		.uleb128 0xb
 1937 0304 6C7200   		.ascii	"lr\000"
 1938 0307 07       		.byte	0x7
 1939 0308 1901     		.2byte	0x119
 1940 030a 78020000 		.4byte	0x278
 1941 030e 02       		.byte	0x2
 1942 030f 23       		.byte	0x23
 1943 0310 20       		.uleb128 0x20
 1944 0311 00       		.byte	0x0
 1945 0312 0C       		.uleb128 0xc
 1946 0313 6E020000 		.4byte	.LASF45
 1947 0317 04       		.byte	0x4
 1948 0318 07       		.byte	0x7
 1949 0319 2301     		.2byte	0x123
 1950 031b 2F030000 		.4byte	0x32f
 1951 031f 0B       		.uleb128 0xb
 1952 0320 72313300 		.ascii	"r13\000"
 1953 0324 07       		.byte	0x7
 1954 0325 2401     		.2byte	0x124
 1955 0327 2F030000 		.4byte	0x32f
 1956 032b 02       		.byte	0x2
 1957 032c 23       		.byte	0x23
 1958 032d 00       		.uleb128 0x0
 1959 032e 00       		.byte	0x0
 1960 032f 09       		.uleb128 0x9
 1961 0330 04       		.byte	0x4
 1962 0331 85020000 		.4byte	0x285
 1963 0335 0D       		.uleb128 0xd
 1964 0336 86000000 		.4byte	0x86
 1965 033a 0D       		.uleb128 0xd
 1966 033b F3000000 		.4byte	0xf3
 1967 033f 05       		.uleb128 0x5
 1968 0340 B8050000 		.4byte	.LASF46
 1969 0344 10       		.byte	0x10
 1970 0345 08       		.byte	0x8
 1971 0346 2C       		.byte	0x2c
 1972 0347 76030000 		.4byte	0x376
ARM GAS  /tmp/ccbOgSVP.s 			page 36


 1973 034b 06       		.uleb128 0x6
 1974 034c F0050000 		.4byte	.LASF47
 1975 0350 08       		.byte	0x8
 1976 0351 2D       		.byte	0x2d
 1977 0352 4B020000 		.4byte	0x24b
 1978 0356 02       		.byte	0x2
 1979 0357 23       		.byte	0x23
 1980 0358 00       		.uleb128 0x0
 1981 0359 06       		.uleb128 0x6
 1982 035a 2D010000 		.4byte	.LASF48
 1983 035e 08       		.byte	0x8
 1984 035f 2F       		.byte	0x2f
 1985 0360 45020000 		.4byte	0x245
 1986 0364 02       		.byte	0x2
 1987 0365 23       		.byte	0x23
 1988 0366 08       		.uleb128 0x8
 1989 0367 06       		.uleb128 0x6
 1990 0368 600B0000 		.4byte	.LASF49
 1991 036c 08       		.byte	0x8
 1992 036d 31       		.byte	0x31
 1993 036e 76030000 		.4byte	0x376
 1994 0372 02       		.byte	0x2
 1995 0373 23       		.byte	0x23
 1996 0374 0C       		.uleb128 0xc
 1997 0375 00       		.byte	0x0
 1998 0376 09       		.uleb128 0x9
 1999 0377 04       		.byte	0x4
 2000 0378 3F030000 		.4byte	0x33f
 2001 037c 03       		.uleb128 0x3
 2002 037d B8050000 		.4byte	.LASF46
 2003 0381 08       		.byte	0x8
 2004 0382 33       		.byte	0x33
 2005 0383 3F030000 		.4byte	0x33f
 2006 0387 0E       		.uleb128 0xe
 2007 0388 04       		.byte	0x4
 2008 0389 06       		.byte	0x6
 2009 038a 90       		.byte	0x90
 2010 038b BC030000 		.4byte	0x3bc
 2011 038f 0F       		.uleb128 0xf
 2012 0390 C00A0000 		.4byte	.LASF50
 2013 0394 06       		.byte	0x6
 2014 0395 97       		.byte	0x97
 2015 0396 DD000000 		.4byte	0xdd
 2016 039a 0F       		.uleb128 0xf
 2017 039b 41010000 		.4byte	.LASF51
 2018 039f 06       		.byte	0x6
 2019 03a0 9E       		.byte	0x9e
 2020 03a1 DD000000 		.4byte	0xdd
 2021 03a5 0F       		.uleb128 0xf
 2022 03a6 6A030000 		.4byte	.LASF52
 2023 03aa 06       		.byte	0x6
 2024 03ab A5       		.byte	0xa5
 2025 03ac 83020000 		.4byte	0x283
 2026 03b0 0F       		.uleb128 0xf
 2027 03b1 53020000 		.4byte	.LASF53
 2028 03b5 06       		.byte	0x6
 2029 03b6 AC       		.byte	0xac
ARM GAS  /tmp/ccbOgSVP.s 			page 37


 2030 03b7 E8000000 		.4byte	0xe8
 2031 03bb 00       		.byte	0x0
 2032 03bc 09       		.uleb128 0x9
 2033 03bd 04       		.byte	0x4
 2034 03be C2030000 		.4byte	0x3c2
 2035 03c2 10       		.uleb128 0x10
 2036 03c3 C7030000 		.4byte	0x3c7
 2037 03c7 04       		.uleb128 0x4
 2038 03c8 01       		.byte	0x1
 2039 03c9 08       		.byte	0x8
 2040 03ca 4F030000 		.4byte	.LASF54
 2041 03ce 09       		.uleb128 0x9
 2042 03cf 04       		.byte	0x4
 2043 03d0 7C030000 		.4byte	0x37c
 2044 03d4 11       		.uleb128 0x11
 2045 03d5 8C070000 		.4byte	.LASF258
 2046 03d9 01       		.byte	0x1
 2047 03da 09       		.byte	0x9
 2048 03db 8C       		.byte	0x8c
 2049 03dc 0F060000 		.4byte	0x60f
 2050 03e0 12       		.uleb128 0x12
 2051 03e1 7B040000 		.4byte	.LASF55
 2052 03e5 72       		.sleb128 -14
 2053 03e6 12       		.uleb128 0x12
 2054 03e7 BA040000 		.4byte	.LASF56
 2055 03eb 74       		.sleb128 -12
 2056 03ec 12       		.uleb128 0x12
 2057 03ed 84050000 		.4byte	.LASF57
 2058 03f1 75       		.sleb128 -11
 2059 03f2 12       		.uleb128 0x12
 2060 03f3 3F030000 		.4byte	.LASF58
 2061 03f7 76       		.sleb128 -10
 2062 03f8 12       		.uleb128 0x12
 2063 03f9 20060000 		.4byte	.LASF59
 2064 03fd 7B       		.sleb128 -5
 2065 03fe 12       		.uleb128 0x12
 2066 03ff 73090000 		.4byte	.LASF60
 2067 0403 7C       		.sleb128 -4
 2068 0404 12       		.uleb128 0x12
 2069 0405 070B0000 		.4byte	.LASF61
 2070 0409 7E       		.sleb128 -2
 2071 040a 12       		.uleb128 0x12
 2072 040b 18020000 		.4byte	.LASF62
 2073 040f 7F       		.sleb128 -1
 2074 0410 12       		.uleb128 0x12
 2075 0411 8F040000 		.4byte	.LASF63
 2076 0415 00       		.sleb128 0
 2077 0416 12       		.uleb128 0x12
 2078 0417 12090000 		.4byte	.LASF64
 2079 041b 01       		.sleb128 1
 2080 041c 12       		.uleb128 0x12
 2081 041d D0040000 		.4byte	.LASF65
 2082 0421 02       		.sleb128 2
 2083 0422 12       		.uleb128 0x12
 2084 0423 610A0000 		.4byte	.LASF66
 2085 0427 03       		.sleb128 3
 2086 0428 12       		.uleb128 0x12
ARM GAS  /tmp/ccbOgSVP.s 			page 38


 2087 0429 C9000000 		.4byte	.LASF67
 2088 042d 04       		.sleb128 4
 2089 042e 12       		.uleb128 0x12
 2090 042f CB090000 		.4byte	.LASF68
 2091 0433 05       		.sleb128 5
 2092 0434 12       		.uleb128 0x12
 2093 0435 25090000 		.4byte	.LASF69
 2094 0439 06       		.sleb128 6
 2095 043a 12       		.uleb128 0x12
 2096 043b 1B040000 		.4byte	.LASF70
 2097 043f 07       		.sleb128 7
 2098 0440 12       		.uleb128 0x12
 2099 0441 71080000 		.4byte	.LASF71
 2100 0445 08       		.sleb128 8
 2101 0446 12       		.uleb128 0x12
 2102 0447 FC0A0000 		.4byte	.LASF72
 2103 044b 09       		.sleb128 9
 2104 044c 12       		.uleb128 0x12
 2105 044d C70A0000 		.4byte	.LASF73
 2106 0451 0A       		.sleb128 10
 2107 0452 12       		.uleb128 0x12
 2108 0453 C2070000 		.4byte	.LASF74
 2109 0457 0B       		.sleb128 11
 2110 0458 12       		.uleb128 0x12
 2111 0459 29070000 		.4byte	.LASF75
 2112 045d 0C       		.sleb128 12
 2113 045e 12       		.uleb128 0x12
 2114 045f 76020000 		.4byte	.LASF76
 2115 0463 0D       		.sleb128 13
 2116 0464 12       		.uleb128 0x12
 2117 0465 F1090000 		.4byte	.LASF77
 2118 0469 0E       		.sleb128 14
 2119 046a 12       		.uleb128 0x12
 2120 046b 38090000 		.4byte	.LASF78
 2121 046f 0F       		.sleb128 15
 2122 0470 12       		.uleb128 0x12
 2123 0471 33040000 		.4byte	.LASF79
 2124 0475 10       		.sleb128 16
 2125 0476 12       		.uleb128 0x12
 2126 0477 91070000 		.4byte	.LASF80
 2127 047b 11       		.sleb128 17
 2128 047c 12       		.uleb128 0x12
 2129 047d D5080000 		.4byte	.LASF81
 2130 0481 12       		.sleb128 18
 2131 0482 12       		.uleb128 0x12
 2132 0483 26040000 		.4byte	.LASF82
 2133 0487 13       		.sleb128 19
 2134 0488 12       		.uleb128 0x12
 2135 0489 71030000 		.4byte	.LASF83
 2136 048d 14       		.sleb128 20
 2137 048e 12       		.uleb128 0x12
 2138 048f 7D0A0000 		.4byte	.LASF84
 2139 0493 15       		.sleb128 21
 2140 0494 12       		.uleb128 0x12
 2141 0495 E0040000 		.4byte	.LASF85
 2142 0499 16       		.sleb128 22
 2143 049a 12       		.uleb128 0x12
ARM GAS  /tmp/ccbOgSVP.s 			page 39


 2144 049b 980A0000 		.4byte	.LASF86
 2145 049f 17       		.sleb128 23
 2146 04a0 12       		.uleb128 0x12
 2147 04a1 A5050000 		.4byte	.LASF87
 2148 04a5 18       		.sleb128 24
 2149 04a6 12       		.uleb128 0x12
 2150 04a7 250A0000 		.4byte	.LASF88
 2151 04ab 19       		.sleb128 25
 2152 04ac 12       		.uleb128 0x12
 2153 04ad D8010000 		.4byte	.LASF89
 2154 04b1 1A       		.sleb128 26
 2155 04b2 12       		.uleb128 0x12
 2156 04b3 00040000 		.4byte	.LASF90
 2157 04b7 1B       		.sleb128 27
 2158 04b8 12       		.uleb128 0x12
 2159 04b9 EB000000 		.4byte	.LASF91
 2160 04bd 1C       		.sleb128 28
 2161 04be 12       		.uleb128 0x12
 2162 04bf 5B080000 		.4byte	.LASF92
 2163 04c3 1D       		.sleb128 29
 2164 04c4 12       		.uleb128 0x12
 2165 04c5 A6030000 		.4byte	.LASF93
 2166 04c9 1E       		.sleb128 30
 2167 04ca 12       		.uleb128 0x12
 2168 04cb D0030000 		.4byte	.LASF94
 2169 04cf 1F       		.sleb128 31
 2170 04d0 12       		.uleb128 0x12
 2171 04d1 E5020000 		.4byte	.LASF95
 2172 04d5 20       		.sleb128 32
 2173 04d6 12       		.uleb128 0x12
 2174 04d7 E0060000 		.4byte	.LASF96
 2175 04db 21       		.sleb128 33
 2176 04dc 12       		.uleb128 0x12
 2177 04dd 32050000 		.4byte	.LASF97
 2178 04e1 22       		.sleb128 34
 2179 04e2 12       		.uleb128 0x12
 2180 04e3 FE050000 		.4byte	.LASF98
 2181 04e7 23       		.sleb128 35
 2182 04e8 12       		.uleb128 0x12
 2183 04e9 5B010000 		.4byte	.LASF99
 2184 04ed 24       		.sleb128 36
 2185 04ee 12       		.uleb128 0x12
 2186 04ef 65080000 		.4byte	.LASF100
 2187 04f3 25       		.sleb128 37
 2188 04f4 12       		.uleb128 0x12
 2189 04f5 B0030000 		.4byte	.LASF101
 2190 04f9 26       		.sleb128 38
 2191 04fa 12       		.uleb128 0x12
 2192 04fb 25020000 		.4byte	.LASF102
 2193 04ff 27       		.sleb128 39
 2194 0500 12       		.uleb128 0x12
 2195 0501 4C080000 		.4byte	.LASF103
 2196 0505 28       		.sleb128 40
 2197 0506 12       		.uleb128 0x12
 2198 0507 EC070000 		.4byte	.LASF104
 2199 050b 29       		.sleb128 41
 2200 050c 12       		.uleb128 0x12
ARM GAS  /tmp/ccbOgSVP.s 			page 40


 2201 050d 87060000 		.4byte	.LASF105
 2202 0511 2A       		.sleb128 42
 2203 0512 12       		.uleb128 0x12
 2204 0513 65010000 		.4byte	.LASF106
 2205 0517 2B       		.sleb128 43
 2206 0518 12       		.uleb128 0x12
 2207 0519 0C000000 		.4byte	.LASF107
 2208 051d 2C       		.sleb128 44
 2209 051e 12       		.uleb128 0x12
 2210 051f 45040000 		.4byte	.LASF108
 2211 0523 2D       		.sleb128 45
 2212 0524 12       		.uleb128 0x12
 2213 0525 E50A0000 		.4byte	.LASF109
 2214 0529 2E       		.sleb128 46
 2215 052a 12       		.uleb128 0x12
 2216 052b 260B0000 		.4byte	.LASF110
 2217 052f 2F       		.sleb128 47
 2218 0530 12       		.uleb128 0x12
 2219 0531 1B090000 		.4byte	.LASF111
 2220 0535 30       		.sleb128 48
 2221 0536 12       		.uleb128 0x12
 2222 0537 F20A0000 		.4byte	.LASF112
 2223 053b 31       		.sleb128 49
 2224 053c 12       		.uleb128 0x12
 2225 053d 29030000 		.4byte	.LASF113
 2226 0541 32       		.sleb128 50
 2227 0542 12       		.uleb128 0x12
 2228 0543 BF000000 		.4byte	.LASF114
 2229 0547 33       		.sleb128 51
 2230 0548 12       		.uleb128 0x12
 2231 0549 4A060000 		.4byte	.LASF115
 2232 054d 34       		.sleb128 52
 2233 054e 12       		.uleb128 0x12
 2234 054f 9A050000 		.4byte	.LASF116
 2235 0553 35       		.sleb128 53
 2236 0554 12       		.uleb128 0x12
 2237 0555 B7060000 		.4byte	.LASF117
 2238 0559 36       		.sleb128 54
 2239 055a 12       		.uleb128 0x12
 2240 055b BE050000 		.4byte	.LASF118
 2241 055f 37       		.sleb128 55
 2242 0560 12       		.uleb128 0x12
 2243 0561 01050000 		.4byte	.LASF119
 2244 0565 38       		.sleb128 56
 2245 0566 12       		.uleb128 0x12
 2246 0567 AD000000 		.4byte	.LASF120
 2247 056b 39       		.sleb128 57
 2248 056c 12       		.uleb128 0x12
 2249 056d 860B0000 		.4byte	.LASF121
 2250 0571 3A       		.sleb128 58
 2251 0572 12       		.uleb128 0x12
 2252 0573 3B070000 		.4byte	.LASF122
 2253 0577 3B       		.sleb128 59
 2254 0578 12       		.uleb128 0x12
 2255 0579 AA020000 		.4byte	.LASF123
 2256 057d 3C       		.sleb128 60
 2257 057e 12       		.uleb128 0x12
ARM GAS  /tmp/ccbOgSVP.s 			page 41


 2258 057f AC090000 		.4byte	.LASF124
 2259 0583 3D       		.sleb128 61
 2260 0584 12       		.uleb128 0x12
 2261 0585 D6050000 		.4byte	.LASF125
 2262 0589 3E       		.sleb128 62
 2263 058a 12       		.uleb128 0x12
 2264 058b 4D070000 		.4byte	.LASF126
 2265 058f 3F       		.sleb128 63
 2266 0590 12       		.uleb128 0x12
 2267 0591 13010000 		.4byte	.LASF127
 2268 0595 C000     		.sleb128 64
 2269 0597 12       		.uleb128 0x12
 2270 0598 98030000 		.4byte	.LASF128
 2271 059c C100     		.sleb128 65
 2272 059e 12       		.uleb128 0x12
 2273 059f FD020000 		.4byte	.LASF129
 2274 05a3 C200     		.sleb128 66
 2275 05a5 12       		.uleb128 0x12
 2276 05a6 6F040000 		.4byte	.LASF130
 2277 05aa C300     		.sleb128 67
 2278 05ac 12       		.uleb128 0x12
 2279 05ad AA010000 		.4byte	.LASF131
 2280 05b1 C400     		.sleb128 68
 2281 05b3 12       		.uleb128 0x12
 2282 05b4 59090000 		.4byte	.LASF132
 2283 05b8 C500     		.sleb128 69
 2284 05ba 12       		.uleb128 0x12
 2285 05bb 5D040000 		.4byte	.LASF133
 2286 05bf C600     		.sleb128 70
 2287 05c1 12       		.uleb128 0x12
 2288 05c2 21010000 		.4byte	.LASF134
 2289 05c6 C700     		.sleb128 71
 2290 05c8 12       		.uleb128 0x12
 2291 05c9 85090000 		.4byte	.LASF135
 2292 05cd C800     		.sleb128 72
 2293 05cf 12       		.uleb128 0x12
 2294 05d0 FB070000 		.4byte	.LASF136
 2295 05d4 C900     		.sleb128 73
 2296 05d6 12       		.uleb128 0x12
 2297 05d7 4D0A0000 		.4byte	.LASF137
 2298 05db CA00     		.sleb128 74
 2299 05dd 12       		.uleb128 0x12
 2300 05de 130B0000 		.4byte	.LASF138
 2301 05e2 CB00     		.sleb128 75
 2302 05e4 12       		.uleb128 0x12
 2303 05e5 4A010000 		.4byte	.LASF139
 2304 05e9 CC00     		.sleb128 76
 2305 05eb 12       		.uleb128 0x12
 2306 05ec E4050000 		.4byte	.LASF140
 2307 05f0 CD00     		.sleb128 77
 2308 05f2 12       		.uleb128 0x12
 2309 05f3 D4000000 		.4byte	.LASF141
 2310 05f7 CE00     		.sleb128 78
 2311 05f9 12       		.uleb128 0x12
 2312 05fa 08080000 		.4byte	.LASF142
 2313 05fe CF00     		.sleb128 79
 2314 0600 12       		.uleb128 0x12
ARM GAS  /tmp/ccbOgSVP.s 			page 42


 2315 0601 0D040000 		.4byte	.LASF143
 2316 0605 D000     		.sleb128 80
 2317 0607 12       		.uleb128 0x12
 2318 0608 41060000 		.4byte	.LASF144
 2319 060c D100     		.sleb128 81
 2320 060e 00       		.byte	0x0
 2321 060f 13       		.uleb128 0x13
 2322 0610 86000000 		.4byte	0x86
 2323 0614 1F060000 		.4byte	0x61f
 2324 0618 14       		.uleb128 0x14
 2325 0619 3B000000 		.4byte	0x3b
 2326 061d 01       		.byte	0x1
 2327 061e 00       		.byte	0x0
 2328 061f 0D       		.uleb128 0xd
 2329 0620 74000000 		.4byte	0x74
 2330 0624 15       		.uleb128 0x15
 2331 0625 50       		.byte	0x50
 2332 0626 09       		.byte	0x9
 2333 0627 2C01     		.2byte	0x12c
 2334 0629 58070000 		.4byte	0x758
 2335 062d 0B       		.uleb128 0xb
 2336 062e 535200   		.ascii	"SR\000"
 2337 0631 09       		.byte	0x9
 2338 0632 2E01     		.2byte	0x12e
 2339 0634 35030000 		.4byte	0x335
 2340 0638 02       		.byte	0x2
 2341 0639 23       		.byte	0x23
 2342 063a 00       		.uleb128 0x0
 2343 063b 0B       		.uleb128 0xb
 2344 063c 43523100 		.ascii	"CR1\000"
 2345 0640 09       		.byte	0x9
 2346 0641 2F01     		.2byte	0x12f
 2347 0643 35030000 		.4byte	0x335
 2348 0647 02       		.byte	0x2
 2349 0648 23       		.byte	0x23
 2350 0649 04       		.uleb128 0x4
 2351 064a 0B       		.uleb128 0xb
 2352 064b 43523200 		.ascii	"CR2\000"
 2353 064f 09       		.byte	0x9
 2354 0650 3001     		.2byte	0x130
 2355 0652 35030000 		.4byte	0x335
 2356 0656 02       		.byte	0x2
 2357 0657 23       		.byte	0x23
 2358 0658 08       		.uleb128 0x8
 2359 0659 16       		.uleb128 0x16
 2360 065a 13050000 		.4byte	.LASF145
 2361 065e 09       		.byte	0x9
 2362 065f 3101     		.2byte	0x131
 2363 0661 35030000 		.4byte	0x335
 2364 0665 02       		.byte	0x2
 2365 0666 23       		.byte	0x23
 2366 0667 0C       		.uleb128 0xc
 2367 0668 16       		.uleb128 0x16
 2368 0669 19050000 		.4byte	.LASF146
 2369 066d 09       		.byte	0x9
 2370 066e 3201     		.2byte	0x132
 2371 0670 35030000 		.4byte	0x335
ARM GAS  /tmp/ccbOgSVP.s 			page 43


 2372 0674 02       		.byte	0x2
 2373 0675 23       		.byte	0x23
 2374 0676 10       		.uleb128 0x10
 2375 0677 16       		.uleb128 0x16
 2376 0678 D9090000 		.4byte	.LASF147
 2377 067c 09       		.byte	0x9
 2378 067d 3301     		.2byte	0x133
 2379 067f 35030000 		.4byte	0x335
 2380 0683 02       		.byte	0x2
 2381 0684 23       		.byte	0x23
 2382 0685 14       		.uleb128 0x14
 2383 0686 16       		.uleb128 0x16
 2384 0687 DF090000 		.4byte	.LASF148
 2385 068b 09       		.byte	0x9
 2386 068c 3401     		.2byte	0x134
 2387 068e 35030000 		.4byte	0x335
 2388 0692 02       		.byte	0x2
 2389 0693 23       		.byte	0x23
 2390 0694 18       		.uleb128 0x18
 2391 0695 16       		.uleb128 0x16
 2392 0696 E5090000 		.4byte	.LASF149
 2393 069a 09       		.byte	0x9
 2394 069b 3501     		.2byte	0x135
 2395 069d 35030000 		.4byte	0x335
 2396 06a1 02       		.byte	0x2
 2397 06a2 23       		.byte	0x23
 2398 06a3 1C       		.uleb128 0x1c
 2399 06a4 16       		.uleb128 0x16
 2400 06a5 EB090000 		.4byte	.LASF150
 2401 06a9 09       		.byte	0x9
 2402 06aa 3601     		.2byte	0x136
 2403 06ac 35030000 		.4byte	0x335
 2404 06b0 02       		.byte	0x2
 2405 06b1 23       		.byte	0x23
 2406 06b2 20       		.uleb128 0x20
 2407 06b3 0B       		.uleb128 0xb
 2408 06b4 48545200 		.ascii	"HTR\000"
 2409 06b8 09       		.byte	0x9
 2410 06b9 3701     		.2byte	0x137
 2411 06bb 35030000 		.4byte	0x335
 2412 06bf 02       		.byte	0x2
 2413 06c0 23       		.byte	0x23
 2414 06c1 24       		.uleb128 0x24
 2415 06c2 0B       		.uleb128 0xb
 2416 06c3 4C545200 		.ascii	"LTR\000"
 2417 06c7 09       		.byte	0x9
 2418 06c8 3801     		.2byte	0x138
 2419 06ca 35030000 		.4byte	0x335
 2420 06ce 02       		.byte	0x2
 2421 06cf 23       		.byte	0x23
 2422 06d0 28       		.uleb128 0x28
 2423 06d1 16       		.uleb128 0x16
 2424 06d2 6D000000 		.4byte	.LASF151
 2425 06d6 09       		.byte	0x9
 2426 06d7 3901     		.2byte	0x139
 2427 06d9 35030000 		.4byte	0x335
 2428 06dd 02       		.byte	0x2
ARM GAS  /tmp/ccbOgSVP.s 			page 44


 2429 06de 23       		.byte	0x23
 2430 06df 2C       		.uleb128 0x2c
 2431 06e0 16       		.uleb128 0x16
 2432 06e1 72000000 		.4byte	.LASF152
 2433 06e5 09       		.byte	0x9
 2434 06e6 3A01     		.2byte	0x13a
 2435 06e8 35030000 		.4byte	0x335
 2436 06ec 02       		.byte	0x2
 2437 06ed 23       		.byte	0x23
 2438 06ee 30       		.uleb128 0x30
 2439 06ef 16       		.uleb128 0x16
 2440 06f0 77000000 		.4byte	.LASF153
 2441 06f4 09       		.byte	0x9
 2442 06f5 3B01     		.2byte	0x13b
 2443 06f7 35030000 		.4byte	0x335
 2444 06fb 02       		.byte	0x2
 2445 06fc 23       		.byte	0x23
 2446 06fd 34       		.uleb128 0x34
 2447 06fe 16       		.uleb128 0x16
 2448 06ff 200A0000 		.4byte	.LASF154
 2449 0703 09       		.byte	0x9
 2450 0704 3C01     		.2byte	0x13c
 2451 0706 35030000 		.4byte	0x335
 2452 070a 02       		.byte	0x2
 2453 070b 23       		.byte	0x23
 2454 070c 38       		.uleb128 0x38
 2455 070d 16       		.uleb128 0x16
 2456 070e 0A0A0000 		.4byte	.LASF155
 2457 0712 09       		.byte	0x9
 2458 0713 3D01     		.2byte	0x13d
 2459 0715 35030000 		.4byte	0x335
 2460 0719 02       		.byte	0x2
 2461 071a 23       		.byte	0x23
 2462 071b 3C       		.uleb128 0x3c
 2463 071c 16       		.uleb128 0x16
 2464 071d 0F0A0000 		.4byte	.LASF156
 2465 0721 09       		.byte	0x9
 2466 0722 3E01     		.2byte	0x13e
 2467 0724 35030000 		.4byte	0x335
 2468 0728 02       		.byte	0x2
 2469 0729 23       		.byte	0x23
 2470 072a 40       		.uleb128 0x40
 2471 072b 16       		.uleb128 0x16
 2472 072c 140A0000 		.4byte	.LASF157
 2473 0730 09       		.byte	0x9
 2474 0731 3F01     		.2byte	0x13f
 2475 0733 35030000 		.4byte	0x335
 2476 0737 02       		.byte	0x2
 2477 0738 23       		.byte	0x23
 2478 0739 44       		.uleb128 0x44
 2479 073a 16       		.uleb128 0x16
 2480 073b 35010000 		.4byte	.LASF158
 2481 073f 09       		.byte	0x9
 2482 0740 4001     		.2byte	0x140
 2483 0742 35030000 		.4byte	0x335
 2484 0746 02       		.byte	0x2
 2485 0747 23       		.byte	0x23
ARM GAS  /tmp/ccbOgSVP.s 			page 45


 2486 0748 48       		.uleb128 0x48
 2487 0749 0B       		.uleb128 0xb
 2488 074a 445200   		.ascii	"DR\000"
 2489 074d 09       		.byte	0x9
 2490 074e 4101     		.2byte	0x141
 2491 0750 35030000 		.4byte	0x335
 2492 0754 02       		.byte	0x2
 2493 0755 23       		.byte	0x23
 2494 0756 4C       		.uleb128 0x4c
 2495 0757 00       		.byte	0x0
 2496 0758 17       		.uleb128 0x17
 2497 0759 DD030000 		.4byte	.LASF159
 2498 075d 09       		.byte	0x9
 2499 075e 4201     		.2byte	0x142
 2500 0760 24060000 		.4byte	0x624
 2501 0764 15       		.uleb128 0x15
 2502 0765 0C       		.byte	0xc
 2503 0766 09       		.byte	0x9
 2504 0767 4401     		.2byte	0x144
 2505 0769 9B070000 		.4byte	0x79b
 2506 076d 0B       		.uleb128 0xb
 2507 076e 43535200 		.ascii	"CSR\000"
 2508 0772 09       		.byte	0x9
 2509 0773 4601     		.2byte	0x146
 2510 0775 35030000 		.4byte	0x335
 2511 0779 02       		.byte	0x2
 2512 077a 23       		.byte	0x23
 2513 077b 00       		.uleb128 0x0
 2514 077c 0B       		.uleb128 0xb
 2515 077d 43435200 		.ascii	"CCR\000"
 2516 0781 09       		.byte	0x9
 2517 0782 4701     		.2byte	0x147
 2518 0784 35030000 		.4byte	0x335
 2519 0788 02       		.byte	0x2
 2520 0789 23       		.byte	0x23
 2521 078a 04       		.uleb128 0x4
 2522 078b 0B       		.uleb128 0xb
 2523 078c 43445200 		.ascii	"CDR\000"
 2524 0790 09       		.byte	0x9
 2525 0791 4801     		.2byte	0x148
 2526 0793 35030000 		.4byte	0x335
 2527 0797 02       		.byte	0x2
 2528 0798 23       		.byte	0x23
 2529 0799 08       		.uleb128 0x8
 2530 079a 00       		.byte	0x0
 2531 079b 17       		.uleb128 0x17
 2532 079c 410B0000 		.4byte	.LASF160
 2533 07a0 09       		.byte	0x9
 2534 07a1 4A01     		.2byte	0x14a
 2535 07a3 64070000 		.4byte	0x764
 2536 07a7 15       		.uleb128 0x15
 2537 07a8 18       		.byte	0x18
 2538 07a9 09       		.byte	0x9
 2539 07aa D301     		.2byte	0x1d3
 2540 07ac 0A080000 		.4byte	0x80a
 2541 07b0 0B       		.uleb128 0xb
 2542 07b1 435200   		.ascii	"CR\000"
ARM GAS  /tmp/ccbOgSVP.s 			page 46


 2543 07b4 09       		.byte	0x9
 2544 07b5 D501     		.2byte	0x1d5
 2545 07b7 35030000 		.4byte	0x335
 2546 07bb 02       		.byte	0x2
 2547 07bc 23       		.byte	0x23
 2548 07bd 00       		.uleb128 0x0
 2549 07be 16       		.uleb128 0x16
 2550 07bf 6F0A0000 		.4byte	.LASF161
 2551 07c3 09       		.byte	0x9
 2552 07c4 D601     		.2byte	0x1d6
 2553 07c6 35030000 		.4byte	0x335
 2554 07ca 02       		.byte	0x2
 2555 07cb 23       		.byte	0x23
 2556 07cc 04       		.uleb128 0x4
 2557 07cd 0B       		.uleb128 0xb
 2558 07ce 50415200 		.ascii	"PAR\000"
 2559 07d2 09       		.byte	0x9
 2560 07d3 D701     		.2byte	0x1d7
 2561 07d5 35030000 		.4byte	0x335
 2562 07d9 02       		.byte	0x2
 2563 07da 23       		.byte	0x23
 2564 07db 08       		.uleb128 0x8
 2565 07dc 16       		.uleb128 0x16
 2566 07dd A7090000 		.4byte	.LASF162
 2567 07e1 09       		.byte	0x9
 2568 07e2 D801     		.2byte	0x1d8
 2569 07e4 35030000 		.4byte	0x335
 2570 07e8 02       		.byte	0x2
 2571 07e9 23       		.byte	0x23
 2572 07ea 0C       		.uleb128 0xc
 2573 07eb 16       		.uleb128 0x16
 2574 07ec 00000000 		.4byte	.LASF163
 2575 07f0 09       		.byte	0x9
 2576 07f1 D901     		.2byte	0x1d9
 2577 07f3 35030000 		.4byte	0x335
 2578 07f7 02       		.byte	0x2
 2579 07f8 23       		.byte	0x23
 2580 07f9 10       		.uleb128 0x10
 2581 07fa 0B       		.uleb128 0xb
 2582 07fb 46435200 		.ascii	"FCR\000"
 2583 07ff 09       		.byte	0x9
 2584 0800 DA01     		.2byte	0x1da
 2585 0802 35030000 		.4byte	0x335
 2586 0806 02       		.byte	0x2
 2587 0807 23       		.byte	0x23
 2588 0808 14       		.uleb128 0x14
 2589 0809 00       		.byte	0x0
 2590 080a 17       		.uleb128 0x17
 2591 080b 72070000 		.4byte	.LASF164
 2592 080f 09       		.byte	0x9
 2593 0810 DB01     		.2byte	0x1db
 2594 0812 A7070000 		.4byte	0x7a7
 2595 0816 15       		.uleb128 0x15
 2596 0817 88       		.byte	0x88
 2597 0818 09       		.byte	0x9
 2598 0819 DB02     		.2byte	0x2db
 2599 081b E3090000 		.4byte	0x9e3
ARM GAS  /tmp/ccbOgSVP.s 			page 47


 2600 081f 0B       		.uleb128 0xb
 2601 0820 435200   		.ascii	"CR\000"
 2602 0823 09       		.byte	0x9
 2603 0824 DD02     		.2byte	0x2dd
 2604 0826 35030000 		.4byte	0x335
 2605 082a 02       		.byte	0x2
 2606 082b 23       		.byte	0x23
 2607 082c 00       		.uleb128 0x0
 2608 082d 16       		.uleb128 0x16
 2609 082e 92050000 		.4byte	.LASF165
 2610 0832 09       		.byte	0x9
 2611 0833 DE02     		.2byte	0x2de
 2612 0835 35030000 		.4byte	0x335
 2613 0839 02       		.byte	0x2
 2614 083a 23       		.byte	0x23
 2615 083b 04       		.uleb128 0x4
 2616 083c 16       		.uleb128 0x16
 2617 083d FB030000 		.4byte	.LASF166
 2618 0841 09       		.byte	0x9
 2619 0842 DF02     		.2byte	0x2df
 2620 0844 35030000 		.4byte	0x335
 2621 0848 02       		.byte	0x2
 2622 0849 23       		.byte	0x23
 2623 084a 08       		.uleb128 0x8
 2624 084b 0B       		.uleb128 0xb
 2625 084c 43495200 		.ascii	"CIR\000"
 2626 0850 09       		.byte	0x9
 2627 0851 E002     		.2byte	0x2e0
 2628 0853 35030000 		.4byte	0x335
 2629 0857 02       		.byte	0x2
 2630 0858 23       		.byte	0x23
 2631 0859 0C       		.uleb128 0xc
 2632 085a 16       		.uleb128 0x16
 2633 085b 380B0000 		.4byte	.LASF167
 2634 085f 09       		.byte	0x9
 2635 0860 E102     		.2byte	0x2e1
 2636 0862 35030000 		.4byte	0x335
 2637 0866 02       		.byte	0x2
 2638 0867 23       		.byte	0x23
 2639 0868 10       		.uleb128 0x10
 2640 0869 16       		.uleb128 0x16
 2641 086a 97090000 		.4byte	.LASF168
 2642 086e 09       		.byte	0x9
 2643 086f E202     		.2byte	0x2e2
 2644 0871 35030000 		.4byte	0x335
 2645 0875 02       		.byte	0x2
 2646 0876 23       		.byte	0x23
 2647 0877 14       		.uleb128 0x14
 2648 0878 16       		.uleb128 0x16
 2649 0879 A3070000 		.4byte	.LASF169
 2650 087d 09       		.byte	0x9
 2651 087e E302     		.2byte	0x2e3
 2652 0880 35030000 		.4byte	0x335
 2653 0884 02       		.byte	0x2
 2654 0885 23       		.byte	0x23
 2655 0886 18       		.uleb128 0x18
 2656 0887 16       		.uleb128 0x16
ARM GAS  /tmp/ccbOgSVP.s 			page 48


 2657 0888 88020000 		.4byte	.LASF170
 2658 088c 09       		.byte	0x9
 2659 088d E402     		.2byte	0x2e4
 2660 088f 86000000 		.4byte	0x86
 2661 0893 02       		.byte	0x2
 2662 0894 23       		.byte	0x23
 2663 0895 1C       		.uleb128 0x1c
 2664 0896 16       		.uleb128 0x16
 2665 0897 D4070000 		.4byte	.LASF171
 2666 089b 09       		.byte	0x9
 2667 089c E502     		.2byte	0x2e5
 2668 089e 35030000 		.4byte	0x335
 2669 08a2 02       		.byte	0x2
 2670 08a3 23       		.byte	0x23
 2671 08a4 20       		.uleb128 0x20
 2672 08a5 16       		.uleb128 0x16
 2673 08a6 2C060000 		.4byte	.LASF172
 2674 08aa 09       		.byte	0x9
 2675 08ab E602     		.2byte	0x2e6
 2676 08ad 35030000 		.4byte	0x335
 2677 08b1 02       		.byte	0x2
 2678 08b2 23       		.byte	0x23
 2679 08b3 24       		.uleb128 0x24
 2680 08b4 16       		.uleb128 0x16
 2681 08b5 92020000 		.4byte	.LASF173
 2682 08b9 09       		.byte	0x9
 2683 08ba E702     		.2byte	0x2e7
 2684 08bc 0F060000 		.4byte	0x60f
 2685 08c0 02       		.byte	0x2
 2686 08c1 23       		.byte	0x23
 2687 08c2 28       		.uleb128 0x28
 2688 08c3 16       		.uleb128 0x16
 2689 08c4 6B090000 		.4byte	.LASF174
 2690 08c8 09       		.byte	0x9
 2691 08c9 E802     		.2byte	0x2e8
 2692 08cb 35030000 		.4byte	0x335
 2693 08cf 02       		.byte	0x2
 2694 08d0 23       		.byte	0x23
 2695 08d1 30       		.uleb128 0x30
 2696 08d2 16       		.uleb128 0x16
 2697 08d3 62030000 		.4byte	.LASF175
 2698 08d7 09       		.byte	0x9
 2699 08d8 E902     		.2byte	0x2e9
 2700 08da 35030000 		.4byte	0x335
 2701 08de 02       		.byte	0x2
 2702 08df 23       		.byte	0x23
 2703 08e0 34       		.uleb128 0x34
 2704 08e1 16       		.uleb128 0x16
 2705 08e2 7E0B0000 		.4byte	.LASF176
 2706 08e6 09       		.byte	0x9
 2707 08e7 EA02     		.2byte	0x2ea
 2708 08e9 35030000 		.4byte	0x335
 2709 08ed 02       		.byte	0x2
 2710 08ee 23       		.byte	0x23
 2711 08ef 38       		.uleb128 0x38
 2712 08f0 16       		.uleb128 0x16
 2713 08f1 15030000 		.4byte	.LASF177
ARM GAS  /tmp/ccbOgSVP.s 			page 49


 2714 08f5 09       		.byte	0x9
 2715 08f6 EB02     		.2byte	0x2eb
 2716 08f8 86000000 		.4byte	0x86
 2717 08fc 02       		.byte	0x2
 2718 08fd 23       		.byte	0x23
 2719 08fe 3C       		.uleb128 0x3c
 2720 08ff 16       		.uleb128 0x16
 2721 0900 AB040000 		.4byte	.LASF178
 2722 0904 09       		.byte	0x9
 2723 0905 EC02     		.2byte	0x2ec
 2724 0907 35030000 		.4byte	0x335
 2725 090b 02       		.byte	0x2
 2726 090c 23       		.byte	0x23
 2727 090d 40       		.uleb128 0x40
 2728 090e 16       		.uleb128 0x16
 2729 090f 06020000 		.4byte	.LASF179
 2730 0913 09       		.byte	0x9
 2731 0914 ED02     		.2byte	0x2ed
 2732 0916 35030000 		.4byte	0x335
 2733 091a 02       		.byte	0x2
 2734 091b 23       		.byte	0x23
 2735 091c 44       		.uleb128 0x44
 2736 091d 16       		.uleb128 0x16
 2737 091e 1F030000 		.4byte	.LASF180
 2738 0922 09       		.byte	0x9
 2739 0923 EE02     		.2byte	0x2ee
 2740 0925 0F060000 		.4byte	0x60f
 2741 0929 02       		.byte	0x2
 2742 092a 23       		.byte	0x23
 2743 092b 48       		.uleb128 0x48
 2744 092c 16       		.uleb128 0x16
 2745 092d 0E020000 		.4byte	.LASF181
 2746 0931 09       		.byte	0x9
 2747 0932 EF02     		.2byte	0x2ef
 2748 0934 35030000 		.4byte	0x335
 2749 0938 02       		.byte	0x2
 2750 0939 23       		.byte	0x23
 2751 093a 50       		.uleb128 0x50
 2752 093b 16       		.uleb128 0x16
 2753 093c 79010000 		.4byte	.LASF182
 2754 0940 09       		.byte	0x9
 2755 0941 F002     		.2byte	0x2f0
 2756 0943 35030000 		.4byte	0x335
 2757 0947 02       		.byte	0x2
 2758 0948 23       		.byte	0x23
 2759 0949 54       		.uleb128 0x54
 2760 094a 16       		.uleb128 0x16
 2761 094b F4080000 		.4byte	.LASF183
 2762 094f 09       		.byte	0x9
 2763 0950 F102     		.2byte	0x2f1
 2764 0952 35030000 		.4byte	0x335
 2765 0956 02       		.byte	0x2
 2766 0957 23       		.byte	0x23
 2767 0958 58       		.uleb128 0x58
 2768 0959 16       		.uleb128 0x16
 2769 095a BC020000 		.4byte	.LASF184
 2770 095e 09       		.byte	0x9
ARM GAS  /tmp/ccbOgSVP.s 			page 50


 2771 095f F202     		.2byte	0x2f2
 2772 0961 86000000 		.4byte	0x86
 2773 0965 02       		.byte	0x2
 2774 0966 23       		.byte	0x23
 2775 0967 5C       		.uleb128 0x5c
 2776 0968 16       		.uleb128 0x16
 2777 0969 1F070000 		.4byte	.LASF185
 2778 096d 09       		.byte	0x9
 2779 096e F302     		.2byte	0x2f3
 2780 0970 35030000 		.4byte	0x335
 2781 0974 02       		.byte	0x2
 2782 0975 23       		.byte	0x23
 2783 0976 60       		.uleb128 0x60
 2784 0977 16       		.uleb128 0x16
 2785 0978 73060000 		.4byte	.LASF186
 2786 097c 09       		.byte	0x9
 2787 097d F402     		.2byte	0x2f4
 2788 097f 35030000 		.4byte	0x335
 2789 0983 02       		.byte	0x2
 2790 0984 23       		.byte	0x23
 2791 0985 64       		.uleb128 0x64
 2792 0986 16       		.uleb128 0x16
 2793 0987 C6020000 		.4byte	.LASF187
 2794 098b 09       		.byte	0x9
 2795 098c F502     		.2byte	0x2f5
 2796 098e 0F060000 		.4byte	0x60f
 2797 0992 02       		.byte	0x2
 2798 0993 23       		.byte	0x23
 2799 0994 68       		.uleb128 0x68
 2800 0995 16       		.uleb128 0x16
 2801 0996 C3030000 		.4byte	.LASF188
 2802 099a 09       		.byte	0x9
 2803 099b F602     		.2byte	0x2f6
 2804 099d 35030000 		.4byte	0x335
 2805 09a1 02       		.byte	0x2
 2806 09a2 23       		.byte	0x23
 2807 09a3 70       		.uleb128 0x70
 2808 09a4 0B       		.uleb128 0xb
 2809 09a5 43535200 		.ascii	"CSR\000"
 2810 09a9 09       		.byte	0x9
 2811 09aa F702     		.2byte	0x2f7
 2812 09ac 35030000 		.4byte	0x335
 2813 09b0 02       		.byte	0x2
 2814 09b1 23       		.byte	0x23
 2815 09b2 74       		.uleb128 0x74
 2816 09b3 16       		.uleb128 0x16
 2817 09b4 D0020000 		.4byte	.LASF189
 2818 09b8 09       		.byte	0x9
 2819 09b9 F802     		.2byte	0x2f8
 2820 09bb 0F060000 		.4byte	0x60f
 2821 09bf 02       		.byte	0x2
 2822 09c0 23       		.byte	0x23
 2823 09c1 78       		.uleb128 0x78
 2824 09c2 16       		.uleb128 0x16
 2825 09c3 F8050000 		.4byte	.LASF190
 2826 09c7 09       		.byte	0x9
 2827 09c8 F902     		.2byte	0x2f9
ARM GAS  /tmp/ccbOgSVP.s 			page 51


 2828 09ca 35030000 		.4byte	0x335
 2829 09ce 03       		.byte	0x3
 2830 09cf 23       		.byte	0x23
 2831 09d0 8001     		.uleb128 0x80
 2832 09d2 16       		.uleb128 0x16
 2833 09d3 46000000 		.4byte	.LASF191
 2834 09d7 09       		.byte	0x9
 2835 09d8 FA02     		.2byte	0x2fa
 2836 09da 35030000 		.4byte	0x335
 2837 09de 03       		.byte	0x3
 2838 09df 23       		.byte	0x23
 2839 09e0 8401     		.uleb128 0x84
 2840 09e2 00       		.byte	0x0
 2841 09e3 17       		.uleb128 0x17
 2842 09e4 B5090000 		.4byte	.LASF192
 2843 09e8 09       		.byte	0x9
 2844 09e9 FB02     		.2byte	0x2fb
 2845 09eb 16080000 		.4byte	0x816
 2846 09ef 08       		.uleb128 0x8
 2847 09f0 0C       		.byte	0xc
 2848 09f1 0A       		.byte	0xa
 2849 09f2 DB       		.byte	0xdb
 2850 09f3 3E0A0000 		.4byte	0xa3e
 2851 09f7 06       		.uleb128 0x6
 2852 09f8 BC030000 		.4byte	.LASF193
 2853 09fc 0A       		.byte	0xa
 2854 09fd DC       		.byte	0xdc
 2855 09fe 3E0A0000 		.4byte	0xa3e
 2856 0a02 02       		.byte	0x2
 2857 0a03 23       		.byte	0x23
 2858 0a04 00       		.uleb128 0x0
 2859 0a05 06       		.uleb128 0x6
 2860 0a06 540B0000 		.4byte	.LASF194
 2861 0a0a 0A       		.byte	0xa
 2862 0a0b DD       		.byte	0xdd
 2863 0a0c 440A0000 		.4byte	0xa44
 2864 0a10 02       		.byte	0x2
 2865 0a11 23       		.byte	0x23
 2866 0a12 04       		.uleb128 0x4
 2867 0a13 06       		.uleb128 0x6
 2868 0a14 54030000 		.4byte	.LASF195
 2869 0a18 0A       		.byte	0xa
 2870 0a19 DE       		.byte	0xde
 2871 0a1a 49000000 		.4byte	0x49
 2872 0a1e 02       		.byte	0x2
 2873 0a1f 23       		.byte	0x23
 2874 0a20 08       		.uleb128 0x8
 2875 0a21 06       		.uleb128 0x6
 2876 0a22 A0060000 		.4byte	.LASF196
 2877 0a26 0A       		.byte	0xa
 2878 0a27 E0       		.byte	0xe0
 2879 0a28 49000000 		.4byte	0x49
 2880 0a2c 02       		.byte	0x2
 2881 0a2d 23       		.byte	0x23
 2882 0a2e 09       		.uleb128 0x9
 2883 0a2f 06       		.uleb128 0x6
 2884 0a30 CE080000 		.4byte	.LASF197
ARM GAS  /tmp/ccbOgSVP.s 			page 52


 2885 0a34 0A       		.byte	0xa
 2886 0a35 E1       		.byte	0xe1
 2887 0a36 49000000 		.4byte	0x49
 2888 0a3a 02       		.byte	0x2
 2889 0a3b 23       		.byte	0x23
 2890 0a3c 0A       		.uleb128 0xa
 2891 0a3d 00       		.byte	0x0
 2892 0a3e 09       		.uleb128 0x9
 2893 0a3f 04       		.byte	0x4
 2894 0a40 0A080000 		.4byte	0x80a
 2895 0a44 09       		.uleb128 0x9
 2896 0a45 04       		.byte	0x4
 2897 0a46 35030000 		.4byte	0x335
 2898 0a4a 03       		.uleb128 0x3
 2899 0a4b 1F050000 		.4byte	.LASF198
 2900 0a4f 0A       		.byte	0xa
 2901 0a50 E2       		.byte	0xe2
 2902 0a51 EF090000 		.4byte	0x9ef
 2903 0a55 03       		.uleb128 0x3
 2904 0a56 DD070000 		.4byte	.LASF199
 2905 0a5a 0A       		.byte	0xa
 2906 0a5b EB       		.byte	0xeb
 2907 0a5c 600A0000 		.4byte	0xa60
 2908 0a60 09       		.uleb128 0x9
 2909 0a61 04       		.byte	0x4
 2910 0a62 660A0000 		.4byte	0xa66
 2911 0a66 18       		.uleb128 0x18
 2912 0a67 01       		.byte	0x1
 2913 0a68 770A0000 		.4byte	0xa77
 2914 0a6c 19       		.uleb128 0x19
 2915 0a6d 83020000 		.4byte	0x283
 2916 0a71 19       		.uleb128 0x19
 2917 0a72 86000000 		.4byte	0x86
 2918 0a76 00       		.byte	0x0
 2919 0a77 1A       		.uleb128 0x1a
 2920 0a78 01       		.byte	0x1
 2921 0a79 0B       		.byte	0xb
 2922 0a7a 55       		.byte	0x55
 2923 0a7b A40A0000 		.4byte	0xaa4
 2924 0a7f 12       		.uleb128 0x12
 2925 0a80 F2020000 		.4byte	.LASF200
 2926 0a84 00       		.sleb128 0
 2927 0a85 12       		.uleb128 0x12
 2928 0a86 50090000 		.4byte	.LASF201
 2929 0a8a 01       		.sleb128 1
 2930 0a8b 12       		.uleb128 0x12
 2931 0a8c 0B030000 		.4byte	.LASF202
 2932 0a90 02       		.sleb128 2
 2933 0a91 12       		.uleb128 0x12
 2934 0a92 B7070000 		.4byte	.LASF203
 2935 0a96 03       		.sleb128 3
 2936 0a97 12       		.uleb128 0x12
 2937 0a98 52050000 		.4byte	.LASF204
 2938 0a9c 04       		.sleb128 4
 2939 0a9d 12       		.uleb128 0x12
 2940 0a9e 7F030000 		.4byte	.LASF205
 2941 0aa2 05       		.sleb128 5
ARM GAS  /tmp/ccbOgSVP.s 			page 53


 2942 0aa3 00       		.byte	0x0
 2943 0aa4 03       		.uleb128 0x3
 2944 0aa5 8F000000 		.4byte	.LASF206
 2945 0aa9 0B       		.byte	0xb
 2946 0aaa 5C       		.byte	0x5c
 2947 0aab 770A0000 		.4byte	0xa77
 2948 0aaf 17       		.uleb128 0x17
 2949 0ab0 33030000 		.4byte	.LASF207
 2950 0ab4 0C       		.byte	0xc
 2951 0ab5 3101     		.2byte	0x131
 2952 0ab7 62000000 		.4byte	0x62
 2953 0abb 17       		.uleb128 0x17
 2954 0abc C5060000 		.4byte	.LASF208
 2955 0ac0 0C       		.byte	0xc
 2956 0ac1 3601     		.2byte	0x136
 2957 0ac3 62000000 		.4byte	0x62
 2958 0ac7 1B       		.uleb128 0x1b
 2959 0ac8 01       		.byte	0x1
 2960 0ac9 0C       		.byte	0xc
 2961 0aca 3D01     		.2byte	0x13d
 2962 0acc DD0A0000 		.4byte	0xadd
 2963 0ad0 12       		.uleb128 0x12
 2964 0ad1 9A000000 		.4byte	.LASF209
 2965 0ad5 00       		.sleb128 0
 2966 0ad6 12       		.uleb128 0x12
 2967 0ad7 DE080000 		.4byte	.LASF210
 2968 0adb 01       		.sleb128 1
 2969 0adc 00       		.byte	0x0
 2970 0add 17       		.uleb128 0x17
 2971 0ade DA020000 		.4byte	.LASF211
 2972 0ae2 0C       		.byte	0xc
 2973 0ae3 4001     		.2byte	0x140
 2974 0ae5 C70A0000 		.4byte	0xac7
 2975 0ae9 17       		.uleb128 0x17
 2976 0aea 7C080000 		.4byte	.LASF212
 2977 0aee 0C       		.byte	0xc
 2978 0aef 4501     		.2byte	0x145
 2979 0af1 F50A0000 		.4byte	0xaf5
 2980 0af5 0C       		.uleb128 0xc
 2981 0af6 7C080000 		.4byte	.LASF212
 2982 0afa 34       		.byte	0x34
 2983 0afb 0C       		.byte	0xc
 2984 0afc A801     		.2byte	0x1a8
 2985 0afe 990B0000 		.4byte	0xb99
 2986 0b02 16       		.uleb128 0x16
 2987 0b03 E5000000 		.4byte	.LASF213
 2988 0b07 0C       		.byte	0xc
 2989 0b08 AC01     		.2byte	0x1ac
 2990 0b0a A40A0000 		.4byte	0xaa4
 2991 0b0e 02       		.byte	0x2
 2992 0b0f 23       		.byte	0x23
 2993 0b10 00       		.uleb128 0x0
 2994 0b11 16       		.uleb128 0x16
 2995 0b12 DE000000 		.4byte	.LASF214
 2996 0b16 0C       		.byte	0xc
 2997 0b17 B001     		.2byte	0x1b0
 2998 0b19 D00C0000 		.4byte	0xcd0
ARM GAS  /tmp/ccbOgSVP.s 			page 54


 2999 0b1d 02       		.byte	0x2
 3000 0b1e 23       		.byte	0x23
 3001 0b1f 04       		.uleb128 0x4
 3002 0b20 16       		.uleb128 0x16
 3003 0b21 C8030000 		.4byte	.LASF215
 3004 0b25 0C       		.byte	0xc
 3005 0b26 B401     		.2byte	0x1b4
 3006 0b28 C70B0000 		.4byte	0xbc7
 3007 0b2c 02       		.byte	0x2
 3008 0b2d 23       		.byte	0x23
 3009 0b2e 08       		.uleb128 0x8
 3010 0b2f 16       		.uleb128 0x16
 3011 0b30 35060000 		.4byte	.LASF216
 3012 0b34 0C       		.byte	0xc
 3013 0b35 B801     		.2byte	0x1b8
 3014 0b37 30000000 		.4byte	0x30
 3015 0b3b 02       		.byte	0x2
 3016 0b3c 23       		.byte	0x23
 3017 0b3d 0C       		.uleb128 0xc
 3018 0b3e 16       		.uleb128 0x16
 3019 0b3f 92090000 		.4byte	.LASF217
 3020 0b43 0C       		.byte	0xc
 3021 0b44 BC01     		.2byte	0x1bc
 3022 0b46 DB0C0000 		.4byte	0xcdb
 3023 0b4a 02       		.byte	0x2
 3024 0b4b 23       		.byte	0x23
 3025 0b4c 10       		.uleb128 0x10
 3026 0b4d 16       		.uleb128 0x16
 3027 0b4e A0090000 		.4byte	.LASF218
 3028 0b52 0C       		.byte	0xc
 3029 0b53 C101     		.2byte	0x1c1
 3030 0b55 45020000 		.4byte	0x245
 3031 0b59 02       		.byte	0x2
 3032 0b5a 23       		.byte	0x23
 3033 0b5b 14       		.uleb128 0x14
 3034 0b5c 16       		.uleb128 0x16
 3035 0b5d 3B060000 		.4byte	.LASF219
 3036 0b61 0C       		.byte	0xc
 3037 0b62 C801     		.2byte	0x1c8
 3038 0b64 7C030000 		.4byte	0x37c
 3039 0b68 02       		.byte	0x2
 3040 0b69 23       		.byte	0x23
 3041 0b6a 18       		.uleb128 0x18
 3042 0b6b 0B       		.uleb128 0xb
 3043 0b6c 61646300 		.ascii	"adc\000"
 3044 0b70 0C       		.byte	0xc
 3045 0b71 D401     		.2byte	0x1d4
 3046 0b73 E60C0000 		.4byte	0xce6
 3047 0b77 02       		.byte	0x2
 3048 0b78 23       		.byte	0x23
 3049 0b79 28       		.uleb128 0x28
 3050 0b7a 16       		.uleb128 0x16
 3051 0b7b B3040000 		.4byte	.LASF220
 3052 0b7f 0C       		.byte	0xc
 3053 0b80 D801     		.2byte	0x1d8
 3054 0b82 EC0C0000 		.4byte	0xcec
 3055 0b86 02       		.byte	0x2
ARM GAS  /tmp/ccbOgSVP.s 			page 55


 3056 0b87 23       		.byte	0x23
 3057 0b88 2C       		.uleb128 0x2c
 3058 0b89 16       		.uleb128 0x16
 3059 0b8a A2010000 		.4byte	.LASF221
 3060 0b8e 0C       		.byte	0xc
 3061 0b8f DC01     		.2byte	0x1dc
 3062 0b91 86000000 		.4byte	0x86
 3063 0b95 02       		.byte	0x2
 3064 0b96 23       		.byte	0x23
 3065 0b97 30       		.uleb128 0x30
 3066 0b98 00       		.byte	0x0
 3067 0b99 17       		.uleb128 0x17
 3068 0b9a 5F000000 		.4byte	.LASF222
 3069 0b9e 0C       		.byte	0xc
 3070 0b9f 4F01     		.2byte	0x14f
 3071 0ba1 A50B0000 		.4byte	0xba5
 3072 0ba5 09       		.uleb128 0x9
 3073 0ba6 04       		.byte	0x4
 3074 0ba7 AB0B0000 		.4byte	0xbab
 3075 0bab 18       		.uleb128 0x18
 3076 0bac 01       		.byte	0x1
 3077 0bad C10B0000 		.4byte	0xbc1
 3078 0bb1 19       		.uleb128 0x19
 3079 0bb2 C10B0000 		.4byte	0xbc1
 3080 0bb6 19       		.uleb128 0x19
 3081 0bb7 C70B0000 		.4byte	0xbc7
 3082 0bbb 19       		.uleb128 0x19
 3083 0bbc 30000000 		.4byte	0x30
 3084 0bc0 00       		.byte	0x0
 3085 0bc1 09       		.uleb128 0x9
 3086 0bc2 04       		.byte	0x4
 3087 0bc3 E90A0000 		.4byte	0xae9
 3088 0bc7 09       		.uleb128 0x9
 3089 0bc8 04       		.byte	0x4
 3090 0bc9 AF0A0000 		.4byte	0xaaf
 3091 0bcd 17       		.uleb128 0x17
 3092 0bce 0D060000 		.4byte	.LASF223
 3093 0bd2 0C       		.byte	0xc
 3094 0bd3 5701     		.2byte	0x157
 3095 0bd5 D90B0000 		.4byte	0xbd9
 3096 0bd9 09       		.uleb128 0x9
 3097 0bda 04       		.byte	0x4
 3098 0bdb DF0B0000 		.4byte	0xbdf
 3099 0bdf 18       		.uleb128 0x18
 3100 0be0 01       		.byte	0x1
 3101 0be1 F00B0000 		.4byte	0xbf0
 3102 0be5 19       		.uleb128 0x19
 3103 0be6 C10B0000 		.4byte	0xbc1
 3104 0bea 19       		.uleb128 0x19
 3105 0beb DD0A0000 		.4byte	0xadd
 3106 0bef 00       		.byte	0x0
 3107 0bf0 15       		.uleb128 0x15
 3108 0bf1 2C       		.byte	0x2c
 3109 0bf2 0C       		.byte	0xc
 3110 0bf3 6101     		.2byte	0x161
 3111 0bf5 9F0C0000 		.4byte	0xc9f
 3112 0bf9 16       		.uleb128 0x16
ARM GAS  /tmp/ccbOgSVP.s 			page 56


 3113 0bfa 8F030000 		.4byte	.LASF224
 3114 0bfe 0C       		.byte	0xc
 3115 0bff 6501     		.2byte	0x165
 3116 0c01 A6000000 		.4byte	0xa6
 3117 0c05 02       		.byte	0x2
 3118 0c06 23       		.byte	0x23
 3119 0c07 00       		.uleb128 0x0
 3120 0c08 16       		.uleb128 0x16
 3121 0c09 F4060000 		.4byte	.LASF225
 3122 0c0d 0C       		.byte	0xc
 3123 0c0e 6901     		.2byte	0x169
 3124 0c10 BB0A0000 		.4byte	0xabb
 3125 0c14 02       		.byte	0x2
 3126 0c15 23       		.byte	0x23
 3127 0c16 04       		.uleb128 0x4
 3128 0c17 16       		.uleb128 0x16
 3129 0c18 3A010000 		.4byte	.LASF226
 3130 0c1c 0C       		.byte	0xc
 3131 0c1d 6D01     		.2byte	0x16d
 3132 0c1f 990B0000 		.4byte	0xb99
 3133 0c23 02       		.byte	0x2
 3134 0c24 23       		.byte	0x23
 3135 0c25 08       		.uleb128 0x8
 3136 0c26 16       		.uleb128 0x16
 3137 0c27 0A010000 		.4byte	.LASF227
 3138 0c2b 0C       		.byte	0xc
 3139 0c2c 7101     		.2byte	0x171
 3140 0c2e CD0B0000 		.4byte	0xbcd
 3141 0c32 02       		.byte	0x2
 3142 0c33 23       		.byte	0x23
 3143 0c34 0C       		.uleb128 0xc
 3144 0c35 0B       		.uleb128 0xb
 3145 0c36 63723100 		.ascii	"cr1\000"
 3146 0c3a 0C       		.byte	0xc
 3147 0c3b 7801     		.2byte	0x178
 3148 0c3d 86000000 		.4byte	0x86
 3149 0c41 02       		.byte	0x2
 3150 0c42 23       		.byte	0x23
 3151 0c43 10       		.uleb128 0x10
 3152 0c44 0B       		.uleb128 0xb
 3153 0c45 63723200 		.ascii	"cr2\000"
 3154 0c49 0C       		.byte	0xc
 3155 0c4a 7F01     		.2byte	0x17f
 3156 0c4c 86000000 		.4byte	0x86
 3157 0c50 02       		.byte	0x2
 3158 0c51 23       		.byte	0x23
 3159 0c52 14       		.uleb128 0x14
 3160 0c53 16       		.uleb128 0x16
 3161 0c54 5F050000 		.4byte	.LASF228
 3162 0c58 0C       		.byte	0xc
 3163 0c59 8501     		.2byte	0x185
 3164 0c5b 86000000 		.4byte	0x86
 3165 0c5f 02       		.byte	0x2
 3166 0c60 23       		.byte	0x23
 3167 0c61 18       		.uleb128 0x18
 3168 0c62 16       		.uleb128 0x16
 3169 0c63 65050000 		.4byte	.LASF229
ARM GAS  /tmp/ccbOgSVP.s 			page 57


 3170 0c67 0C       		.byte	0xc
 3171 0c68 8B01     		.2byte	0x18b
 3172 0c6a 86000000 		.4byte	0x86
 3173 0c6e 02       		.byte	0x2
 3174 0c6f 23       		.byte	0x23
 3175 0c70 1C       		.uleb128 0x1c
 3176 0c71 16       		.uleb128 0x16
 3177 0c72 1F000000 		.4byte	.LASF230
 3178 0c76 0C       		.byte	0xc
 3179 0c77 9001     		.2byte	0x190
 3180 0c79 86000000 		.4byte	0x86
 3181 0c7d 02       		.byte	0x2
 3182 0c7e 23       		.byte	0x23
 3183 0c7f 20       		.uleb128 0x20
 3184 0c80 16       		.uleb128 0x16
 3185 0c81 24000000 		.4byte	.LASF231
 3186 0c85 0C       		.byte	0xc
 3187 0c86 9501     		.2byte	0x195
 3188 0c88 86000000 		.4byte	0x86
 3189 0c8c 02       		.byte	0x2
 3190 0c8d 23       		.byte	0x23
 3191 0c8e 24       		.uleb128 0x24
 3192 0c8f 16       		.uleb128 0x16
 3193 0c90 29000000 		.4byte	.LASF232
 3194 0c94 0C       		.byte	0xc
 3195 0c95 9A01     		.2byte	0x19a
 3196 0c97 86000000 		.4byte	0x86
 3197 0c9b 02       		.byte	0x2
 3198 0c9c 23       		.byte	0x23
 3199 0c9d 28       		.uleb128 0x28
 3200 0c9e 00       		.byte	0x0
 3201 0c9f 17       		.uleb128 0x17
 3202 0ca0 3F050000 		.4byte	.LASF233
 3203 0ca4 0C       		.byte	0xc
 3204 0ca5 9B01     		.2byte	0x19b
 3205 0ca7 F00B0000 		.4byte	0xbf0
 3206 0cab 15       		.uleb128 0x15
 3207 0cac 04       		.byte	0x4
 3208 0cad 0C       		.byte	0xc
 3209 0cae A101     		.2byte	0x1a1
 3210 0cb0 C40C0000 		.4byte	0xcc4
 3211 0cb4 16       		.uleb128 0x16
 3212 0cb5 4A090000 		.4byte	.LASF234
 3213 0cb9 0C       		.byte	0xc
 3214 0cba A201     		.2byte	0x1a2
 3215 0cbc 86000000 		.4byte	0x86
 3216 0cc0 02       		.byte	0x2
 3217 0cc1 23       		.byte	0x23
 3218 0cc2 00       		.uleb128 0x0
 3219 0cc3 00       		.byte	0x0
 3220 0cc4 17       		.uleb128 0x17
 3221 0cc5 9E0B0000 		.4byte	.LASF235
 3222 0cc9 0C       		.byte	0xc
 3223 0cca A301     		.2byte	0x1a3
 3224 0ccc AB0C0000 		.4byte	0xcab
 3225 0cd0 09       		.uleb128 0x9
 3226 0cd1 04       		.byte	0x4
ARM GAS  /tmp/ccbOgSVP.s 			page 58


 3227 0cd2 D60C0000 		.4byte	0xcd6
 3228 0cd6 10       		.uleb128 0x10
 3229 0cd7 C40C0000 		.4byte	0xcc4
 3230 0cdb 09       		.uleb128 0x9
 3231 0cdc 04       		.byte	0x4
 3232 0cdd E10C0000 		.4byte	0xce1
 3233 0ce1 10       		.uleb128 0x10
 3234 0ce2 9F0C0000 		.4byte	0xc9f
 3235 0ce6 09       		.uleb128 0x9
 3236 0ce7 04       		.byte	0x4
 3237 0ce8 58070000 		.4byte	0x758
 3238 0cec 09       		.uleb128 0x9
 3239 0ced 04       		.byte	0x4
 3240 0cee F20C0000 		.4byte	0xcf2
 3241 0cf2 10       		.uleb128 0x10
 3242 0cf3 4A0A0000 		.4byte	0xa4a
 3243 0cf7 1C       		.uleb128 0x1c
 3244 0cf8 01       		.byte	0x1
 3245 0cf9 86080000 		.4byte	.LASF245
 3246 0cfd 01       		.byte	0x1
 3247 0cfe B6       		.byte	0xb6
 3248 0cff 01       		.byte	0x1
 3249 0d00 00000000 		.4byte	.LFB119
 3250 0d04 84000000 		.4byte	.LFE119
 3251 0d08 00000000 		.4byte	.LLST0
 3252 0d0c 1D       		.uleb128 0x1d
 3253 0d0d 01       		.byte	0x1
 3254 0d0e 2E000000 		.4byte	.LASF236
 3255 0d12 01       		.byte	0x1
 3256 0d13 F0       		.byte	0xf0
 3257 0d14 01       		.byte	0x1
 3258 0d15 00000000 		.4byte	.LFB120
 3259 0d19 AC000000 		.4byte	.LFE120
 3260 0d1d 20000000 		.4byte	.LLST1
 3261 0d21 780D0000 		.4byte	0xd78
 3262 0d25 1E       		.uleb128 0x1e
 3263 0d26 08060000 		.4byte	.LASF238
 3264 0d2a 01       		.byte	0x1
 3265 0d2b F0       		.byte	0xf0
 3266 0d2c C10B0000 		.4byte	0xbc1
 3267 0d30 40000000 		.4byte	.LLST2
 3268 0d34 1F       		.uleb128 0x1f
 3269 0d35 2C000000 		.4byte	.LBB2
 3270 0d39 4C000000 		.4byte	.LBE2
 3271 0d3d 4B0D0000 		.4byte	0xd4b
 3272 0d41 20       		.uleb128 0x20
 3273 0d42 6200     		.ascii	"b\000"
 3274 0d44 01       		.byte	0x1
 3275 0d45 F6       		.byte	0xf6
 3276 0d46 A6000000 		.4byte	0xa6
 3277 0d4a 00       		.byte	0x0
 3278 0d4b 1F       		.uleb128 0x1f
 3279 0d4c 4C000000 		.4byte	.LBB3
 3280 0d50 6C000000 		.4byte	.LBE3
 3281 0d54 630D0000 		.4byte	0xd63
 3282 0d58 21       		.uleb128 0x21
 3283 0d59 6200     		.ascii	"b\000"
ARM GAS  /tmp/ccbOgSVP.s 			page 59


 3284 0d5b 01       		.byte	0x1
 3285 0d5c 0301     		.2byte	0x103
 3286 0d5e A6000000 		.4byte	0xa6
 3287 0d62 00       		.byte	0x0
 3288 0d63 22       		.uleb128 0x22
 3289 0d64 6C000000 		.4byte	.LBB4
 3290 0d68 AC000000 		.4byte	.LBE4
 3291 0d6c 21       		.uleb128 0x21
 3292 0d6d 6200     		.ascii	"b\000"
 3293 0d6f 01       		.byte	0x1
 3294 0d70 1001     		.2byte	0x110
 3295 0d72 A6000000 		.4byte	0xa6
 3296 0d76 00       		.byte	0x0
 3297 0d77 00       		.byte	0x0
 3298 0d78 23       		.uleb128 0x23
 3299 0d79 01       		.byte	0x1
 3300 0d7a F9010000 		.4byte	.LASF237
 3301 0d7e 01       		.byte	0x1
 3302 0d7f 2A01     		.2byte	0x12a
 3303 0d81 01       		.byte	0x1
 3304 0d82 00000000 		.4byte	.LFB121
 3305 0d86 60000000 		.4byte	.LFE121
 3306 0d8a 5E000000 		.4byte	.LLST3
 3307 0d8e A30D0000 		.4byte	0xda3
 3308 0d92 24       		.uleb128 0x24
 3309 0d93 08060000 		.4byte	.LASF238
 3310 0d97 01       		.byte	0x1
 3311 0d98 2A01     		.2byte	0x12a
 3312 0d9a C10B0000 		.4byte	0xbc1
 3313 0d9e 7E000000 		.4byte	.LLST4
 3314 0da2 00       		.byte	0x0
 3315 0da3 23       		.uleb128 0x23
 3316 0da4 01       		.byte	0x1
 3317 0da5 6B050000 		.4byte	.LASF239
 3318 0da9 01       		.byte	0x1
 3319 0daa 4A01     		.2byte	0x14a
 3320 0dac 01       		.byte	0x1
 3321 0dad 00000000 		.4byte	.LFB122
 3322 0db1 76000000 		.4byte	.LFE122
 3323 0db5 9C000000 		.4byte	.LLST5
 3324 0db9 EE0D0000 		.4byte	0xdee
 3325 0dbd 24       		.uleb128 0x24
 3326 0dbe 08060000 		.4byte	.LASF238
 3327 0dc2 01       		.byte	0x1
 3328 0dc3 4A01     		.2byte	0x14a
 3329 0dc5 C10B0000 		.4byte	0xbc1
 3330 0dc9 BC000000 		.4byte	.LLST6
 3331 0dcd 25       		.uleb128 0x25
 3332 0dce D4090000 		.4byte	.LASF240
 3333 0dd2 01       		.byte	0x1
 3334 0dd3 4B01     		.2byte	0x14b
 3335 0dd5 86000000 		.4byte	0x86
 3336 0dd9 DA000000 		.4byte	.LLST7
 3337 0ddd 25       		.uleb128 0x25
 3338 0dde 92090000 		.4byte	.LASF217
 3339 0de2 01       		.byte	0x1
 3340 0de3 4C01     		.2byte	0x14c
ARM GAS  /tmp/ccbOgSVP.s 			page 60


 3341 0de5 DB0C0000 		.4byte	0xcdb
 3342 0de9 10010000 		.4byte	.LLST8
 3343 0ded 00       		.byte	0x0
 3344 0dee 23       		.uleb128 0x23
 3345 0def 01       		.byte	0x1
 3346 0df0 5A070000 		.4byte	.LASF241
 3347 0df4 01       		.byte	0x1
 3348 0df5 7301     		.2byte	0x173
 3349 0df7 01       		.byte	0x1
 3350 0df8 00000000 		.4byte	.LFB123
 3351 0dfc 2E000000 		.4byte	.LFE123
 3352 0e00 2F010000 		.4byte	.LLST9
 3353 0e04 190E0000 		.4byte	0xe19
 3354 0e08 24       		.uleb128 0x24
 3355 0e09 08060000 		.4byte	.LASF238
 3356 0e0d 01       		.byte	0x1
 3357 0e0e 7301     		.2byte	0x173
 3358 0e10 C10B0000 		.4byte	0xbc1
 3359 0e14 4F010000 		.4byte	.LLST10
 3360 0e18 00       		.byte	0x0
 3361 0e19 26       		.uleb128 0x26
 3362 0e1a A50A0000 		.4byte	.LASF259
 3363 0e1e 01       		.byte	0x1
 3364 0e1f 57       		.byte	0x57
 3365 0e20 01       		.byte	0x1
 3366 0e21 00000000 		.4byte	.LFB117
 3367 0e25 F2000000 		.4byte	.LFE117
 3368 0e29 62010000 		.4byte	.LLST11
 3369 0e2d 320F0000 		.4byte	0xf32
 3370 0e31 1E       		.uleb128 0x1e
 3371 0e32 08060000 		.4byte	.LASF238
 3372 0e36 01       		.byte	0x1
 3373 0e37 57       		.byte	0x57
 3374 0e38 C10B0000 		.4byte	0xbc1
 3375 0e3c 82010000 		.4byte	.LLST12
 3376 0e40 1E       		.uleb128 0x1e
 3377 0e41 89030000 		.4byte	.LASF242
 3378 0e45 01       		.byte	0x1
 3379 0e46 57       		.byte	0x57
 3380 0e47 86000000 		.4byte	0x86
 3381 0e4b A0010000 		.4byte	.LLST13
 3382 0e4f 1F       		.uleb128 0x1f
 3383 0e50 3C000000 		.4byte	.LBB5
 3384 0e54 4A000000 		.4byte	.LBE5
 3385 0e58 6C0E0000 		.4byte	0xe6c
 3386 0e5c 27       		.uleb128 0x27
 3387 0e5d EF080000 		.4byte	.LASF243
 3388 0e61 01       		.byte	0x1
 3389 0e62 69       		.byte	0x69
 3390 0e63 30000000 		.4byte	0x30
 3391 0e67 BE010000 		.4byte	.LLST14
 3392 0e6b 00       		.byte	0x0
 3393 0e6c 1F       		.uleb128 0x1f
 3394 0e6d 62000000 		.4byte	.LBB6
 3395 0e71 6E000000 		.4byte	.LBE6
 3396 0e75 890E0000 		.4byte	0xe89
 3397 0e79 27       		.uleb128 0x27
ARM GAS  /tmp/ccbOgSVP.s 			page 61


 3398 0e7a EF080000 		.4byte	.LASF243
 3399 0e7e 01       		.byte	0x1
 3400 0e7f 69       		.byte	0x69
 3401 0e80 30000000 		.4byte	0x30
 3402 0e84 D1010000 		.4byte	.LLST15
 3403 0e88 00       		.byte	0x0
 3404 0e89 1F       		.uleb128 0x1f
 3405 0e8a 7C000000 		.4byte	.LBB7
 3406 0e8e 82000000 		.4byte	.LBE7
 3407 0e92 A60E0000 		.4byte	0xea6
 3408 0e96 28       		.uleb128 0x28
 3409 0e97 746D7000 		.ascii	"tmp\000"
 3410 0e9b 01       		.byte	0x1
 3411 0e9c 69       		.byte	0x69
 3412 0e9d 86000000 		.4byte	0x86
 3413 0ea1 E4010000 		.4byte	.LLST16
 3414 0ea5 00       		.byte	0x0
 3415 0ea6 1F       		.uleb128 0x1f
 3416 0ea7 86000000 		.4byte	.LBB8
 3417 0eab 90000000 		.4byte	.LBE8
 3418 0eaf C20E0000 		.4byte	0xec2
 3419 0eb3 28       		.uleb128 0x28
 3420 0eb4 747000   		.ascii	"tp\000"
 3421 0eb7 01       		.byte	0x1
 3422 0eb8 69       		.byte	0x69
 3423 0eb9 45020000 		.4byte	0x245
 3424 0ebd F7010000 		.4byte	.LLST17
 3425 0ec1 00       		.byte	0x0
 3426 0ec2 1F       		.uleb128 0x1f
 3427 0ec3 90000000 		.4byte	.LBB9
 3428 0ec7 98000000 		.4byte	.LBE9
 3429 0ecb DF0E0000 		.4byte	0xedf
 3430 0ecf 28       		.uleb128 0x28
 3431 0ed0 746D7000 		.ascii	"tmp\000"
 3432 0ed4 01       		.byte	0x1
 3433 0ed5 69       		.byte	0x69
 3434 0ed6 86000000 		.4byte	0x86
 3435 0eda 0B020000 		.4byte	.LLST18
 3436 0ede 00       		.byte	0x0
 3437 0edf 1F       		.uleb128 0x1f
 3438 0ee0 B6000000 		.4byte	.LBB10
 3439 0ee4 BC000000 		.4byte	.LBE10
 3440 0ee8 FC0E0000 		.4byte	0xefc
 3441 0eec 28       		.uleb128 0x28
 3442 0eed 746D7000 		.ascii	"tmp\000"
 3443 0ef1 01       		.byte	0x1
 3444 0ef2 5D       		.byte	0x5d
 3445 0ef3 86000000 		.4byte	0x86
 3446 0ef7 1E020000 		.4byte	.LLST19
 3447 0efb 00       		.byte	0x0
 3448 0efc 1F       		.uleb128 0x1f
 3449 0efd C0000000 		.4byte	.LBB11
 3450 0f01 CE000000 		.4byte	.LBE11
 3451 0f05 180F0000 		.4byte	0xf18
 3452 0f09 28       		.uleb128 0x28
 3453 0f0a 747000   		.ascii	"tp\000"
 3454 0f0d 01       		.byte	0x1
ARM GAS  /tmp/ccbOgSVP.s 			page 62


 3455 0f0e 5D       		.byte	0x5d
 3456 0f0f 45020000 		.4byte	0x245
 3457 0f13 31020000 		.4byte	.LLST20
 3458 0f17 00       		.byte	0x0
 3459 0f18 22       		.uleb128 0x22
 3460 0f19 CE000000 		.4byte	.LBB12
 3461 0f1d D6000000 		.4byte	.LBE12
 3462 0f21 28       		.uleb128 0x28
 3463 0f22 746D7000 		.ascii	"tmp\000"
 3464 0f26 01       		.byte	0x1
 3465 0f27 5D       		.byte	0x5d
 3466 0f28 86000000 		.4byte	0x86
 3467 0f2c 45020000 		.4byte	.LLST21
 3468 0f30 00       		.byte	0x0
 3469 0f31 00       		.byte	0x0
 3470 0f32 1D       		.uleb128 0x1d
 3471 0f33 01       		.byte	0x1
 3472 0f34 C5010000 		.4byte	.LASF244
 3473 0f38 01       		.byte	0x1
 3474 0f39 7A       		.byte	0x7a
 3475 0f3a 01       		.byte	0x1
 3476 0f3b 00000000 		.4byte	.LFB118
 3477 0f3f 5C010000 		.4byte	.LFE118
 3478 0f43 58020000 		.4byte	.LLST22
 3479 0f47 58100000 		.4byte	0x1058
 3480 0f4b 28       		.uleb128 0x28
 3481 0f4c 737200   		.ascii	"sr\000"
 3482 0f4f 01       		.byte	0x1
 3483 0f50 7B       		.byte	0x7b
 3484 0f51 86000000 		.4byte	0x86
 3485 0f55 78020000 		.4byte	.LLST23
 3486 0f59 1F       		.uleb128 0x1f
 3487 0f5a 76000000 		.4byte	.LBB13
 3488 0f5e 7C000000 		.4byte	.LBE13
 3489 0f62 760F0000 		.4byte	0xf76
 3490 0f66 28       		.uleb128 0x28
 3491 0f67 746D7000 		.ascii	"tmp\000"
 3492 0f6b 01       		.byte	0x1
 3493 0f6c A4       		.byte	0xa4
 3494 0f6d 86000000 		.4byte	0x86
 3495 0f71 A1020000 		.4byte	.LLST24
 3496 0f75 00       		.byte	0x0
 3497 0f76 1F       		.uleb128 0x1f
 3498 0f77 80000000 		.4byte	.LBB14
 3499 0f7b 8E000000 		.4byte	.LBE14
 3500 0f7f 920F0000 		.4byte	0xf92
 3501 0f83 28       		.uleb128 0x28
 3502 0f84 747000   		.ascii	"tp\000"
 3503 0f87 01       		.byte	0x1
 3504 0f88 A4       		.byte	0xa4
 3505 0f89 45020000 		.4byte	0x245
 3506 0f8d BF020000 		.4byte	.LLST25
 3507 0f91 00       		.byte	0x0
 3508 0f92 1F       		.uleb128 0x1f
 3509 0f93 8E000000 		.4byte	.LBB15
 3510 0f97 94000000 		.4byte	.LBE15
 3511 0f9b AF0F0000 		.4byte	0xfaf
ARM GAS  /tmp/ccbOgSVP.s 			page 63


 3512 0f9f 28       		.uleb128 0x28
 3513 0fa0 746D7000 		.ascii	"tmp\000"
 3514 0fa4 01       		.byte	0x1
 3515 0fa5 A4       		.byte	0xa4
 3516 0fa6 86000000 		.4byte	0x86
 3517 0faa D6020000 		.4byte	.LLST26
 3518 0fae 00       		.byte	0x0
 3519 0faf 1F       		.uleb128 0x1f
 3520 0fb0 C6000000 		.4byte	.LBB16
 3521 0fb4 CC000000 		.4byte	.LBE16
 3522 0fb8 CC0F0000 		.4byte	0xfcc
 3523 0fbc 28       		.uleb128 0x28
 3524 0fbd 746D7000 		.ascii	"tmp\000"
 3525 0fc1 01       		.byte	0x1
 3526 0fc2 96       		.byte	0x96
 3527 0fc3 86000000 		.4byte	0x86
 3528 0fc7 E9020000 		.4byte	.LLST27
 3529 0fcb 00       		.byte	0x0
 3530 0fcc 1F       		.uleb128 0x1f
 3531 0fcd D0000000 		.4byte	.LBB17
 3532 0fd1 DE000000 		.4byte	.LBE17
 3533 0fd5 E80F0000 		.4byte	0xfe8
 3534 0fd9 28       		.uleb128 0x28
 3535 0fda 747000   		.ascii	"tp\000"
 3536 0fdd 01       		.byte	0x1
 3537 0fde 96       		.byte	0x96
 3538 0fdf 45020000 		.4byte	0x245
 3539 0fe3 07030000 		.4byte	.LLST28
 3540 0fe7 00       		.byte	0x0
 3541 0fe8 1F       		.uleb128 0x1f
 3542 0fe9 DE000000 		.4byte	.LBB18
 3543 0fed E6000000 		.4byte	.LBE18
 3544 0ff1 05100000 		.4byte	0x1005
 3545 0ff5 28       		.uleb128 0x28
 3546 0ff6 746D7000 		.ascii	"tmp\000"
 3547 0ffa 01       		.byte	0x1
 3548 0ffb 96       		.byte	0x96
 3549 0ffc 86000000 		.4byte	0x86
 3550 1000 1E030000 		.4byte	.LLST29
 3551 1004 00       		.byte	0x0
 3552 1005 1F       		.uleb128 0x1f
 3553 1006 10010000 		.4byte	.LBB19
 3554 100a 16010000 		.4byte	.LBE19
 3555 100e 22100000 		.4byte	0x1022
 3556 1012 28       		.uleb128 0x28
 3557 1013 746D7000 		.ascii	"tmp\000"
 3558 1017 01       		.byte	0x1
 3559 1018 88       		.byte	0x88
 3560 1019 86000000 		.4byte	0x86
 3561 101d 3C030000 		.4byte	.LLST30
 3562 1021 00       		.byte	0x0
 3563 1022 1F       		.uleb128 0x1f
 3564 1023 1A010000 		.4byte	.LBB20
 3565 1027 28010000 		.4byte	.LBE20
 3566 102b 3E100000 		.4byte	0x103e
 3567 102f 28       		.uleb128 0x28
 3568 1030 747000   		.ascii	"tp\000"
ARM GAS  /tmp/ccbOgSVP.s 			page 64


 3569 1033 01       		.byte	0x1
 3570 1034 88       		.byte	0x88
 3571 1035 45020000 		.4byte	0x245
 3572 1039 5A030000 		.4byte	.LLST31
 3573 103d 00       		.byte	0x0
 3574 103e 22       		.uleb128 0x22
 3575 103f 28010000 		.4byte	.LBB21
 3576 1043 30010000 		.4byte	.LBE21
 3577 1047 28       		.uleb128 0x28
 3578 1048 746D7000 		.ascii	"tmp\000"
 3579 104c 01       		.byte	0x1
 3580 104d 88       		.byte	0x88
 3581 104e 86000000 		.4byte	0x86
 3582 1052 71030000 		.4byte	.LLST32
 3583 1056 00       		.byte	0x0
 3584 1057 00       		.byte	0x0
 3585 1058 29       		.uleb128 0x29
 3586 1059 01       		.byte	0x1
 3587 105a 31020000 		.4byte	.LASF246
 3588 105e 01       		.byte	0x1
 3589 105f 8101     		.2byte	0x181
 3590 1061 01       		.byte	0x1
 3591 1062 00000000 		.4byte	.LFB124
 3592 1066 10000000 		.4byte	.LFE124
 3593 106a 02       		.byte	0x2
 3594 106b 7D       		.byte	0x7d
 3595 106c 00       		.sleb128 0
 3596 106d 29       		.uleb128 0x29
 3597 106e 01       		.byte	0x1
 3598 106f 670B0000 		.4byte	.LASF247
 3599 1073 01       		.byte	0x1
 3600 1074 8C01     		.2byte	0x18c
 3601 1076 01       		.byte	0x1
 3602 1077 00000000 		.4byte	.LFB125
 3603 107b 10000000 		.4byte	.LFE125
 3604 107f 02       		.byte	0x2
 3605 1080 7D       		.byte	0x7d
 3606 1081 00       		.sleb128 0
 3607 1082 29       		.uleb128 0x29
 3608 1083 01       		.byte	0x1
 3609 1084 FE080000 		.4byte	.LASF248
 3610 1088 01       		.byte	0x1
 3611 1089 9601     		.2byte	0x196
 3612 108b 01       		.byte	0x1
 3613 108c 00000000 		.4byte	.LFB126
 3614 1090 10000000 		.4byte	.LFE126
 3615 1094 02       		.byte	0x2
 3616 1095 7D       		.byte	0x7d
 3617 1096 00       		.sleb128 0
 3618 1097 29       		.uleb128 0x29
 3619 1098 01       		.byte	0x1
 3620 1099 F5000000 		.4byte	.LASF249
 3621 109d 01       		.byte	0x1
 3622 109e A001     		.2byte	0x1a0
 3623 10a0 01       		.byte	0x1
 3624 10a1 00000000 		.4byte	.LFB127
 3625 10a5 10000000 		.4byte	.LFE127
ARM GAS  /tmp/ccbOgSVP.s 			page 65


 3626 10a9 02       		.byte	0x2
 3627 10aa 7D       		.byte	0x7d
 3628 10ab 00       		.sleb128 0
 3629 10ac 2A       		.uleb128 0x2a
 3630 10ad 380A0000 		.4byte	.LASF250
 3631 10b1 0D       		.byte	0xd
 3632 10b2 1A05     		.2byte	0x51a
 3633 10b4 1F060000 		.4byte	0x61f
 3634 10b8 01       		.byte	0x1
 3635 10b9 01       		.byte	0x1
 3636 10ba 13       		.uleb128 0x13
 3637 10bb 4A0A0000 		.4byte	0xa4a
 3638 10bf CA100000 		.4byte	0x10ca
 3639 10c3 14       		.uleb128 0x14
 3640 10c4 3B000000 		.4byte	0x3b
 3641 10c8 0F       		.byte	0xf
 3642 10c9 00       		.byte	0x0
 3643 10ca 2A       		.uleb128 0x2a
 3644 10cb EE040000 		.4byte	.LASF251
 3645 10cf 0A       		.byte	0xa
 3646 10d0 B801     		.2byte	0x1b8
 3647 10d2 D8100000 		.4byte	0x10d8
 3648 10d6 01       		.byte	0x1
 3649 10d7 01       		.byte	0x1
 3650 10d8 10       		.uleb128 0x10
 3651 10d9 BA100000 		.4byte	0x10ba
 3652 10dd 2A       		.uleb128 0x2a
 3653 10de 0D070000 		.4byte	.LASF252
 3654 10e2 0C       		.byte	0xc
 3655 10e3 2102     		.2byte	0x221
 3656 10e5 E90A0000 		.4byte	0xae9
 3657 10e9 01       		.byte	0x1
 3658 10ea 01       		.byte	0x1
 3659 10eb 2A       		.uleb128 0x2a
 3660 10ec 13070000 		.4byte	.LASF253
 3661 10f0 0C       		.byte	0xc
 3662 10f1 2502     		.2byte	0x225
 3663 10f3 E90A0000 		.4byte	0xae9
 3664 10f7 01       		.byte	0x1
 3665 10f8 01       		.byte	0x1
 3666 10f9 2A       		.uleb128 0x2a
 3667 10fa 19070000 		.4byte	.LASF254
 3668 10fe 0C       		.byte	0xc
 3669 10ff 2902     		.2byte	0x229
 3670 1101 E90A0000 		.4byte	0xae9
 3671 1105 01       		.byte	0x1
 3672 1106 01       		.byte	0x1
 3673 1107 2A       		.uleb128 0x2a
 3674 1108 380A0000 		.4byte	.LASF250
 3675 110c 0D       		.byte	0xd
 3676 110d 1A05     		.2byte	0x51a
 3677 110f 1F060000 		.4byte	0x61f
 3678 1113 01       		.byte	0x1
 3679 1114 01       		.byte	0x1
 3680 1115 2A       		.uleb128 0x2a
 3681 1116 EE040000 		.4byte	.LASF251
 3682 111a 0A       		.byte	0xa
ARM GAS  /tmp/ccbOgSVP.s 			page 66


 3683 111b B801     		.2byte	0x1b8
 3684 111d 23110000 		.4byte	0x1123
 3685 1121 01       		.byte	0x1
 3686 1122 01       		.byte	0x1
 3687 1123 10       		.uleb128 0x10
 3688 1124 BA100000 		.4byte	0x10ba
 3689 1128 2B       		.uleb128 0x2b
 3690 1129 0D070000 		.4byte	.LASF252
 3691 112d 01       		.byte	0x1
 3692 112e 3C       		.byte	0x3c
 3693 112f E90A0000 		.4byte	0xae9
 3694 1133 01       		.byte	0x1
 3695 1134 05       		.byte	0x5
 3696 1135 03       		.byte	0x3
 3697 1136 00000000 		.4byte	ADCD1
 3698 113a 2B       		.uleb128 0x2b
 3699 113b 13070000 		.4byte	.LASF253
 3700 113f 01       		.byte	0x1
 3701 1140 41       		.byte	0x41
 3702 1141 E90A0000 		.4byte	0xae9
 3703 1145 01       		.byte	0x1
 3704 1146 05       		.byte	0x5
 3705 1147 03       		.byte	0x3
 3706 1148 00000000 		.4byte	ADCD2
 3707 114c 2B       		.uleb128 0x2b
 3708 114d 19070000 		.4byte	.LASF254
 3709 1151 01       		.byte	0x1
 3710 1152 46       		.byte	0x46
 3711 1153 E90A0000 		.4byte	0xae9
 3712 1157 01       		.byte	0x1
 3713 1158 05       		.byte	0x5
 3714 1159 03       		.byte	0x3
 3715 115a 00000000 		.4byte	ADCD3
 3716 115e 00       		.byte	0x0
 3717              		.section	.debug_abbrev
 3718 0000 01       		.uleb128 0x1
 3719 0001 11       		.uleb128 0x11
 3720 0002 01       		.byte	0x1
 3721 0003 25       		.uleb128 0x25
 3722 0004 0E       		.uleb128 0xe
 3723 0005 13       		.uleb128 0x13
 3724 0006 0B       		.uleb128 0xb
 3725 0007 03       		.uleb128 0x3
 3726 0008 0E       		.uleb128 0xe
 3727 0009 1B       		.uleb128 0x1b
 3728 000a 0E       		.uleb128 0xe
 3729 000b 11       		.uleb128 0x11
 3730 000c 01       		.uleb128 0x1
 3731 000d 52       		.uleb128 0x52
 3732 000e 01       		.uleb128 0x1
 3733 000f 55       		.uleb128 0x55
 3734 0010 06       		.uleb128 0x6
 3735 0011 10       		.uleb128 0x10
 3736 0012 06       		.uleb128 0x6
 3737 0013 00       		.byte	0x0
 3738 0014 00       		.byte	0x0
 3739 0015 02       		.uleb128 0x2
ARM GAS  /tmp/ccbOgSVP.s 			page 67


 3740 0016 24       		.uleb128 0x24
 3741 0017 00       		.byte	0x0
 3742 0018 0B       		.uleb128 0xb
 3743 0019 0B       		.uleb128 0xb
 3744 001a 3E       		.uleb128 0x3e
 3745 001b 0B       		.uleb128 0xb
 3746 001c 03       		.uleb128 0x3
 3747 001d 08       		.uleb128 0x8
 3748 001e 00       		.byte	0x0
 3749 001f 00       		.byte	0x0
 3750 0020 03       		.uleb128 0x3
 3751 0021 16       		.uleb128 0x16
 3752 0022 00       		.byte	0x0
 3753 0023 03       		.uleb128 0x3
 3754 0024 0E       		.uleb128 0xe
 3755 0025 3A       		.uleb128 0x3a
 3756 0026 0B       		.uleb128 0xb
 3757 0027 3B       		.uleb128 0x3b
 3758 0028 0B       		.uleb128 0xb
 3759 0029 49       		.uleb128 0x49
 3760 002a 13       		.uleb128 0x13
 3761 002b 00       		.byte	0x0
 3762 002c 00       		.byte	0x0
 3763 002d 04       		.uleb128 0x4
 3764 002e 24       		.uleb128 0x24
 3765 002f 00       		.byte	0x0
 3766 0030 0B       		.uleb128 0xb
 3767 0031 0B       		.uleb128 0xb
 3768 0032 3E       		.uleb128 0x3e
 3769 0033 0B       		.uleb128 0xb
 3770 0034 03       		.uleb128 0x3
 3771 0035 0E       		.uleb128 0xe
 3772 0036 00       		.byte	0x0
 3773 0037 00       		.byte	0x0
 3774 0038 05       		.uleb128 0x5
 3775 0039 13       		.uleb128 0x13
 3776 003a 01       		.byte	0x1
 3777 003b 03       		.uleb128 0x3
 3778 003c 0E       		.uleb128 0xe
 3779 003d 0B       		.uleb128 0xb
 3780 003e 0B       		.uleb128 0xb
 3781 003f 3A       		.uleb128 0x3a
 3782 0040 0B       		.uleb128 0xb
 3783 0041 3B       		.uleb128 0x3b
 3784 0042 0B       		.uleb128 0xb
 3785 0043 01       		.uleb128 0x1
 3786 0044 13       		.uleb128 0x13
 3787 0045 00       		.byte	0x0
 3788 0046 00       		.byte	0x0
 3789 0047 06       		.uleb128 0x6
 3790 0048 0D       		.uleb128 0xd
 3791 0049 00       		.byte	0x0
 3792 004a 03       		.uleb128 0x3
 3793 004b 0E       		.uleb128 0xe
 3794 004c 3A       		.uleb128 0x3a
 3795 004d 0B       		.uleb128 0xb
 3796 004e 3B       		.uleb128 0x3b
ARM GAS  /tmp/ccbOgSVP.s 			page 68


 3797 004f 0B       		.uleb128 0xb
 3798 0050 49       		.uleb128 0x49
 3799 0051 13       		.uleb128 0x13
 3800 0052 38       		.uleb128 0x38
 3801 0053 0A       		.uleb128 0xa
 3802 0054 00       		.byte	0x0
 3803 0055 00       		.byte	0x0
 3804 0056 07       		.uleb128 0x7
 3805 0057 0D       		.uleb128 0xd
 3806 0058 00       		.byte	0x0
 3807 0059 03       		.uleb128 0x3
 3808 005a 08       		.uleb128 0x8
 3809 005b 3A       		.uleb128 0x3a
 3810 005c 0B       		.uleb128 0xb
 3811 005d 3B       		.uleb128 0x3b
 3812 005e 0B       		.uleb128 0xb
 3813 005f 49       		.uleb128 0x49
 3814 0060 13       		.uleb128 0x13
 3815 0061 38       		.uleb128 0x38
 3816 0062 0A       		.uleb128 0xa
 3817 0063 00       		.byte	0x0
 3818 0064 00       		.byte	0x0
 3819 0065 08       		.uleb128 0x8
 3820 0066 13       		.uleb128 0x13
 3821 0067 01       		.byte	0x1
 3822 0068 0B       		.uleb128 0xb
 3823 0069 0B       		.uleb128 0xb
 3824 006a 3A       		.uleb128 0x3a
 3825 006b 0B       		.uleb128 0xb
 3826 006c 3B       		.uleb128 0x3b
 3827 006d 0B       		.uleb128 0xb
 3828 006e 01       		.uleb128 0x1
 3829 006f 13       		.uleb128 0x13
 3830 0070 00       		.byte	0x0
 3831 0071 00       		.byte	0x0
 3832 0072 09       		.uleb128 0x9
 3833 0073 0F       		.uleb128 0xf
 3834 0074 00       		.byte	0x0
 3835 0075 0B       		.uleb128 0xb
 3836 0076 0B       		.uleb128 0xb
 3837 0077 49       		.uleb128 0x49
 3838 0078 13       		.uleb128 0x13
 3839 0079 00       		.byte	0x0
 3840 007a 00       		.byte	0x0
 3841 007b 0A       		.uleb128 0xa
 3842 007c 0F       		.uleb128 0xf
 3843 007d 00       		.byte	0x0
 3844 007e 0B       		.uleb128 0xb
 3845 007f 0B       		.uleb128 0xb
 3846 0080 00       		.byte	0x0
 3847 0081 00       		.byte	0x0
 3848 0082 0B       		.uleb128 0xb
 3849 0083 0D       		.uleb128 0xd
 3850 0084 00       		.byte	0x0
 3851 0085 03       		.uleb128 0x3
 3852 0086 08       		.uleb128 0x8
 3853 0087 3A       		.uleb128 0x3a
ARM GAS  /tmp/ccbOgSVP.s 			page 69


 3854 0088 0B       		.uleb128 0xb
 3855 0089 3B       		.uleb128 0x3b
 3856 008a 05       		.uleb128 0x5
 3857 008b 49       		.uleb128 0x49
 3858 008c 13       		.uleb128 0x13
 3859 008d 38       		.uleb128 0x38
 3860 008e 0A       		.uleb128 0xa
 3861 008f 00       		.byte	0x0
 3862 0090 00       		.byte	0x0
 3863 0091 0C       		.uleb128 0xc
 3864 0092 13       		.uleb128 0x13
 3865 0093 01       		.byte	0x1
 3866 0094 03       		.uleb128 0x3
 3867 0095 0E       		.uleb128 0xe
 3868 0096 0B       		.uleb128 0xb
 3869 0097 0B       		.uleb128 0xb
 3870 0098 3A       		.uleb128 0x3a
 3871 0099 0B       		.uleb128 0xb
 3872 009a 3B       		.uleb128 0x3b
 3873 009b 05       		.uleb128 0x5
 3874 009c 01       		.uleb128 0x1
 3875 009d 13       		.uleb128 0x13
 3876 009e 00       		.byte	0x0
 3877 009f 00       		.byte	0x0
 3878 00a0 0D       		.uleb128 0xd
 3879 00a1 35       		.uleb128 0x35
 3880 00a2 00       		.byte	0x0
 3881 00a3 49       		.uleb128 0x49
 3882 00a4 13       		.uleb128 0x13
 3883 00a5 00       		.byte	0x0
 3884 00a6 00       		.byte	0x0
 3885 00a7 0E       		.uleb128 0xe
 3886 00a8 17       		.uleb128 0x17
 3887 00a9 01       		.byte	0x1
 3888 00aa 0B       		.uleb128 0xb
 3889 00ab 0B       		.uleb128 0xb
 3890 00ac 3A       		.uleb128 0x3a
 3891 00ad 0B       		.uleb128 0xb
 3892 00ae 3B       		.uleb128 0x3b
 3893 00af 0B       		.uleb128 0xb
 3894 00b0 01       		.uleb128 0x1
 3895 00b1 13       		.uleb128 0x13
 3896 00b2 00       		.byte	0x0
 3897 00b3 00       		.byte	0x0
 3898 00b4 0F       		.uleb128 0xf
 3899 00b5 0D       		.uleb128 0xd
 3900 00b6 00       		.byte	0x0
 3901 00b7 03       		.uleb128 0x3
 3902 00b8 0E       		.uleb128 0xe
 3903 00b9 3A       		.uleb128 0x3a
 3904 00ba 0B       		.uleb128 0xb
 3905 00bb 3B       		.uleb128 0x3b
 3906 00bc 0B       		.uleb128 0xb
 3907 00bd 49       		.uleb128 0x49
 3908 00be 13       		.uleb128 0x13
 3909 00bf 00       		.byte	0x0
 3910 00c0 00       		.byte	0x0
ARM GAS  /tmp/ccbOgSVP.s 			page 70


 3911 00c1 10       		.uleb128 0x10
 3912 00c2 26       		.uleb128 0x26
 3913 00c3 00       		.byte	0x0
 3914 00c4 49       		.uleb128 0x49
 3915 00c5 13       		.uleb128 0x13
 3916 00c6 00       		.byte	0x0
 3917 00c7 00       		.byte	0x0
 3918 00c8 11       		.uleb128 0x11
 3919 00c9 04       		.uleb128 0x4
 3920 00ca 01       		.byte	0x1
 3921 00cb 03       		.uleb128 0x3
 3922 00cc 0E       		.uleb128 0xe
 3923 00cd 0B       		.uleb128 0xb
 3924 00ce 0B       		.uleb128 0xb
 3925 00cf 3A       		.uleb128 0x3a
 3926 00d0 0B       		.uleb128 0xb
 3927 00d1 3B       		.uleb128 0x3b
 3928 00d2 0B       		.uleb128 0xb
 3929 00d3 01       		.uleb128 0x1
 3930 00d4 13       		.uleb128 0x13
 3931 00d5 00       		.byte	0x0
 3932 00d6 00       		.byte	0x0
 3933 00d7 12       		.uleb128 0x12
 3934 00d8 28       		.uleb128 0x28
 3935 00d9 00       		.byte	0x0
 3936 00da 03       		.uleb128 0x3
 3937 00db 0E       		.uleb128 0xe
 3938 00dc 1C       		.uleb128 0x1c
 3939 00dd 0D       		.uleb128 0xd
 3940 00de 00       		.byte	0x0
 3941 00df 00       		.byte	0x0
 3942 00e0 13       		.uleb128 0x13
 3943 00e1 01       		.uleb128 0x1
 3944 00e2 01       		.byte	0x1
 3945 00e3 49       		.uleb128 0x49
 3946 00e4 13       		.uleb128 0x13
 3947 00e5 01       		.uleb128 0x1
 3948 00e6 13       		.uleb128 0x13
 3949 00e7 00       		.byte	0x0
 3950 00e8 00       		.byte	0x0
 3951 00e9 14       		.uleb128 0x14
 3952 00ea 21       		.uleb128 0x21
 3953 00eb 00       		.byte	0x0
 3954 00ec 49       		.uleb128 0x49
 3955 00ed 13       		.uleb128 0x13
 3956 00ee 2F       		.uleb128 0x2f
 3957 00ef 0B       		.uleb128 0xb
 3958 00f0 00       		.byte	0x0
 3959 00f1 00       		.byte	0x0
 3960 00f2 15       		.uleb128 0x15
 3961 00f3 13       		.uleb128 0x13
 3962 00f4 01       		.byte	0x1
 3963 00f5 0B       		.uleb128 0xb
 3964 00f6 0B       		.uleb128 0xb
 3965 00f7 3A       		.uleb128 0x3a
 3966 00f8 0B       		.uleb128 0xb
 3967 00f9 3B       		.uleb128 0x3b
ARM GAS  /tmp/ccbOgSVP.s 			page 71


 3968 00fa 05       		.uleb128 0x5
 3969 00fb 01       		.uleb128 0x1
 3970 00fc 13       		.uleb128 0x13
 3971 00fd 00       		.byte	0x0
 3972 00fe 00       		.byte	0x0
 3973 00ff 16       		.uleb128 0x16
 3974 0100 0D       		.uleb128 0xd
 3975 0101 00       		.byte	0x0
 3976 0102 03       		.uleb128 0x3
 3977 0103 0E       		.uleb128 0xe
 3978 0104 3A       		.uleb128 0x3a
 3979 0105 0B       		.uleb128 0xb
 3980 0106 3B       		.uleb128 0x3b
 3981 0107 05       		.uleb128 0x5
 3982 0108 49       		.uleb128 0x49
 3983 0109 13       		.uleb128 0x13
 3984 010a 38       		.uleb128 0x38
 3985 010b 0A       		.uleb128 0xa
 3986 010c 00       		.byte	0x0
 3987 010d 00       		.byte	0x0
 3988 010e 17       		.uleb128 0x17
 3989 010f 16       		.uleb128 0x16
 3990 0110 00       		.byte	0x0
 3991 0111 03       		.uleb128 0x3
 3992 0112 0E       		.uleb128 0xe
 3993 0113 3A       		.uleb128 0x3a
 3994 0114 0B       		.uleb128 0xb
 3995 0115 3B       		.uleb128 0x3b
 3996 0116 05       		.uleb128 0x5
 3997 0117 49       		.uleb128 0x49
 3998 0118 13       		.uleb128 0x13
 3999 0119 00       		.byte	0x0
 4000 011a 00       		.byte	0x0
 4001 011b 18       		.uleb128 0x18
 4002 011c 15       		.uleb128 0x15
 4003 011d 01       		.byte	0x1
 4004 011e 27       		.uleb128 0x27
 4005 011f 0C       		.uleb128 0xc
 4006 0120 01       		.uleb128 0x1
 4007 0121 13       		.uleb128 0x13
 4008 0122 00       		.byte	0x0
 4009 0123 00       		.byte	0x0
 4010 0124 19       		.uleb128 0x19
 4011 0125 05       		.uleb128 0x5
 4012 0126 00       		.byte	0x0
 4013 0127 49       		.uleb128 0x49
 4014 0128 13       		.uleb128 0x13
 4015 0129 00       		.byte	0x0
 4016 012a 00       		.byte	0x0
 4017 012b 1A       		.uleb128 0x1a
 4018 012c 04       		.uleb128 0x4
 4019 012d 01       		.byte	0x1
 4020 012e 0B       		.uleb128 0xb
 4021 012f 0B       		.uleb128 0xb
 4022 0130 3A       		.uleb128 0x3a
 4023 0131 0B       		.uleb128 0xb
 4024 0132 3B       		.uleb128 0x3b
ARM GAS  /tmp/ccbOgSVP.s 			page 72


 4025 0133 0B       		.uleb128 0xb
 4026 0134 01       		.uleb128 0x1
 4027 0135 13       		.uleb128 0x13
 4028 0136 00       		.byte	0x0
 4029 0137 00       		.byte	0x0
 4030 0138 1B       		.uleb128 0x1b
 4031 0139 04       		.uleb128 0x4
 4032 013a 01       		.byte	0x1
 4033 013b 0B       		.uleb128 0xb
 4034 013c 0B       		.uleb128 0xb
 4035 013d 3A       		.uleb128 0x3a
 4036 013e 0B       		.uleb128 0xb
 4037 013f 3B       		.uleb128 0x3b
 4038 0140 05       		.uleb128 0x5
 4039 0141 01       		.uleb128 0x1
 4040 0142 13       		.uleb128 0x13
 4041 0143 00       		.byte	0x0
 4042 0144 00       		.byte	0x0
 4043 0145 1C       		.uleb128 0x1c
 4044 0146 2E       		.uleb128 0x2e
 4045 0147 00       		.byte	0x0
 4046 0148 3F       		.uleb128 0x3f
 4047 0149 0C       		.uleb128 0xc
 4048 014a 03       		.uleb128 0x3
 4049 014b 0E       		.uleb128 0xe
 4050 014c 3A       		.uleb128 0x3a
 4051 014d 0B       		.uleb128 0xb
 4052 014e 3B       		.uleb128 0x3b
 4053 014f 0B       		.uleb128 0xb
 4054 0150 27       		.uleb128 0x27
 4055 0151 0C       		.uleb128 0xc
 4056 0152 11       		.uleb128 0x11
 4057 0153 01       		.uleb128 0x1
 4058 0154 12       		.uleb128 0x12
 4059 0155 01       		.uleb128 0x1
 4060 0156 40       		.uleb128 0x40
 4061 0157 06       		.uleb128 0x6
 4062 0158 00       		.byte	0x0
 4063 0159 00       		.byte	0x0
 4064 015a 1D       		.uleb128 0x1d
 4065 015b 2E       		.uleb128 0x2e
 4066 015c 01       		.byte	0x1
 4067 015d 3F       		.uleb128 0x3f
 4068 015e 0C       		.uleb128 0xc
 4069 015f 03       		.uleb128 0x3
 4070 0160 0E       		.uleb128 0xe
 4071 0161 3A       		.uleb128 0x3a
 4072 0162 0B       		.uleb128 0xb
 4073 0163 3B       		.uleb128 0x3b
 4074 0164 0B       		.uleb128 0xb
 4075 0165 27       		.uleb128 0x27
 4076 0166 0C       		.uleb128 0xc
 4077 0167 11       		.uleb128 0x11
 4078 0168 01       		.uleb128 0x1
 4079 0169 12       		.uleb128 0x12
 4080 016a 01       		.uleb128 0x1
 4081 016b 40       		.uleb128 0x40
ARM GAS  /tmp/ccbOgSVP.s 			page 73


 4082 016c 06       		.uleb128 0x6
 4083 016d 01       		.uleb128 0x1
 4084 016e 13       		.uleb128 0x13
 4085 016f 00       		.byte	0x0
 4086 0170 00       		.byte	0x0
 4087 0171 1E       		.uleb128 0x1e
 4088 0172 05       		.uleb128 0x5
 4089 0173 00       		.byte	0x0
 4090 0174 03       		.uleb128 0x3
 4091 0175 0E       		.uleb128 0xe
 4092 0176 3A       		.uleb128 0x3a
 4093 0177 0B       		.uleb128 0xb
 4094 0178 3B       		.uleb128 0x3b
 4095 0179 0B       		.uleb128 0xb
 4096 017a 49       		.uleb128 0x49
 4097 017b 13       		.uleb128 0x13
 4098 017c 02       		.uleb128 0x2
 4099 017d 06       		.uleb128 0x6
 4100 017e 00       		.byte	0x0
 4101 017f 00       		.byte	0x0
 4102 0180 1F       		.uleb128 0x1f
 4103 0181 0B       		.uleb128 0xb
 4104 0182 01       		.byte	0x1
 4105 0183 11       		.uleb128 0x11
 4106 0184 01       		.uleb128 0x1
 4107 0185 12       		.uleb128 0x12
 4108 0186 01       		.uleb128 0x1
 4109 0187 01       		.uleb128 0x1
 4110 0188 13       		.uleb128 0x13
 4111 0189 00       		.byte	0x0
 4112 018a 00       		.byte	0x0
 4113 018b 20       		.uleb128 0x20
 4114 018c 34       		.uleb128 0x34
 4115 018d 00       		.byte	0x0
 4116 018e 03       		.uleb128 0x3
 4117 018f 08       		.uleb128 0x8
 4118 0190 3A       		.uleb128 0x3a
 4119 0191 0B       		.uleb128 0xb
 4120 0192 3B       		.uleb128 0x3b
 4121 0193 0B       		.uleb128 0xb
 4122 0194 49       		.uleb128 0x49
 4123 0195 13       		.uleb128 0x13
 4124 0196 00       		.byte	0x0
 4125 0197 00       		.byte	0x0
 4126 0198 21       		.uleb128 0x21
 4127 0199 34       		.uleb128 0x34
 4128 019a 00       		.byte	0x0
 4129 019b 03       		.uleb128 0x3
 4130 019c 08       		.uleb128 0x8
 4131 019d 3A       		.uleb128 0x3a
 4132 019e 0B       		.uleb128 0xb
 4133 019f 3B       		.uleb128 0x3b
 4134 01a0 05       		.uleb128 0x5
 4135 01a1 49       		.uleb128 0x49
 4136 01a2 13       		.uleb128 0x13
 4137 01a3 00       		.byte	0x0
 4138 01a4 00       		.byte	0x0
ARM GAS  /tmp/ccbOgSVP.s 			page 74


 4139 01a5 22       		.uleb128 0x22
 4140 01a6 0B       		.uleb128 0xb
 4141 01a7 01       		.byte	0x1
 4142 01a8 11       		.uleb128 0x11
 4143 01a9 01       		.uleb128 0x1
 4144 01aa 12       		.uleb128 0x12
 4145 01ab 01       		.uleb128 0x1
 4146 01ac 00       		.byte	0x0
 4147 01ad 00       		.byte	0x0
 4148 01ae 23       		.uleb128 0x23
 4149 01af 2E       		.uleb128 0x2e
 4150 01b0 01       		.byte	0x1
 4151 01b1 3F       		.uleb128 0x3f
 4152 01b2 0C       		.uleb128 0xc
 4153 01b3 03       		.uleb128 0x3
 4154 01b4 0E       		.uleb128 0xe
 4155 01b5 3A       		.uleb128 0x3a
 4156 01b6 0B       		.uleb128 0xb
 4157 01b7 3B       		.uleb128 0x3b
 4158 01b8 05       		.uleb128 0x5
 4159 01b9 27       		.uleb128 0x27
 4160 01ba 0C       		.uleb128 0xc
 4161 01bb 11       		.uleb128 0x11
 4162 01bc 01       		.uleb128 0x1
 4163 01bd 12       		.uleb128 0x12
 4164 01be 01       		.uleb128 0x1
 4165 01bf 40       		.uleb128 0x40
 4166 01c0 06       		.uleb128 0x6
 4167 01c1 01       		.uleb128 0x1
 4168 01c2 13       		.uleb128 0x13
 4169 01c3 00       		.byte	0x0
 4170 01c4 00       		.byte	0x0
 4171 01c5 24       		.uleb128 0x24
 4172 01c6 05       		.uleb128 0x5
 4173 01c7 00       		.byte	0x0
 4174 01c8 03       		.uleb128 0x3
 4175 01c9 0E       		.uleb128 0xe
 4176 01ca 3A       		.uleb128 0x3a
 4177 01cb 0B       		.uleb128 0xb
 4178 01cc 3B       		.uleb128 0x3b
 4179 01cd 05       		.uleb128 0x5
 4180 01ce 49       		.uleb128 0x49
 4181 01cf 13       		.uleb128 0x13
 4182 01d0 02       		.uleb128 0x2
 4183 01d1 06       		.uleb128 0x6
 4184 01d2 00       		.byte	0x0
 4185 01d3 00       		.byte	0x0
 4186 01d4 25       		.uleb128 0x25
 4187 01d5 34       		.uleb128 0x34
 4188 01d6 00       		.byte	0x0
 4189 01d7 03       		.uleb128 0x3
 4190 01d8 0E       		.uleb128 0xe
 4191 01d9 3A       		.uleb128 0x3a
 4192 01da 0B       		.uleb128 0xb
 4193 01db 3B       		.uleb128 0x3b
 4194 01dc 05       		.uleb128 0x5
 4195 01dd 49       		.uleb128 0x49
ARM GAS  /tmp/ccbOgSVP.s 			page 75


 4196 01de 13       		.uleb128 0x13
 4197 01df 02       		.uleb128 0x2
 4198 01e0 06       		.uleb128 0x6
 4199 01e1 00       		.byte	0x0
 4200 01e2 00       		.byte	0x0
 4201 01e3 26       		.uleb128 0x26
 4202 01e4 2E       		.uleb128 0x2e
 4203 01e5 01       		.byte	0x1
 4204 01e6 03       		.uleb128 0x3
 4205 01e7 0E       		.uleb128 0xe
 4206 01e8 3A       		.uleb128 0x3a
 4207 01e9 0B       		.uleb128 0xb
 4208 01ea 3B       		.uleb128 0x3b
 4209 01eb 0B       		.uleb128 0xb
 4210 01ec 27       		.uleb128 0x27
 4211 01ed 0C       		.uleb128 0xc
 4212 01ee 11       		.uleb128 0x11
 4213 01ef 01       		.uleb128 0x1
 4214 01f0 12       		.uleb128 0x12
 4215 01f1 01       		.uleb128 0x1
 4216 01f2 40       		.uleb128 0x40
 4217 01f3 06       		.uleb128 0x6
 4218 01f4 01       		.uleb128 0x1
 4219 01f5 13       		.uleb128 0x13
 4220 01f6 00       		.byte	0x0
 4221 01f7 00       		.byte	0x0
 4222 01f8 27       		.uleb128 0x27
 4223 01f9 34       		.uleb128 0x34
 4224 01fa 00       		.byte	0x0
 4225 01fb 03       		.uleb128 0x3
 4226 01fc 0E       		.uleb128 0xe
 4227 01fd 3A       		.uleb128 0x3a
 4228 01fe 0B       		.uleb128 0xb
 4229 01ff 3B       		.uleb128 0x3b
 4230 0200 0B       		.uleb128 0xb
 4231 0201 49       		.uleb128 0x49
 4232 0202 13       		.uleb128 0x13
 4233 0203 02       		.uleb128 0x2
 4234 0204 06       		.uleb128 0x6
 4235 0205 00       		.byte	0x0
 4236 0206 00       		.byte	0x0
 4237 0207 28       		.uleb128 0x28
 4238 0208 34       		.uleb128 0x34
 4239 0209 00       		.byte	0x0
 4240 020a 03       		.uleb128 0x3
 4241 020b 08       		.uleb128 0x8
 4242 020c 3A       		.uleb128 0x3a
 4243 020d 0B       		.uleb128 0xb
 4244 020e 3B       		.uleb128 0x3b
 4245 020f 0B       		.uleb128 0xb
 4246 0210 49       		.uleb128 0x49
 4247 0211 13       		.uleb128 0x13
 4248 0212 02       		.uleb128 0x2
 4249 0213 06       		.uleb128 0x6
 4250 0214 00       		.byte	0x0
 4251 0215 00       		.byte	0x0
 4252 0216 29       		.uleb128 0x29
ARM GAS  /tmp/ccbOgSVP.s 			page 76


 4253 0217 2E       		.uleb128 0x2e
 4254 0218 00       		.byte	0x0
 4255 0219 3F       		.uleb128 0x3f
 4256 021a 0C       		.uleb128 0xc
 4257 021b 03       		.uleb128 0x3
 4258 021c 0E       		.uleb128 0xe
 4259 021d 3A       		.uleb128 0x3a
 4260 021e 0B       		.uleb128 0xb
 4261 021f 3B       		.uleb128 0x3b
 4262 0220 05       		.uleb128 0x5
 4263 0221 27       		.uleb128 0x27
 4264 0222 0C       		.uleb128 0xc
 4265 0223 11       		.uleb128 0x11
 4266 0224 01       		.uleb128 0x1
 4267 0225 12       		.uleb128 0x12
 4268 0226 01       		.uleb128 0x1
 4269 0227 40       		.uleb128 0x40
 4270 0228 0A       		.uleb128 0xa
 4271 0229 00       		.byte	0x0
 4272 022a 00       		.byte	0x0
 4273 022b 2A       		.uleb128 0x2a
 4274 022c 34       		.uleb128 0x34
 4275 022d 00       		.byte	0x0
 4276 022e 03       		.uleb128 0x3
 4277 022f 0E       		.uleb128 0xe
 4278 0230 3A       		.uleb128 0x3a
 4279 0231 0B       		.uleb128 0xb
 4280 0232 3B       		.uleb128 0x3b
 4281 0233 05       		.uleb128 0x5
 4282 0234 49       		.uleb128 0x49
 4283 0235 13       		.uleb128 0x13
 4284 0236 3F       		.uleb128 0x3f
 4285 0237 0C       		.uleb128 0xc
 4286 0238 3C       		.uleb128 0x3c
 4287 0239 0C       		.uleb128 0xc
 4288 023a 00       		.byte	0x0
 4289 023b 00       		.byte	0x0
 4290 023c 2B       		.uleb128 0x2b
 4291 023d 34       		.uleb128 0x34
 4292 023e 00       		.byte	0x0
 4293 023f 03       		.uleb128 0x3
 4294 0240 0E       		.uleb128 0xe
 4295 0241 3A       		.uleb128 0x3a
 4296 0242 0B       		.uleb128 0xb
 4297 0243 3B       		.uleb128 0x3b
 4298 0244 0B       		.uleb128 0xb
 4299 0245 49       		.uleb128 0x49
 4300 0246 13       		.uleb128 0x13
 4301 0247 3F       		.uleb128 0x3f
 4302 0248 0C       		.uleb128 0xc
 4303 0249 02       		.uleb128 0x2
 4304 024a 0A       		.uleb128 0xa
 4305 024b 00       		.byte	0x0
 4306 024c 00       		.byte	0x0
 4307 024d 00       		.byte	0x0
 4308              		.section	.debug_pubnames,"",%progbits
 4309 0000 0C010000 		.4byte	0x10c
ARM GAS  /tmp/ccbOgSVP.s 			page 77


 4310 0004 0200     		.2byte	0x2
 4311 0006 00000000 		.4byte	.Ldebug_info0
 4312 000a 5F110000 		.4byte	0x115f
 4313 000e F70C0000 		.4byte	0xcf7
 4314 0012 6164635F 		.ascii	"adc_lld_init\000"
 4314      6C6C645F 
 4314      696E6974 
 4314      00
 4315 001f 0C0D0000 		.4byte	0xd0c
 4316 0023 6164635F 		.ascii	"adc_lld_start\000"
 4316      6C6C645F 
 4316      73746172 
 4316      7400
 4317 0031 780D0000 		.4byte	0xd78
 4318 0035 6164635F 		.ascii	"adc_lld_stop\000"
 4318      6C6C645F 
 4318      73746F70 
 4318      00
 4319 0042 A30D0000 		.4byte	0xda3
 4320 0046 6164635F 		.ascii	"adc_lld_start_conversion\000"
 4320      6C6C645F 
 4320      73746172 
 4320      745F636F 
 4320      6E766572 
 4321 005f EE0D0000 		.4byte	0xdee
 4322 0063 6164635F 		.ascii	"adc_lld_stop_conversion\000"
 4322      6C6C645F 
 4322      73746F70 
 4322      5F636F6E 
 4322      76657273 
 4323 007b 320F0000 		.4byte	0xf32
 4324 007f 56656374 		.ascii	"Vector88\000"
 4324      6F723838 
 4324      00
 4325 0088 58100000 		.4byte	0x1058
 4326 008c 61646353 		.ascii	"adcSTM32EnableTSVREFE\000"
 4326      544D3332 
 4326      456E6162 
 4326      6C655453 
 4326      56524546 
 4327 00a2 6D100000 		.4byte	0x106d
 4328 00a6 61646353 		.ascii	"adcSTM32DisableTSVREFE\000"
 4328      544D3332 
 4328      44697361 
 4328      626C6554 
 4328      53565245 
 4329 00bd 82100000 		.4byte	0x1082
 4330 00c1 61646353 		.ascii	"adcSTM32EnableVBATE\000"
 4330      544D3332 
 4330      456E6162 
 4330      6C655642 
 4330      41544500 
 4331 00d5 97100000 		.4byte	0x1097
 4332 00d9 61646353 		.ascii	"adcSTM32DisableVBATE\000"
 4332      544D3332 
 4332      44697361 
 4332      626C6556 
ARM GAS  /tmp/ccbOgSVP.s 			page 78


 4332      42415445 
 4333 00ee 28110000 		.4byte	0x1128
 4334 00f2 41444344 		.ascii	"ADCD1\000"
 4334      3100
 4335 00f8 3A110000 		.4byte	0x113a
 4336 00fc 41444344 		.ascii	"ADCD2\000"
 4336      3200
 4337 0102 4C110000 		.4byte	0x114c
 4338 0106 41444344 		.ascii	"ADCD3\000"
 4338      3300
 4339 010c 00000000 		.4byte	0x0
 4340              		.section	.debug_pubtypes,"",%progbits
 4341 0000 4E020000 		.4byte	0x24e
 4342 0004 0200     		.2byte	0x2
 4343 0006 00000000 		.4byte	.Ldebug_info0
 4344 000a 5F110000 		.4byte	0x115f
 4345 000e 30000000 		.4byte	0x30
 4346 0012 73697A65 		.ascii	"size_t\000"
 4346      5F7400
 4347 0019 49000000 		.4byte	0x49
 4348 001d 75696E74 		.ascii	"uint8_t\000"
 4348      385F7400 
 4349 0025 62000000 		.4byte	0x62
 4350 0029 75696E74 		.ascii	"uint16_t\000"
 4350      31365F74 
 4350      00
 4351 0032 74000000 		.4byte	0x74
 4352 0036 696E7433 		.ascii	"int32_t\000"
 4352      325F7400 
 4353 003e 86000000 		.4byte	0x86
 4354 0042 75696E74 		.ascii	"uint32_t\000"
 4354      33325F74 
 4354      00
 4355 004b A6000000 		.4byte	0xa6
 4356 004f 626F6F6C 		.ascii	"bool_t\000"
 4356      5F7400
 4357 0056 B1000000 		.4byte	0xb1
 4358 005a 746D6F64 		.ascii	"tmode_t\000"
 4358      655F7400 
 4359 0062 BC000000 		.4byte	0xbc
 4360 0066 74737461 		.ascii	"tstate_t\000"
 4360      74655F74 
 4360      00
 4361 006f C7000000 		.4byte	0xc7
 4362 0073 74726566 		.ascii	"trefs_t\000"
 4362      735F7400 
 4363 007b D2000000 		.4byte	0xd2
 4364 007f 74707269 		.ascii	"tprio_t\000"
 4364      6F5F7400 
 4365 0087 DD000000 		.4byte	0xdd
 4366 008b 6D73675F 		.ascii	"msg_t\000"
 4366      7400
 4367 0091 E8000000 		.4byte	0xe8
 4368 0095 6576656E 		.ascii	"eventmask_t\000"
 4368      746D6173 
 4368      6B5F7400 
 4369 00a1 F3000000 		.4byte	0xf3
ARM GAS  /tmp/ccbOgSVP.s 			page 79


 4370 00a5 73797374 		.ascii	"systime_t\000"
 4370      696D655F 
 4370      7400
 4371 00af FE000000 		.4byte	0xfe
 4372 00b3 54687265 		.ascii	"Thread\000"
 4372      616400
 4373 00ba 4B020000 		.4byte	0x24b
 4374 00be 54687265 		.ascii	"ThreadsQueue\000"
 4374      61647351 
 4374      75657565 
 4374      00
 4375 00cb 6D020000 		.4byte	0x26d
 4376 00cf 54687265 		.ascii	"ThreadsList\000"
 4376      6164734C 
 4376      69737400 
 4377 00db 78020000 		.4byte	0x278
 4378 00df 72656761 		.ascii	"regarm_t\000"
 4378      726D5F74 
 4378      00
 4379 00e8 85020000 		.4byte	0x285
 4380 00ec 696E7463 		.ascii	"intctx\000"
 4380      747800
 4381 00f3 12030000 		.4byte	0x312
 4382 00f7 636F6E74 		.ascii	"context\000"
 4382      65787400 
 4383 00ff 3F030000 		.4byte	0x33f
 4384 0103 4D757465 		.ascii	"Mutex\000"
 4384      7800
 4385 0109 7C030000 		.4byte	0x37c
 4386 010d 4D757465 		.ascii	"Mutex\000"
 4386      7800
 4387 0113 09010000 		.4byte	0x109
 4388 0117 54687265 		.ascii	"Thread\000"
 4388      616400
 4389 011e D4030000 		.4byte	0x3d4
 4390 0122 4952516E 		.ascii	"IRQn\000"
 4390      00
 4391 0127 58070000 		.4byte	0x758
 4392 012b 4144435F 		.ascii	"ADC_TypeDef\000"
 4392      54797065 
 4392      44656600 
 4393 0137 9B070000 		.4byte	0x79b
 4394 013b 4144435F 		.ascii	"ADC_Common_TypeDef\000"
 4394      436F6D6D 
 4394      6F6E5F54 
 4394      79706544 
 4394      656600
 4395 014e 0A080000 		.4byte	0x80a
 4396 0152 444D415F 		.ascii	"DMA_Stream_TypeDef\000"
 4396      53747265 
 4396      616D5F54 
 4396      79706544 
 4396      656600
 4397 0165 E3090000 		.4byte	0x9e3
 4398 0169 5243435F 		.ascii	"RCC_TypeDef\000"
 4398      54797065 
 4398      44656600 
ARM GAS  /tmp/ccbOgSVP.s 			page 80


 4399 0175 4A0A0000 		.4byte	0xa4a
 4400 0179 73746D33 		.ascii	"stm32_dma_stream_t\000"
 4400      325F646D 
 4400      615F7374 
 4400      7265616D 
 4400      5F7400
 4401 018c 550A0000 		.4byte	0xa55
 4402 0190 73746D33 		.ascii	"stm32_dmaisr_t\000"
 4402      325F646D 
 4402      61697372 
 4402      5F7400
 4403 019f A40A0000 		.4byte	0xaa4
 4404 01a3 61646373 		.ascii	"adcstate_t\000"
 4404      74617465 
 4404      5F7400
 4405 01ae AF0A0000 		.4byte	0xaaf
 4406 01b2 61646373 		.ascii	"adcsample_t\000"
 4406      616D706C 
 4406      655F7400 
 4407 01be BB0A0000 		.4byte	0xabb
 4408 01c2 6164635F 		.ascii	"adc_channels_num_t\000"
 4408      6368616E 
 4408      6E656C73 
 4408      5F6E756D 
 4408      5F7400
 4409 01d5 DD0A0000 		.4byte	0xadd
 4410 01d9 61646365 		.ascii	"adcerror_t\000"
 4410      72726F72 
 4410      5F7400
 4411 01e4 E90A0000 		.4byte	0xae9
 4412 01e8 41444344 		.ascii	"ADCDriver\000"
 4412      72697665 
 4412      7200
 4413 01f2 990B0000 		.4byte	0xb99
 4414 01f6 61646363 		.ascii	"adccallback_t\000"
 4414      616C6C62 
 4414      61636B5F 
 4414      7400
 4415 0204 CD0B0000 		.4byte	0xbcd
 4416 0208 61646365 		.ascii	"adcerrorcallback_t\000"
 4416      72726F72 
 4416      63616C6C 
 4416      6261636B 
 4416      5F7400
 4417 021b 9F0C0000 		.4byte	0xc9f
 4418 021f 41444343 		.ascii	"ADCConversionGroup\000"
 4418      6F6E7665 
 4418      7273696F 
 4418      6E47726F 
 4418      757000
 4419 0232 C40C0000 		.4byte	0xcc4
 4420 0236 41444343 		.ascii	"ADCConfig\000"
 4420      6F6E6669 
 4420      6700
 4421 0240 F50A0000 		.4byte	0xaf5
 4422 0244 41444344 		.ascii	"ADCDriver\000"
 4422      72697665 
ARM GAS  /tmp/ccbOgSVP.s 			page 81


 4422      7200
 4423 024e 00000000 		.4byte	0x0
 4424              		.section	.debug_aranges,"",%progbits
 4425 0000 6C000000 		.4byte	0x6c
 4426 0004 0200     		.2byte	0x2
 4427 0006 00000000 		.4byte	.Ldebug_info0
 4428 000a 04       		.byte	0x4
 4429 000b 00       		.byte	0x0
 4430 000c 0000     		.2byte	0x0
 4431 000e 0000     		.2byte	0x0
 4432 0010 00000000 		.4byte	.LFB119
 4433 0014 84000000 		.4byte	.LFE119-.LFB119
 4434 0018 00000000 		.4byte	.LFB120
 4435 001c AC000000 		.4byte	.LFE120-.LFB120
 4436 0020 00000000 		.4byte	.LFB121
 4437 0024 60000000 		.4byte	.LFE121-.LFB121
 4438 0028 00000000 		.4byte	.LFB122
 4439 002c 76000000 		.4byte	.LFE122-.LFB122
 4440 0030 00000000 		.4byte	.LFB123
 4441 0034 2E000000 		.4byte	.LFE123-.LFB123
 4442 0038 00000000 		.4byte	.LFB117
 4443 003c F2000000 		.4byte	.LFE117-.LFB117
 4444 0040 00000000 		.4byte	.LFB118
 4445 0044 5C010000 		.4byte	.LFE118-.LFB118
 4446 0048 00000000 		.4byte	.LFB124
 4447 004c 10000000 		.4byte	.LFE124-.LFB124
 4448 0050 00000000 		.4byte	.LFB125
 4449 0054 10000000 		.4byte	.LFE125-.LFB125
 4450 0058 00000000 		.4byte	.LFB126
 4451 005c 10000000 		.4byte	.LFE126-.LFB126
 4452 0060 00000000 		.4byte	.LFB127
 4453 0064 10000000 		.4byte	.LFE127-.LFB127
 4454 0068 00000000 		.4byte	0x0
 4455 006c 00000000 		.4byte	0x0
 4456              		.section	.debug_ranges,"",%progbits
 4457              	.Ldebug_ranges0:
 4458 0000 00000000 		.4byte	.LFB119
 4459 0004 84000000 		.4byte	.LFE119
 4460 0008 00000000 		.4byte	.LFB120
 4461 000c AC000000 		.4byte	.LFE120
 4462 0010 00000000 		.4byte	.LFB121
 4463 0014 60000000 		.4byte	.LFE121
 4464 0018 00000000 		.4byte	.LFB122
 4465 001c 76000000 		.4byte	.LFE122
 4466 0020 00000000 		.4byte	.LFB123
 4467 0024 2E000000 		.4byte	.LFE123
 4468 0028 00000000 		.4byte	.LFB117
 4469 002c F2000000 		.4byte	.LFE117
 4470 0030 00000000 		.4byte	.LFB118
 4471 0034 5C010000 		.4byte	.LFE118
 4472 0038 00000000 		.4byte	.LFB124
 4473 003c 10000000 		.4byte	.LFE124
 4474 0040 00000000 		.4byte	.LFB125
 4475 0044 10000000 		.4byte	.LFE125
 4476 0048 00000000 		.4byte	.LFB126
 4477 004c 10000000 		.4byte	.LFE126
 4478 0050 00000000 		.4byte	.LFB127
ARM GAS  /tmp/ccbOgSVP.s 			page 82


 4479 0054 10000000 		.4byte	.LFE127
 4480 0058 00000000 		.4byte	0x0
 4481 005c 00000000 		.4byte	0x0
 4482              		.section	.debug_str,"MS",%progbits,1
 4483              	.LASF163:
 4484 0000 4D314152 		.ascii	"M1AR\000"
 4484      00
 4485              	.LASF2:
 4486 0005 73697A65 		.ascii	"size_t\000"
 4486      5F7400
 4487              	.LASF107:
 4488 000c 54494D38 		.ascii	"TIM8_UP_TIM13_IRQn\000"
 4488      5F55505F 
 4488      54494D31 
 4488      335F4952 
 4488      516E00
 4489              	.LASF230:
 4490 001f 73717231 		.ascii	"sqr1\000"
 4490      00
 4491              	.LASF231:
 4492 0024 73717232 		.ascii	"sqr2\000"
 4492      00
 4493              	.LASF232:
 4494 0029 73717233 		.ascii	"sqr3\000"
 4494      00
 4495              	.LASF236:
 4496 002e 6164635F 		.ascii	"adc_lld_start\000"
 4496      6C6C645F 
 4496      73746172 
 4496      7400
 4497              	.LASF21:
 4498 003c 73797374 		.ascii	"systime_t\000"
 4498      696D655F 
 4498      7400
 4499              	.LASF191:
 4500 0046 504C4C49 		.ascii	"PLLI2SCFGR\000"
 4500      32534346 
 4500      475200
 4501              	.LASF26:
 4502 0051 705F6374 		.ascii	"p_ctx\000"
 4502      7800
 4503              	.LASF18:
 4504 0057 74707269 		.ascii	"tprio_t\000"
 4504      6F5F7400 
 4505              	.LASF222:
 4506 005f 61646363 		.ascii	"adccallback_t\000"
 4506      616C6C62 
 4506      61636B5F 
 4506      7400
 4507              	.LASF151:
 4508 006d 53515231 		.ascii	"SQR1\000"
 4508      00
 4509              	.LASF152:
 4510 0072 53515232 		.ascii	"SQR2\000"
 4510      00
 4511              	.LASF153:
 4512 0077 53515233 		.ascii	"SQR3\000"
ARM GAS  /tmp/ccbOgSVP.s 			page 83


 4512      00
 4513              	.LASF35:
 4514 007c 705F6D73 		.ascii	"p_msgqueue\000"
 4514      67717565 
 4514      756500
 4515              	.LASF8:
 4516 0087 696E7433 		.ascii	"int32_t\000"
 4516      325F7400 
 4517              	.LASF206:
 4518 008f 61646373 		.ascii	"adcstate_t\000"
 4518      74617465 
 4518      5F7400
 4519              	.LASF209:
 4520 009a 4144435F 		.ascii	"ADC_ERR_DMAFAILURE\000"
 4520      4552525F 
 4520      444D4146 
 4520      41494C55 
 4520      524500
 4521              	.LASF120:
 4522 00ad 444D4132 		.ascii	"DMA2_Stream1_IRQn\000"
 4522      5F537472 
 4522      65616D31 
 4522      5F495251 
 4522      6E00
 4523              	.LASF114:
 4524 00bf 53504933 		.ascii	"SPI3_IRQn\000"
 4524      5F495251 
 4524      6E00
 4525              	.LASF67:
 4526 00c9 464C4153 		.ascii	"FLASH_IRQn\000"
 4526      485F4952 
 4526      516E00
 4527              	.LASF141:
 4528 00d4 44434D49 		.ascii	"DCMI_IRQn\000"
 4528      5F495251 
 4528      6E00
 4529              	.LASF214:
 4530 00de 636F6E66 		.ascii	"config\000"
 4530      696700
 4531              	.LASF213:
 4532 00e5 73746174 		.ascii	"state\000"
 4532      6500
 4533              	.LASF91:
 4534 00eb 54494D32 		.ascii	"TIM2_IRQn\000"
 4534      5F495251 
 4534      6E00
 4535              	.LASF249:
 4536 00f5 61646353 		.ascii	"adcSTM32DisableVBATE\000"
 4536      544D3332 
 4536      44697361 
 4536      626C6556 
 4536      42415445 
 4537              	.LASF227:
 4538 010a 6572726F 		.ascii	"error_cb\000"
 4538      725F6362 
 4538      00
 4539              	.LASF127:
ARM GAS  /tmp/ccbOgSVP.s 			page 84


 4540 0113 43414E32 		.ascii	"CAN2_RX0_IRQn\000"
 4540      5F525830 
 4540      5F495251 
 4540      6E00
 4541              	.LASF134:
 4542 0121 55534152 		.ascii	"USART6_IRQn\000"
 4542      54365F49 
 4542      52516E00 
 4543              	.LASF48:
 4544 012d 6D5F6F77 		.ascii	"m_owner\000"
 4544      6E657200 
 4545              	.LASF158:
 4546 0135 4A445234 		.ascii	"JDR4\000"
 4546      00
 4547              	.LASF226:
 4548 013a 656E645F 		.ascii	"end_cb\000"
 4548      636200
 4549              	.LASF51:
 4550 0141 65786974 		.ascii	"exitcode\000"
 4550      636F6465 
 4550      00
 4551              	.LASF139:
 4552 014a 4F54475F 		.ascii	"OTG_HS_WKUP_IRQn\000"
 4552      48535F57 
 4552      4B55505F 
 4552      4952516E 
 4552      00
 4553              	.LASF99:
 4554 015b 53504932 		.ascii	"SPI2_IRQn\000"
 4554      5F495251 
 4554      6E00
 4555              	.LASF106:
 4556 0165 54494D38 		.ascii	"TIM8_BRK_TIM12_IRQn\000"
 4556      5F42524B 
 4556      5F54494D 
 4556      31325F49 
 4556      52516E00 
 4557              	.LASF182:
 4558 0179 41484232 		.ascii	"AHB2LPENR\000"
 4558      4C50454E 
 4558      5200
 4559              	.LASF27:
 4560 0183 705F6E65 		.ascii	"p_newer\000"
 4560      77657200 
 4561              	.LASF9:
 4562 018b 6C6F6E67 		.ascii	"long int\000"
 4562      20696E74 
 4562      00
 4563              	.LASF23:
 4564 0194 705F6E65 		.ascii	"p_next\000"
 4564      787400
 4565              	.LASF24:
 4566 019b 705F7072 		.ascii	"p_prev\000"
 4566      657600
 4567              	.LASF221:
 4568 01a2 646D616D 		.ascii	"dmamode\000"
 4568      6F646500 
ARM GAS  /tmp/ccbOgSVP.s 			page 85


 4569              	.LASF131:
 4570 01aa 444D4132 		.ascii	"DMA2_Stream5_IRQn\000"
 4570      5F537472 
 4570      65616D35 
 4570      5F495251 
 4570      6E00
 4571              	.LASF16:
 4572 01bc 74737461 		.ascii	"tstate_t\000"
 4572      74655F74 
 4572      00
 4573              	.LASF244:
 4574 01c5 56656374 		.ascii	"Vector88\000"
 4574      6F723838 
 4574      00
 4575              	.LASF38:
 4576 01ce 705F6D74 		.ascii	"p_mtxlist\000"
 4576      786C6973 
 4576      7400
 4577              	.LASF89:
 4578 01d8 54494D31 		.ascii	"TIM1_TRG_COM_TIM11_IRQn\000"
 4578      5F545247 
 4578      5F434F4D 
 4578      5F54494D 
 4578      31315F49 
 4579              	.LASF43:
 4580 01f0 72656761 		.ascii	"regarm_t\000"
 4580      726D5F74 
 4580      00
 4581              	.LASF237:
 4582 01f9 6164635F 		.ascii	"adc_lld_stop\000"
 4582      6C6C645F 
 4582      73746F70 
 4582      00
 4583              	.LASF179:
 4584 0206 41504232 		.ascii	"APB2ENR\000"
 4584      454E5200 
 4585              	.LASF181:
 4586 020e 41484231 		.ascii	"AHB1LPENR\000"
 4586      4C50454E 
 4586      5200
 4587              	.LASF62:
 4588 0218 53797354 		.ascii	"SysTick_IRQn\000"
 4588      69636B5F 
 4588      4952516E 
 4588      00
 4589              	.LASF102:
 4590 0225 55534152 		.ascii	"USART3_IRQn\000"
 4590      54335F49 
 4590      52516E00 
 4591              	.LASF246:
 4592 0231 61646353 		.ascii	"adcSTM32EnableTSVREFE\000"
 4592      544D3332 
 4592      456E6162 
 4592      6C655453 
 4592      56524546 
 4593              	.LASF1:
 4594 0247 7369676E 		.ascii	"signed char\000"
ARM GAS  /tmp/ccbOgSVP.s 			page 86


 4594      65642063 
 4594      68617200 
 4595              	.LASF53:
 4596 0253 65776D61 		.ascii	"ewmask\000"
 4596      736B00
 4597              	.LASF3:
 4598 025a 75696E74 		.ascii	"uint8_t\000"
 4598      385F7400 
 4599              	.LASF20:
 4600 0262 6576656E 		.ascii	"eventmask_t\000"
 4600      746D6173 
 4600      6B5F7400 
 4601              	.LASF45:
 4602 026e 636F6E74 		.ascii	"context\000"
 4602      65787400 
 4603              	.LASF76:
 4604 0276 444D4131 		.ascii	"DMA1_Stream2_IRQn\000"
 4604      5F537472 
 4604      65616D32 
 4604      5F495251 
 4604      6E00
 4605              	.LASF170:
 4606 0288 52455345 		.ascii	"RESERVED0\000"
 4606      52564544 
 4606      3000
 4607              	.LASF173:
 4608 0292 52455345 		.ascii	"RESERVED1\000"
 4608      52564544 
 4608      3100
 4609              	.LASF4:
 4610 029c 756E7369 		.ascii	"unsigned char\000"
 4610      676E6564 
 4610      20636861 
 4610      7200
 4611              	.LASF123:
 4612 02aa 444D4132 		.ascii	"DMA2_Stream4_IRQn\000"
 4612      5F537472 
 4612      65616D34 
 4612      5F495251 
 4612      6E00
 4613              	.LASF184:
 4614 02bc 52455345 		.ascii	"RESERVED4\000"
 4614      52564544 
 4614      3400
 4615              	.LASF187:
 4616 02c6 52455345 		.ascii	"RESERVED5\000"
 4616      52564544 
 4616      3500
 4617              	.LASF189:
 4618 02d0 52455345 		.ascii	"RESERVED6\000"
 4618      52564544 
 4618      3600
 4619              	.LASF211:
 4620 02da 61646365 		.ascii	"adcerror_t\000"
 4620      72726F72 
 4620      5F7400
 4621              	.LASF95:
ARM GAS  /tmp/ccbOgSVP.s 			page 87


 4622 02e5 49324331 		.ascii	"I2C1_ER_IRQn\000"
 4622      5F45525F 
 4622      4952516E 
 4622      00
 4623              	.LASF200:
 4624 02f2 4144435F 		.ascii	"ADC_UNINIT\000"
 4624      554E494E 
 4624      495400
 4625              	.LASF129:
 4626 02fd 43414E32 		.ascii	"CAN2_SCE_IRQn\000"
 4626      5F534345 
 4626      5F495251 
 4626      6E00
 4627              	.LASF202:
 4628 030b 4144435F 		.ascii	"ADC_READY\000"
 4628      52454144 
 4628      5900
 4629              	.LASF177:
 4630 0315 52455345 		.ascii	"RESERVED2\000"
 4630      52564544 
 4630      3200
 4631              	.LASF180:
 4632 031f 52455345 		.ascii	"RESERVED3\000"
 4632      52564544 
 4632      3300
 4633              	.LASF113:
 4634 0329 54494D35 		.ascii	"TIM5_IRQn\000"
 4634      5F495251 
 4634      6E00
 4635              	.LASF207:
 4636 0333 61646373 		.ascii	"adcsample_t\000"
 4636      616D706C 
 4636      655F7400 
 4637              	.LASF58:
 4638 033f 55736167 		.ascii	"UsageFault_IRQn\000"
 4638      65466175 
 4638      6C745F49 
 4638      52516E00 
 4639              	.LASF54:
 4640 034f 63686172 		.ascii	"char\000"
 4640      00
 4641              	.LASF195:
 4642 0354 69736869 		.ascii	"ishift\000"
 4642      667400
 4643              	.LASF25:
 4644 035b 705F7072 		.ascii	"p_prio\000"
 4644      696F00
 4645              	.LASF175:
 4646 0362 41484232 		.ascii	"AHB2ENR\000"
 4646      454E5200 
 4647              	.LASF52:
 4648 036a 77746F62 		.ascii	"wtobjp\000"
 4648      6A7000
 4649              	.LASF83:
 4650 0371 43414E31 		.ascii	"CAN1_RX0_IRQn\000"
 4650      5F525830 
 4650      5F495251 
ARM GAS  /tmp/ccbOgSVP.s 			page 88


 4650      6E00
 4651              	.LASF205:
 4652 037f 4144435F 		.ascii	"ADC_ERROR\000"
 4652      4552524F 
 4652      5200
 4653              	.LASF242:
 4654 0389 666C6167 		.ascii	"flags\000"
 4654      7300
 4655              	.LASF224:
 4656 038f 63697263 		.ascii	"circular\000"
 4656      756C6172 
 4656      00
 4657              	.LASF128:
 4658 0398 43414E32 		.ascii	"CAN2_RX1_IRQn\000"
 4658      5F525831 
 4658      5F495251 
 4658      6E00
 4659              	.LASF93:
 4660 03a6 54494D34 		.ascii	"TIM4_IRQn\000"
 4660      5F495251 
 4660      6E00
 4661              	.LASF101:
 4662 03b0 55534152 		.ascii	"USART2_IRQn\000"
 4662      54325F49 
 4662      52516E00 
 4663              	.LASF193:
 4664 03bc 73747265 		.ascii	"stream\000"
 4664      616D00
 4665              	.LASF188:
 4666 03c3 42444352 		.ascii	"BDCR\000"
 4666      00
 4667              	.LASF215:
 4668 03c8 73616D70 		.ascii	"samples\000"
 4668      6C657300 
 4669              	.LASF94:
 4670 03d0 49324331 		.ascii	"I2C1_EV_IRQn\000"
 4670      5F45565F 
 4670      4952516E 
 4670      00
 4671              	.LASF159:
 4672 03dd 4144435F 		.ascii	"ADC_TypeDef\000"
 4672      54797065 
 4672      44656600 
 4673              	.LASF44:
 4674 03e9 696E7463 		.ascii	"intctx\000"
 4674      747800
 4675              	.LASF37:
 4676 03f0 705F6570 		.ascii	"p_epending\000"
 4676      656E6469 
 4676      6E6700
 4677              	.LASF166:
 4678 03fb 43464752 		.ascii	"CFGR\000"
 4678      00
 4679              	.LASF90:
 4680 0400 54494D31 		.ascii	"TIM1_CC_IRQn\000"
 4680      5F43435F 
 4680      4952516E 
ARM GAS  /tmp/ccbOgSVP.s 			page 89


 4680      00
 4681              	.LASF143:
 4682 040d 48415348 		.ascii	"HASH_RNG_IRQn\000"
 4682      5F524E47 
 4682      5F495251 
 4682      6E00
 4683              	.LASF70:
 4684 041b 45585449 		.ascii	"EXTI1_IRQn\000"
 4684      315F4952 
 4684      516E00
 4685              	.LASF82:
 4686 0426 43414E31 		.ascii	"CAN1_TX_IRQn\000"
 4686      5F54585F 
 4686      4952516E 
 4686      00
 4687              	.LASF79:
 4688 0433 444D4131 		.ascii	"DMA1_Stream5_IRQn\000"
 4688      5F537472 
 4688      65616D35 
 4688      5F495251 
 4688      6E00
 4689              	.LASF108:
 4690 0445 54494D38 		.ascii	"TIM8_TRG_COM_TIM14_IRQn\000"
 4690      5F545247 
 4690      5F434F4D 
 4690      5F54494D 
 4690      31345F49 
 4691              	.LASF133:
 4692 045d 444D4132 		.ascii	"DMA2_Stream7_IRQn\000"
 4692      5F537472 
 4692      65616D37 
 4692      5F495251 
 4692      6E00
 4693              	.LASF130:
 4694 046f 4F54475F 		.ascii	"OTG_FS_IRQn\000"
 4694      46535F49 
 4694      52516E00 
 4695              	.LASF55:
 4696 047b 4E6F6E4D 		.ascii	"NonMaskableInt_IRQn\000"
 4696      61736B61 
 4696      626C6549 
 4696      6E745F49 
 4696      52516E00 
 4697              	.LASF63:
 4698 048f 57574447 		.ascii	"WWDG_IRQn\000"
 4698      5F495251 
 4698      6E00
 4699              	.LASF11:
 4700 0499 6C6F6E67 		.ascii	"long unsigned int\000"
 4700      20756E73 
 4700      69676E65 
 4700      6420696E 
 4700      7400
 4701              	.LASF178:
 4702 04ab 41504231 		.ascii	"APB1ENR\000"
 4702      454E5200 
 4703              	.LASF220:
ARM GAS  /tmp/ccbOgSVP.s 			page 90


 4704 04b3 646D6173 		.ascii	"dmastp\000"
 4704      747000
 4705              	.LASF56:
 4706 04ba 4D656D6F 		.ascii	"MemoryManagement_IRQn\000"
 4706      72794D61 
 4706      6E616765 
 4706      6D656E74 
 4706      5F495251 
 4707              	.LASF65:
 4708 04d0 54414D50 		.ascii	"TAMP_STAMP_IRQn\000"
 4708      5F535441 
 4708      4D505F49 
 4708      52516E00 
 4709              	.LASF85:
 4710 04e0 43414E31 		.ascii	"CAN1_SCE_IRQn\000"
 4710      5F534345 
 4710      5F495251 
 4710      6E00
 4711              	.LASF251:
 4712 04ee 5F73746D 		.ascii	"_stm32_dma_streams\000"
 4712      33325F64 
 4712      6D615F73 
 4712      74726561 
 4712      6D7300
 4713              	.LASF119:
 4714 0501 444D4132 		.ascii	"DMA2_Stream0_IRQn\000"
 4714      5F537472 
 4714      65616D30 
 4714      5F495251 
 4714      6E00
 4715              	.LASF145:
 4716 0513 534D5052 		.ascii	"SMPR1\000"
 4716      3100
 4717              	.LASF146:
 4718 0519 534D5052 		.ascii	"SMPR2\000"
 4718      3200
 4719              	.LASF198:
 4720 051f 73746D33 		.ascii	"stm32_dma_stream_t\000"
 4720      325F646D 
 4720      615F7374 
 4720      7265616D 
 4720      5F7400
 4721              	.LASF97:
 4722 0532 49324332 		.ascii	"I2C2_ER_IRQn\000"
 4722      5F45525F 
 4722      4952516E 
 4722      00
 4723              	.LASF233:
 4724 053f 41444343 		.ascii	"ADCConversionGroup\000"
 4724      6F6E7665 
 4724      7273696F 
 4724      6E47726F 
 4724      757000
 4725              	.LASF204:
 4726 0552 4144435F 		.ascii	"ADC_COMPLETE\000"
 4726      434F4D50 
 4726      4C455445 
ARM GAS  /tmp/ccbOgSVP.s 			page 91


 4726      00
 4727              	.LASF228:
 4728 055f 736D7072 		.ascii	"smpr1\000"
 4728      3100
 4729              	.LASF229:
 4730 0565 736D7072 		.ascii	"smpr2\000"
 4730      3200
 4731              	.LASF239:
 4732 056b 6164635F 		.ascii	"adc_lld_start_conversion\000"
 4732      6C6C645F 
 4732      73746172 
 4732      745F636F 
 4732      6E766572 
 4733              	.LASF57:
 4734 0584 42757346 		.ascii	"BusFault_IRQn\000"
 4734      61756C74 
 4734      5F495251 
 4734      6E00
 4735              	.LASF165:
 4736 0592 504C4C43 		.ascii	"PLLCFGR\000"
 4736      46475200 
 4737              	.LASF116:
 4738 059a 55415254 		.ascii	"UART5_IRQn\000"
 4738      355F4952 
 4738      516E00
 4739              	.LASF87:
 4740 05a5 54494D31 		.ascii	"TIM1_BRK_TIM9_IRQn\000"
 4740      5F42524B 
 4740      5F54494D 
 4740      395F4952 
 4740      516E00
 4741              	.LASF46:
 4742 05b8 4D757465 		.ascii	"Mutex\000"
 4742      7800
 4743              	.LASF118:
 4744 05be 54494D37 		.ascii	"TIM7_IRQn\000"
 4744      5F495251 
 4744      6E00
 4745              	.LASF12:
 4746 05c8 6C6F6E67 		.ascii	"long long int\000"
 4746      206C6F6E 
 4746      6720696E 
 4746      7400
 4747              	.LASF125:
 4748 05d6 4554485F 		.ascii	"ETH_WKUP_IRQn\000"
 4748      574B5550 
 4748      5F495251 
 4748      6E00
 4749              	.LASF140:
 4750 05e4 4F54475F 		.ascii	"OTG_HS_IRQn\000"
 4750      48535F49 
 4750      52516E00 
 4751              	.LASF47:
 4752 05f0 6D5F7175 		.ascii	"m_queue\000"
 4752      65756500 
 4753              	.LASF190:
 4754 05f8 53534347 		.ascii	"SSCGR\000"
ARM GAS  /tmp/ccbOgSVP.s 			page 92


 4754      5200
 4755              	.LASF98:
 4756 05fe 53504931 		.ascii	"SPI1_IRQn\000"
 4756      5F495251 
 4756      6E00
 4757              	.LASF238:
 4758 0608 61646370 		.ascii	"adcp\000"
 4758      00
 4759              	.LASF223:
 4760 060d 61646365 		.ascii	"adcerrorcallback_t\000"
 4760      72726F72 
 4760      63616C6C 
 4760      6261636B 
 4760      5F7400
 4761              	.LASF59:
 4762 0620 53564361 		.ascii	"SVCall_IRQn\000"
 4762      6C6C5F49 
 4762      52516E00 
 4763              	.LASF172:
 4764 062c 41504232 		.ascii	"APB2RSTR\000"
 4764      52535452 
 4764      00
 4765              	.LASF216:
 4766 0635 64657074 		.ascii	"depth\000"
 4766      6800
 4767              	.LASF219:
 4768 063b 6D757465 		.ascii	"mutex\000"
 4768      7800
 4769              	.LASF144:
 4770 0641 4650555F 		.ascii	"FPU_IRQn\000"
 4770      4952516E 
 4770      00
 4771              	.LASF115:
 4772 064a 55415254 		.ascii	"UART4_IRQn\000"
 4772      345F4952 
 4772      516E00
 4773              	.LASF257:
 4774 0655 2F686F6D 		.ascii	"/home/stm32/Workspace/demoarm\000"
 4774      652F7374 
 4774      6D33322F 
 4774      576F726B 
 4774      73706163 
 4775              	.LASF186:
 4776 0673 41504232 		.ascii	"APB2LPENR\000"
 4776      4C50454E 
 4776      5200
 4777              	.LASF34:
 4778 067d 705F7761 		.ascii	"p_waiting\000"
 4778      6974696E 
 4778      6700
 4779              	.LASF105:
 4780 0687 4F54475F 		.ascii	"OTG_FS_WKUP_IRQn\000"
 4780      46535F57 
 4780      4B55505F 
 4780      4952516E 
 4780      00
 4781              	.LASF31:
ARM GAS  /tmp/ccbOgSVP.s 			page 93


 4782 0698 705F666C 		.ascii	"p_flags\000"
 4782      61677300 
 4783              	.LASF196:
 4784 06a0 73656C66 		.ascii	"selfindex\000"
 4784      696E6465 
 4784      7800
 4785              	.LASF0:
 4786 06aa 756E7369 		.ascii	"unsigned int\000"
 4786      676E6564 
 4786      20696E74 
 4786      00
 4787              	.LASF117:
 4788 06b7 54494D36 		.ascii	"TIM6_DAC_IRQn\000"
 4788      5F444143 
 4788      5F495251 
 4788      6E00
 4789              	.LASF208:
 4790 06c5 6164635F 		.ascii	"adc_channels_num_t\000"
 4790      6368616E 
 4790      6E656C73 
 4790      5F6E756D 
 4790      5F7400
 4791              	.LASF40:
 4792 06d8 705F6D70 		.ascii	"p_mpool\000"
 4792      6F6F6C00 
 4793              	.LASF96:
 4794 06e0 49324332 		.ascii	"I2C2_EV_IRQn\000"
 4794      5F45565F 
 4794      4952516E 
 4794      00
 4795              	.LASF32:
 4796 06ed 705F7265 		.ascii	"p_refs\000"
 4796      667300
 4797              	.LASF225:
 4798 06f4 6E756D5F 		.ascii	"num_channels\000"
 4798      6368616E 
 4798      6E656C73 
 4798      00
 4799              	.LASF42:
 4800 0701 54687265 		.ascii	"ThreadsList\000"
 4800      6164734C 
 4800      69737400 
 4801              	.LASF252:
 4802 070d 41444344 		.ascii	"ADCD1\000"
 4802      3100
 4803              	.LASF253:
 4804 0713 41444344 		.ascii	"ADCD2\000"
 4804      3200
 4805              	.LASF254:
 4806 0719 41444344 		.ascii	"ADCD3\000"
 4806      3300
 4807              	.LASF185:
 4808 071f 41504231 		.ascii	"APB1LPENR\000"
 4808      4C50454E 
 4808      5200
 4809              	.LASF75:
 4810 0729 444D4131 		.ascii	"DMA1_Stream1_IRQn\000"
ARM GAS  /tmp/ccbOgSVP.s 			page 94


 4810      5F537472 
 4810      65616D31 
 4810      5F495251 
 4810      6E00
 4811              	.LASF122:
 4812 073b 444D4132 		.ascii	"DMA2_Stream3_IRQn\000"
 4812      5F537472 
 4812      65616D33 
 4812      5F495251 
 4812      6E00
 4813              	.LASF126:
 4814 074d 43414E32 		.ascii	"CAN2_TX_IRQn\000"
 4814      5F54585F 
 4814      4952516E 
 4814      00
 4815              	.LASF241:
 4816 075a 6164635F 		.ascii	"adc_lld_stop_conversion\000"
 4816      6C6C645F 
 4816      73746F70 
 4816      5F636F6E 
 4816      76657273 
 4817              	.LASF164:
 4818 0772 444D415F 		.ascii	"DMA_Stream_TypeDef\000"
 4818      53747265 
 4818      616D5F54 
 4818      79706544 
 4818      656600
 4819              	.LASF33:
 4820 0785 705F7469 		.ascii	"p_time\000"
 4820      6D6500
 4821              	.LASF258:
 4822 078c 4952516E 		.ascii	"IRQn\000"
 4822      00
 4823              	.LASF80:
 4824 0791 444D4131 		.ascii	"DMA1_Stream6_IRQn\000"
 4824      5F537472 
 4824      65616D36 
 4824      5F495251 
 4824      6E00
 4825              	.LASF169:
 4826 07a3 41484233 		.ascii	"AHB3RSTR\000"
 4826      52535452 
 4826      00
 4827              	.LASF39:
 4828 07ac 705F7265 		.ascii	"p_realprio\000"
 4828      616C7072 
 4828      696F00
 4829              	.LASF203:
 4830 07b7 4144435F 		.ascii	"ADC_ACTIVE\000"
 4830      41435449 
 4830      564500
 4831              	.LASF74:
 4832 07c2 444D4131 		.ascii	"DMA1_Stream0_IRQn\000"
 4832      5F537472 
 4832      65616D30 
 4832      5F495251 
 4832      6E00
ARM GAS  /tmp/ccbOgSVP.s 			page 95


 4833              	.LASF171:
 4834 07d4 41504231 		.ascii	"APB1RSTR\000"
 4834      52535452 
 4834      00
 4835              	.LASF199:
 4836 07dd 73746D33 		.ascii	"stm32_dmaisr_t\000"
 4836      325F646D 
 4836      61697372 
 4836      5F7400
 4837              	.LASF104:
 4838 07ec 5254435F 		.ascii	"RTC_Alarm_IRQn\000"
 4838      416C6172 
 4838      6D5F4952 
 4838      516E00
 4839              	.LASF136:
 4840 07fb 49324333 		.ascii	"I2C3_ER_IRQn\000"
 4840      5F45525F 
 4840      4952516E 
 4840      00
 4841              	.LASF142:
 4842 0808 43525950 		.ascii	"CRYP_IRQn\000"
 4842      5F495251 
 4842      6E00
 4843              	.LASF255:
 4844 0812 474E5520 		.ascii	"GNU C 4.5.2\000"
 4844      4320342E 
 4844      352E3200 
 4845              	.LASF13:
 4846 081e 6C6F6E67 		.ascii	"long long unsigned int\000"
 4846      206C6F6E 
 4846      6720756E 
 4846      7369676E 
 4846      65642069 
 4847              	.LASF28:
 4848 0835 705F6F6C 		.ascii	"p_older\000"
 4848      64657200 
 4849              	.LASF6:
 4850 083d 75696E74 		.ascii	"uint16_t\000"
 4850      31365F74 
 4850      00
 4851              	.LASF19:
 4852 0846 6D73675F 		.ascii	"msg_t\000"
 4852      7400
 4853              	.LASF103:
 4854 084c 45585449 		.ascii	"EXTI15_10_IRQn\000"
 4854      31355F31 
 4854      305F4952 
 4854      516E00
 4855              	.LASF92:
 4856 085b 54494D33 		.ascii	"TIM3_IRQn\000"
 4856      5F495251 
 4856      6E00
 4857              	.LASF100:
 4858 0865 55534152 		.ascii	"USART1_IRQn\000"
 4858      54315F49 
 4858      52516E00 
 4859              	.LASF71:
ARM GAS  /tmp/ccbOgSVP.s 			page 96


 4860 0871 45585449 		.ascii	"EXTI2_IRQn\000"
 4860      325F4952 
 4860      516E00
 4861              	.LASF212:
 4862 087c 41444344 		.ascii	"ADCDriver\000"
 4862      72697665 
 4862      7200
 4863              	.LASF245:
 4864 0886 6164635F 		.ascii	"adc_lld_init\000"
 4864      6C6C645F 
 4864      696E6974 
 4864      00
 4865              	.LASF256:
 4866 0893 2E2E2F6C 		.ascii	"../libs/ChibiOS_2.4.0/os/hal/platforms/STM32F4xx/ad"
 4866      6962732F 
 4866      43686962 
 4866      694F535F 
 4866      322E342E 
 4867 08c6 635F6C6C 		.ascii	"c_lld.c\000"
 4867      642E6300 
 4868              	.LASF197:
 4869 08ce 76656374 		.ascii	"vector\000"
 4869      6F7200
 4870              	.LASF81:
 4871 08d5 4144435F 		.ascii	"ADC_IRQn\000"
 4871      4952516E 
 4871      00
 4872              	.LASF210:
 4873 08de 4144435F 		.ascii	"ADC_ERR_OVERFLOW\000"
 4873      4552525F 
 4873      4F564552 
 4873      464C4F57 
 4873      00
 4874              	.LASF243:
 4875 08ef 68616C66 		.ascii	"half\000"
 4875      00
 4876              	.LASF183:
 4877 08f4 41484233 		.ascii	"AHB3LPENR\000"
 4877      4C50454E 
 4877      5200
 4878              	.LASF248:
 4879 08fe 61646353 		.ascii	"adcSTM32EnableVBATE\000"
 4879      544D3332 
 4879      456E6162 
 4879      6C655642 
 4879      41544500 
 4880              	.LASF64:
 4881 0912 5056445F 		.ascii	"PVD_IRQn\000"
 4881      4952516E 
 4881      00
 4882              	.LASF111:
 4883 091b 46534D43 		.ascii	"FSMC_IRQn\000"
 4883      5F495251 
 4883      6E00
 4884              	.LASF69:
 4885 0925 45585449 		.ascii	"EXTI0_IRQn\000"
 4885      305F4952 
ARM GAS  /tmp/ccbOgSVP.s 			page 97


 4885      516E00
 4886              	.LASF15:
 4887 0930 746D6F64 		.ascii	"tmode_t\000"
 4887      655F7400 
 4888              	.LASF78:
 4889 0938 444D4131 		.ascii	"DMA1_Stream4_IRQn\000"
 4889      5F537472 
 4889      65616D34 
 4889      5F495251 
 4889      6E00
 4890              	.LASF234:
 4891 094a 64756D6D 		.ascii	"dummy\000"
 4891      7900
 4892              	.LASF201:
 4893 0950 4144435F 		.ascii	"ADC_STOP\000"
 4893      53544F50 
 4893      00
 4894              	.LASF132:
 4895 0959 444D4132 		.ascii	"DMA2_Stream6_IRQn\000"
 4895      5F537472 
 4895      65616D36 
 4895      5F495251 
 4895      6E00
 4896              	.LASF174:
 4897 096b 41484231 		.ascii	"AHB1ENR\000"
 4897      454E5200 
 4898              	.LASF60:
 4899 0973 44656275 		.ascii	"DebugMonitor_IRQn\000"
 4899      674D6F6E 
 4899      69746F72 
 4899      5F495251 
 4899      6E00
 4900              	.LASF135:
 4901 0985 49324333 		.ascii	"I2C3_EV_IRQn\000"
 4901      5F45565F 
 4901      4952516E 
 4901      00
 4902              	.LASF217:
 4903 0992 67727070 		.ascii	"grpp\000"
 4903      00
 4904              	.LASF168:
 4905 0997 41484232 		.ascii	"AHB2RSTR\000"
 4905      52535452 
 4905      00
 4906              	.LASF218:
 4907 09a0 74687265 		.ascii	"thread\000"
 4907      616400
 4908              	.LASF162:
 4909 09a7 4D304152 		.ascii	"M0AR\000"
 4909      00
 4910              	.LASF124:
 4911 09ac 4554485F 		.ascii	"ETH_IRQn\000"
 4911      4952516E 
 4911      00
 4912              	.LASF192:
 4913 09b5 5243435F 		.ascii	"RCC_TypeDef\000"
 4913      54797065 
ARM GAS  /tmp/ccbOgSVP.s 			page 98


 4913      44656600 
 4914              	.LASF5:
 4915 09c1 73686F72 		.ascii	"short int\000"
 4915      7420696E 
 4915      7400
 4916              	.LASF68:
 4917 09cb 5243435F 		.ascii	"RCC_IRQn\000"
 4917      4952516E 
 4917      00
 4918              	.LASF240:
 4919 09d4 6D6F6465 		.ascii	"mode\000"
 4919      00
 4920              	.LASF147:
 4921 09d9 4A4F4652 		.ascii	"JOFR1\000"
 4921      3100
 4922              	.LASF148:
 4923 09df 4A4F4652 		.ascii	"JOFR2\000"
 4923      3200
 4924              	.LASF149:
 4925 09e5 4A4F4652 		.ascii	"JOFR3\000"
 4925      3300
 4926              	.LASF150:
 4927 09eb 4A4F4652 		.ascii	"JOFR4\000"
 4927      3400
 4928              	.LASF77:
 4929 09f1 444D4131 		.ascii	"DMA1_Stream3_IRQn\000"
 4929      5F537472 
 4929      65616D33 
 4929      5F495251 
 4929      6E00
 4930              	.LASF14:
 4931 0a03 626F6F6C 		.ascii	"bool_t\000"
 4931      5F7400
 4932              	.LASF155:
 4933 0a0a 4A445231 		.ascii	"JDR1\000"
 4933      00
 4934              	.LASF156:
 4935 0a0f 4A445232 		.ascii	"JDR2\000"
 4935      00
 4936              	.LASF157:
 4937 0a14 4A445233 		.ascii	"JDR3\000"
 4937      00
 4938              	.LASF22:
 4939 0a19 54687265 		.ascii	"Thread\000"
 4939      616400
 4940              	.LASF154:
 4941 0a20 4A535152 		.ascii	"JSQR\000"
 4941      00
 4942              	.LASF88:
 4943 0a25 54494D31 		.ascii	"TIM1_UP_TIM10_IRQn\000"
 4943      5F55505F 
 4943      54494D31 
 4943      305F4952 
 4943      516E00
 4944              	.LASF250:
 4945 0a38 49544D5F 		.ascii	"ITM_RxBuffer\000"
 4945      52784275 
ARM GAS  /tmp/ccbOgSVP.s 			page 99


 4945      66666572 
 4945      00
 4946              	.LASF17:
 4947 0a45 74726566 		.ascii	"trefs_t\000"
 4947      735F7400 
 4948              	.LASF137:
 4949 0a4d 4F54475F 		.ascii	"OTG_HS_EP1_OUT_IRQn\000"
 4949      48535F45 
 4949      50315F4F 
 4949      55545F49 
 4949      52516E00 
 4950              	.LASF66:
 4951 0a61 5254435F 		.ascii	"RTC_WKUP_IRQn\000"
 4951      574B5550 
 4951      5F495251 
 4951      6E00
 4952              	.LASF161:
 4953 0a6f 4E445452 		.ascii	"NDTR\000"
 4953      00
 4954              	.LASF10:
 4955 0a74 75696E74 		.ascii	"uint32_t\000"
 4955      33325F74 
 4955      00
 4956              	.LASF84:
 4957 0a7d 43414E31 		.ascii	"CAN1_RX1_IRQn\000"
 4957      5F525831 
 4957      5F495251 
 4957      6E00
 4958              	.LASF41:
 4959 0a8b 54687265 		.ascii	"ThreadsQueue\000"
 4959      61647351 
 4959      75657565 
 4959      00
 4960              	.LASF86:
 4961 0a98 45585449 		.ascii	"EXTI9_5_IRQn\000"
 4961      395F355F 
 4961      4952516E 
 4961      00
 4962              	.LASF259:
 4963 0aa5 6164635F 		.ascii	"adc_lld_serve_rx_interrupt\000"
 4963      6C6C645F 
 4963      73657276 
 4963      655F7278 
 4963      5F696E74 
 4964              	.LASF50:
 4965 0ac0 7264796D 		.ascii	"rdymsg\000"
 4965      736700
 4966              	.LASF73:
 4967 0ac7 45585449 		.ascii	"EXTI4_IRQn\000"
 4967      345F4952 
 4967      516E00
 4968              	.LASF7:
 4969 0ad2 73686F72 		.ascii	"short unsigned int\000"
 4969      7420756E 
 4969      7369676E 
 4969      65642069 
 4969      6E7400
ARM GAS  /tmp/ccbOgSVP.s 			page 100


 4970              	.LASF109:
 4971 0ae5 54494D38 		.ascii	"TIM8_CC_IRQn\000"
 4971      5F43435F 
 4971      4952516E 
 4971      00
 4972              	.LASF112:
 4973 0af2 5344494F 		.ascii	"SDIO_IRQn\000"
 4973      5F495251 
 4973      6E00
 4974              	.LASF72:
 4975 0afc 45585449 		.ascii	"EXTI3_IRQn\000"
 4975      335F4952 
 4975      516E00
 4976              	.LASF61:
 4977 0b07 50656E64 		.ascii	"PendSV_IRQn\000"
 4977      53565F49 
 4977      52516E00 
 4978              	.LASF138:
 4979 0b13 4F54475F 		.ascii	"OTG_HS_EP1_IN_IRQn\000"
 4979      48535F45 
 4979      50315F49 
 4979      4E5F4952 
 4979      516E00
 4980              	.LASF110:
 4981 0b26 444D4131 		.ascii	"DMA1_Stream7_IRQn\000"
 4981      5F537472 
 4981      65616D37 
 4981      5F495251 
 4981      6E00
 4982              	.LASF167:
 4983 0b38 41484231 		.ascii	"AHB1RSTR\000"
 4983      52535452 
 4983      00
 4984              	.LASF160:
 4985 0b41 4144435F 		.ascii	"ADC_Common_TypeDef\000"
 4985      436F6D6D 
 4985      6F6E5F54 
 4985      79706544 
 4985      656600
 4986              	.LASF194:
 4987 0b54 69666372 		.ascii	"ifcr\000"
 4987      00
 4988              	.LASF29:
 4989 0b59 705F6E61 		.ascii	"p_name\000"
 4989      6D6500
 4990              	.LASF49:
 4991 0b60 6D5F6E65 		.ascii	"m_next\000"
 4991      787400
 4992              	.LASF247:
 4993 0b67 61646353 		.ascii	"adcSTM32DisableTSVREFE\000"
 4993      544D3332 
 4993      44697361 
 4993      626C6554 
 4993      53565245 
 4994              	.LASF176:
 4995 0b7e 41484233 		.ascii	"AHB3ENR\000"
 4995      454E5200 
ARM GAS  /tmp/ccbOgSVP.s 			page 101


 4996              	.LASF121:
 4997 0b86 444D4132 		.ascii	"DMA2_Stream2_IRQn\000"
 4997      5F537472 
 4997      65616D32 
 4997      5F495251 
 4997      6E00
 4998              	.LASF36:
 4999 0b98 705F6D73 		.ascii	"p_msg\000"
 4999      6700
 5000              	.LASF235:
 5001 0b9e 41444343 		.ascii	"ADCConfig\000"
 5001      6F6E6669 
 5001      6700
 5002              	.LASF30:
 5003 0ba8 705F7374 		.ascii	"p_state\000"
 5003      61746500 
 5004              		.ident	"GCC: (Sourcery G++ Lite 2011.03-42) 4.5.2"
ARM GAS  /tmp/ccbOgSVP.s 			page 102


DEFINED SYMBOLS
                            *ABS*:00000000 adc_lld.c
     /tmp/ccbOgSVP.s:26     .text.adc_lld_init:00000000 $t
     /tmp/ccbOgSVP.s:32     .text.adc_lld_init:00000000 adc_lld_init
     /tmp/ccbOgSVP.s:116    .text.adc_lld_init:00000058 $d
     /tmp/ccbOgSVP.s:131    .text.adc_lld_start:00000000 $t
     /tmp/ccbOgSVP.s:137    .text.adc_lld_start:00000000 adc_lld_start
     /tmp/ccbOgSVP.s:253    .text.adc_lld_start:0000008c $d
     /tmp/ccbOgSVP.s:527    .text.adc_lld_serve_rx_interrupt:00000000 adc_lld_serve_rx_interrupt
     /tmp/ccbOgSVP.s:266    .text.adc_lld_stop:00000000 $t
     /tmp/ccbOgSVP.s:272    .text.adc_lld_stop:00000000 adc_lld_stop
     /tmp/ccbOgSVP.s:343    .text.adc_lld_stop:00000050 $d
     /tmp/ccbOgSVP.s:351    .text.adc_lld_start_conversion:00000000 $t
     /tmp/ccbOgSVP.s:357    .text.adc_lld_start_conversion:00000000 adc_lld_start_conversion
     /tmp/ccbOgSVP.s:466    .text.adc_lld_stop_conversion:00000000 $t
     /tmp/ccbOgSVP.s:472    .text.adc_lld_stop_conversion:00000000 adc_lld_stop_conversion
     /tmp/ccbOgSVP.s:522    .text.adc_lld_serve_rx_interrupt:00000000 $t
     /tmp/ccbOgSVP.s:741    .text.Vector88:00000000 $t
     /tmp/ccbOgSVP.s:747    .text.Vector88:00000000 Vector88
     /tmp/ccbOgSVP.s:1021   .text.Vector88:00000144 $d
     /tmp/ccbOgSVP.s:1031   .text.adcSTM32EnableTSVREFE:00000000 $t
     /tmp/ccbOgSVP.s:1037   .text.adcSTM32EnableTSVREFE:00000000 adcSTM32EnableTSVREFE
     /tmp/ccbOgSVP.s:1054   .text.adcSTM32EnableTSVREFE:0000000c $d
     /tmp/ccbOgSVP.s:1059   .text.adcSTM32DisableTSVREFE:00000000 $t
     /tmp/ccbOgSVP.s:1065   .text.adcSTM32DisableTSVREFE:00000000 adcSTM32DisableTSVREFE
     /tmp/ccbOgSVP.s:1082   .text.adcSTM32DisableTSVREFE:0000000c $d
     /tmp/ccbOgSVP.s:1087   .text.adcSTM32EnableVBATE:00000000 $t
     /tmp/ccbOgSVP.s:1093   .text.adcSTM32EnableVBATE:00000000 adcSTM32EnableVBATE
     /tmp/ccbOgSVP.s:1110   .text.adcSTM32EnableVBATE:0000000c $d
     /tmp/ccbOgSVP.s:1115   .text.adcSTM32DisableVBATE:00000000 $t
     /tmp/ccbOgSVP.s:1121   .text.adcSTM32DisableVBATE:00000000 adcSTM32DisableVBATE
     /tmp/ccbOgSVP.s:1138   .text.adcSTM32DisableVBATE:0000000c $d
     /tmp/ccbOgSVP.s:1150   .bss.ADCD1:00000000 ADCD1
     /tmp/ccbOgSVP.s:1157   .bss.ADCD2:00000000 ADCD2
     /tmp/ccbOgSVP.s:1164   .bss.ADCD3:00000000 ADCD3
     /tmp/ccbOgSVP.s:1146   .bss.ADCD1:00000000 $d
     /tmp/ccbOgSVP.s:1153   .bss.ADCD2:00000000 $d
     /tmp/ccbOgSVP.s:1160   .bss.ADCD3:00000000 $d
                     .debug_frame:00000010 $d
     /tmp/ccbOgSVP.s:130    .text.adc_lld_init:00000084 $t
     /tmp/ccbOgSVP.s:265    .text.adc_lld_start:000000ac $t
     /tmp/ccbOgSVP.s:1030   .text.Vector88:0000015c $t

UNDEFINED SYMBOLS
adcObjectInit
nvicEnableVector
_stm32_dma_streams
dmaStreamAllocate
dmaStreamRelease
chSchReadyI
_port_irq_epilogue
