ARM GAS  /tmp/ccbOgSVP.s 			page 1


   1              		.syntax unified
   2              		.cpu cortex-m4
   3              		.eabi_attribute 27, 3
   4              		.eabi_attribute 28, 1
   5              		.fpu fpv4-sp-d16
   6              		.eabi_attribute 20, 1
   7              		.eabi_attribute 21, 1
   8              		.eabi_attribute 23, 3
   9              		.eabi_attribute 24, 1
  10              		.eabi_attribute 25, 1
  11              		.eabi_attribute 26, 1
  12              		.eabi_attribute 30, 2
  13              		.eabi_attribute 18, 4
  14              		.thumb
  15              		.file	"adc_lld.c"
  22 0000 EE040000 		.text
  22      02005302 
  22      00000201 
  22      FB0E0D00 
  22      01010101 
  23              	.Ltext0:
  24              		.cfi_sections	.debug_frame
  25              		.section	.text.adc_lld_init,"ax",%progbits
  26              		.align	2
  27              		.p2align 4,,15
  28              		.global	adc_lld_init
  29              		.thumb
  30              		.thumb_func
  31              		.type	adc_lld_init, %function
  32              	adc_lld_init:
  33              	.LFB119:
  34              		.file 1 "../libs/ChibiOS_2.4.0/os/hal/platforms/STM32F4xx/adc_lld.c"
  35              		.loc 1 182 0
  36              		.cfi_startproc
  37              		@ args = 0, pretend = 0, frame = 0
  38              		@ frame_needed = 0, uses_anonymous_args = 0
  39 0000 2DE9F041 		push	{r4, r5, r6, r7, r8, lr}
  40              	.LCFI0:
  41              		.cfi_def_cfa_offset 24
  42              		.loc 1 184 0
  43 0004 144B     		ldr	r3, .L2
  44              		.loc 1 188 0
  45 0006 154E     		ldr	r6, .L2+4
  46              		.cfi_offset 14, -4
  47              		.cfi_offset 8, -8
  48              		.cfi_offset 7, -12
  49              		.cfi_offset 6, -16
  50              		.cfi_offset 5, -20
  51              		.cfi_offset 4, -24
  52              		.loc 1 202 0
  53 0008 154D     		ldr	r5, .L2+8
ARM GAS  /tmp/ccbOgSVP.s 			page 2


  54              		.loc 1 190 0
  55 000a 164F     		ldr	r7, .L2+12
  56              		.loc 1 216 0
  57 000c 164C     		ldr	r4, .L2+16
  58              		.loc 1 184 0
  59 000e 0022     		movs	r2, #0
  60 0010 5A60     		str	r2, [r3, #4]
  61              		.loc 1 188 0
  62 0012 3046     		mov	r0, r6
  63 0014 FFF7FEFF 		bl	adcObjectInit
  64              		.loc 1 189 0
  65 0018 1448     		ldr	r0, .L2+20
  66              		.loc 1 191 0
  67 001a 1549     		ldr	r1, .L2+24
  68              		.loc 1 189 0
  69 001c B062     		str	r0, [r6, #40]
  70              		.loc 1 202 0
  71 001e 2846     		mov	r0, r5
  72              		.loc 1 191 0
  73 0020 3163     		str	r1, [r6, #48]
  74              		.loc 1 190 0
  75 0022 F762     		str	r7, [r6, #44]
  76              		.loc 1 202 0
  77 0024 FFF7FEFF 		bl	adcObjectInit
  78              		.loc 1 203 0
  79 0028 124A     		ldr	r2, .L2+28
  80              		.loc 1 205 0
  81 002a 1349     		ldr	r1, .L2+32
  82              		.loc 1 203 0
  83 002c AA62     		str	r2, [r5, #40]
  84              		.loc 1 204 0
  85 002e A7F11803 		sub	r3, r7, #24
  86              		.loc 1 216 0
  87 0032 2046     		mov	r0, r4
  88              		.loc 1 204 0
  89 0034 EB62     		str	r3, [r5, #44]
  90              		.loc 1 205 0
  91 0036 2963     		str	r1, [r5, #48]
  92              		.loc 1 216 0
  93 0038 FFF7FEFF 		bl	adcObjectInit
  94              		.loc 1 217 0
  95 003c 0F48     		ldr	r0, .L2+36
  96              		.loc 1 219 0
  97 003e 104B     		ldr	r3, .L2+40
  98              		.loc 1 217 0
  99 0040 A062     		str	r0, [r4, #40]
 100              		.loc 1 218 0
 101 0042 A7F12402 		sub	r2, r7, #36
 102              		.loc 1 230 0
 103 0046 1220     		movs	r0, #18
 104 0048 5021     		movs	r1, #80
 105              		.loc 1 218 0
 106 004a E262     		str	r2, [r4, #44]
 107              		.loc 1 219 0
 108 004c 2363     		str	r3, [r4, #48]
 109              		.loc 1 231 0
 110 004e BDE8F041 		pop	{r4, r5, r6, r7, r8, lr}
ARM GAS  /tmp/ccbOgSVP.s 			page 3


 111              		.loc 1 230 0
 112 0052 FFF7FEBF 		b	nvicEnableVector
 113              	.L3:
 114 0056 00BF     		.align	2
 115              	.L2:
 116 0058 00230140 		.word	1073816320
 117 005c 00000000 		.word	.LANCHOR0
 118 0060 00000000 		.word	.LANCHOR1
 119 0064 90000000 		.word	_stm32_dma_streams+144
 120 0068 00000000 		.word	.LANCHOR2
 121 006c 00200140 		.word	1073815552
 122 0070 172C0200 		.word	142359
 123 0074 00210140 		.word	1073815808
 124 0078 172C0202 		.word	33696791
 125 007c 00220140 		.word	1073816064
 126 0080 172C0204 		.word	67251223
 127              		.cfi_endproc
 128              	.LFE119:
 129              		.size	adc_lld_init, .-adc_lld_init
 130 0084 AFF30080 		.section	.text.adc_lld_start,"ax",%progbits
 130      AFF30080 
 130      AFF30080 
 131              		.align	2
 132              		.p2align 4,,15
 133              		.global	adc_lld_start
 134              		.thumb
 135              		.thumb_func
 136              		.type	adc_lld_start, %function
 137              	adc_lld_start:
 138              	.LFB120:
 139              		.loc 1 240 0
 140              		.cfi_startproc
 141              		@ args = 0, pretend = 0, frame = 0
 142              		@ frame_needed = 0, uses_anonymous_args = 0
 143              	.LVL0:
 144              		.loc 1 243 0
 145 0000 0378     		ldrb	r3, [r0, #0]	@ zero_extendqisi2
 146 0002 012B     		cmp	r3, #1
 147              		.loc 1 240 0
 148 0004 10B5     		push	{r4, lr}
 149              	.LCFI1:
 150              		.cfi_def_cfa_offset 8
 151              		.loc 1 240 0
 152 0006 0446     		mov	r4, r0
 153              		.cfi_offset 14, -4
 154              		.cfi_offset 4, -8
 155              		.loc 1 243 0
 156 0008 00D0     		beq	.L10
 157 000a 10BD     		pop	{r4, pc}
 158              	.L10:
 159              		.loc 1 245 0
 160 000c 1F49     		ldr	r1, .L14
 161 000e 8842     		cmp	r0, r1
 162 0010 0CD0     		beq	.L11
 163              		.loc 1 258 0
 164 0012 1F4B     		ldr	r3, .L14+4
 165 0014 9842     		cmp	r0, r3
ARM GAS  /tmp/ccbOgSVP.s 			page 4


 166 0016 19D0     		beq	.L12
 167              		.loc 1 271 0
 168 0018 1E4A     		ldr	r2, .L14+8
 169 001a 9042     		cmp	r0, r2
 170 001c 26D0     		beq	.L13
 171              	.LVL1:
 172              	.L7:
 173              		.loc 1 285 0
 174 001e A16A     		ldr	r1, [r4, #40]
 175 0020 0022     		movs	r2, #0
 176              		.loc 1 287 0
 177 0022 0120     		movs	r0, #1
 178              		.loc 1 285 0
 179 0024 4A60     		str	r2, [r1, #4]
 180              		.loc 1 286 0
 181 0026 8A60     		str	r2, [r1, #8]
 182              		.loc 1 287 0
 183 0028 8860     		str	r0, [r1, #8]
 184 002a 10BD     		pop	{r4, pc}
 185              	.L11:
 186              	.LBB2:
 187              		.loc 1 247 0
 188 002c 1A4A     		ldr	r2, .L14+12
 189 002e C06A     		ldr	r0, [r0, #44]
 190 0030 0521     		movs	r1, #5
 191 0032 2346     		mov	r3, r4
 192 0034 FFF7FEFF 		bl	dmaStreamAllocate
 193              		.loc 1 252 0
 194 0038 E06A     		ldr	r0, [r4, #44]
 195 003a 1849     		ldr	r1, .L14+16
 196 003c 0268     		ldr	r2, [r0, #0]
 197              		.loc 1 253 0
 198 003e 1848     		ldr	r0, .L14+20
 199              		.loc 1 252 0
 200 0040 9160     		str	r1, [r2, #8]
 201              		.loc 1 253 0
 202 0042 436C     		ldr	r3, [r0, #68]
 203 0044 43F48072 		orr	r2, r3, #256
 204 0048 4264     		str	r2, [r0, #68]
 205 004a E8E7     		b	.L7
 206              	.L12:
 207              	.LBE2:
 208              	.LBB3:
 209              		.loc 1 260 0
 210 004c 124A     		ldr	r2, .L14+12
 211 004e C06A     		ldr	r0, [r0, #44]
 212 0050 0521     		movs	r1, #5
 213 0052 2346     		mov	r3, r4
 214 0054 FFF7FEFF 		bl	dmaStreamAllocate
 215              		.loc 1 265 0
 216 0058 E06A     		ldr	r0, [r4, #44]
 217 005a 124B     		ldr	r3, .L14+24
 218 005c 0168     		ldr	r1, [r0, #0]
 219              		.loc 1 266 0
 220 005e 1048     		ldr	r0, .L14+20
 221              		.loc 1 265 0
 222 0060 8B60     		str	r3, [r1, #8]
ARM GAS  /tmp/ccbOgSVP.s 			page 5


 223              		.loc 1 266 0
 224 0062 426C     		ldr	r2, [r0, #68]
 225 0064 42F40071 		orr	r1, r2, #512
 226 0068 4164     		str	r1, [r0, #68]
 227 006a D8E7     		b	.L7
 228              	.L13:
 229              	.LBE3:
 230              	.LBB4:
 231              		.loc 1 273 0
 232 006c 0A4A     		ldr	r2, .L14+12
 233 006e C06A     		ldr	r0, [r0, #44]
 234 0070 0521     		movs	r1, #5
 235 0072 2346     		mov	r3, r4
 236 0074 FFF7FEFF 		bl	dmaStreamAllocate
 237              		.loc 1 278 0
 238 0078 E36A     		ldr	r3, [r4, #44]
 239 007a 0B49     		ldr	r1, .L14+28
 240 007c 1A68     		ldr	r2, [r3, #0]
 241              		.loc 1 279 0
 242 007e 084B     		ldr	r3, .L14+20
 243              		.loc 1 278 0
 244 0080 9160     		str	r1, [r2, #8]
 245              		.loc 1 279 0
 246 0082 586C     		ldr	r0, [r3, #68]
 247 0084 40F48061 		orr	r1, r0, #1024
 248 0088 5964     		str	r1, [r3, #68]
 249 008a C8E7     		b	.L7
 250              	.L15:
 251              		.align	2
 252              	.L14:
 253 008c 00000000 		.word	.LANCHOR0
 254 0090 00000000 		.word	.LANCHOR1
 255 0094 00000000 		.word	.LANCHOR2
 256 0098 00000000 		.word	adc_lld_serve_rx_interrupt
 257 009c 4C200140 		.word	1073815628
 258 00a0 00380240 		.word	1073887232
 259 00a4 4C210140 		.word	1073815884
 260 00a8 4C220140 		.word	1073816140
 261              	.LBE4:
 262              		.cfi_endproc
 263              	.LFE120:
 264              		.size	adc_lld_start, .-adc_lld_start
 265 00ac AFF30080 		.section	.text.adc_lld_stop,"ax",%progbits
 266              		.align	2
 267              		.p2align 4,,15
 268              		.global	adc_lld_stop
 269              		.thumb
 270              		.thumb_func
 271              		.type	adc_lld_stop, %function
 272              	adc_lld_stop:
 273              	.LFB121:
 274              		.loc 1 298 0
 275              		.cfi_startproc
 276              		@ args = 0, pretend = 0, frame = 0
 277              		@ frame_needed = 0, uses_anonymous_args = 0
 278              	.LVL2:
 279              		.loc 1 301 0
ARM GAS  /tmp/ccbOgSVP.s 			page 6


 280 0000 0378     		ldrb	r3, [r0, #0]	@ zero_extendqisi2
 281 0002 022B     		cmp	r3, #2
 282              		.loc 1 298 0
 283 0004 10B5     		push	{r4, lr}
 284              	.LCFI2:
 285              		.cfi_def_cfa_offset 8
 286              		.loc 1 298 0
 287 0006 0446     		mov	r4, r0
 288              		.cfi_offset 14, -4
 289              		.cfi_offset 4, -8
 290              		.loc 1 301 0
 291 0008 00D0     		beq	.L20
 292              	.LVL3:
 293              	.L16:
 294 000a 10BD     		pop	{r4, pc}
 295              	.L20:
 296              		.loc 1 302 0
 297 000c C06A     		ldr	r0, [r0, #44]
 298 000e FFF7FEFF 		bl	dmaStreamRelease
 299              		.loc 1 307 0
 300 0012 0F48     		ldr	r0, .L23
 301              		.loc 1 303 0
 302 0014 A16A     		ldr	r1, [r4, #40]
 303 0016 0022     		movs	r2, #0
 304              		.loc 1 307 0
 305 0018 8442     		cmp	r4, r0
 306              		.loc 1 303 0
 307 001a 4A60     		str	r2, [r1, #4]
 308              		.loc 1 304 0
 309 001c 8A60     		str	r2, [r1, #8]
 310              		.loc 1 307 0
 311 001e 11D0     		beq	.L21
 312              		.loc 1 312 0
 313 0020 0C49     		ldr	r1, .L23+4
 314 0022 8C42     		cmp	r4, r1
 315 0024 08D0     		beq	.L22
 316              		.loc 1 317 0
 317 0026 0C49     		ldr	r1, .L23+8
 318 0028 8C42     		cmp	r4, r1
 319 002a EED1     		bne	.L16
 320              		.loc 1 318 0
 321 002c 0B4B     		ldr	r3, .L23+12
 322 002e 5A6C     		ldr	r2, [r3, #68]
 323 0030 22F48060 		bic	r0, r2, #1024
 324 0034 5864     		str	r0, [r3, #68]
 325 0036 E8E7     		b	.L16
 326              	.L22:
 327              		.loc 1 313 0
 328 0038 084B     		ldr	r3, .L23+12
 329 003a 5A6C     		ldr	r2, [r3, #68]
 330 003c 22F40070 		bic	r0, r2, #512
 331 0040 5864     		str	r0, [r3, #68]
 332 0042 10BD     		pop	{r4, pc}
 333              	.L21:
 334              		.loc 1 308 0
 335 0044 054B     		ldr	r3, .L23+12
 336 0046 5A6C     		ldr	r2, [r3, #68]
ARM GAS  /tmp/ccbOgSVP.s 			page 7


 337 0048 22F48070 		bic	r0, r2, #256
 338 004c 5864     		str	r0, [r3, #68]
 339 004e 10BD     		pop	{r4, pc}
 340              	.L24:
 341              		.align	2
 342              	.L23:
 343 0050 00000000 		.word	.LANCHOR0
 344 0054 00000000 		.word	.LANCHOR1
 345 0058 00000000 		.word	.LANCHOR2
 346 005c 00380240 		.word	1073887232
 347              		.cfi_endproc
 348              	.LFE121:
 349              		.size	adc_lld_stop, .-adc_lld_stop
 350              		.section	.text.adc_lld_start_conversion,"ax",%progbits
 351              		.align	2
 352              		.p2align 4,,15
 353              		.global	adc_lld_start_conversion
 354              		.thumb
 355              		.thumb_func
 356              		.type	adc_lld_start_conversion, %function
 357              	adc_lld_start_conversion:
 358              	.LFB122:
 359              		.loc 1 330 0
 360              		.cfi_startproc
 361              		@ args = 0, pretend = 0, frame = 0
 362              		@ frame_needed = 0, uses_anonymous_args = 0
 363              		@ link register save eliminated.
 364              	.LVL4:
 365              		.loc 1 332 0
 366 0000 0369     		ldr	r3, [r0, #16]
 367              	.LVL5:
 368              		.loc 1 335 0
 369 0002 016B     		ldr	r1, [r0, #48]
 370              	.LVL6:
 371              		.loc 1 336 0
 372 0004 1A68     		ldr	r2, [r3, #0]
 373              		.loc 1 330 0
 374 0006 2DE9F00F 		push	{r4, r5, r6, r7, r8, r9, sl, fp}
 375              	.LCFI3:
 376              		.cfi_def_cfa_offset 32
 377              		.loc 1 336 0
 378 000a 0AB1     		cbz	r2, .L26
 379              		.cfi_offset 11, -4
 380              		.cfi_offset 10, -8
 381              		.cfi_offset 9, -12
 382              		.cfi_offset 8, -16
 383              		.cfi_offset 7, -20
 384              		.cfi_offset 6, -24
 385              		.cfi_offset 5, -28
 386              		.cfi_offset 4, -32
 387              	.LVL7:
 388              		.loc 1 337 0
 389 000c 41F48071 		orr	r1, r1, #256
 390              	.LVL8:
 391              	.L26:
 392              		.loc 1 339 0
 393 0010 C568     		ldr	r5, [r0, #12]
ARM GAS  /tmp/ccbOgSVP.s 			page 8


 394              		.loc 1 344 0
 395 0012 C46A     		ldr	r4, [r0, #44]
 396              		.loc 1 359 0
 397 0014 D3F81090 		ldr	r9, [r3, #16]
 398              		.loc 1 361 0
 399 0018 D3F81480 		ldr	r8, [r3, #20]
 400              		.loc 1 345 0
 401 001c B3F804C0 		ldrh	ip, [r3, #4]
 402              		.loc 1 344 0
 403 0020 D0F808A0 		ldr	sl, [r0, #8]
 404 0024 2468     		ldr	r4, [r4, #0]
 405              		.loc 1 350 0
 406 0026 826A     		ldr	r2, [r0, #40]
 407              		.loc 1 351 0
 408 0028 9F69     		ldr	r7, [r3, #24]
 409              		.loc 1 352 0
 410 002a DE69     		ldr	r6, [r3, #28]
 411              		.loc 1 353 0
 412 002c 186A     		ldr	r0, [r3, #32]
 413              	.LVL9:
 414              		.loc 1 354 0
 415 002e D3F824B0 		ldr	fp, [r3, #36]
 416              		.loc 1 355 0
 417 0032 9B6A     		ldr	r3, [r3, #40]
 418              	.LVL10:
 419              		.loc 1 344 0
 420 0034 C4F80CA0 		str	sl, [r4, #12]
 421              		.loc 1 339 0
 422 0038 012D     		cmp	r5, #1
 423              		.loc 1 342 0
 424 003a 88BF     		it	hi
 425 003c 41F00801 		orrhi	r1, r1, #8
 426              	.LVL11:
 427              		.loc 1 345 0
 428 0040 05FB0CFC 		mul	ip, r5, ip
 429              		.loc 1 359 0
 430 0044 49F08069 		orr	r9, r9, #67108864
 431              		.loc 1 361 0
 432 0048 48F44078 		orr	r8, r8, #768
 433              		.loc 1 345 0
 434 004c C4F804C0 		str	ip, [r4, #4]
 435              		.loc 1 359 0
 436 0050 49F48075 		orr	r5, r9, #256
 437              		.loc 1 347 0
 438 0054 2160     		str	r1, [r4, #0]
 439              		.loc 1 361 0
 440 0056 48F00308 		orr	r8, r8, #3
 441              		.loc 1 350 0
 442 005a 0021     		movs	r1, #0
 443              	.LVL12:
 444 005c 1160     		str	r1, [r2, #0]
 445              		.loc 1 351 0
 446 005e D760     		str	r7, [r2, #12]
 447              		.loc 1 352 0
 448 0060 1661     		str	r6, [r2, #16]
 449              		.loc 1 353 0
 450 0062 D062     		str	r0, [r2, #44]
ARM GAS  /tmp/ccbOgSVP.s 			page 9


 451              		.loc 1 354 0
 452 0064 C2F830B0 		str	fp, [r2, #48]
 453              		.loc 1 355 0
 454 0068 5363     		str	r3, [r2, #52]
 455              		.loc 1 359 0
 456 006a 5560     		str	r5, [r2, #4]
 457              		.loc 1 360 0
 458 006c C2F80880 		str	r8, [r2, #8]
 459              		.loc 1 362 0
 460 0070 BDE8F00F 		pop	{r4, r5, r6, r7, r8, r9, sl, fp}
 461 0074 7047     		bx	lr
 462              		.cfi_endproc
 463              	.LFE122:
 464              		.size	adc_lld_start_conversion, .-adc_lld_start_conversion
 465 0076 00BFAFF3 		.section	.text.adc_lld_stop_conversion,"ax",%progbits
 465      0080AFF3 
 465      0080
 466              		.align	2
 467              		.p2align 4,,15
 468              		.global	adc_lld_stop_conversion
 469              		.thumb
 470              		.thumb_func
 471              		.type	adc_lld_stop_conversion, %function
 472              	adc_lld_stop_conversion:
 473              	.LFB123:
 474              		.loc 1 371 0
 475              		.cfi_startproc
 476              		@ args = 0, pretend = 0, frame = 0
 477              		@ frame_needed = 0, uses_anonymous_args = 0
 478              		@ link register save eliminated.
 479              	.LVL13:
 480              		.loc 1 373 0
 481 0000 C16A     		ldr	r1, [r0, #44]
 482 0002 0A68     		ldr	r2, [r1, #0]
 483              		.loc 1 371 0
 484 0004 10B4     		push	{r4}
 485              	.LCFI4:
 486              		.cfi_def_cfa_offset 4
 487              		.loc 1 373 0
 488 0006 1468     		ldr	r4, [r2, #0]
 489              		.cfi_offset 4, -4
 490 0008 24F00103 		bic	r3, r4, #1
 491 000c 1360     		str	r3, [r2, #0]
 492              	.L29:
 493              		.loc 1 373 0 is_stmt 0 discriminator 1
 494 000e 1368     		ldr	r3, [r2, #0]
 495 0010 13F00103 		ands	r3, r3, #1
 496 0014 FBD1     		bne	.L29
 497              		.loc 1 373 0 discriminator 2
 498 0016 0C7A     		ldrb	r4, [r1, #8]	@ zero_extendqisi2
 499              		.loc 1 374 0 is_stmt 1 discriminator 2
 500 0018 826A     		ldr	r2, [r0, #40]
 501              		.loc 1 373 0 discriminator 2
 502 001a 4968     		ldr	r1, [r1, #4]
 503 001c 3D20     		movs	r0, #61
 504              	.LVL14:
 505 001e A040     		lsls	r0, r0, r4
ARM GAS  /tmp/ccbOgSVP.s 			page 10


 506 0020 0860     		str	r0, [r1, #0]
 507              		.loc 1 376 0 discriminator 2
 508 0022 0120     		movs	r0, #1
 509              		.loc 1 374 0 discriminator 2
 510 0024 5360     		str	r3, [r2, #4]
 511              		.loc 1 375 0 discriminator 2
 512 0026 9360     		str	r3, [r2, #8]
 513              		.loc 1 376 0 discriminator 2
 514 0028 9060     		str	r0, [r2, #8]
 515              		.loc 1 377 0 discriminator 2
 516 002a 10BC     		pop	{r4}
 517 002c 7047     		bx	lr
 518              		.cfi_endproc
 519              	.LFE123:
 520              		.size	adc_lld_stop_conversion, .-adc_lld_stop_conversion
 521 002e 00BF     		.section	.text.adc_lld_serve_rx_interrupt,"ax",%progbits
 522              		.align	2
 523              		.p2align 4,,15
 524              		.thumb
 525              		.thumb_func
 526              		.type	adc_lld_serve_rx_interrupt, %function
 527              	adc_lld_serve_rx_interrupt:
 528              	.LFB117:
 529              		.loc 1 87 0
 530              		.cfi_startproc
 531              		@ args = 0, pretend = 0, frame = 0
 532              		@ frame_needed = 0, uses_anonymous_args = 0
 533              	.LVL15:
 534              		.loc 1 90 0
 535 0000 11F00C0F 		tst	r1, #12
 536              		.loc 1 87 0
 537 0004 38B5     		push	{r3, r4, r5, lr}
 538              	.LCFI5:
 539              		.cfi_def_cfa_offset 16
 540              		.loc 1 87 0
 541 0006 0D46     		mov	r5, r1
 542              		.cfi_offset 14, -4
 543              		.cfi_offset 5, -8
 544              		.cfi_offset 4, -12
 545              		.cfi_offset 3, -16
 546 0008 0446     		mov	r4, r0
 547              		.loc 1 90 0
 548 000a 45D1     		bne	.L44
 549              		.loc 1 98 0
 550 000c 0369     		ldr	r3, [r0, #16]
 551 000e 002B     		cmp	r3, #0
 552 0010 41D0     		beq	.L31
 553              		.loc 1 99 0
 554 0012 11F0100F 		tst	r1, #16
 555 0016 05D0     		beq	.L36
 556              		.loc 1 101 0
 557 0018 9B68     		ldr	r3, [r3, #8]
 558 001a 1BB1     		cbz	r3, .L36
 559              		.loc 1 101 0 is_stmt 0 discriminator 1
 560 001c C268     		ldr	r2, [r0, #12]
 561 001e 8168     		ldr	r1, [r0, #8]
 562              	.LVL16:
ARM GAS  /tmp/ccbOgSVP.s 			page 11


 563 0020 5208     		lsrs	r2, r2, #1
 564 0022 9847     		blx	r3
 565              	.LVL17:
 566              	.L36:
 567              		.loc 1 103 0 is_stmt 1
 568 0024 15F0200F 		tst	r5, #32
 569 0028 35D0     		beq	.L31
 570              		.loc 1 105 0
 571 002a 2369     		ldr	r3, [r4, #16]
 572 002c 1868     		ldr	r0, [r3, #0]
 573 002e 60B1     		cbz	r0, .L37
 574              		.loc 1 105 0 is_stmt 0 discriminator 1
 575 0030 9B68     		ldr	r3, [r3, #8]
 576 0032 002B     		cmp	r3, #0
 577 0034 2FD0     		beq	.L31
 578              		.loc 1 105 0 discriminator 3
 579 0036 E268     		ldr	r2, [r4, #12]
 580 0038 012A     		cmp	r2, #1
 581 003a 4CD9     		bls	.L38
 582              	.LBB5:
 583              		.loc 1 105 0 discriminator 4
 584 003c A168     		ldr	r1, [r4, #8]
 585 003e 5208     		lsrs	r2, r2, #1
 586              	.LVL18:
 587 0040 2046     		mov	r0, r4
 588 0042 01EB4201 		add	r1, r1, r2, lsl #1
 589 0046 9847     		blx	r3
 590              	.LVL19:
 591 0048 38BD     		pop	{r3, r4, r5, pc}
 592              	.L37:
 593              	.LBE5:
 594              		.loc 1 105 0 discriminator 2
 595 004a 2046     		mov	r0, r4
 596 004c FFF7FEFF 		bl	adc_lld_stop_conversion
 597 0050 2369     		ldr	r3, [r4, #16]
 598 0052 9B68     		ldr	r3, [r3, #8]
 599 0054 002B     		cmp	r3, #0
 600 0056 45D0     		beq	.L39
 601              		.loc 1 105 0 discriminator 6
 602 0058 E268     		ldr	r2, [r4, #12]
 603 005a 0420     		movs	r0, #4
 604 005c 012A     		cmp	r2, #1
 605 005e 2070     		strb	r0, [r4, #0]
 606 0060 43D9     		bls	.L40
 607              	.LBB6:
 608              		.loc 1 105 0 discriminator 8
 609 0062 A168     		ldr	r1, [r4, #8]
 610 0064 5208     		lsrs	r2, r2, #1
 611              	.LVL20:
 612 0066 2046     		mov	r0, r4
 613 0068 01EB4201 		add	r1, r1, r2, lsl #1
 614 006c 9847     		blx	r3
 615              	.LVL21:
 616              	.L41:
 617              	.LBE6:
 618              		.loc 1 105 0 discriminator 10
 619 006e 94F800C0 		ldrb	ip, [r4, #0]	@ zero_extendqisi2
ARM GAS  /tmp/ccbOgSVP.s 			page 12


 620 0072 BCF1040F 		cmp	ip, #4
 621 0076 35D0     		beq	.L39
 622              	.L42:
 623              		.loc 1 105 0 discriminator 12
 624 0078 0022     		movs	r2, #0
 625 007a 2261     		str	r2, [r4, #16]
 626              	.LBB7:
 627 007c 2023     		movs	r3, #32
 628              	.LVL22:
 629              	@ 105 "../libs/ChibiOS_2.4.0/os/hal/platforms/STM32F4xx/adc_lld.c" 1
 630 007e 83F31188 		msr     BASEPRI, r3
 631              	@ 0 "" 2
 632              	.LVL23:
 633              		.thumb
 634              	.LBE7:
 635 0082 6369     		ldr	r3, [r4, #20]
 636              	.LVL24:
 637 0084 23B1     		cbz	r3, .L43
 638              	.LVL25:
 639              	.LBB8:
 640              		.loc 1 105 0 discriminator 13
 641 0086 6261     		str	r2, [r4, #20]
 642 0088 1846     		mov	r0, r3
 643 008a 5A62     		str	r2, [r3, #36]
 644 008c FFF7FEFF 		bl	chSchReadyI
 645              	.LVL26:
 646              	.L43:
 647              	.LBE8:
 648              	.LBB9:
 649              		.loc 1 105 0 discriminator 14
 650 0090 0023     		movs	r3, #0
 651              	.LVL27:
 652              	@ 105 "../libs/ChibiOS_2.4.0/os/hal/platforms/STM32F4xx/adc_lld.c" 1
 653 0092 83F31188 		msr     BASEPRI, r3
 654              	@ 0 "" 2
 655              	.LVL28:
 656              		.thumb
 657              	.L31:
 658 0096 38BD     		pop	{r3, r4, r5, pc}
 659              	.LVL29:
 660              	.L44:
 661              	.LBE9:
 662              		.loc 1 93 0 is_stmt 1
 663 0098 FFF7FEFF 		bl	adc_lld_stop_conversion
 664 009c 2369     		ldr	r3, [r4, #16]
 665 009e DB68     		ldr	r3, [r3, #12]
 666 00a0 3BB1     		cbz	r3, .L33
 667              		.loc 1 93 0 is_stmt 0 discriminator 1
 668 00a2 0522     		movs	r2, #5
 669 00a4 2046     		mov	r0, r4
 670 00a6 0021     		movs	r1, #0
 671 00a8 2270     		strb	r2, [r4, #0]
 672 00aa 9847     		blx	r3
 673 00ac 2078     		ldrb	r0, [r4, #0]	@ zero_extendqisi2
 674 00ae 0528     		cmp	r0, #5
 675 00b0 15D0     		beq	.L45
 676              	.L33:
ARM GAS  /tmp/ccbOgSVP.s 			page 13


 677              		.loc 1 93 0 discriminator 2
 678 00b2 0022     		movs	r2, #0
 679 00b4 2261     		str	r2, [r4, #16]
 680              	.LBB10:
 681 00b6 2023     		movs	r3, #32
 682              	.LVL30:
 683              	@ 93 "../libs/ChibiOS_2.4.0/os/hal/platforms/STM32F4xx/adc_lld.c" 1
 684 00b8 83F31188 		msr     BASEPRI, r3
 685              	@ 0 "" 2
 686              	.LVL31:
 687              		.thumb
 688              	.LBE10:
 689 00bc 6369     		ldr	r3, [r4, #20]
 690              	.LVL32:
 691 00be 33B1     		cbz	r3, .L34
 692              	.LVL33:
 693              	.LBB11:
 694              		.loc 1 93 0 discriminator 4
 695 00c0 6261     		str	r2, [r4, #20]
 696 00c2 4FF0FF32 		mov	r2, #-1
 697 00c6 1846     		mov	r0, r3
 698 00c8 5A62     		str	r2, [r3, #36]
 699 00ca FFF7FEFF 		bl	chSchReadyI
 700              	.LVL34:
 701              	.L34:
 702              	.LBE11:
 703              	.LBB12:
 704              		.loc 1 93 0 discriminator 5
 705 00ce 0023     		movs	r3, #0
 706              	.LVL35:
 707              	@ 93 "../libs/ChibiOS_2.4.0/os/hal/platforms/STM32F4xx/adc_lld.c" 1
 708 00d0 83F31188 		msr     BASEPRI, r3
 709              	@ 0 "" 2
 710              	.LVL36:
 711              		.thumb
 712 00d4 38BD     		pop	{r3, r4, r5, pc}
 713              	.LVL37:
 714              	.L38:
 715              	.LBE12:
 716              		.loc 1 105 0 is_stmt 1 discriminator 5
 717 00d6 2046     		mov	r0, r4
 718 00d8 A168     		ldr	r1, [r4, #8]
 719 00da 9847     		blx	r3
 720 00dc 38BD     		pop	{r3, r4, r5, pc}
 721              	.L45:
 722              		.loc 1 93 0 discriminator 3
 723 00de 0221     		movs	r1, #2
 724 00e0 2170     		strb	r1, [r4, #0]
 725 00e2 E6E7     		b	.L33
 726              	.L39:
 727              		.loc 1 105 0 discriminator 7
 728 00e4 0222     		movs	r2, #2
 729 00e6 2270     		strb	r2, [r4, #0]
 730 00e8 C6E7     		b	.L42
 731              	.L40:
 732              		.loc 1 105 0 is_stmt 0 discriminator 9
 733 00ea 2046     		mov	r0, r4
ARM GAS  /tmp/ccbOgSVP.s 			page 14


 734 00ec A168     		ldr	r1, [r4, #8]
 735 00ee 9847     		blx	r3
 736 00f0 BDE7     		b	.L41
 737              		.cfi_endproc
 738              	.LFE117:
 739              		.size	adc_lld_serve_rx_interrupt, .-adc_lld_serve_rx_interrupt
 740 00f2 00BFAFF3 		.section	.text.Vector88,"ax",%progbits
 740      0080AFF3 
 740      0080AFF3 
 740      0080
 741              		.align	2
 742              		.p2align 4,,15
 743              		.global	Vector88
 744              		.thumb
 745              		.thumb_func
 746              		.type	Vector88, %function
 747              	Vector88:
 748              	.LFB118:
 749              		.loc 1 122 0 is_stmt 1
 750              		.cfi_startproc
 751              		@ args = 0, pretend = 0, frame = 0
 752              		@ frame_needed = 0, uses_anonymous_args = 0
 753              		.loc 1 128 0
 754 0000 504B     		ldr	r3, .L61
 755 0002 1A68     		ldr	r2, [r3, #0]
 756              	.LVL38:
 757              		.loc 1 129 0
 758 0004 0021     		movs	r1, #0
 759              		.loc 1 132 0
 760 0006 12F0200F 		tst	r2, #32
 761              		.loc 1 122 0
 762 000a 10B5     		push	{r4, lr}
 763              	.LCFI6:
 764              		.cfi_def_cfa_offset 8
 765              		.loc 1 129 0
 766 000c 1960     		str	r1, [r3, #0]
 767              		.loc 1 132 0
 768 000e 05D0     		beq	.L47
 769              		.cfi_offset 14, -4
 770              		.cfi_offset 4, -8
 771              		.loc 1 132 0 is_stmt 0 discriminator 1
 772 0010 4D4C     		ldr	r4, .L61+4
 773 0012 E16A     		ldr	r1, [r4, #44]
 774 0014 0A68     		ldr	r2, [r1, #0]
 775              	.LVL39:
 776 0016 5068     		ldr	r0, [r2, #4]
 777 0018 0028     		cmp	r0, #0
 778 001a 64D1     		bne	.L56
 779              	.LVL40:
 780              	.L47:
 781              		.loc 1 142 0 is_stmt 1
 782 001c 4B4B     		ldr	r3, .L61+8
 783              	.LVL41:
 784 001e 1868     		ldr	r0, [r3, #0]
 785              	.LVL42:
 786              		.loc 1 143 0
 787 0020 0022     		movs	r2, #0
ARM GAS  /tmp/ccbOgSVP.s 			page 15


 788              		.loc 1 146 0
 789 0022 10F0200F 		tst	r0, #32
 790              		.loc 1 143 0
 791 0026 1A60     		str	r2, [r3, #0]
 792              		.loc 1 146 0
 793 0028 05D0     		beq	.L50
 794              		.loc 1 146 0 is_stmt 0 discriminator 1
 795 002a 494C     		ldr	r4, .L61+12
 796 002c E26A     		ldr	r2, [r4, #44]
 797 002e 1068     		ldr	r0, [r2, #0]
 798              	.LVL43:
 799 0030 4168     		ldr	r1, [r0, #4]
 800 0032 0029     		cmp	r1, #0
 801 0034 32D1     		bne	.L57
 802              	.LVL44:
 803              	.L50:
 804              		.loc 1 156 0 is_stmt 1
 805 0036 474B     		ldr	r3, .L61+16
 806              	.LVL45:
 807 0038 1868     		ldr	r0, [r3, #0]
 808              	.LVL46:
 809              		.loc 1 157 0
 810 003a 0022     		movs	r2, #0
 811              		.loc 1 160 0
 812 003c 10F0200F 		tst	r0, #32
 813              		.loc 1 157 0
 814 0040 1A60     		str	r2, [r3, #0]
 815              		.loc 1 160 0
 816 0042 27D0     		beq	.L53
 817              		.loc 1 160 0 is_stmt 0 discriminator 1
 818 0044 444C     		ldr	r4, .L61+20
 819 0046 E26A     		ldr	r2, [r4, #44]
 820 0048 1068     		ldr	r0, [r2, #0]
 821              	.LVL47:
 822 004a 4168     		ldr	r1, [r0, #4]
 823 004c 11B3     		cbz	r1, .L53
 824              		.loc 1 163 0 is_stmt 1
 825 004e 2369     		ldr	r3, [r4, #16]
 826 0050 03B3     		cbz	r3, .L53
 827              		.loc 1 164 0
 828 0052 2046     		mov	r0, r4
 829 0054 FFF7FEFF 		bl	adc_lld_stop_conversion
 830 0058 2169     		ldr	r1, [r4, #16]
 831 005a CB68     		ldr	r3, [r1, #12]
 832 005c 4BB1     		cbz	r3, .L54
 833              		.loc 1 164 0 is_stmt 0 discriminator 1
 834 005e 0520     		movs	r0, #5
 835 0060 2070     		strb	r0, [r4, #0]
 836 0062 0121     		movs	r1, #1
 837 0064 2046     		mov	r0, r4
 838 0066 9847     		blx	r3
 839 0068 94F800C0 		ldrb	ip, [r4, #0]	@ zero_extendqisi2
 840 006c BCF1050F 		cmp	ip, #5
 841 0070 5ED0     		beq	.L58
 842              	.L54:
 843              		.loc 1 164 0 discriminator 2
 844 0072 0022     		movs	r2, #0
ARM GAS  /tmp/ccbOgSVP.s 			page 16


 845 0074 2261     		str	r2, [r4, #16]
 846              	.LBB13:
 847 0076 2023     		movs	r3, #32
 848              	.LVL48:
 849              	@ 164 "../libs/ChibiOS_2.4.0/os/hal/platforms/STM32F4xx/adc_lld.c" 1
 850 0078 83F31188 		msr     BASEPRI, r3
 851              	@ 0 "" 2
 852              	.LVL49:
 853              		.thumb
 854              	.LBE13:
 855 007c 6069     		ldr	r0, [r4, #20]
 856 007e 30B1     		cbz	r0, .L55
 857              	.LVL50:
 858              	.LBB14:
 859              		.loc 1 164 0 discriminator 4
 860 0080 354B     		ldr	r3, .L61+20
 861              	.LVL51:
 862 0082 4FF0FF31 		mov	r1, #-1
 863 0086 4162     		str	r1, [r0, #36]
 864 0088 5A61     		str	r2, [r3, #20]
 865 008a FFF7FEFF 		bl	chSchReadyI
 866              	.LVL52:
 867              	.L55:
 868              	.LBE14:
 869              	.LBB15:
 870              		.loc 1 164 0 discriminator 5
 871 008e 0023     		movs	r3, #0
 872              	.LVL53:
 873              	@ 164 "../libs/ChibiOS_2.4.0/os/hal/platforms/STM32F4xx/adc_lld.c" 1
 874 0090 83F31188 		msr     BASEPRI, r3
 875              	@ 0 "" 2
 876              	.LVL54:
 877              		.thumb
 878              	.L53:
 879              	.LBE15:
 880              		.loc 1 170 0 is_stmt 1
 881 0094 BDE81040 		pop	{r4, lr}
 882              		.loc 1 169 0
 883 0098 FFF7FEBF 		b	_port_irq_epilogue
 884              	.LVL55:
 885              	.L57:
 886              		.loc 1 149 0
 887 009c 2369     		ldr	r3, [r4, #16]
 888 009e 002B     		cmp	r3, #0
 889 00a0 C9D0     		beq	.L50
 890              		.loc 1 150 0
 891 00a2 2046     		mov	r0, r4
 892 00a4 FFF7FEFF 		bl	adc_lld_stop_conversion
 893 00a8 2169     		ldr	r1, [r4, #16]
 894 00aa CB68     		ldr	r3, [r1, #12]
 895 00ac 4BB1     		cbz	r3, .L51
 896              		.loc 1 150 0 is_stmt 0 discriminator 1
 897 00ae 0520     		movs	r0, #5
 898 00b0 2070     		strb	r0, [r4, #0]
 899 00b2 0121     		movs	r1, #1
 900 00b4 2046     		mov	r0, r4
 901 00b6 9847     		blx	r3
ARM GAS  /tmp/ccbOgSVP.s 			page 17


 902 00b8 94F800C0 		ldrb	ip, [r4, #0]	@ zero_extendqisi2
 903 00bc BCF1050F 		cmp	ip, #5
 904 00c0 3CD0     		beq	.L59
 905              	.L51:
 906              		.loc 1 150 0 discriminator 2
 907 00c2 0022     		movs	r2, #0
 908 00c4 2261     		str	r2, [r4, #16]
 909              	.LBB16:
 910 00c6 2023     		movs	r3, #32
 911              	.LVL56:
 912              	@ 150 "../libs/ChibiOS_2.4.0/os/hal/platforms/STM32F4xx/adc_lld.c" 1
 913 00c8 83F31188 		msr     BASEPRI, r3
 914              	@ 0 "" 2
 915              	.LVL57:
 916              		.thumb
 917              	.LBE16:
 918 00cc 6069     		ldr	r0, [r4, #20]
 919 00ce 30B1     		cbz	r0, .L52
 920              	.LVL58:
 921              	.LBB17:
 922              		.loc 1 150 0 discriminator 4
 923 00d0 1F4B     		ldr	r3, .L61+12
 924              	.LVL59:
 925 00d2 4FF0FF31 		mov	r1, #-1
 926 00d6 4162     		str	r1, [r0, #36]
 927 00d8 5A61     		str	r2, [r3, #20]
 928 00da FFF7FEFF 		bl	chSchReadyI
 929              	.LVL60:
 930              	.L52:
 931              	.LBE17:
 932              	.LBB18:
 933              		.loc 1 150 0 discriminator 5
 934 00de 0023     		movs	r3, #0
 935              	.LVL61:
 936              	@ 150 "../libs/ChibiOS_2.4.0/os/hal/platforms/STM32F4xx/adc_lld.c" 1
 937 00e0 83F31188 		msr     BASEPRI, r3
 938              	@ 0 "" 2
 939              	.LVL62:
 940              		.thumb
 941 00e4 A7E7     		b	.L50
 942              	.LVL63:
 943              	.L56:
 944              	.LBE18:
 945              		.loc 1 135 0 is_stmt 1
 946 00e6 2369     		ldr	r3, [r4, #16]
 947 00e8 002B     		cmp	r3, #0
 948 00ea 97D0     		beq	.L47
 949              		.loc 1 136 0
 950 00ec 2046     		mov	r0, r4
 951 00ee FFF7FEFF 		bl	adc_lld_stop_conversion
 952 00f2 2069     		ldr	r0, [r4, #16]
 953 00f4 C368     		ldr	r3, [r0, #12]
 954 00f6 4BB1     		cbz	r3, .L48
 955              		.loc 1 136 0 is_stmt 0 discriminator 1
 956 00f8 0522     		movs	r2, #5
 957 00fa 0121     		movs	r1, #1
 958 00fc 2270     		strb	r2, [r4, #0]
ARM GAS  /tmp/ccbOgSVP.s 			page 18


 959 00fe 2046     		mov	r0, r4
 960 0100 9847     		blx	r3
 961 0102 94F800C0 		ldrb	ip, [r4, #0]	@ zero_extendqisi2
 962 0106 BCF1050F 		cmp	ip, #5
 963 010a 14D0     		beq	.L60
 964              	.L48:
 965              		.loc 1 136 0 discriminator 2
 966 010c 0022     		movs	r2, #0
 967 010e 2261     		str	r2, [r4, #16]
 968              	.LBB19:
 969 0110 2023     		movs	r3, #32
 970              	.LVL64:
 971              	@ 136 "../libs/ChibiOS_2.4.0/os/hal/platforms/STM32F4xx/adc_lld.c" 1
 972 0112 83F31188 		msr     BASEPRI, r3
 973              	@ 0 "" 2
 974              	.LVL65:
 975              		.thumb
 976              	.LBE19:
 977 0116 6069     		ldr	r0, [r4, #20]
 978 0118 30B1     		cbz	r0, .L49
 979              	.LVL66:
 980              	.LBB20:
 981              		.loc 1 136 0 discriminator 4
 982 011a 0B4B     		ldr	r3, .L61+4
 983              	.LVL67:
 984 011c 4FF0FF31 		mov	r1, #-1
 985 0120 4162     		str	r1, [r0, #36]
 986 0122 5A61     		str	r2, [r3, #20]
 987 0124 FFF7FEFF 		bl	chSchReadyI
 988              	.LVL68:
 989              	.L49:
 990              	.LBE20:
 991              	.LBB21:
 992              		.loc 1 136 0 discriminator 5
 993 0128 0023     		movs	r3, #0
 994              	.LVL69:
 995              	@ 136 "../libs/ChibiOS_2.4.0/os/hal/platforms/STM32F4xx/adc_lld.c" 1
 996 012a 83F31188 		msr     BASEPRI, r3
 997              	@ 0 "" 2
 998              	.LVL70:
 999              		.thumb
 1000 012e 75E7     		b	.L47
 1001              	.LVL71:
 1002              	.L58:
 1003              	.LBE21:
 1004              		.loc 1 164 0 is_stmt 1 discriminator 3
 1005 0130 0222     		movs	r2, #2
 1006 0132 2270     		strb	r2, [r4, #0]
 1007 0134 9DE7     		b	.L54
 1008              	.L60:
 1009              		.loc 1 136 0 discriminator 3
 1010 0136 0221     		movs	r1, #2
 1011 0138 2170     		strb	r1, [r4, #0]
 1012 013a E7E7     		b	.L48
 1013              	.L59:
 1014              		.loc 1 150 0 discriminator 3
 1015 013c 0222     		movs	r2, #2
ARM GAS  /tmp/ccbOgSVP.s 			page 19


 1016 013e 2270     		strb	r2, [r4, #0]
 1017 0140 BFE7     		b	.L51
 1018              	.L62:
 1019 0142 00BF     		.align	2
 1020              	.L61:
 1021 0144 00200140 		.word	1073815552
 1022 0148 00000000 		.word	.LANCHOR0
 1023 014c 00210140 		.word	1073815808
 1024 0150 00000000 		.word	.LANCHOR1
 1025 0154 00220140 		.word	1073816064
 1026 0158 00000000 		.word	.LANCHOR2
 1027              		.cfi_endproc
 1028              	.LFE118:
 1029              		.size	Vector88, .-Vector88
 1030 015c AFF30080 		.section	.text.adcSTM32EnableTSVREFE,"ax",%progbits
 1031              		.align	2
 1032              		.p2align 4,,15
 1033              		.global	adcSTM32EnableTSVREFE
 1034              		.thumb
 1035              		.thumb_func
 1036              		.type	adcSTM32EnableTSVREFE, %function
 1037              	adcSTM32EnableTSVREFE:
 1038              	.LFB124:
 1039              		.loc 1 385 0
 1040              		.cfi_startproc
 1041              		@ args = 0, pretend = 0, frame = 0
 1042              		@ frame_needed = 0, uses_anonymous_args = 0
 1043              		@ link register save eliminated.
 1044              		.loc 1 387 0
 1045 0000 024B     		ldr	r3, .L64
 1046 0002 5868     		ldr	r0, [r3, #4]
 1047 0004 40F40002 		orr	r2, r0, #8388608
 1048 0008 5A60     		str	r2, [r3, #4]
 1049              		.loc 1 388 0
 1050 000a 7047     		bx	lr
 1051              	.L65:
 1052              		.align	2
 1053              	.L64:
 1054 000c 00230140 		.word	1073816320
 1055              		.cfi_endproc
 1056              	.LFE124:
 1057              		.size	adcSTM32EnableTSVREFE, .-adcSTM32EnableTSVREFE
 1058              		.section	.text.adcSTM32DisableTSVREFE,"ax",%progbits
 1059              		.align	2
 1060              		.p2align 4,,15
 1061              		.global	adcSTM32DisableTSVREFE
 1062              		.thumb
 1063              		.thumb_func
 1064              		.type	adcSTM32DisableTSVREFE, %function
 1065              	adcSTM32DisableTSVREFE:
 1066              	.LFB125:
 1067              		.loc 1 396 0
 1068              		.cfi_startproc
 1069              		@ args = 0, pretend = 0, frame = 0
 1070              		@ frame_needed = 0, uses_anonymous_args = 0
 1071              		@ link register save eliminated.
 1072              		.loc 1 398 0
ARM GAS  /tmp/ccbOgSVP.s 			page 20


 1073 0000 024B     		ldr	r3, .L67
 1074 0002 5868     		ldr	r0, [r3, #4]
 1075 0004 20F40002 		bic	r2, r0, #8388608
 1076 0008 5A60     		str	r2, [r3, #4]
 1077              		.loc 1 399 0
 1078 000a 7047     		bx	lr
 1079              	.L68:
 1080              		.align	2
 1081              	.L67:
 1082 000c 00230140 		.word	1073816320
 1083              		.cfi_endproc
 1084              	.LFE125:
 1085              		.size	adcSTM32DisableTSVREFE, .-adcSTM32DisableTSVREFE
 1086              		.section	.text.adcSTM32EnableVBATE,"ax",%progbits
 1087              		.align	2
 1088              		.p2align 4,,15
 1089              		.global	adcSTM32EnableVBATE
 1090              		.thumb
 1091              		.thumb_func
 1092              		.type	adcSTM32EnableVBATE, %function
 1093              	adcSTM32EnableVBATE:
 1094              	.LFB126:
 1095              		.loc 1 406 0
 1096              		.cfi_startproc
 1097              		@ args = 0, pretend = 0, frame = 0
 1098              		@ frame_needed = 0, uses_anonymous_args = 0
 1099              		@ link register save eliminated.
 1100              		.loc 1 408 0
 1101 0000 024B     		ldr	r3, .L70
 1102 0002 5868     		ldr	r0, [r3, #4]
 1103 0004 40F48002 		orr	r2, r0, #4194304
 1104 0008 5A60     		str	r2, [r3, #4]
 1105              		.loc 1 409 0
 1106 000a 7047     		bx	lr
 1107              	.L71:
 1108              		.align	2
 1109              	.L70:
 1110 000c 00230140 		.word	1073816320
 1111              		.cfi_endproc
 1112              	.LFE126:
 1113              		.size	adcSTM32EnableVBATE, .-adcSTM32EnableVBATE
 1114              		.section	.text.adcSTM32DisableVBATE,"ax",%progbits
 1115              		.align	2
 1116              		.p2align 4,,15
 1117              		.global	adcSTM32DisableVBATE
 1118              		.thumb
 1119              		.thumb_func
 1120              		.type	adcSTM32DisableVBATE, %function
 1121              	adcSTM32DisableVBATE:
 1122              	.LFB127:
 1123              		.loc 1 416 0
 1124              		.cfi_startproc
 1125              		@ args = 0, pretend = 0, frame = 0
 1126              		@ frame_needed = 0, uses_anonymous_args = 0
 1127              		@ link register save eliminated.
 1128              		.loc 1 418 0
 1129 0000 024B     		ldr	r3, .L73
ARM GAS  /tmp/ccbOgSVP.s 			page 21


 1130 0002 5868     		ldr	r0, [r3, #4]
 1131 0004 20F48002 		bic	r2, r0, #4194304
 1132 0008 5A60     		str	r2, [r3, #4]
 1133              		.loc 1 419 0
 1134 000a 7047     		bx	lr
 1135              	.L74:
 1136              		.align	2
 1137              	.L73:
 1138 000c 00230140 		.word	1073816320
 1139              		.cfi_endproc
 1140              	.LFE127:
 1141              		.size	adcSTM32DisableVBATE, .-adcSTM32DisableVBATE
 1142              		.global	ADCD1
 1143              		.global	ADCD2
 1144              		.global	ADCD3
 1145              		.section	.bss.ADCD1,"aw",%nobits
 1146              		.align	2
 1147              		.set	.LANCHOR0,. + 0
 1148              		.type	ADCD1, %object
 1149              		.size	ADCD1, 52
 1150              	ADCD1:
 1151 0000 00000000 		.space	52
 1151      00000000 
 1151      00000000 
 1151      00000000 
 1151      00000000 
 1152              		.section	.bss.ADCD2,"aw",%nobits
 1153              		.align	2
 1154              		.set	.LANCHOR1,. + 0
 1155              		.type	ADCD2, %object
 1156              		.size	ADCD2, 52
 1157              	ADCD2:
 1158 0000 00000000 		.space	52
 1158      00000000 
 1158      00000000 
 1158      00000000 
 1158      00000000 
 1159              		.section	.bss.ADCD3,"aw",%nobits
 1160              		.align	2
 1161              		.set	.LANCHOR2,. + 0
 1162              		.type	ADCD3, %object
 1163              		.size	ADCD3, 52
 1164              	ADCD3:
 1165 0000 00000000 		.space	52
 1165      00000000 
 1165      00000000 
 1165      00000000 
 1165      00000000 
 1166              		.text
 1167              	.Letext0: