ARM GAS  /tmp/ccmAp4vG.s 			page 1


   1              		.syntax unified
   2              		.cpu cortex-m4
   3              		.eabi_attribute 27, 3
   4              		.eabi_attribute 28, 1
   5              		.fpu fpv4-sp-d16
   6              		.eabi_attribute 20, 1
   7              		.eabi_attribute 21, 1
   8              		.eabi_attribute 23, 3
   9              		.eabi_attribute 24, 1
  10              		.eabi_attribute 25, 1
  11              		.eabi_attribute 26, 1
  12              		.eabi_attribute 30, 2
  13              		.eabi_attribute 18, 4
  14              		.thumb
  15              		.file	"chcond.c"
  22 0000 A0020000 		.text
  22      02007101 
  22      00000201 
  22      FB0E0D00 
  22      01010101 
  23              	.Ltext0:
  24              		.cfi_sections	.debug_frame
  25              		.section	.text.chCondInit,"ax",%progbits
  26              		.align	2
  27              		.p2align 4,,15
  28              		.global	chCondInit
  29              		.thumb
  30              		.thumb_func
  31              		.type	chCondInit, %function
  32              	chCondInit:
  33              	.LFB7:
  34              		.file 1 "../libs/ChibiOS_2.4.0/os/kernel/src/chcond.c"
  35              		.loc 1 59 0
  36              		.cfi_startproc
  37              		@ args = 0, pretend = 0, frame = 0
  38              		@ frame_needed = 0, uses_anonymous_args = 0
  39              		@ link register save eliminated.
  40              	.LVL0:
  41              		.loc 1 63 0
  42 0000 4060     		str	r0, [r0, #4]
  43 0002 0060     		str	r0, [r0, #0]
  44              		.loc 1 64 0
  45 0004 7047     		bx	lr
  46              		.cfi_endproc
  47              	.LFE7:
  48              		.size	chCondInit, .-chCondInit
  49 0006 00BFAFF3 		.section	.text.chCondSignal,"ax",%progbits
  49      0080AFF3 
  49      0080
  50              		.align	2
  51              		.p2align 4,,15
ARM GAS  /tmp/ccmAp4vG.s 			page 2


  52              		.global	chCondSignal
  53              		.thumb
  54              		.thumb_func
  55              		.type	chCondSignal, %function
  56              	chCondSignal:
  57              	.LFB8:
  58              		.loc 1 73 0
  59              		.cfi_startproc
  60              		@ args = 0, pretend = 0, frame = 0
  61              		@ frame_needed = 0, uses_anonymous_args = 0
  62              	.LVL1:
  63 0000 08B5     		push	{r3, lr}
  64              	.LCFI0:
  65              		.cfi_def_cfa_offset 8
  66              		.loc 1 73 0
  67 0002 0246     		mov	r2, r0
  68              	.LBB14:
  69              		.loc 1 77 0
  70 0004 2023     		movs	r3, #32
  71              		.cfi_offset 14, -4
  72              		.cfi_offset 3, -8
  73              	.LVL2:
  74              	@ 77 "../libs/ChibiOS_2.4.0/os/kernel/src/chcond.c" 1
  75 0006 83F31188 		msr     BASEPRI, r3
  76              	@ 0 "" 2
  77              	.LVL3:
  78              		.thumb
  79              	.LBE14:
  80              		.loc 1 78 0
  81 000a 0068     		ldr	r0, [r0, #0]
  82              	.LVL4:
  83 000c 9042     		cmp	r0, r2
  84 000e 05D0     		beq	.L3
  85              	.LVL5:
  86              	.LBB15:
  87              	.LBB16:
  88              		.file 2 "../libs/ChibiOS_2.4.0/os/kernel/include/chinline.h"
  89              		.loc 2 62 0
  90 0010 0368     		ldr	r3, [r0, #0]
  91              	.LVL6:
  92              	.LBE16:
  93              	.LBE15:
  94              		.loc 1 79 0
  95 0012 0021     		movs	r1, #0
  96              	.LBB18:
  97              	.LBB17:
  98              		.loc 2 62 0
  99 0014 1360     		str	r3, [r2, #0]
 100 0016 5A60     		str	r2, [r3, #4]
 101              	.LBE17:
 102              	.LBE18:
 103              		.loc 1 79 0
 104 0018 FFF7FEFF 		bl	chSchWakeupS
 105              	.LVL7:
 106              	.L3:
 107              	.LBB19:
 108              		.loc 1 80 0
ARM GAS  /tmp/ccmAp4vG.s 			page 3


 109 001c 0023     		movs	r3, #0
 110              	.LVL8:
 111              	@ 80 "../libs/ChibiOS_2.4.0/os/kernel/src/chcond.c" 1
 112 001e 83F31188 		msr     BASEPRI, r3
 113              	@ 0 "" 2
 114              	.LVL9:
 115              		.thumb
 116              	.LBE19:
 117              		.loc 1 81 0
 118 0022 08BD     		pop	{r3, pc}
 119              		.cfi_endproc
 120              	.LFE8:
 121              		.size	chCondSignal, .-chCondSignal
 122 0024 AFF30080 		.section	.text.chCondSignalI,"ax",%progbits
 122      AFF30080 
 122      AFF30080 
 123              		.align	2
 124              		.p2align 4,,15
 125              		.global	chCondSignalI
 126              		.thumb
 127              		.thumb_func
 128              		.type	chCondSignalI, %function
 129              	chCondSignalI:
 130              	.LFB9:
 131              		.loc 1 94 0
 132              		.cfi_startproc
 133              		@ args = 0, pretend = 0, frame = 0
 134              		@ frame_needed = 0, uses_anonymous_args = 0
 135              	.LVL10:
 136 0000 08B5     		push	{r3, lr}
 137              	.LCFI1:
 138              		.cfi_def_cfa_offset 8
 139              		.loc 1 94 0
 140 0002 0346     		mov	r3, r0
 141              		.cfi_offset 14, -4
 142              		.cfi_offset 3, -8
 143              		.loc 1 99 0
 144 0004 0068     		ldr	r0, [r0, #0]
 145              	.LVL11:
 146 0006 9842     		cmp	r0, r3
 147 0008 06D0     		beq	.L5
 148              	.LVL12:
 149              	.LBB20:
 150              	.LBB21:
 151              		.loc 2 62 0
 152 000a 0268     		ldr	r2, [r0, #0]
 153 000c 1A60     		str	r2, [r3, #0]
 154 000e 5360     		str	r3, [r2, #4]
 155              	.LBE21:
 156              	.LBE20:
 157              		.loc 1 100 0
 158 0010 FFF7FEFF 		bl	chSchReadyI
 159              	.LVL13:
 160 0014 0023     		movs	r3, #0
 161 0016 4362     		str	r3, [r0, #36]
 162              	.L5:
 163 0018 08BD     		pop	{r3, pc}
ARM GAS  /tmp/ccmAp4vG.s 			page 4


 164              		.cfi_endproc
 165              	.LFE9:
 166              		.size	chCondSignalI, .-chCondSignalI
 167 001a 00BFAFF3 		.section	.text.chCondBroadcastI,"ax",%progbits
 167      0080
 168              		.align	2
 169              		.p2align 4,,15
 170              		.global	chCondBroadcastI
 171              		.thumb
 172              		.thumb_func
 173              		.type	chCondBroadcastI, %function
 174              	chCondBroadcastI:
 175              	.LFB11:
 176              		.loc 1 129 0
 177              		.cfi_startproc
 178              		@ args = 0, pretend = 0, frame = 0
 179              		@ frame_needed = 0, uses_anonymous_args = 0
 180              	.LVL14:
 181 0000 38B5     		push	{r3, r4, r5, lr}
 182              	.LCFI2:
 183              		.cfi_def_cfa_offset 16
 184              		.loc 1 129 0
 185 0002 0446     		mov	r4, r0
 186              		.cfi_offset 14, -4
 187              		.cfi_offset 5, -8
 188              		.cfi_offset 4, -12
 189              		.cfi_offset 3, -16
 190              		.loc 1 137 0
 191 0004 0068     		ldr	r0, [r0, #0]
 192              	.LVL15:
 193 0006 A042     		cmp	r0, r4
 194 0008 0AD0     		beq	.L7
 195              		.loc 1 138 0
 196 000a 6FF00105 		mvn	r5, #1
 197              	.L10:
 198              	.LVL16:
 199              	.LBB22:
 200              	.LBB23:
 201              		.loc 2 62 0
 202 000e 0368     		ldr	r3, [r0, #0]
 203 0010 2360     		str	r3, [r4, #0]
 204 0012 5C60     		str	r4, [r3, #4]
 205              	.LBE23:
 206              	.LBE22:
 207              		.loc 1 138 0
 208 0014 FFF7FEFF 		bl	chSchReadyI
 209              	.LVL17:
 210 0018 4562     		str	r5, [r0, #36]
 211              		.loc 1 137 0
 212 001a 2068     		ldr	r0, [r4, #0]
 213 001c A042     		cmp	r0, r4
 214 001e F6D1     		bne	.L10
 215              	.LVL18:
 216              	.L7:
 217 0020 38BD     		pop	{r3, r4, r5, pc}
 218              		.cfi_endproc
 219              	.LFE11:
ARM GAS  /tmp/ccmAp4vG.s 			page 5


 220              		.size	chCondBroadcastI, .-chCondBroadcastI
 221 0022 00BFAFF3 		.section	.text.chCondBroadcast,"ax",%progbits
 221      0080AFF3 
 221      0080AFF3 
 221      0080
 222              		.align	2
 223              		.p2align 4,,15
 224              		.global	chCondBroadcast
 225              		.thumb
 226              		.thumb_func
 227              		.type	chCondBroadcast, %function
 228              	chCondBroadcast:
 229              	.LFB10:
 230              		.loc 1 110 0
 231              		.cfi_startproc
 232              		@ args = 0, pretend = 0, frame = 0
 233              		@ frame_needed = 0, uses_anonymous_args = 0
 234              	.LVL19:
 235 0000 08B5     		push	{r3, lr}
 236              	.LCFI3:
 237              		.cfi_def_cfa_offset 8
 238              	.LBB24:
 239              		.loc 1 112 0
 240 0002 2023     		movs	r3, #32
 241              		.cfi_offset 14, -4
 242              		.cfi_offset 3, -8
 243              	.LVL20:
 244              	@ 112 "../libs/ChibiOS_2.4.0/os/kernel/src/chcond.c" 1
 245 0004 83F31188 		msr     BASEPRI, r3
 246              	@ 0 "" 2
 247              	.LVL21:
 248              		.thumb
 249              	.LBE24:
 250              		.loc 1 113 0
 251 0008 FFF7FEFF 		bl	chCondBroadcastI
 252              	.LVL22:
 253              		.loc 1 114 0
 254 000c FFF7FEFF 		bl	chSchRescheduleS
 255              	.LBB25:
 256              		.loc 1 115 0
 257 0010 0023     		movs	r3, #0
 258              	.LVL23:
 259              	@ 115 "../libs/ChibiOS_2.4.0/os/kernel/src/chcond.c" 1
 260 0012 83F31188 		msr     BASEPRI, r3
 261              	@ 0 "" 2
 262              	.LVL24:
 263              		.thumb
 264              	.LBE25:
 265              		.loc 1 116 0
 266 0016 08BD     		pop	{r3, pc}
 267              		.cfi_endproc
 268              	.LFE10:
 269              		.size	chCondBroadcast, .-chCondBroadcast
 270 0018 AFF30080 		.section	.text.chCondWaitS,"ax",%progbits
 270      AFF30080 
 271              		.align	2
 272              		.p2align 4,,15
ARM GAS  /tmp/ccmAp4vG.s 			page 6


 273              		.global	chCondWaitS
 274              		.thumb
 275              		.thumb_func
 276              		.type	chCondWaitS, %function
 277              	chCondWaitS:
 278              	.LFB13:
 279              		.loc 1 184 0
 280              		.cfi_startproc
 281              		@ args = 0, pretend = 0, frame = 0
 282              		@ frame_needed = 0, uses_anonymous_args = 0
 283              	.LVL25:
 284              		.loc 1 185 0
 285 0000 104B     		ldr	r3, .L19
 286              		.loc 1 184 0
 287 0002 70B5     		push	{r4, r5, r6, lr}
 288              	.LCFI4:
 289              		.cfi_def_cfa_offset 16
 290              		.loc 1 184 0
 291 0004 0546     		mov	r5, r0
 292              		.cfi_offset 14, -4
 293              		.cfi_offset 6, -8
 294              		.cfi_offset 5, -12
 295              		.cfi_offset 4, -16
 296              		.loc 1 185 0
 297 0006 DC69     		ldr	r4, [r3, #28]
 298              	.LVL26:
 299              		.loc 1 195 0
 300 0008 FFF7FEFF 		bl	chMtxUnlockS
 301              	.LVL27:
 302              		.loc 1 196 0
 303 000c 6562     		str	r5, [r4, #36]
 304              		.loc 1 195 0
 305 000e 0646     		mov	r6, r0
 306              	.LVL28:
 307              	.LBB26:
 308              	.LBB27:
 309              		.loc 2 43 0
 310 0010 2B46     		mov	r3, r5
 311              	.LVL29:
 312 0012 2A46     		mov	r2, r5
 313 0014 03E0     		b	.L15
 314              	.LVL30:
 315              	.L18:
 316              		.loc 2 46 0
 317 0016 9068     		ldr	r0, [r2, #8]
 318 0018 A168     		ldr	r1, [r4, #8]
 319 001a 8842     		cmp	r0, r1
 320 001c 10D3     		bcc	.L17
 321              	.L15:
 322              		.loc 2 45 0
 323 001e 1268     		ldr	r2, [r2, #0]
 324              	.LVL31:
 325              		.loc 2 46 0
 326 0020 9542     		cmp	r5, r2
 327 0022 F8D1     		bne	.L18
 328              	.L14:
 329              		.loc 2 48 0
ARM GAS  /tmp/ccmAp4vG.s 			page 7


 330 0024 5A68     		ldr	r2, [r3, #4]
 331              	.LVL32:
 332              		.loc 2 47 0
 333 0026 2360     		str	r3, [r4, #0]
 334              		.loc 2 48 0
 335 0028 6260     		str	r2, [r4, #4]
 336              		.loc 2 49 0
 337 002a 1460     		str	r4, [r2, #0]
 338 002c 5C60     		str	r4, [r3, #4]
 339              	.LBE27:
 340              	.LBE26:
 341              		.loc 1 198 0
 342 002e 0520     		movs	r0, #5
 343 0030 FFF7FEFF 		bl	chSchGoSleepS
 344              		.loc 1 199 0
 345 0034 646A     		ldr	r4, [r4, #36]
 346              	.LVL33:
 347              		.loc 1 200 0
 348 0036 3046     		mov	r0, r6
 349 0038 FFF7FEFF 		bl	chMtxLockS
 350              		.loc 1 202 0
 351 003c 2046     		mov	r0, r4
 352 003e 70BD     		pop	{r4, r5, r6, pc}
 353              	.LVL34:
 354              	.L17:
 355              	.LBB29:
 356              	.LBB28:
 357              		.loc 2 45 0
 358 0040 1346     		mov	r3, r2
 359 0042 EFE7     		b	.L14
 360              	.L20:
 361              		.align	2
 362              	.L19:
 363 0044 00000000 		.word	rlist
 364              	.LBE28:
 365              	.LBE29:
 366              		.cfi_endproc
 367              	.LFE13:
 368              		.size	chCondWaitS, .-chCondWaitS
 369 0048 AFF30080 		.section	.text.chCondWait,"ax",%progbits
 369      AFF30080 
 370              		.align	2
 371              		.p2align 4,,15
 372              		.global	chCondWait
 373              		.thumb
 374              		.thumb_func
 375              		.type	chCondWait, %function
 376              	chCondWait:
 377              	.LFB12:
 378              		.loc 1 158 0
 379              		.cfi_startproc
 380              		@ args = 0, pretend = 0, frame = 0
 381              		@ frame_needed = 0, uses_anonymous_args = 0
 382              	.LVL35:
 383 0000 08B5     		push	{r3, lr}
 384              	.LCFI5:
 385              		.cfi_def_cfa_offset 8
ARM GAS  /tmp/ccmAp4vG.s 			page 8


 386              	.LBB30:
 387              		.loc 1 161 0
 388 0002 2023     		movs	r3, #32
 389              		.cfi_offset 14, -4
 390              		.cfi_offset 3, -8
 391              	.LVL36:
 392              	@ 161 "../libs/ChibiOS_2.4.0/os/kernel/src/chcond.c" 1
 393 0004 83F31188 		msr     BASEPRI, r3
 394              	@ 0 "" 2
 395              	.LVL37:
 396              		.thumb
 397              	.LBE30:
 398              		.loc 1 162 0
 399 0008 FFF7FEFF 		bl	chCondWaitS
 400              	.LVL38:
 401              	.LBB31:
 402              		.loc 1 163 0
 403 000c 0023     		movs	r3, #0
 404              	.LVL39:
 405              	@ 163 "../libs/ChibiOS_2.4.0/os/kernel/src/chcond.c" 1
 406 000e 83F31188 		msr     BASEPRI, r3
 407              	@ 0 "" 2
 408              	.LVL40:
 409              		.thumb
 410              	.LBE31:
 411              		.loc 1 165 0
 412 0012 08BD     		pop	{r3, pc}
 413              		.cfi_endproc
 414              	.LFE12:
 415              		.size	chCondWait, .-chCondWait
 416 0014 AFF30080 		.section	.text.chCondWaitTimeoutS,"ax",%progbits
 416      AFF30080 
 416      AFF30080 
 417              		.align	2
 418              		.p2align 4,,15
 419              		.global	chCondWaitTimeoutS
 420              		.thumb
 421              		.thumb_func
 422              		.type	chCondWaitTimeoutS, %function
 423              	chCondWaitTimeoutS:
 424              	.LFB15:
 425              		.loc 1 270 0
 426              		.cfi_startproc
 427              		@ args = 0, pretend = 0, frame = 0
 428              		@ frame_needed = 0, uses_anonymous_args = 0
 429              	.LVL41:
 430 0000 F8B5     		push	{r3, r4, r5, r6, r7, lr}
 431              	.LCFI6:
 432              		.cfi_def_cfa_offset 24
 433              		.loc 1 270 0
 434 0002 0446     		mov	r4, r0
 435              		.cfi_offset 14, -4
 436              		.cfi_offset 7, -8
 437              		.cfi_offset 6, -12
 438              		.cfi_offset 5, -16
 439              		.cfi_offset 4, -20
 440              		.cfi_offset 3, -24
ARM GAS  /tmp/ccmAp4vG.s 			page 9


 441 0004 0E46     		mov	r6, r1
 442              		.loc 1 280 0
 443 0006 FFF7FEFF 		bl	chMtxUnlockS
 444              	.LVL42:
 445              		.loc 1 281 0
 446 000a 114B     		ldr	r3, .L29
 447              		.loc 1 280 0
 448 000c 0546     		mov	r5, r0
 449              	.LVL43:
 450              		.loc 1 281 0
 451 000e D869     		ldr	r0, [r3, #28]
 452              	.LVL44:
 453              	.LBB32:
 454              	.LBB34:
 455              		.loc 2 43 0
 456 0010 2746     		mov	r7, r4
 457              	.LBE34:
 458              	.LBE32:
 459              		.loc 1 281 0
 460 0012 4462     		str	r4, [r0, #36]
 461              	.LVL45:
 462              	.LBB36:
 463              	.LBB33:
 464              		.loc 2 43 0
 465 0014 2346     		mov	r3, r4
 466              	.LVL46:
 467 0016 03E0     		b	.L24
 468              	.LVL47:
 469              	.L28:
 470              		.loc 2 46 0
 471 0018 9968     		ldr	r1, [r3, #8]
 472 001a 8268     		ldr	r2, [r0, #8]
 473 001c 9142     		cmp	r1, r2
 474 001e 14D3     		bcc	.L27
 475              	.L24:
 476              		.loc 2 45 0
 477 0020 1B68     		ldr	r3, [r3, #0]
 478              	.LVL48:
 479              		.loc 2 46 0
 480 0022 9C42     		cmp	r4, r3
 481 0024 F8D1     		bne	.L28
 482              	.L23:
 483              		.loc 2 48 0
 484 0026 7C68     		ldr	r4, [r7, #4]
 485              	.LVL49:
 486              		.loc 2 47 0
 487 0028 0760     		str	r7, [r0, #0]
 488              		.loc 2 48 0
 489 002a 4460     		str	r4, [r0, #4]
 490              		.loc 2 49 0
 491 002c 2060     		str	r0, [r4, #0]
 492 002e 7860     		str	r0, [r7, #4]
 493              	.LBE33:
 494              	.LBE36:
 495              		.loc 1 283 0
 496 0030 3146     		mov	r1, r6
 497 0032 0520     		movs	r0, #5
ARM GAS  /tmp/ccmAp4vG.s 			page 10


 498 0034 FFF7FEFF 		bl	chSchGoSleepTimeoutS
 499              	.LVL50:
 500              		.loc 1 284 0
 501 0038 B0F1FF3F 		cmp	r0, #-1
 502              		.loc 1 283 0
 503 003c 0446     		mov	r4, r0
 504              	.LVL51:
 505              		.loc 1 284 0
 506 003e 02D0     		beq	.L25
 507              		.loc 1 285 0
 508 0040 2846     		mov	r0, r5
 509              	.LVL52:
 510 0042 FFF7FEFF 		bl	chMtxLockS
 511              	.L25:
 512              		.loc 1 287 0
 513 0046 2046     		mov	r0, r4
 514 0048 F8BD     		pop	{r3, r4, r5, r6, r7, pc}
 515              	.LVL53:
 516              	.L27:
 517              	.LBB37:
 518              	.LBB35:
 519              		.loc 2 45 0
 520 004a 1F46     		mov	r7, r3
 521 004c EBE7     		b	.L23
 522              	.L30:
 523 004e 00BF     		.align	2
 524              	.L29:
 525 0050 00000000 		.word	rlist
 526              	.LBE35:
 527              	.LBE37:
 528              		.cfi_endproc
 529              	.LFE15:
 530              		.size	chCondWaitTimeoutS, .-chCondWaitTimeoutS
 531 0054 AFF30080 		.section	.text.chCondWaitTimeout,"ax",%progbits
 531      AFF30080 
 531      AFF30080 
 532              		.align	2
 533              		.p2align 4,,15
 534              		.global	chCondWaitTimeout
 535              		.thumb
 536              		.thumb_func
 537              		.type	chCondWaitTimeout, %function
 538              	chCondWaitTimeout:
 539              	.LFB14:
 540              		.loc 1 233 0
 541              		.cfi_startproc
 542              		@ args = 0, pretend = 0, frame = 0
 543              		@ frame_needed = 0, uses_anonymous_args = 0
 544              	.LVL54:
 545 0000 08B5     		push	{r3, lr}
 546              	.LCFI7:
 547              		.cfi_def_cfa_offset 8
 548              	.LBB38:
 549              		.loc 1 236 0
 550 0002 2023     		movs	r3, #32
 551              		.cfi_offset 14, -4
 552              		.cfi_offset 3, -8
ARM GAS  /tmp/ccmAp4vG.s 			page 11


 553              	.LVL55:
 554              	@ 236 "../libs/ChibiOS_2.4.0/os/kernel/src/chcond.c" 1
 555 0004 83F31188 		msr     BASEPRI, r3
 556              	@ 0 "" 2
 557              	.LVL56:
 558              		.thumb
 559              	.LBE38:
 560              		.loc 1 237 0
 561 0008 FFF7FEFF 		bl	chCondWaitTimeoutS
 562              	.LVL57:
 563              	.LBB39:
 564              		.loc 1 238 0
 565 000c 0023     		movs	r3, #0
 566              	.LVL58:
 567              	@ 238 "../libs/ChibiOS_2.4.0/os/kernel/src/chcond.c" 1
 568 000e 83F31188 		msr     BASEPRI, r3
 569              	@ 0 "" 2
 570              	.LVL59:
 571              		.thumb
 572              	.LBE39:
 573              		.loc 1 240 0
 574 0012 08BD     		pop	{r3, pc}
 575              		.cfi_endproc
 576              	.LFE14:
 577              		.size	chCondWaitTimeout, .-chCondWaitTimeout
 578 0014 AFF30080 		.text
 578      AFF30080 
 578      AFF30080 
 579              	.Letext0: