ARM GAS  /tmp/ccuMDymn.s 			page 1


   1              		.syntax unified
   2              		.cpu cortex-m4
   3              		.eabi_attribute 27, 3
   4              		.eabi_attribute 28, 1
   5              		.fpu fpv4-sp-d16
   6              		.eabi_attribute 20, 1
   7              		.eabi_attribute 21, 1
   8              		.eabi_attribute 23, 3
   9              		.eabi_attribute 24, 1
  10              		.eabi_attribute 25, 1
  11              		.eabi_attribute 26, 1
  12              		.eabi_attribute 30, 2
  13              		.eabi_attribute 18, 4
  14              		.thumb
  15              		.file	"chcore_v7m.c"
  22 0000 29020000 		.text
  22      02006E01 
  22      00000201 
  22      FB0E0D00 
  22      01010101 
  23              	.Ltext0:
  24              		.cfi_sections	.debug_frame
  25              		.section	.text._port_switch_from_isr,"ax",%progbits
  26              		.align	2
  27              		.p2align 4,,15
  28              		.global	_port_switch_from_isr
  29              		.thumb
  30              		.thumb_func
  31              		.type	_port_switch_from_isr, %function
  32              	_port_switch_from_isr:
  33              	.LFB11:
  34              		.file 1 "../libs/ChibiOS_2.4.0/os/ports/GCC/ARMCMx/chcore_v7m.c"
  35              		.loc 1 229 0
  36              		.cfi_startproc
  37              		@ Naked Function: prologue and epilogue provided by programmer.
  38              		@ args = 0, pretend = 0, frame = 0
  39              		@ frame_needed = 0, uses_anonymous_args = 0
  40              		.loc 1 232 0
  41 0000 FFF7FEFF 		bl	chSchDoReschedule
  42              		.loc 1 234 0
  43              	@ 234 "../libs/ChibiOS_2.4.0/os/ports/GCC/ARMCMx/chcore_v7m.c" 1
  44              		_port_exit_from_isr:
  45              	@ 0 "" 2
  46              		.loc 1 236 0
  47              	@ 236 "../libs/ChibiOS_2.4.0/os/ports/GCC/ARMCMx/chcore_v7m.c" 1
  48 0004 00DF     		svc     #0
  49              	@ 0 "" 2
  50              		.loc 1 243 0
  51              		.thumb
  52              		.cfi_endproc
  53              	.LFE11:
ARM GAS  /tmp/ccuMDymn.s 			page 2


  54              		.size	_port_switch_from_isr, .-_port_switch_from_isr
  55 0006 00BFAFF3 		.section	.text.SVCallVector,"ax",%progbits
  55      0080AFF3 
  55      0080
  56              		.align	2
  57              		.p2align 4,,15
  58              		.global	SVCallVector
  59              		.thumb
  60              		.thumb_func
  61              		.type	SVCallVector, %function
  62              	SVCallVector:
  63              	.LFB8:
  64              		.loc 1 65 0
  65              		.cfi_startproc
  66              		@ args = 0, pretend = 0, frame = 0
  67              		@ frame_needed = 0, uses_anonymous_args = 0
  68              		@ link register save eliminated.
  69              		.loc 1 69 0
  70              	@ 69 "../libs/ChibiOS_2.4.0/os/ports/GCC/ARMCMx/chcore_v7m.c" 1
  71 0000 EFF30983 		mrs     r3, PSP
  72              	@ 0 "" 2
  73              	.LVL0:
  74              		.loc 1 73 0
  75              		.thumb
  76 0004 2033     		adds	r3, r3, #32
  77              	.LVL1:
  78              		.loc 1 80 0
  79              	@ 80 "../libs/ChibiOS_2.4.0/os/ports/GCC/ARMCMx/chcore_v7m.c" 1
  80 0006 83F30988 		msr     PSP, r3
  81              	@ 0 "" 2
  82              		.thumb
  83              	.LBB2:
  84              		.loc 1 81 0
  85 000a 0023     		movs	r3, #0
  86              	.LVL2:
  87              	@ 81 "../libs/ChibiOS_2.4.0/os/ports/GCC/ARMCMx/chcore_v7m.c" 1
  88 000c 83F31188 		msr     BASEPRI, r3
  89              	@ 0 "" 2
  90              	.LVL3:
  91              		.thumb
  92              	.LBE2:
  93              		.loc 1 82 0
  94 0010 7047     		bx	lr
  95              		.cfi_endproc
  96              	.LFE8:
  97              		.size	SVCallVector, .-SVCallVector
  98 0012 00BFAFF3 		.section	.text._port_init,"ax",%progbits
  98      0080AFF3 
  98      0080AFF3 
  98      0080
  99              		.align	2
 100              		.p2align 4,,15
 101              		.global	_port_init
 102              		.thumb
 103              		.thumb_func
 104              		.type	_port_init, %function
 105              	_port_init:
ARM GAS  /tmp/ccuMDymn.s 			page 3


 106              	.LFB9:
 107              		.loc 1 118 0
 108              		.cfi_startproc
 109              		@ args = 0, pretend = 0, frame = 0
 110              		@ frame_needed = 0, uses_anonymous_args = 0
 111              		.loc 1 121 0
 112 0000 0A4B     		ldr	r3, .L4
 113 0002 0022     		movs	r2, #0
 114              		.loc 1 118 0
 115 0004 10B5     		push	{r4, lr}
 116              	.LCFI0:
 117              		.cfi_def_cfa_offset 8
 118              		.loc 1 121 0
 119 0006 9A60     		str	r2, [r3, #8]
 120              		.loc 1 122 0
 121 0008 094A     		ldr	r2, .L4+4
 122              		.loc 1 147 0
 123 000a 0720     		movs	r0, #7
 124 000c 1021     		movs	r1, #16
 125              		.loc 1 122 0
 126 000e DA60     		str	r2, [r3, #12]
 127              		.loc 1 147 0
 128              		.cfi_offset 14, -4
 129              		.cfi_offset 4, -8
 130 0010 FFF7FEFF 		bl	nvicSetSystemHandlerPriority
 131              		.loc 1 149 0
 132 0014 0A20     		movs	r0, #10
 133 0016 4FF40071 		mov	r1, #512
 134 001a FFF7FEFF 		bl	nvicSetSystemHandlerPriority
 135              		.loc 1 151 0
 136 001e 0B20     		movs	r0, #11
 137 0020 8021     		movs	r1, #128
 138              		.loc 1 153 0
 139 0022 BDE81040 		pop	{r4, lr}
 140              		.loc 1 151 0
 141 0026 FFF7FEBF 		b	nvicSetSystemHandlerPriority
 142              	.L5:
 143 002a 00BF     		.align	2
 144              	.L4:
 145 002c 00ED00E0 		.word	-536810240
 146 0030 0000FA05 		.word	100270080
 147              		.cfi_endproc
 148              	.LFE9:
 149              		.size	_port_init, .-_port_init
 150 0034 AFF30080 		.section	.text._port_irq_epilogue,"ax",%progbits
 150      AFF30080 
 150      AFF30080 
 151              		.align	2
 152              		.p2align 4,,15
 153              		.global	_port_irq_epilogue
 154              		.thumb
 155              		.thumb_func
 156              		.type	_port_irq_epilogue, %function
 157              	_port_irq_epilogue:
 158              	.LFB10:
 159              		.loc 1 170 0
 160              		.cfi_startproc
ARM GAS  /tmp/ccuMDymn.s 			page 4


 161              		@ args = 0, pretend = 0, frame = 0
 162              		@ frame_needed = 0, uses_anonymous_args = 0
 163              		@ link register save eliminated.
 164              	.LBB3:
 165              		.loc 1 172 0
 166 0000 2023     		movs	r3, #32
 167              	.LVL4:
 168              	@ 172 "../libs/ChibiOS_2.4.0/os/ports/GCC/ARMCMx/chcore_v7m.c" 1
 169 0002 83F31188 		msr     BASEPRI, r3
 170              	@ 0 "" 2
 171              	.LVL5:
 172              		.thumb
 173              	.LBE3:
 174              		.loc 1 173 0
 175 0006 1648     		ldr	r0, .L14
 176 0008 4368     		ldr	r3, [r0, #4]
 177              	.LVL6:
 178 000a 13F40063 		ands	r3, r3, #2048
 179 000e 16D0     		beq	.L7
 180              	.LBB4:
 181              		.loc 1 177 0
 182              	@ 177 "../libs/ChibiOS_2.4.0/os/ports/GCC/ARMCMx/chcore_v7m.c" 1
 183 0010 EFF30983 		mrs     r3, PSP
 184              	@ 0 "" 2
 185              	.LVL7:
 186              		.loc 1 181 0
 187              		.thumb
 188 0014 203B     		subs	r3, r3, #32
 189              	.LVL8:
 190              		.loc 1 182 0
 191              	@ 182 "../libs/ChibiOS_2.4.0/os/ports/GCC/ARMCMx/chcore_v7m.c" 1
 192 0016 83F30988 		msr     PSP, r3
 193              	@ 0 "" 2
 194              		.loc 1 187 0
 195              		.thumb
 196 001a 124A     		ldr	r2, .L14+4
 197 001c 9169     		ldr	r1, [r2, #24]
 198              		.loc 1 183 0
 199 001e 4FF08070 		mov	r0, #16777216
 200 0022 D861     		str	r0, [r3, #28]
 201              		.loc 1 187 0
 202 0024 71B1     		cbz	r1, .L8
 203              		.loc 1 187 0 is_stmt 0 discriminator 1
 204 0026 1068     		ldr	r0, [r2, #0]
 205 0028 D269     		ldr	r2, [r2, #28]
 206 002a 8168     		ldr	r1, [r0, #8]
 207 002c 9268     		ldr	r2, [r2, #8]
 208 002e 9142     		cmp	r1, r2
 209 0030 94BF     		ite	ls
 210 0032 0022     		movls	r2, #0
 211 0034 0122     		movhi	r2, #1
 212 0036 7AB1     		cbz	r2, .L10
 213              	.L13:
 214              		.loc 1 189 0 is_stmt 1
 215 0038 0B49     		ldr	r1, .L14+8
 216 003a 9961     		str	r1, [r3, #24]
 217 003c 7047     		bx	lr
ARM GAS  /tmp/ccuMDymn.s 			page 5


 218              	.LVL9:
 219              	.L7:
 220              	.LBE4:
 221              	.LBB5:
 222              		.loc 1 219 0
 223              	@ 219 "../libs/ChibiOS_2.4.0/os/ports/GCC/ARMCMx/chcore_v7m.c" 1
 224 003e 83F31188 		msr     BASEPRI, r3
 225              	@ 0 "" 2
 226              	.LVL10:
 227              		.thumb
 228 0042 7047     		bx	lr
 229              	.LVL11:
 230              	.L8:
 231              	.LBE5:
 232              	.LBB6:
 233              		.loc 1 187 0 discriminator 2
 234 0044 1068     		ldr	r0, [r2, #0]
 235 0046 D269     		ldr	r2, [r2, #28]
 236 0048 8168     		ldr	r1, [r0, #8]
 237 004a 9268     		ldr	r2, [r2, #8]
 238 004c 9142     		cmp	r1, r2
 239 004e 34BF     		ite	cc
 240 0050 0022     		movcc	r2, #0
 241 0052 0122     		movcs	r2, #1
 242 0054 002A     		cmp	r2, #0
 243 0056 EFD1     		bne	.L13
 244              	.L10:
 245              		.loc 1 198 0
 246 0058 044A     		ldr	r2, .L14+12
 247 005a 9A61     		str	r2, [r3, #24]
 248 005c 7047     		bx	lr
 249              	.L15:
 250 005e 00BF     		.align	2
 251              	.L14:
 252 0060 00ED00E0 		.word	-536810240
 253 0064 00000000 		.word	rlist
 254 0068 00000000 		.word	_port_switch_from_isr
 255 006c 04000000 		.word	_port_exit_from_isr
 256              	.LBE6:
 257              		.cfi_endproc
 258              	.LFE10:
 259              		.size	_port_irq_epilogue, .-_port_irq_epilogue
 260              		.section	.text.SysTickVector,"ax",%progbits
 261              		.align	2
 262              		.p2align 4,,15
 263              		.global	SysTickVector
 264              		.thumb
 265              		.thumb_func
 266              		.type	SysTickVector, %function
 267              	SysTickVector:
 268              	.LFB7:
 269              		.loc 1 47 0
 270              		.cfi_startproc
 271              		@ args = 0, pretend = 0, frame = 0
 272              		@ frame_needed = 0, uses_anonymous_args = 0
 273 0000 10B5     		push	{r4, lr}
 274              	.LCFI1:
ARM GAS  /tmp/ccuMDymn.s 			page 6


 275              		.cfi_def_cfa_offset 8
 276              	.LBB7:
 277              		.loc 1 51 0
 278 0002 2023     		movs	r3, #32
 279              	.LVL12:
 280              	@ 51 "../libs/ChibiOS_2.4.0/os/ports/GCC/ARMCMx/chcore_v7m.c" 1
 281 0004 83F31188 		msr     BASEPRI, r3
 282              	@ 0 "" 2
 283              	.LVL13:
 284              		.thumb
 285              	.LBE7:
 286              		.loc 1 52 0
 287              		.cfi_offset 14, -4
 288              		.cfi_offset 4, -8
 289 0008 FFF7FEFF 		bl	chSysTimerHandlerI
 290              	.LVL14:
 291              	.LBB8:
 292              		.loc 1 53 0
 293 000c 0023     		movs	r3, #0
 294              	.LVL15:
 295              	@ 53 "../libs/ChibiOS_2.4.0/os/ports/GCC/ARMCMx/chcore_v7m.c" 1
 296 000e 83F31188 		msr     BASEPRI, r3
 297              	@ 0 "" 2
 298              	.LVL16:
 299              		.thumb
 300              	.LBE8:
 301              		.loc 1 56 0
 302 0012 BDE81040 		pop	{r4, lr}
 303              		.loc 1 55 0
 304 0016 FFF7FEBF 		b	_port_irq_epilogue
 305              		.cfi_endproc
 306              	.LFE7:
 307              		.size	SysTickVector, .-SysTickVector
 308 001a 00BFAFF3 		.section	.text._port_switch,"ax",%progbits
 308      0080
 309              		.align	2
 310              		.p2align 4,,15
 311              		.global	_port_switch
 312              		.thumb
 313              		.thumb_func
 314              		.type	_port_switch, %function
 315              	_port_switch:
 316              	.LFB12:
 317              		.loc 1 258 0
 318              		.cfi_startproc
 319              		@ Naked Function: prologue and epilogue provided by programmer.
 320              		@ args = 0, pretend = 0, frame = 0
 321              		@ frame_needed = 0, uses_anonymous_args = 0
 322              	.LVL17:
 323              		.loc 1 260 0
 324              	@ 260 "../libs/ChibiOS_2.4.0/os/ports/GCC/ARMCMx/chcore_v7m.c" 1
 325 0000 2DE9F04F 		push    {r4, r5, r6, r7, r8, r9, r10, r11, lr}
 326              	@ 0 "" 2
 327              		.loc 1 266 0
 328              	@ 266 "../libs/ChibiOS_2.4.0/os/ports/GCC/ARMCMx/chcore_v7m.c" 1
 329 0004 C1F80CD0 		str     sp, [r1, #12]                          
 330 0008 D0F80CD0 		ldr     sp, [r0, #12]
ARM GAS  /tmp/ccuMDymn.s 			page 7


 331              	@ 0 "" 2
 332              		.loc 1 272 0
 333              	@ 272 "../libs/ChibiOS_2.4.0/os/ports/GCC/ARMCMx/chcore_v7m.c" 1
 334 000c BDE8F08F 		pop     {r4, r5, r6, r7, r8, r9, r10, r11, pc}
 335              	@ 0 "" 2
 336              		.loc 1 274 0
 337              		.thumb
 338              		.cfi_endproc
 339              	.LFE12:
 340              		.size	_port_switch, .-_port_switch
 341              		.section	.text._port_thread_start,"ax",%progbits
 342              		.align	2
 343              		.p2align 4,,15
 344              		.global	_port_thread_start
 345              		.thumb
 346              		.thumb_func
 347              		.type	_port_thread_start, %function
 348              	_port_thread_start:
 349              	.LFB13:
 350              		.loc 1 281 0
 351              		.cfi_startproc
 352              		@ args = 0, pretend = 0, frame = 0
 353              		@ frame_needed = 0, uses_anonymous_args = 0
 354              		@ link register save eliminated.
 355              	.LBB9:
 356              		.loc 1 283 0
 357 0000 0023     		movs	r3, #0
 358              	.LVL18:
 359              	@ 283 "../libs/ChibiOS_2.4.0/os/ports/GCC/ARMCMx/chcore_v7m.c" 1
 360 0002 83F31188 		msr     BASEPRI, r3
 361              	@ 0 "" 2
 362              	.LVL19:
 363              		.thumb
 364              	.LBE9:
 365              		.loc 1 284 0
 366              	@ 284 "../libs/ChibiOS_2.4.0/os/ports/GCC/ARMCMx/chcore_v7m.c" 1
 367 0006 2846     		mov     r0, r5                                 
 368 0008 A047     		blx     r4                                     
 369 000a FFF7FEFF 		bl      chThdExit
 370              	@ 0 "" 2
 371              		.loc 1 287 0
 372              		.thumb
 373 000e 7047     		bx	lr
 374              		.cfi_endproc
 375              	.LFE13:
 376              		.size	_port_thread_start, .-_port_thread_start
 377              		.text
 378              	.Letext0: