ARM GAS  /tmp/cchVviGg.s 			page 1


   1              		.syntax unified
   2              		.cpu cortex-m4
   3              		.eabi_attribute 27, 3
   4              		.eabi_attribute 28, 1
   5              		.fpu fpv4-sp-d16
   6              		.eabi_attribute 20, 1
   7              		.eabi_attribute 21, 1
   8              		.eabi_attribute 23, 3
   9              		.eabi_attribute 24, 1
  10              		.eabi_attribute 25, 1
  11              		.eabi_attribute 26, 1
  12              		.eabi_attribute 30, 2
  13              		.eabi_attribute 18, 4
  14              		.thumb
  15              		.file	"chdynamic.c"
  22 0000 58020000 		.text
  22      0200D101 
  22      00000201 
  22      FB0E0D00 
  22      01010101 
  23              	.Ltext0:
  24              		.cfi_sections	.debug_frame
  25              		.section	.text.chThdAddRef,"ax",%progbits
  26              		.align	2
  27              		.p2align 4,,15
  28              		.global	chThdAddRef
  29              		.thumb
  30              		.thumb_func
  31              		.type	chThdAddRef, %function
  32              	chThdAddRef:
  33              	.LFB7:
  34              		.file 1 "../libs/ChibiOS_2.4.0/os/kernel/src/chdynamic.c"
  35              		.loc 1 52 0
  36              		.cfi_startproc
  37              		@ args = 0, pretend = 0, frame = 0
  38              		@ frame_needed = 0, uses_anonymous_args = 0
  39              		@ link register save eliminated.
  40              	.LVL0:
  41              	.LBB2:
  42              		.loc 1 54 0
  43 0000 2023     		movs	r3, #32
  44              	.LVL1:
  45              	@ 54 "../libs/ChibiOS_2.4.0/os/kernel/src/chdynamic.c" 1
  46 0002 83F31188 		msr     BASEPRI, r3
  47              	@ 0 "" 2
  48              	.LVL2:
  49              		.thumb
  50              	.LBE2:
  51              		.loc 1 56 0
  52 0006 817F     		ldrb	r1, [r0, #30]	@ zero_extendqisi2
  53 0008 4B1C     		adds	r3, r1, #1
ARM GAS  /tmp/cchVviGg.s 			page 2


  54              	.LVL3:
  55 000a 8377     		strb	r3, [r0, #30]
  56              	.LBB3:
  57              		.loc 1 57 0
  58 000c 0023     		movs	r3, #0
  59              	.LVL4:
  60              	@ 57 "../libs/ChibiOS_2.4.0/os/kernel/src/chdynamic.c" 1
  61 000e 83F31188 		msr     BASEPRI, r3
  62              	@ 0 "" 2
  63              	.LVL5:
  64              		.thumb
  65              	.LBE3:
  66              		.loc 1 59 0
  67 0012 7047     		bx	lr
  68              		.cfi_endproc
  69              	.LFE7:
  70              		.size	chThdAddRef, .-chThdAddRef
  71 0014 AFF30080 		.section	.text.chThdRelease,"ax",%progbits
  71      AFF30080 
  71      AFF30080 
  72              		.align	2
  73              		.p2align 4,,15
  74              		.global	chThdRelease
  75              		.thumb
  76              		.thumb_func
  77              		.type	chThdRelease, %function
  78              	chThdRelease:
  79              	.LFB8:
  80              		.loc 1 74 0
  81              		.cfi_startproc
  82              		@ args = 0, pretend = 0, frame = 0
  83              		@ frame_needed = 0, uses_anonymous_args = 0
  84              		@ link register save eliminated.
  85              	.LVL6:
  86              		.loc 1 74 0
  87 0000 0146     		mov	r1, r0
  88              	.LBB4:
  89              		.loc 1 77 0
  90 0002 2023     		movs	r3, #32
  91              	.LVL7:
  92              	@ 77 "../libs/ChibiOS_2.4.0/os/kernel/src/chdynamic.c" 1
  93 0004 83F31188 		msr     BASEPRI, r3
  94              	@ 0 "" 2
  95              	.LVL8:
  96              		.thumb
  97              	.LBE4:
  98              		.loc 1 79 0
  99 0008 827F     		ldrb	r2, [r0, #30]	@ zero_extendqisi2
 100 000a 531E     		subs	r3, r2, #1
 101              	.LVL9:
 102 000c DAB2     		uxtb	r2, r3
 103 000e 8277     		strb	r2, [r0, #30]
 104              	.LVL10:
 105              	.LBB5:
 106              		.loc 1 80 0
 107 0010 0023     		movs	r3, #0
 108              	.LVL11:
ARM GAS  /tmp/cchVviGg.s 			page 3


 109              	@ 80 "../libs/ChibiOS_2.4.0/os/kernel/src/chdynamic.c" 1
 110 0012 83F31188 		msr     BASEPRI, r3
 111              	@ 0 "" 2
 112              	.LVL12:
 113              		.thumb
 114              	.LBE5:
 115              		.loc 1 85 0
 116 0016 22B9     		cbnz	r2, .L2
 117              		.loc 1 85 0 is_stmt 0 discriminator 1
 118 0018 90F81CC0 		ldrb	ip, [r0, #28]	@ zero_extendqisi2
 119 001c BCF10E0F 		cmp	ip, #14
 120 0020 00D0     		beq	.L7
 121              	.L2:
 122 0022 7047     		bx	lr
 123              	.L7:
 124              		.loc 1 86 0 is_stmt 1
 125 0024 437F     		ldrb	r3, [r0, #29]	@ zero_extendqisi2
 126              	.LVL13:
 127 0026 03F00303 		and	r3, r3, #3
 128 002a 012B     		cmp	r3, #1
 129 002c 09D0     		beq	.L4
 130 002e 022B     		cmp	r3, #2
 131 0030 F7D1     		bne	.L2
 132              		.loc 1 98 0
 133 0032 4369     		ldr	r3, [r0, #20]
 134 0034 0269     		ldr	r2, [r0, #16]
 135              	.LVL14:
 136              		.loc 1 100 0
 137 0036 406C     		ldr	r0, [r0, #68]
 138              	.LVL15:
 139              		.loc 1 98 0
 140 0038 1A61     		str	r2, [r3, #16]
 141 003a 0A69     		ldr	r2, [r1, #16]
 142 003c 5361     		str	r3, [r2, #20]
 143              		.loc 1 105 0
 144              		.loc 1 100 0
 145 003e FFF7FEBF 		b	chPoolFree
 146              	.LVL16:
 147              	.L4:
 148              		.loc 1 90 0
 149 0042 4369     		ldr	r3, [r0, #20]
 150 0044 0269     		ldr	r2, [r0, #16]
 151              	.LVL17:
 152 0046 1A61     		str	r2, [r3, #16]
 153 0048 0169     		ldr	r1, [r0, #16]
 154 004a 4B61     		str	r3, [r1, #20]
 155              		.loc 1 105 0
 156              		.loc 1 92 0
 157 004c FFF7FEBF 		b	chHeapFree
 158              		.cfi_endproc
 159              	.LFE8:
 160              		.size	chThdRelease, .-chThdRelease
 161              		.section	.text.chThdCreateFromHeap,"ax",%progbits
 162              		.align	2
 163              		.p2align 4,,15
 164              		.global	chThdCreateFromHeap
 165              		.thumb
ARM GAS  /tmp/cchVviGg.s 			page 4


 166              		.thumb_func
 167              		.type	chThdCreateFromHeap, %function
 168              	chThdCreateFromHeap:
 169              	.LFB9:
 170              		.loc 1 131 0
 171              		.cfi_startproc
 172              		@ args = 4, pretend = 0, frame = 0
 173              		@ frame_needed = 0, uses_anonymous_args = 0
 174              	.LVL18:
 175 0000 70B5     		push	{r4, r5, r6, lr}
 176              	.LCFI0:
 177              		.cfi_def_cfa_offset 16
 178 0002 82B0     		sub	sp, sp, #8
 179              	.LCFI1:
 180              		.cfi_def_cfa_offset 24
 181              		.loc 1 131 0
 182 0004 0C46     		mov	r4, r1
 183              		.cfi_offset 14, -4
 184              		.cfi_offset 6, -8
 185              		.cfi_offset 5, -12
 186              		.cfi_offset 4, -16
 187 0006 1546     		mov	r5, r2
 188 0008 1E46     		mov	r6, r3
 189              		.loc 1 135 0
 190 000a FFF7FEFF 		bl	chHeapAlloc
 191              	.LVL19:
 192              		.loc 1 136 0
 193 000e A8B1     		cbz	r0, .L10
 194              	.LBB6:
 195              		.loc 1 148 0
 196 0010 2023     		movs	r3, #32
 197              	.LVL20:
 198              	@ 148 "../libs/ChibiOS_2.4.0/os/kernel/src/chdynamic.c" 1
 199 0012 83F31188 		msr     BASEPRI, r3
 200              	@ 0 "" 2
 201              	.LVL21:
 202              		.thumb
 203              	.LBE6:
 204              		.loc 1 149 0
 205 0016 2146     		mov	r1, r4
 206 0018 069C     		ldr	r4, [sp, #24]
 207              	.LVL22:
 208 001a 3346     		mov	r3, r6
 209              	.LVL23:
 210 001c 2A46     		mov	r2, r5
 211 001e 0094     		str	r4, [sp, #0]
 212 0020 FFF7FEFF 		bl	chThdCreateI
 213              	.LVL24:
 214              		.loc 1 150 0
 215 0024 0123     		movs	r3, #1
 216 0026 4377     		strb	r3, [r0, #29]
 217              		.loc 1 151 0
 218 0028 0021     		movs	r1, #0
 219              		.loc 1 149 0
 220 002a 0446     		mov	r4, r0
 221              	.LVL25:
 222              		.loc 1 151 0
ARM GAS  /tmp/cchVviGg.s 			page 5


 223 002c FFF7FEFF 		bl	chSchWakeupS
 224              	.LVL26:
 225              	.LBB7:
 226              		.loc 1 152 0
 227 0030 0023     		movs	r3, #0
 228              	.LVL27:
 229              	@ 152 "../libs/ChibiOS_2.4.0/os/kernel/src/chdynamic.c" 1
 230 0032 83F31188 		msr     BASEPRI, r3
 231              	@ 0 "" 2
 232              	.LVL28:
 233              		.thumb
 234              	.L9:
 235              	.LBE7:
 236              		.loc 1 154 0
 237 0036 2046     		mov	r0, r4
 238 0038 02B0     		add	sp, sp, #8
 239 003a 70BD     		pop	{r4, r5, r6, pc}
 240              	.LVL29:
 241              	.L10:
 242              		.loc 1 137 0
 243 003c 0446     		mov	r4, r0
 244              	.LVL30:
 245 003e FAE7     		b	.L9
 246              		.cfi_endproc
 247              	.LFE9:
 248              		.size	chThdCreateFromHeap, .-chThdCreateFromHeap
 249              		.section	.text.chThdCreateFromMemoryPool,"ax",%progbits
 250              		.align	2
 251              		.p2align 4,,15
 252              		.global	chThdCreateFromMemoryPool
 253              		.thumb
 254              		.thumb_func
 255              		.type	chThdCreateFromMemoryPool, %function
 256              	chThdCreateFromMemoryPool:
 257              	.LFB10:
 258              		.loc 1 180 0
 259              		.cfi_startproc
 260              		@ args = 0, pretend = 0, frame = 0
 261              		@ frame_needed = 0, uses_anonymous_args = 0
 262              	.LVL31:
 263 0000 F0B5     		push	{r4, r5, r6, r7, lr}
 264              	.LCFI2:
 265              		.cfi_def_cfa_offset 20
 266 0002 83B0     		sub	sp, sp, #12
 267              	.LCFI3:
 268              		.cfi_def_cfa_offset 32
 269              		.loc 1 180 0
 270 0004 0446     		mov	r4, r0
 271              		.cfi_offset 14, -4
 272              		.cfi_offset 7, -8
 273              		.cfi_offset 6, -12
 274              		.cfi_offset 5, -16
 275              		.cfi_offset 4, -20
 276 0006 0D46     		mov	r5, r1
 277 0008 1646     		mov	r6, r2
 278 000a 1F46     		mov	r7, r3
 279              		.loc 1 186 0
ARM GAS  /tmp/cchVviGg.s 			page 6


 280 000c FFF7FEFF 		bl	chPoolAlloc
 281              	.LVL32:
 282              		.loc 1 187 0
 283 0010 A8B1     		cbz	r0, .L13
 284              	.LBB8:
 285              		.loc 1 199 0
 286 0012 2023     		movs	r3, #32
 287              	.LVL33:
 288              	@ 199 "../libs/ChibiOS_2.4.0/os/kernel/src/chdynamic.c" 1
 289 0014 83F31188 		msr     BASEPRI, r3
 290              	@ 0 "" 2
 291              	.LVL34:
 292              		.thumb
 293              	.LBE8:
 294              		.loc 1 200 0
 295 0018 6168     		ldr	r1, [r4, #4]
 296 001a 0097     		str	r7, [sp, #0]
 297 001c 2A46     		mov	r2, r5
 298 001e 3346     		mov	r3, r6
 299              	.LVL35:
 300 0020 FFF7FEFF 		bl	chThdCreateI
 301              	.LVL36:
 302              		.loc 1 201 0
 303 0024 0223     		movs	r3, #2
 304 0026 4377     		strb	r3, [r0, #29]
 305              		.loc 1 202 0
 306 0028 4464     		str	r4, [r0, #68]
 307              		.loc 1 203 0
 308 002a 0021     		movs	r1, #0
 309              		.loc 1 200 0
 310 002c 0546     		mov	r5, r0
 311              	.LVL37:
 312              		.loc 1 203 0
 313 002e FFF7FEFF 		bl	chSchWakeupS
 314              	.LVL38:
 315              	.LBB9:
 316              		.loc 1 204 0
 317 0032 0023     		movs	r3, #0
 318              	.LVL39:
 319              	@ 204 "../libs/ChibiOS_2.4.0/os/kernel/src/chdynamic.c" 1
 320 0034 83F31188 		msr     BASEPRI, r3
 321              	@ 0 "" 2
 322              	.LVL40:
 323              		.thumb
 324              	.L12:
 325              	.LBE9:
 326              		.loc 1 206 0
 327 0038 2846     		mov	r0, r5
 328 003a 03B0     		add	sp, sp, #12
 329 003c F0BD     		pop	{r4, r5, r6, r7, pc}
 330              	.LVL41:
 331              	.L13:
 332              		.loc 1 188 0
 333 003e 0546     		mov	r5, r0
 334              	.LVL42:
 335 0040 FAE7     		b	.L12
 336              		.cfi_endproc
ARM GAS  /tmp/cchVviGg.s 			page 7


 337              	.LFE10:
 338              		.size	chThdCreateFromMemoryPool, .-chThdCreateFromMemoryPool
 339 0042 00BFAFF3 		.text
 339      0080AFF3 
 339      0080AFF3 
 339      0080
 340              	.Letext0: