ARM GAS  /tmp/ccisXRBZ.s 			page 1


   1              		.syntax unified
   2              		.cpu cortex-m4
   3              		.eabi_attribute 27, 3
   4              		.eabi_attribute 28, 1
   5              		.fpu fpv4-sp-d16
   6              		.eabi_attribute 20, 1
   7              		.eabi_attribute 21, 1
   8              		.eabi_attribute 23, 3
   9              		.eabi_attribute 24, 1
  10              		.eabi_attribute 25, 1
  11              		.eabi_attribute 26, 1
  12              		.eabi_attribute 30, 2
  13              		.eabi_attribute 18, 4
  14              		.thumb
  15              		.file	"chevents.c"
  22 0000 20030000 		.text
  22      02006701 
  22      00000201 
  22      FB0E0D00 
  22      01010101 
  23              	.Ltext0:
  24              		.cfi_sections	.debug_frame
  25              		.section	.text.chEvtRegisterMask,"ax",%progbits
  26              		.align	2
  27              		.p2align 4,,15
  28              		.global	chEvtRegisterMask
  29              		.thumb
  30              		.thumb_func
  31              		.type	chEvtRegisterMask, %function
  32              	chEvtRegisterMask:
  33              	.LFB7:
  34              		.file 1 "../libs/ChibiOS_2.4.0/os/kernel/src/chevents.c"
  35              		.loc 1 82 0
  36              		.cfi_startproc
  37              		@ args = 0, pretend = 0, frame = 0
  38              		@ frame_needed = 0, uses_anonymous_args = 0
  39              		@ link register save eliminated.
  40              	.LVL0:
  41 0000 10B4     		push	{r4}
  42              	.LCFI0:
  43              		.cfi_def_cfa_offset 4
  44              	.LBB2:
  45              		.loc 1 86 0
  46 0002 2023     		movs	r3, #32
  47              	.LVL1:
  48              	@ 86 "../libs/ChibiOS_2.4.0/os/kernel/src/chevents.c" 1
  49 0004 83F31188 		msr     BASEPRI, r3
  50              	@ 0 "" 2
  51              	.LVL2:
  52              		.thumb
  53              	.LBE2:
ARM GAS  /tmp/ccisXRBZ.s 			page 2


  54              		.loc 1 89 0
  55 0008 054C     		ldr	r4, .L2
  56              		.cfi_offset 4, -4
  57              		.loc 1 87 0
  58 000a 0368     		ldr	r3, [r0, #0]
  59              	.LVL3:
  60              		.loc 1 89 0
  61 000c E469     		ldr	r4, [r4, #28]
  62              		.loc 1 87 0
  63 000e 0B60     		str	r3, [r1, #0]
  64              		.loc 1 88 0
  65 0010 0160     		str	r1, [r0, #0]
  66              	.LBB3:
  67              		.loc 1 91 0
  68 0012 0023     		movs	r3, #0
  69              	.LVL4:
  70              	.LBE3:
  71              		.loc 1 89 0
  72 0014 4C60     		str	r4, [r1, #4]
  73              		.loc 1 90 0
  74 0016 8A60     		str	r2, [r1, #8]
  75              	.LBB4:
  76              		.loc 1 91 0
  77              	@ 91 "../libs/ChibiOS_2.4.0/os/kernel/src/chevents.c" 1
  78 0018 83F31188 		msr     BASEPRI, r3
  79              	@ 0 "" 2
  80              	.LVL5:
  81              		.thumb
  82              	.LBE4:
  83              		.loc 1 92 0
  84 001c 10BC     		pop	{r4}
  85 001e 7047     		bx	lr
  86              	.L3:
  87              		.align	2
  88              	.L2:
  89 0020 00000000 		.word	rlist
  90              		.cfi_endproc
  91              	.LFE7:
  92              		.size	chEvtRegisterMask, .-chEvtRegisterMask
  93 0024 AFF30080 		.section	.text.chEvtUnregister,"ax",%progbits
  93      AFF30080 
  93      AFF30080 
  94              		.align	2
  95              		.p2align 4,,15
  96              		.global	chEvtUnregister
  97              		.thumb
  98              		.thumb_func
  99              		.type	chEvtUnregister, %function
 100              	chEvtUnregister:
 101              	.LFB8:
 102              		.loc 1 107 0
 103              		.cfi_startproc
 104              		@ args = 0, pretend = 0, frame = 0
 105              		@ frame_needed = 0, uses_anonymous_args = 0
 106              		@ link register save eliminated.
 107              	.LVL6:
 108              	.LBB5:
ARM GAS  /tmp/ccisXRBZ.s 			page 3


 109              		.loc 1 113 0
 110 0000 2023     		movs	r3, #32
 111              	.LVL7:
 112              	@ 113 "../libs/ChibiOS_2.4.0/os/kernel/src/chevents.c" 1
 113 0002 83F31188 		msr     BASEPRI, r3
 114              	@ 0 "" 2
 115              	.LVL8:
 116              		.thumb
 117              	.LBE5:
 118              		.loc 1 112 0
 119 0006 0246     		mov	r2, r0
 120              		.loc 1 114 0
 121 0008 02E0     		b	.L5
 122              	.LVL9:
 123              	.L7:
 124              		.loc 1 115 0
 125 000a 9942     		cmp	r1, r3
 126 000c 07D0     		beq	.L10
 127 000e 1A46     		mov	r2, r3
 128              	.LVL10:
 129              	.L5:
 130              		.loc 1 114 0 discriminator 1
 131 0010 1368     		ldr	r3, [r2, #0]
 132              	.LVL11:
 133 0012 9842     		cmp	r0, r3
 134 0014 F9D1     		bne	.L7
 135              	.LBB6:
 136              		.loc 1 121 0
 137 0016 0023     		movs	r3, #0
 138              	.LVL12:
 139              	@ 121 "../libs/ChibiOS_2.4.0/os/kernel/src/chevents.c" 1
 140 0018 83F31188 		msr     BASEPRI, r3
 141              	@ 0 "" 2
 142              	.LVL13:
 143              		.thumb
 144              	.LBE6:
 145              		.loc 1 122 0
 146 001c 7047     		bx	lr
 147              	.LVL14:
 148              	.L10:
 149              		.loc 1 116 0
 150 001e 0B68     		ldr	r3, [r1, #0]
 151 0020 1360     		str	r3, [r2, #0]
 152              	.LBB7:
 153              		.loc 1 121 0
 154 0022 0023     		movs	r3, #0
 155              	@ 121 "../libs/ChibiOS_2.4.0/os/kernel/src/chevents.c" 1
 156 0024 83F31188 		msr     BASEPRI, r3
 157              	@ 0 "" 2
 158              	.LVL15:
 159              		.thumb
 160              	.LBE7:
 161              		.loc 1 122 0
 162 0028 7047     		bx	lr
 163              		.cfi_endproc
 164              	.LFE8:
 165              		.size	chEvtUnregister, .-chEvtUnregister
ARM GAS  /tmp/ccisXRBZ.s 			page 4


 166 002a 00BFAFF3 		.section	.text.chEvtClearFlags,"ax",%progbits
 166      0080
 167              		.align	2
 168              		.p2align 4,,15
 169              		.global	chEvtClearFlags
 170              		.thumb
 171              		.thumb_func
 172              		.type	chEvtClearFlags, %function
 173              	chEvtClearFlags:
 174              	.LFB9:
 175              		.loc 1 132 0
 176              		.cfi_startproc
 177              		@ args = 0, pretend = 0, frame = 0
 178              		@ frame_needed = 0, uses_anonymous_args = 0
 179              		@ link register save eliminated.
 180              	.LVL16:
 181              	.LBB8:
 182              		.loc 1 135 0
 183 0000 2023     		movs	r3, #32
 184              	.LVL17:
 185              	@ 135 "../libs/ChibiOS_2.4.0/os/kernel/src/chevents.c" 1
 186 0002 83F31188 		msr     BASEPRI, r3
 187              	@ 0 "" 2
 188              	.LVL18:
 189              		.thumb
 190              	.LBE8:
 191              		.loc 1 137 0
 192 0006 054A     		ldr	r2, .L12
 193 0008 D369     		ldr	r3, [r2, #28]
 194              	.LVL19:
 195 000a 9A6B     		ldr	r2, [r3, #56]
 196              	.LVL20:
 197              		.loc 1 138 0
 198 000c 22EA0001 		bic	r1, r2, r0
 199 0010 9963     		str	r1, [r3, #56]
 200              	.LBB9:
 201              		.loc 1 140 0
 202 0012 0023     		movs	r3, #0
 203              	.LVL21:
 204              	@ 140 "../libs/ChibiOS_2.4.0/os/kernel/src/chevents.c" 1
 205 0014 83F31188 		msr     BASEPRI, r3
 206              	@ 0 "" 2
 207              	.LVL22:
 208              		.thumb
 209              	.LBE9:
 210              		.loc 1 142 0
 211 0018 1040     		ands	r0, r0, r2
 212              	.LVL23:
 213 001a 7047     		bx	lr
 214              	.L13:
 215              		.align	2
 216              	.L12:
 217 001c 00000000 		.word	rlist
 218              		.cfi_endproc
 219              	.LFE9:
 220              		.size	chEvtClearFlags, .-chEvtClearFlags
 221              		.section	.text.chEvtAddFlags,"ax",%progbits
ARM GAS  /tmp/ccisXRBZ.s 			page 5


 222              		.align	2
 223              		.p2align 4,,15
 224              		.global	chEvtAddFlags
 225              		.thumb
 226              		.thumb_func
 227              		.type	chEvtAddFlags, %function
 228              	chEvtAddFlags:
 229              	.LFB10:
 230              		.loc 1 153 0
 231              		.cfi_startproc
 232              		@ args = 0, pretend = 0, frame = 0
 233              		@ frame_needed = 0, uses_anonymous_args = 0
 234              		@ link register save eliminated.
 235              	.LVL24:
 236              	.LBB10:
 237              		.loc 1 155 0
 238 0000 2023     		movs	r3, #32
 239              	.LVL25:
 240              	@ 155 "../libs/ChibiOS_2.4.0/os/kernel/src/chevents.c" 1
 241 0002 83F31188 		msr     BASEPRI, r3
 242              	@ 0 "" 2
 243              	.LVL26:
 244              		.thumb
 245              	.LBE10:
 246              		.loc 1 157 0
 247 0006 0449     		ldr	r1, .L15
 248 0008 CB69     		ldr	r3, [r1, #28]
 249              	.LVL27:
 250 000a 9A6B     		ldr	r2, [r3, #56]
 251 000c 1043     		orrs	r0, r0, r2
 252              	.LVL28:
 253 000e 9863     		str	r0, [r3, #56]
 254              	.LVL29:
 255              	.LBB11:
 256              		.loc 1 159 0
 257 0010 0023     		movs	r3, #0
 258              	.LVL30:
 259              	@ 159 "../libs/ChibiOS_2.4.0/os/kernel/src/chevents.c" 1
 260 0012 83F31188 		msr     BASEPRI, r3
 261              	@ 0 "" 2
 262              	.LVL31:
 263              		.thumb
 264              	.LBE11:
 265              		.loc 1 161 0
 266 0016 7047     		bx	lr
 267              	.L16:
 268              		.align	2
 269              	.L15:
 270 0018 00000000 		.word	rlist
 271              		.cfi_endproc
 272              	.LFE10:
 273              		.size	chEvtAddFlags, .-chEvtAddFlags
 274 001c AFF30080 		.section	.text.chEvtSignalFlagsI,"ax",%progbits
 275              		.align	2
 276              		.p2align 4,,15
 277              		.global	chEvtSignalFlagsI
 278              		.thumb
ARM GAS  /tmp/ccisXRBZ.s 			page 6


 279              		.thumb_func
 280              		.type	chEvtSignalFlagsI, %function
 281              	chEvtSignalFlagsI:
 282              	.LFB12:
 283              		.loc 1 193 0
 284              		.cfi_startproc
 285              		@ args = 0, pretend = 0, frame = 0
 286              		@ frame_needed = 0, uses_anonymous_args = 0
 287              	.LVL32:
 288 0000 08B5     		push	{r3, lr}
 289              	.LCFI1:
 290              		.cfi_def_cfa_offset 8
 291              		.loc 1 198 0
 292 0002 826B     		ldr	r2, [r0, #56]
 293              		.loc 1 200 0
 294 0004 037F     		ldrb	r3, [r0, #28]	@ zero_extendqisi2
 295              		.cfi_offset 14, -4
 296              		.cfi_offset 3, -8
 297              		.loc 1 198 0
 298 0006 41EA0202 		orr	r2, r1, r2
 299              		.loc 1 200 0
 300 000a 082B     		cmp	r3, #8
 301              		.loc 1 198 0
 302 000c 8263     		str	r2, [r0, #56]
 303              		.loc 1 200 0
 304 000e 0CD0     		beq	.L21
 305              		.loc 1 201 0
 306 0010 092B     		cmp	r3, #9
 307 0012 00D0     		beq	.L22
 308              	.LVL33:
 309              	.L17:
 310 0014 08BD     		pop	{r3, pc}
 311              	.LVL34:
 312              	.L22:
 313              		.loc 1 203 0
 314 0016 436A     		ldr	r3, [r0, #36]
 315 0018 02EA0301 		and	r1, r2, r3
 316              	.LVL35:
 317              		.loc 1 202 0
 318 001c 8B42     		cmp	r3, r1
 319 001e F9D1     		bne	.L17
 320              	.L19:
 321              		.loc 1 204 0
 322 0020 FFF7FEFF 		bl	chSchReadyI
 323              	.LVL36:
 324 0024 0022     		movs	r2, #0
 325 0026 4262     		str	r2, [r0, #36]
 326 0028 08BD     		pop	{r3, pc}
 327              	.LVL37:
 328              	.L21:
 329              		.loc 1 201 0 discriminator 1
 330 002a 436A     		ldr	r3, [r0, #36]
 331              		.loc 1 200 0 discriminator 1
 332 002c 1A42     		tst	r2, r3
 333 002e F7D1     		bne	.L19
 334 0030 08BD     		pop	{r3, pc}
 335              		.cfi_endproc
ARM GAS  /tmp/ccisXRBZ.s 			page 7


 336              	.LFE12:
 337              		.size	chEvtSignalFlagsI, .-chEvtSignalFlagsI
 338 0032 00BFAFF3 		.section	.text.chEvtSignalFlags,"ax",%progbits
 338      0080AFF3 
 338      0080AFF3 
 338      0080
 339              		.align	2
 340              		.p2align 4,,15
 341              		.global	chEvtSignalFlags
 342              		.thumb
 343              		.thumb_func
 344              		.type	chEvtSignalFlags, %function
 345              	chEvtSignalFlags:
 346              	.LFB11:
 347              		.loc 1 171 0
 348              		.cfi_startproc
 349              		@ args = 0, pretend = 0, frame = 0
 350              		@ frame_needed = 0, uses_anonymous_args = 0
 351              	.LVL38:
 352 0000 08B5     		push	{r3, lr}
 353              	.LCFI2:
 354              		.cfi_def_cfa_offset 8
 355              	.LBB12:
 356              		.loc 1 175 0
 357 0002 2023     		movs	r3, #32
 358              		.cfi_offset 14, -4
 359              		.cfi_offset 3, -8
 360              	.LVL39:
 361              	@ 175 "../libs/ChibiOS_2.4.0/os/kernel/src/chevents.c" 1
 362 0004 83F31188 		msr     BASEPRI, r3
 363              	@ 0 "" 2
 364              	.LVL40:
 365              		.thumb
 366              	.LBE12:
 367              		.loc 1 176 0
 368 0008 FFF7FEFF 		bl	chEvtSignalFlagsI
 369              	.LVL41:
 370              		.loc 1 177 0
 371 000c FFF7FEFF 		bl	chSchRescheduleS
 372              	.LBB13:
 373              		.loc 1 178 0
 374 0010 0023     		movs	r3, #0
 375              	.LVL42:
 376              	@ 178 "../libs/ChibiOS_2.4.0/os/kernel/src/chevents.c" 1
 377 0012 83F31188 		msr     BASEPRI, r3
 378              	@ 0 "" 2
 379              	.LVL43:
 380              		.thumb
 381              	.LBE13:
 382              		.loc 1 179 0
 383 0016 08BD     		pop	{r3, pc}
 384              		.cfi_endproc
 385              	.LFE11:
 386              		.size	chEvtSignalFlags, .-chEvtSignalFlags
 387 0018 AFF30080 		.section	.text.chEvtBroadcastFlagsI,"ax",%progbits
 387      AFF30080 
 388              		.align	2
ARM GAS  /tmp/ccisXRBZ.s 			page 8


 389              		.p2align 4,,15
 390              		.global	chEvtBroadcastFlagsI
 391              		.thumb
 392              		.thumb_func
 393              		.type	chEvtBroadcastFlagsI, %function
 394              	chEvtBroadcastFlagsI:
 395              	.LFB14:
 396              		.loc 1 245 0
 397              		.cfi_startproc
 398              		@ args = 0, pretend = 0, frame = 0
 399              		@ frame_needed = 0, uses_anonymous_args = 0
 400              	.LVL44:
 401 0000 70B5     		push	{r4, r5, r6, lr}
 402              	.LCFI3:
 403              		.cfi_def_cfa_offset 16
 404              		.loc 1 251 0
 405 0002 0468     		ldr	r4, [r0, #0]
 406              		.cfi_offset 14, -4
 407              		.cfi_offset 6, -8
 408              		.cfi_offset 5, -12
 409              		.cfi_offset 4, -16
 410              	.LVL45:
 411              		.loc 1 252 0
 412 0004 8442     		cmp	r4, r0
 413              		.loc 1 245 0
 414 0006 0546     		mov	r5, r0
 415 0008 0E46     		mov	r6, r1
 416              		.loc 1 252 0
 417 000a 08D0     		beq	.L24
 418              	.LVL46:
 419              	.L27:
 420              		.loc 1 253 0
 421 000c A168     		ldr	r1, [r4, #8]
 422 000e 6068     		ldr	r0, [r4, #4]
 423 0010 46EA0101 		orr	r1, r6, r1
 424 0014 FFF7FEFF 		bl	chEvtSignalFlagsI
 425              		.loc 1 254 0
 426 0018 2468     		ldr	r4, [r4, #0]
 427              	.LVL47:
 428              		.loc 1 252 0
 429 001a AC42     		cmp	r4, r5
 430 001c F6D1     		bne	.L27
 431              	.L24:
 432 001e 70BD     		pop	{r4, r5, r6, pc}
 433              		.cfi_endproc
 434              	.LFE14:
 435              		.size	chEvtBroadcastFlagsI, .-chEvtBroadcastFlagsI
 436              		.section	.text.chEvtBroadcastFlags,"ax",%progbits
 437              		.align	2
 438              		.p2align 4,,15
 439              		.global	chEvtBroadcastFlags
 440              		.thumb
 441              		.thumb_func
 442              		.type	chEvtBroadcastFlags, %function
 443              	chEvtBroadcastFlags:
 444              	.LFB13:
 445              		.loc 1 220 0
ARM GAS  /tmp/ccisXRBZ.s 			page 9


 446              		.cfi_startproc
 447              		@ args = 0, pretend = 0, frame = 0
 448              		@ frame_needed = 0, uses_anonymous_args = 0
 449              	.LVL48:
 450 0000 08B5     		push	{r3, lr}
 451              	.LCFI4:
 452              		.cfi_def_cfa_offset 8
 453              	.LBB14:
 454              		.loc 1 222 0
 455 0002 2023     		movs	r3, #32
 456              		.cfi_offset 14, -4
 457              		.cfi_offset 3, -8
 458              	.LVL49:
 459              	@ 222 "../libs/ChibiOS_2.4.0/os/kernel/src/chevents.c" 1
 460 0004 83F31188 		msr     BASEPRI, r3
 461              	@ 0 "" 2
 462              	.LVL50:
 463              		.thumb
 464              	.LBE14:
 465              		.loc 1 223 0
 466 0008 FFF7FEFF 		bl	chEvtBroadcastFlagsI
 467              	.LVL51:
 468              		.loc 1 224 0
 469 000c FFF7FEFF 		bl	chSchRescheduleS
 470              	.LBB15:
 471              		.loc 1 225 0
 472 0010 0023     		movs	r3, #0
 473              	.LVL52:
 474              	@ 225 "../libs/ChibiOS_2.4.0/os/kernel/src/chevents.c" 1
 475 0012 83F31188 		msr     BASEPRI, r3
 476              	@ 0 "" 2
 477              	.LVL53:
 478              		.thumb
 479              	.LBE15:
 480              		.loc 1 226 0
 481 0016 08BD     		pop	{r3, pc}
 482              		.cfi_endproc
 483              	.LFE13:
 484              		.size	chEvtBroadcastFlags, .-chEvtBroadcastFlags
 485 0018 AFF30080 		.section	.text.chEvtDispatch,"ax",%progbits
 485      AFF30080 
 486              		.align	2
 487              		.p2align 4,,15
 488              		.global	chEvtDispatch
 489              		.thumb
 490              		.thumb_func
 491              		.type	chEvtDispatch, %function
 492              	chEvtDispatch:
 493              	.LFB15:
 494              		.loc 1 267 0
 495              		.cfi_startproc
 496              		@ args = 0, pretend = 0, frame = 0
 497              		@ frame_needed = 0, uses_anonymous_args = 0
 498              	.LVL54:
 499 0000 F8B5     		push	{r3, r4, r5, r6, r7, lr}
 500              	.LCFI5:
 501              		.cfi_def_cfa_offset 24
ARM GAS  /tmp/ccisXRBZ.s 			page 10


 502              		.loc 1 273 0
 503 0002 0D46     		mov	r5, r1
 504              		.cfi_offset 14, -4
 505              		.cfi_offset 7, -8
 506              		.cfi_offset 6, -12
 507              		.cfi_offset 5, -16
 508              		.cfi_offset 4, -20
 509              		.cfi_offset 3, -24
 510              		.loc 1 267 0
 511 0004 0746     		mov	r7, r0
 512              		.loc 1 273 0
 513 0006 99B1     		cbz	r1, .L30
 514 0008 0024     		movs	r4, #0
 515              		.loc 1 274 0
 516 000a 0126     		movs	r6, #1
 517 000c 16FA04F3 		lsls	r3, r6, r4
 518 0010 2B42     		tst	r3, r5
 519 0012 05D1     		bne	.L34
 520              	.LVL55:
 521              	.L32:
 522              		.loc 1 273 0
 523 0014 65B1     		cbz	r5, .L30
 524              	.LVL56:
 525              	.L35:
 526              		.loc 1 281 0
 527 0016 0134     		adds	r4, r4, #1
 528              		.loc 1 274 0
 529 0018 16FA04F3 		lsls	r3, r6, r4
 530 001c 2B42     		tst	r3, r5
 531 001e F9D0     		beq	.L32
 532              	.L34:
 533              		.loc 1 278 0
 534 0020 25EA0305 		bic	r5, r5, r3
 535              	.LVL57:
 536              		.loc 1 279 0
 537 0024 57F82420 		ldr	r2, [r7, r4, lsl #2]
 538 0028 2046     		mov	r0, r4
 539 002a 9047     		blx	r2
 540              	.LVL58:
 541              		.loc 1 273 0
 542 002c 002D     		cmp	r5, #0
 543 002e F2D1     		bne	.L35
 544              	.LVL59:
 545              	.L30:
 546 0030 F8BD     		pop	{r3, r4, r5, r6, r7, pc}
 547              		.cfi_endproc
 548              	.LFE15:
 549              		.size	chEvtDispatch, .-chEvtDispatch
 550 0032 00BFAFF3 		.section	.text.chEvtWaitOne,"ax",%progbits
 550      0080AFF3 
 550      0080AFF3 
 550      0080
 551              		.align	2
 552              		.p2align 4,,15
 553              		.global	chEvtWaitOne
 554              		.thumb
 555              		.thumb_func
ARM GAS  /tmp/ccisXRBZ.s 			page 11


 556              		.type	chEvtWaitOne, %function
 557              	chEvtWaitOne:
 558              	.LFB16:
 559              		.loc 1 302 0
 560              		.cfi_startproc
 561              		@ args = 0, pretend = 0, frame = 0
 562              		@ frame_needed = 0, uses_anonymous_args = 0
 563              	.LVL60:
 564 0000 38B5     		push	{r3, r4, r5, lr}
 565              	.LCFI6:
 566              		.cfi_def_cfa_offset 16
 567              		.loc 1 303 0
 568 0002 0D4B     		ldr	r3, .L38
 569              		.cfi_offset 14, -4
 570              		.cfi_offset 5, -8
 571              		.cfi_offset 4, -12
 572              		.cfi_offset 3, -16
 573              		.loc 1 302 0
 574 0004 0546     		mov	r5, r0
 575              		.loc 1 303 0
 576 0006 DC69     		ldr	r4, [r3, #28]
 577              	.LVL61:
 578              	.LBB16:
 579              		.loc 1 306 0
 580 0008 2023     		movs	r3, #32
 581              	.LVL62:
 582              	@ 306 "../libs/ChibiOS_2.4.0/os/kernel/src/chevents.c" 1
 583 000a 83F31188 		msr     BASEPRI, r3
 584              	@ 0 "" 2
 585              	.LVL63:
 586              		.thumb
 587              	.LBE16:
 588              		.loc 1 308 0
 589 000e A36B     		ldr	r3, [r4, #56]
 590              	.LVL64:
 591 0010 10EA0302 		ands	r2, r0, r3
 592 0014 06D1     		bne	.L37
 593              		.loc 1 309 0
 594 0016 6062     		str	r0, [r4, #36]
 595              		.loc 1 310 0
 596 0018 0820     		movs	r0, #8
 597              	.LVL65:
 598 001a FFF7FEFF 		bl	chSchGoSleepS
 599              	.LVL66:
 600              		.loc 1 311 0
 601 001e A36B     		ldr	r3, [r4, #56]
 602 0020 05EA0302 		and	r2, r5, r3
 603              	.LVL67:
 604              	.L37:
 605              		.loc 1 313 0
 606 0024 5042     		negs	r0, r2
 607 0026 1040     		ands	r0, r0, r2
 608              	.LVL68:
 609              		.loc 1 314 0
 610 0028 23EA0001 		bic	r1, r3, r0
 611 002c A163     		str	r1, [r4, #56]
 612              	.LBB17:
ARM GAS  /tmp/ccisXRBZ.s 			page 12


 613              		.loc 1 316 0
 614 002e 0023     		movs	r3, #0
 615              	.LVL69:
 616              	@ 316 "../libs/ChibiOS_2.4.0/os/kernel/src/chevents.c" 1
 617 0030 83F31188 		msr     BASEPRI, r3
 618              	@ 0 "" 2
 619              	.LVL70:
 620              		.thumb
 621              	.LBE17:
 622              		.loc 1 318 0
 623 0034 38BD     		pop	{r3, r4, r5, pc}
 624              	.L39:
 625 0036 00BF     		.align	2
 626              	.L38:
 627 0038 00000000 		.word	rlist
 628              		.cfi_endproc
 629              	.LFE16:
 630              		.size	chEvtWaitOne, .-chEvtWaitOne
 631 003c AFF30080 		.section	.text.chEvtWaitAny,"ax",%progbits
 632              		.align	2
 633              		.p2align 4,,15
 634              		.global	chEvtWaitAny
 635              		.thumb
 636              		.thumb_func
 637              		.type	chEvtWaitAny, %function
 638              	chEvtWaitAny:
 639              	.LFB17:
 640              		.loc 1 331 0
 641              		.cfi_startproc
 642              		@ args = 0, pretend = 0, frame = 0
 643              		@ frame_needed = 0, uses_anonymous_args = 0
 644              	.LVL71:
 645 0000 38B5     		push	{r3, r4, r5, lr}
 646              	.LCFI7:
 647              		.cfi_def_cfa_offset 16
 648              		.loc 1 332 0
 649 0002 0B4B     		ldr	r3, .L42
 650              		.cfi_offset 14, -4
 651              		.cfi_offset 5, -8
 652              		.cfi_offset 4, -12
 653              		.cfi_offset 3, -16
 654              		.loc 1 331 0
 655 0004 0546     		mov	r5, r0
 656              		.loc 1 332 0
 657 0006 DC69     		ldr	r4, [r3, #28]
 658              	.LVL72:
 659              	.LBB18:
 660              		.loc 1 335 0
 661 0008 2023     		movs	r3, #32
 662              	.LVL73:
 663              	@ 335 "../libs/ChibiOS_2.4.0/os/kernel/src/chevents.c" 1
 664 000a 83F31188 		msr     BASEPRI, r3
 665              	@ 0 "" 2
 666              	.LVL74:
 667              		.thumb
 668              	.LBE18:
 669              		.loc 1 337 0
ARM GAS  /tmp/ccisXRBZ.s 			page 13


 670 000e A36B     		ldr	r3, [r4, #56]
 671              	.LVL75:
 672 0010 1840     		ands	r0, r0, r3
 673              	.LVL76:
 674 0012 06D1     		bne	.L41
 675              		.loc 1 339 0
 676 0014 0820     		movs	r0, #8
 677              		.loc 1 338 0
 678 0016 6562     		str	r5, [r4, #36]
 679              		.loc 1 339 0
 680 0018 FFF7FEFF 		bl	chSchGoSleepS
 681              	.LVL77:
 682              		.loc 1 340 0
 683 001c A36B     		ldr	r3, [r4, #56]
 684 001e 05EA0300 		and	r0, r5, r3
 685              	.LVL78:
 686              	.L41:
 687              		.loc 1 342 0
 688 0022 23EA0001 		bic	r1, r3, r0
 689 0026 A163     		str	r1, [r4, #56]
 690              	.LBB19:
 691              		.loc 1 344 0
 692 0028 0023     		movs	r3, #0
 693              	.LVL79:
 694              	@ 344 "../libs/ChibiOS_2.4.0/os/kernel/src/chevents.c" 1
 695 002a 83F31188 		msr     BASEPRI, r3
 696              	@ 0 "" 2
 697              	.LVL80:
 698              		.thumb
 699              	.LBE19:
 700              		.loc 1 346 0
 701 002e 38BD     		pop	{r3, r4, r5, pc}
 702              	.L43:
 703              		.align	2
 704              	.L42:
 705 0030 00000000 		.word	rlist
 706              		.cfi_endproc
 707              	.LFE17:
 708              		.size	chEvtWaitAny, .-chEvtWaitAny
 709 0034 AFF30080 		.section	.text.chEvtWaitAll,"ax",%progbits
 709      AFF30080 
 709      AFF30080 
 710              		.align	2
 711              		.p2align 4,,15
 712              		.global	chEvtWaitAll
 713              		.thumb
 714              		.thumb_func
 715              		.type	chEvtWaitAll, %function
 716              	chEvtWaitAll:
 717              	.LFB18:
 718              		.loc 1 359 0
 719              		.cfi_startproc
 720              		@ args = 0, pretend = 0, frame = 0
 721              		@ frame_needed = 0, uses_anonymous_args = 0
 722              	.LVL81:
 723 0000 38B5     		push	{r3, r4, r5, lr}
 724              	.LCFI8:
ARM GAS  /tmp/ccisXRBZ.s 			page 14


 725              		.cfi_def_cfa_offset 16
 726              		.loc 1 360 0
 727 0002 0C4B     		ldr	r3, .L46
 728              		.cfi_offset 14, -4
 729              		.cfi_offset 5, -8
 730              		.cfi_offset 4, -12
 731              		.cfi_offset 3, -16
 732              		.loc 1 359 0
 733 0004 0446     		mov	r4, r0
 734              		.loc 1 360 0
 735 0006 DD69     		ldr	r5, [r3, #28]
 736              	.LVL82:
 737              	.LBB20:
 738              		.loc 1 362 0
 739 0008 2023     		movs	r3, #32
 740              	.LVL83:
 741              	@ 362 "../libs/ChibiOS_2.4.0/os/kernel/src/chevents.c" 1
 742 000a 83F31188 		msr     BASEPRI, r3
 743              	@ 0 "" 2
 744              	.LVL84:
 745              		.thumb
 746              	.LBE20:
 747              		.loc 1 364 0
 748 000e AB6B     		ldr	r3, [r5, #56]
 749              	.LVL85:
 750 0010 00EA0302 		and	r2, r0, r3
 751 0014 8242     		cmp	r2, r0
 752 0016 04D0     		beq	.L45
 753              		.loc 1 365 0
 754 0018 6862     		str	r0, [r5, #36]
 755              		.loc 1 366 0
 756 001a 0920     		movs	r0, #9
 757              	.LVL86:
 758 001c FFF7FEFF 		bl	chSchGoSleepS
 759              	.LVL87:
 760 0020 AB6B     		ldr	r3, [r5, #56]
 761              	.L45:
 762              		.loc 1 368 0
 763 0022 23EA0400 		bic	r0, r3, r4
 764 0026 A863     		str	r0, [r5, #56]
 765              	.LBB21:
 766              		.loc 1 370 0
 767 0028 0023     		movs	r3, #0
 768              	.LVL88:
 769              	@ 370 "../libs/ChibiOS_2.4.0/os/kernel/src/chevents.c" 1
 770 002a 83F31188 		msr     BASEPRI, r3
 771              	@ 0 "" 2
 772              	.LVL89:
 773              		.thumb
 774              	.LBE21:
 775              		.loc 1 372 0
 776 002e 2046     		mov	r0, r4
 777 0030 38BD     		pop	{r3, r4, r5, pc}
 778              	.L47:
 779 0032 00BF     		.align	2
 780              	.L46:
 781 0034 00000000 		.word	rlist
ARM GAS  /tmp/ccisXRBZ.s 			page 15


 782              		.cfi_endproc
 783              	.LFE18:
 784              		.size	chEvtWaitAll, .-chEvtWaitAll
 785 0038 AFF30080 		.section	.text.chEvtWaitOneTimeout,"ax",%progbits
 785      AFF30080 
 786              		.align	2
 787              		.p2align 4,,15
 788              		.global	chEvtWaitOneTimeout
 789              		.thumb
 790              		.thumb_func
 791              		.type	chEvtWaitOneTimeout, %function
 792              	chEvtWaitOneTimeout:
 793              	.LFB19:
 794              		.loc 1 398 0
 795              		.cfi_startproc
 796              		@ args = 0, pretend = 0, frame = 0
 797              		@ frame_needed = 0, uses_anonymous_args = 0
 798              	.LVL90:
 799              		.loc 1 399 0
 800 0000 134B     		ldr	r3, .L54
 801              		.loc 1 398 0
 802 0002 70B5     		push	{r4, r5, r6, lr}
 803              	.LCFI9:
 804              		.cfi_def_cfa_offset 16
 805              		.loc 1 399 0
 806 0004 DE69     		ldr	r6, [r3, #28]
 807              		.cfi_offset 14, -4
 808              		.cfi_offset 6, -8
 809              		.cfi_offset 5, -12
 810              		.cfi_offset 4, -16
 811              	.LVL91:
 812              		.loc 1 398 0
 813 0006 0546     		mov	r5, r0
 814              	.LBB22:
 815              		.loc 1 402 0
 816 0008 2023     		movs	r3, #32
 817              	.LVL92:
 818              	@ 402 "../libs/ChibiOS_2.4.0/os/kernel/src/chevents.c" 1
 819 000a 83F31188 		msr     BASEPRI, r3
 820              	@ 0 "" 2
 821              	.LVL93:
 822              		.thumb
 823              	.LBE22:
 824              		.loc 1 404 0
 825 000e B36B     		ldr	r3, [r6, #56]
 826              	.LVL94:
 827 0010 10EA0304 		ands	r4, r0, r3
 828 0014 0ED1     		bne	.L49
 829              	.LVL95:
 830              		.loc 1 405 0
 831 0016 21B9     		cbnz	r1, .L50
 832              	.LBB23:
 833              		.loc 1 406 0
 834 0018 2346     		mov	r3, r4
 835              	.LVL96:
 836              	@ 406 "../libs/ChibiOS_2.4.0/os/kernel/src/chevents.c" 1
 837 001a 83F31188 		msr     BASEPRI, r3
ARM GAS  /tmp/ccisXRBZ.s 			page 16


 838              	@ 0 "" 2
 839              	.LVL97:
 840              		.thumb
 841              	.LBE23:
 842              		.loc 1 421 0
 843 001e 2046     		mov	r0, r4
 844              	.LVL98:
 845 0020 70BD     		pop	{r4, r5, r6, pc}
 846              	.LVL99:
 847              	.L50:
 848              		.loc 1 409 0
 849 0022 7062     		str	r0, [r6, #36]
 850              		.loc 1 410 0
 851 0024 0820     		movs	r0, #8
 852 0026 FFF7FEFF 		bl	chSchGoSleepTimeoutS
 853              	.LVL100:
 854 002a 0028     		cmp	r0, #0
 855 002c 0CDB     		blt	.L53
 856              		.loc 1 414 0
 857 002e B36B     		ldr	r3, [r6, #56]
 858 0030 05EA0304 		and	r4, r5, r3
 859              	.LVL101:
 860              	.L49:
 861              		.loc 1 416 0
 862 0034 6242     		negs	r2, r4
 863 0036 1440     		ands	r4, r4, r2
 864              	.LVL102:
 865              		.loc 1 417 0
 866 0038 23EA0400 		bic	r0, r3, r4
 867 003c B063     		str	r0, [r6, #56]
 868              	.LBB24:
 869              		.loc 1 419 0
 870 003e 0023     		movs	r3, #0
 871              	.LVL103:
 872              	@ 419 "../libs/ChibiOS_2.4.0/os/kernel/src/chevents.c" 1
 873 0040 83F31188 		msr     BASEPRI, r3
 874              	@ 0 "" 2
 875              	.LVL104:
 876              		.thumb
 877              	.L51:
 878              	.LBE24:
 879              		.loc 1 421 0
 880 0044 2046     		mov	r0, r4
 881 0046 70BD     		pop	{r4, r5, r6, pc}
 882              	.LVL105:
 883              	.L53:
 884              	.LBB25:
 885              		.loc 1 411 0
 886 0048 2346     		mov	r3, r4
 887              	@ 411 "../libs/ChibiOS_2.4.0/os/kernel/src/chevents.c" 1
 888 004a 83F31188 		msr     BASEPRI, r3
 889              	@ 0 "" 2
 890              	.LVL106:
 891              		.thumb
 892              	.LBE25:
 893              		.loc 1 412 0
 894 004e F9E7     		b	.L51
ARM GAS  /tmp/ccisXRBZ.s 			page 17


 895              	.L55:
 896              		.align	2
 897              	.L54:
 898 0050 00000000 		.word	rlist
 899              		.cfi_endproc
 900              	.LFE19:
 901              		.size	chEvtWaitOneTimeout, .-chEvtWaitOneTimeout
 902 0054 AFF30080 		.section	.text.chEvtWaitAnyTimeout,"ax",%progbits
 902      AFF30080 
 902      AFF30080 
 903              		.align	2
 904              		.p2align 4,,15
 905              		.global	chEvtWaitAnyTimeout
 906              		.thumb
 907              		.thumb_func
 908              		.type	chEvtWaitAnyTimeout, %function
 909              	chEvtWaitAnyTimeout:
 910              	.LFB20:
 911              		.loc 1 441 0
 912              		.cfi_startproc
 913              		@ args = 0, pretend = 0, frame = 0
 914              		@ frame_needed = 0, uses_anonymous_args = 0
 915              	.LVL107:
 916              		.loc 1 442 0
 917 0000 124B     		ldr	r3, .L62
 918              		.loc 1 441 0
 919 0002 70B5     		push	{r4, r5, r6, lr}
 920              	.LCFI10:
 921              		.cfi_def_cfa_offset 16
 922              		.loc 1 442 0
 923 0004 DE69     		ldr	r6, [r3, #28]
 924              		.cfi_offset 14, -4
 925              		.cfi_offset 6, -8
 926              		.cfi_offset 5, -12
 927              		.cfi_offset 4, -16
 928              	.LVL108:
 929              		.loc 1 441 0
 930 0006 0446     		mov	r4, r0
 931              	.LBB26:
 932              		.loc 1 445 0
 933 0008 2023     		movs	r3, #32
 934              	.LVL109:
 935              	@ 445 "../libs/ChibiOS_2.4.0/os/kernel/src/chevents.c" 1
 936 000a 83F31188 		msr     BASEPRI, r3
 937              	@ 0 "" 2
 938              	.LVL110:
 939              		.thumb
 940              	.LBE26:
 941              		.loc 1 447 0
 942 000e B36B     		ldr	r3, [r6, #56]
 943              	.LVL111:
 944 0010 10EA0305 		ands	r5, r0, r3
 945 0014 0ED1     		bne	.L57
 946              	.LVL112:
 947              		.loc 1 448 0
 948 0016 21B9     		cbnz	r1, .L58
 949              	.LBB27:
ARM GAS  /tmp/ccisXRBZ.s 			page 18


 950              		.loc 1 449 0
 951 0018 2B46     		mov	r3, r5
 952              	.LVL113:
 953              	@ 449 "../libs/ChibiOS_2.4.0/os/kernel/src/chevents.c" 1
 954 001a 83F31188 		msr     BASEPRI, r3
 955              	@ 0 "" 2
 956              	.LVL114:
 957              		.thumb
 958              	.LBE27:
 959              		.loc 1 463 0
 960 001e 2846     		mov	r0, r5
 961              	.LVL115:
 962 0020 70BD     		pop	{r4, r5, r6, pc}
 963              	.LVL116:
 964              	.L58:
 965              		.loc 1 452 0
 966 0022 7062     		str	r0, [r6, #36]
 967              		.loc 1 453 0
 968 0024 0820     		movs	r0, #8
 969 0026 FFF7FEFF 		bl	chSchGoSleepTimeoutS
 970              	.LVL117:
 971 002a 0028     		cmp	r0, #0
 972 002c 0ADB     		blt	.L61
 973              		.loc 1 457 0
 974 002e B36B     		ldr	r3, [r6, #56]
 975 0030 04EA0305 		and	r5, r4, r3
 976              	.LVL118:
 977              	.L57:
 978              		.loc 1 459 0
 979 0034 23EA0500 		bic	r0, r3, r5
 980 0038 B063     		str	r0, [r6, #56]
 981              	.LBB28:
 982              		.loc 1 461 0
 983 003a 0023     		movs	r3, #0
 984              	.LVL119:
 985              	@ 461 "../libs/ChibiOS_2.4.0/os/kernel/src/chevents.c" 1
 986 003c 83F31188 		msr     BASEPRI, r3
 987              	@ 0 "" 2
 988              	.LVL120:
 989              		.thumb
 990              	.L59:
 991              	.LBE28:
 992              		.loc 1 463 0
 993 0040 2846     		mov	r0, r5
 994 0042 70BD     		pop	{r4, r5, r6, pc}
 995              	.LVL121:
 996              	.L61:
 997              	.LBB29:
 998              		.loc 1 454 0
 999 0044 2B46     		mov	r3, r5
 1000              	@ 454 "../libs/ChibiOS_2.4.0/os/kernel/src/chevents.c" 1
 1001 0046 83F31188 		msr     BASEPRI, r3
 1002              	@ 0 "" 2
 1003              	.LVL122:
 1004              		.thumb
 1005              	.LBE29:
 1006              		.loc 1 455 0
ARM GAS  /tmp/ccisXRBZ.s 			page 19


 1007 004a F9E7     		b	.L59
 1008              	.L63:
 1009              		.align	2
 1010              	.L62:
 1011 004c 00000000 		.word	rlist
 1012              		.cfi_endproc
 1013              	.LFE20:
 1014              		.size	chEvtWaitAnyTimeout, .-chEvtWaitAnyTimeout
 1015              		.section	.text.chEvtWaitAllTimeout,"ax",%progbits
 1016              		.align	2
 1017              		.p2align 4,,15
 1018              		.global	chEvtWaitAllTimeout
 1019              		.thumb
 1020              		.thumb_func
 1021              		.type	chEvtWaitAllTimeout, %function
 1022              	chEvtWaitAllTimeout:
 1023              	.LFB21:
 1024              		.loc 1 482 0
 1025              		.cfi_startproc
 1026              		@ args = 0, pretend = 0, frame = 0
 1027              		@ frame_needed = 0, uses_anonymous_args = 0
 1028              	.LVL123:
 1029 0000 38B5     		push	{r3, r4, r5, lr}
 1030              	.LCFI11:
 1031              		.cfi_def_cfa_offset 16
 1032              		.loc 1 483 0
 1033 0002 124B     		ldr	r3, .L69
 1034              		.cfi_offset 14, -4
 1035              		.cfi_offset 5, -8
 1036              		.cfi_offset 4, -12
 1037              		.cfi_offset 3, -16
 1038              		.loc 1 482 0
 1039 0004 0446     		mov	r4, r0
 1040              		.loc 1 483 0
 1041 0006 DD69     		ldr	r5, [r3, #28]
 1042              	.LVL124:
 1043              	.LBB30:
 1044              		.loc 1 485 0
 1045 0008 2023     		movs	r3, #32
 1046              	.LVL125:
 1047              	@ 485 "../libs/ChibiOS_2.4.0/os/kernel/src/chevents.c" 1
 1048 000a 83F31188 		msr     BASEPRI, r3
 1049              	@ 0 "" 2
 1050              	.LVL126:
 1051              		.thumb
 1052              	.LBE30:
 1053              		.loc 1 487 0
 1054 000e AB6B     		ldr	r3, [r5, #56]
 1055              	.LVL127:
 1056 0010 1840     		ands	r0, r0, r3
 1057              	.LVL128:
 1058 0012 A042     		cmp	r0, r4
 1059 0014 0DD0     		beq	.L65
 1060              		.loc 1 488 0
 1061 0016 29B9     		cbnz	r1, .L66
 1062              	.LBB31:
 1063              		.loc 1 489 0
ARM GAS  /tmp/ccisXRBZ.s 			page 20


 1064 0018 0B46     		mov	r3, r1
 1065              	.LVL129:
 1066              	@ 489 "../libs/ChibiOS_2.4.0/os/kernel/src/chevents.c" 1
 1067 001a 83F31188 		msr     BASEPRI, r3
 1068              	@ 0 "" 2
 1069              	.LVL130:
 1070              		.thumb
 1071              	.LBE31:
 1072              		.loc 1 490 0
 1073 001e 0C46     		mov	r4, r1
 1074              	.LVL131:
 1075              		.loc 1 502 0
 1076 0020 2046     		mov	r0, r4
 1077 0022 38BD     		pop	{r3, r4, r5, pc}
 1078              	.LVL132:
 1079              	.L66:
 1080              		.loc 1 493 0
 1081 0024 0920     		movs	r0, #9
 1082              		.loc 1 492 0
 1083 0026 6C62     		str	r4, [r5, #36]
 1084              		.loc 1 493 0
 1085 0028 FFF7FEFF 		bl	chSchGoSleepTimeoutS
 1086              	.LVL133:
 1087 002c 0028     		cmp	r0, #0
 1088 002e 08DB     		blt	.L68
 1089 0030 AB6B     		ldr	r3, [r5, #56]
 1090              	.L65:
 1091              		.loc 1 498 0
 1092 0032 23EA0401 		bic	r1, r3, r4
 1093 0036 A963     		str	r1, [r5, #56]
 1094              	.LBB32:
 1095              		.loc 1 500 0
 1096 0038 0023     		movs	r3, #0
 1097              	.LVL134:
 1098              	@ 500 "../libs/ChibiOS_2.4.0/os/kernel/src/chevents.c" 1
 1099 003a 83F31188 		msr     BASEPRI, r3
 1100              	@ 0 "" 2
 1101              	.LVL135:
 1102              		.thumb
 1103              	.L67:
 1104              	.LBE32:
 1105              		.loc 1 502 0
 1106 003e 2046     		mov	r0, r4
 1107 0040 38BD     		pop	{r3, r4, r5, pc}
 1108              	.LVL136:
 1109              	.L68:
 1110              	.LBB33:
 1111              		.loc 1 494 0
 1112 0042 0023     		movs	r3, #0
 1113              	@ 494 "../libs/ChibiOS_2.4.0/os/kernel/src/chevents.c" 1
 1114 0044 83F31188 		msr     BASEPRI, r3
 1115              	@ 0 "" 2
 1116              	.LVL137:
 1117              		.thumb
 1118              	.LBE33:
 1119              		.loc 1 495 0
 1120 0048 1C46     		mov	r4, r3
ARM GAS  /tmp/ccisXRBZ.s 			page 21


 1121              	.LVL138:
 1122 004a F8E7     		b	.L67
 1123              	.L70:
 1124              		.align	2
 1125              	.L69:
 1126 004c 00000000 		.word	rlist
 1127              		.cfi_endproc
 1128              	.LFE21:
 1129              		.size	chEvtWaitAllTimeout, .-chEvtWaitAllTimeout
 1130              		.text
 1131              	.Letext0: