ARM GAS  /tmp/ccisXRBZ.s 			page 1


   1              		.syntax unified
   2              		.cpu cortex-m4
   3              		.eabi_attribute 27, 3
   4              		.eabi_attribute 28, 1
   5              		.fpu fpv4-sp-d16
   6              		.eabi_attribute 20, 1
   7              		.eabi_attribute 21, 1
   8              		.eabi_attribute 23, 3
   9              		.eabi_attribute 24, 1
  10              		.eabi_attribute 25, 1
  11              		.eabi_attribute 26, 1
  12              		.eabi_attribute 30, 2
  13              		.eabi_attribute 18, 4
  14              		.thumb
  15              		.file	"chevents.c"
  16              		.section	.debug_abbrev,"",%progbits
  17              	.Ldebug_abbrev0:
  18              		.section	.debug_info,"",%progbits
  19              	.Ldebug_info0:
  20              		.section	.debug_line,"",%progbits
  21              	.Ldebug_line0:
  22 0000 20030000 		.text
  22      02006701 
  22      00000201 
  22      FB0E0D00 
  22      01010101 
  23              	.Ltext0:
  24              		.cfi_sections	.debug_frame
  25              		.section	.text.chEvtRegisterMask,"ax",%progbits
  26              		.align	2
  27              		.p2align 4,,15
  28              		.global	chEvtRegisterMask
  29              		.thumb
  30              		.thumb_func
  31              		.type	chEvtRegisterMask, %function
  32              	chEvtRegisterMask:
  33              	.LFB7:
  34              		.file 1 "../libs/ChibiOS_2.4.0/os/kernel/src/chevents.c"
  35              		.loc 1 82 0
  36              		.cfi_startproc
  37              		@ args = 0, pretend = 0, frame = 0
  38              		@ frame_needed = 0, uses_anonymous_args = 0
  39              		@ link register save eliminated.
  40              	.LVL0:
  41 0000 10B4     		push	{r4}
  42              	.LCFI0:
  43              		.cfi_def_cfa_offset 4
  44              	.LBB2:
  45              		.loc 1 86 0
  46 0002 2023     		movs	r3, #32
  47              	.LVL1:
  48              	@ 86 "../libs/ChibiOS_2.4.0/os/kernel/src/chevents.c" 1
  49 0004 83F31188 		msr     BASEPRI, r3
  50              	@ 0 "" 2
  51              	.LVL2:
  52              		.thumb
  53              	.LBE2:
ARM GAS  /tmp/ccisXRBZ.s 			page 2


  54              		.loc 1 89 0
  55 0008 054C     		ldr	r4, .L2
  56              		.cfi_offset 4, -4
  57              		.loc 1 87 0
  58 000a 0368     		ldr	r3, [r0, #0]
  59              	.LVL3:
  60              		.loc 1 89 0
  61 000c E469     		ldr	r4, [r4, #28]
  62              		.loc 1 87 0
  63 000e 0B60     		str	r3, [r1, #0]
  64              		.loc 1 88 0
  65 0010 0160     		str	r1, [r0, #0]
  66              	.LBB3:
  67              		.loc 1 91 0
  68 0012 0023     		movs	r3, #0
  69              	.LVL4:
  70              	.LBE3:
  71              		.loc 1 89 0
  72 0014 4C60     		str	r4, [r1, #4]
  73              		.loc 1 90 0
  74 0016 8A60     		str	r2, [r1, #8]
  75              	.LBB4:
  76              		.loc 1 91 0
  77              	@ 91 "../libs/ChibiOS_2.4.0/os/kernel/src/chevents.c" 1
  78 0018 83F31188 		msr     BASEPRI, r3
  79              	@ 0 "" 2
  80              	.LVL5:
  81              		.thumb
  82              	.LBE4:
  83              		.loc 1 92 0
  84 001c 10BC     		pop	{r4}
  85 001e 7047     		bx	lr
  86              	.L3:
  87              		.align	2
  88              	.L2:
  89 0020 00000000 		.word	rlist
  90              		.cfi_endproc
  91              	.LFE7:
  92              		.size	chEvtRegisterMask, .-chEvtRegisterMask
  93 0024 AFF30080 		.section	.text.chEvtUnregister,"ax",%progbits
  93      AFF30080 
  93      AFF30080 
  94              		.align	2
  95              		.p2align 4,,15
  96              		.global	chEvtUnregister
  97              		.thumb
  98              		.thumb_func
  99              		.type	chEvtUnregister, %function
 100              	chEvtUnregister:
 101              	.LFB8:
 102              		.loc 1 107 0
 103              		.cfi_startproc
 104              		@ args = 0, pretend = 0, frame = 0
 105              		@ frame_needed = 0, uses_anonymous_args = 0
 106              		@ link register save eliminated.
 107              	.LVL6:
 108              	.LBB5:
ARM GAS  /tmp/ccisXRBZ.s 			page 3


 109              		.loc 1 113 0
 110 0000 2023     		movs	r3, #32
 111              	.LVL7:
 112              	@ 113 "../libs/ChibiOS_2.4.0/os/kernel/src/chevents.c" 1
 113 0002 83F31188 		msr     BASEPRI, r3
 114              	@ 0 "" 2
 115              	.LVL8:
 116              		.thumb
 117              	.LBE5:
 118              		.loc 1 112 0
 119 0006 0246     		mov	r2, r0
 120              		.loc 1 114 0
 121 0008 02E0     		b	.L5
 122              	.LVL9:
 123              	.L7:
 124              		.loc 1 115 0
 125 000a 9942     		cmp	r1, r3
 126 000c 07D0     		beq	.L10
 127 000e 1A46     		mov	r2, r3
 128              	.LVL10:
 129              	.L5:
 130              		.loc 1 114 0 discriminator 1
 131 0010 1368     		ldr	r3, [r2, #0]
 132              	.LVL11:
 133 0012 9842     		cmp	r0, r3
 134 0014 F9D1     		bne	.L7
 135              	.LBB6:
 136              		.loc 1 121 0
 137 0016 0023     		movs	r3, #0
 138              	.LVL12:
 139              	@ 121 "../libs/ChibiOS_2.4.0/os/kernel/src/chevents.c" 1
 140 0018 83F31188 		msr     BASEPRI, r3
 141              	@ 0 "" 2
 142              	.LVL13:
 143              		.thumb
 144              	.LBE6:
 145              		.loc 1 122 0
 146 001c 7047     		bx	lr
 147              	.LVL14:
 148              	.L10:
 149              		.loc 1 116 0
 150 001e 0B68     		ldr	r3, [r1, #0]
 151 0020 1360     		str	r3, [r2, #0]
 152              	.LBB7:
 153              		.loc 1 121 0
 154 0022 0023     		movs	r3, #0
 155              	@ 121 "../libs/ChibiOS_2.4.0/os/kernel/src/chevents.c" 1
 156 0024 83F31188 		msr     BASEPRI, r3
 157              	@ 0 "" 2
 158              	.LVL15:
 159              		.thumb
 160              	.LBE7:
 161              		.loc 1 122 0
 162 0028 7047     		bx	lr
 163              		.cfi_endproc
 164              	.LFE8:
 165              		.size	chEvtUnregister, .-chEvtUnregister
ARM GAS  /tmp/ccisXRBZ.s 			page 4


 166 002a 00BFAFF3 		.section	.text.chEvtClearFlags,"ax",%progbits
 166      0080
 167              		.align	2
 168              		.p2align 4,,15
 169              		.global	chEvtClearFlags
 170              		.thumb
 171              		.thumb_func
 172              		.type	chEvtClearFlags, %function
 173              	chEvtClearFlags:
 174              	.LFB9:
 175              		.loc 1 132 0
 176              		.cfi_startproc
 177              		@ args = 0, pretend = 0, frame = 0
 178              		@ frame_needed = 0, uses_anonymous_args = 0
 179              		@ link register save eliminated.
 180              	.LVL16:
 181              	.LBB8:
 182              		.loc 1 135 0
 183 0000 2023     		movs	r3, #32
 184              	.LVL17:
 185              	@ 135 "../libs/ChibiOS_2.4.0/os/kernel/src/chevents.c" 1
 186 0002 83F31188 		msr     BASEPRI, r3
 187              	@ 0 "" 2
 188              	.LVL18:
 189              		.thumb
 190              	.LBE8:
 191              		.loc 1 137 0
 192 0006 054A     		ldr	r2, .L12
 193 0008 D369     		ldr	r3, [r2, #28]
 194              	.LVL19:
 195 000a 9A6B     		ldr	r2, [r3, #56]
 196              	.LVL20:
 197              		.loc 1 138 0
 198 000c 22EA0001 		bic	r1, r2, r0
 199 0010 9963     		str	r1, [r3, #56]
 200              	.LBB9:
 201              		.loc 1 140 0
 202 0012 0023     		movs	r3, #0
 203              	.LVL21:
 204              	@ 140 "../libs/ChibiOS_2.4.0/os/kernel/src/chevents.c" 1
 205 0014 83F31188 		msr     BASEPRI, r3
 206              	@ 0 "" 2
 207              	.LVL22:
 208              		.thumb
 209              	.LBE9:
 210              		.loc 1 142 0
 211 0018 1040     		ands	r0, r0, r2
 212              	.LVL23:
 213 001a 7047     		bx	lr
 214              	.L13:
 215              		.align	2
 216              	.L12:
 217 001c 00000000 		.word	rlist
 218              		.cfi_endproc
 219              	.LFE9:
 220              		.size	chEvtClearFlags, .-chEvtClearFlags
 221              		.section	.text.chEvtAddFlags,"ax",%progbits
ARM GAS  /tmp/ccisXRBZ.s 			page 5


 222              		.align	2
 223              		.p2align 4,,15
 224              		.global	chEvtAddFlags
 225              		.thumb
 226              		.thumb_func
 227              		.type	chEvtAddFlags, %function
 228              	chEvtAddFlags:
 229              	.LFB10:
 230              		.loc 1 153 0
 231              		.cfi_startproc
 232              		@ args = 0, pretend = 0, frame = 0
 233              		@ frame_needed = 0, uses_anonymous_args = 0
 234              		@ link register save eliminated.
 235              	.LVL24:
 236              	.LBB10:
 237              		.loc 1 155 0
 238 0000 2023     		movs	r3, #32
 239              	.LVL25:
 240              	@ 155 "../libs/ChibiOS_2.4.0/os/kernel/src/chevents.c" 1
 241 0002 83F31188 		msr     BASEPRI, r3
 242              	@ 0 "" 2
 243              	.LVL26:
 244              		.thumb
 245              	.LBE10:
 246              		.loc 1 157 0
 247 0006 0449     		ldr	r1, .L15
 248 0008 CB69     		ldr	r3, [r1, #28]
 249              	.LVL27:
 250 000a 9A6B     		ldr	r2, [r3, #56]
 251 000c 1043     		orrs	r0, r0, r2
 252              	.LVL28:
 253 000e 9863     		str	r0, [r3, #56]
 254              	.LVL29:
 255              	.LBB11:
 256              		.loc 1 159 0
 257 0010 0023     		movs	r3, #0
 258              	.LVL30:
 259              	@ 159 "../libs/ChibiOS_2.4.0/os/kernel/src/chevents.c" 1
 260 0012 83F31188 		msr     BASEPRI, r3
 261              	@ 0 "" 2
 262              	.LVL31:
 263              		.thumb
 264              	.LBE11:
 265              		.loc 1 161 0
 266 0016 7047     		bx	lr
 267              	.L16:
 268              		.align	2
 269              	.L15:
 270 0018 00000000 		.word	rlist
 271              		.cfi_endproc
 272              	.LFE10:
 273              		.size	chEvtAddFlags, .-chEvtAddFlags
 274 001c AFF30080 		.section	.text.chEvtSignalFlagsI,"ax",%progbits
 275              		.align	2
 276              		.p2align 4,,15
 277              		.global	chEvtSignalFlagsI
 278              		.thumb
ARM GAS  /tmp/ccisXRBZ.s 			page 6


 279              		.thumb_func
 280              		.type	chEvtSignalFlagsI, %function
 281              	chEvtSignalFlagsI:
 282              	.LFB12:
 283              		.loc 1 193 0
 284              		.cfi_startproc
 285              		@ args = 0, pretend = 0, frame = 0
 286              		@ frame_needed = 0, uses_anonymous_args = 0
 287              	.LVL32:
 288 0000 08B5     		push	{r3, lr}
 289              	.LCFI1:
 290              		.cfi_def_cfa_offset 8
 291              		.loc 1 198 0
 292 0002 826B     		ldr	r2, [r0, #56]
 293              		.loc 1 200 0
 294 0004 037F     		ldrb	r3, [r0, #28]	@ zero_extendqisi2
 295              		.cfi_offset 14, -4
 296              		.cfi_offset 3, -8
 297              		.loc 1 198 0
 298 0006 41EA0202 		orr	r2, r1, r2
 299              		.loc 1 200 0
 300 000a 082B     		cmp	r3, #8
 301              		.loc 1 198 0
 302 000c 8263     		str	r2, [r0, #56]
 303              		.loc 1 200 0
 304 000e 0CD0     		beq	.L21
 305              		.loc 1 201 0
 306 0010 092B     		cmp	r3, #9
 307 0012 00D0     		beq	.L22
 308              	.LVL33:
 309              	.L17:
 310 0014 08BD     		pop	{r3, pc}
 311              	.LVL34:
 312              	.L22:
 313              		.loc 1 203 0
 314 0016 436A     		ldr	r3, [r0, #36]
 315 0018 02EA0301 		and	r1, r2, r3
 316              	.LVL35:
 317              		.loc 1 202 0
 318 001c 8B42     		cmp	r3, r1
 319 001e F9D1     		bne	.L17
 320              	.L19:
 321              		.loc 1 204 0
 322 0020 FFF7FEFF 		bl	chSchReadyI
 323              	.LVL36:
 324 0024 0022     		movs	r2, #0
 325 0026 4262     		str	r2, [r0, #36]
 326 0028 08BD     		pop	{r3, pc}
 327              	.LVL37:
 328              	.L21:
 329              		.loc 1 201 0 discriminator 1
 330 002a 436A     		ldr	r3, [r0, #36]
 331              		.loc 1 200 0 discriminator 1
 332 002c 1A42     		tst	r2, r3
 333 002e F7D1     		bne	.L19
 334 0030 08BD     		pop	{r3, pc}
 335              		.cfi_endproc
ARM GAS  /tmp/ccisXRBZ.s 			page 7


 336              	.LFE12:
 337              		.size	chEvtSignalFlagsI, .-chEvtSignalFlagsI
 338 0032 00BFAFF3 		.section	.text.chEvtSignalFlags,"ax",%progbits
 338      0080AFF3 
 338      0080AFF3 
 338      0080
 339              		.align	2
 340              		.p2align 4,,15
 341              		.global	chEvtSignalFlags
 342              		.thumb
 343              		.thumb_func
 344              		.type	chEvtSignalFlags, %function
 345              	chEvtSignalFlags:
 346              	.LFB11:
 347              		.loc 1 171 0
 348              		.cfi_startproc
 349              		@ args = 0, pretend = 0, frame = 0
 350              		@ frame_needed = 0, uses_anonymous_args = 0
 351              	.LVL38:
 352 0000 08B5     		push	{r3, lr}
 353              	.LCFI2:
 354              		.cfi_def_cfa_offset 8
 355              	.LBB12:
 356              		.loc 1 175 0
 357 0002 2023     		movs	r3, #32
 358              		.cfi_offset 14, -4
 359              		.cfi_offset 3, -8
 360              	.LVL39:
 361              	@ 175 "../libs/ChibiOS_2.4.0/os/kernel/src/chevents.c" 1
 362 0004 83F31188 		msr     BASEPRI, r3
 363              	@ 0 "" 2
 364              	.LVL40:
 365              		.thumb
 366              	.LBE12:
 367              		.loc 1 176 0
 368 0008 FFF7FEFF 		bl	chEvtSignalFlagsI
 369              	.LVL41:
 370              		.loc 1 177 0
 371 000c FFF7FEFF 		bl	chSchRescheduleS
 372              	.LBB13:
 373              		.loc 1 178 0
 374 0010 0023     		movs	r3, #0
 375              	.LVL42:
 376              	@ 178 "../libs/ChibiOS_2.4.0/os/kernel/src/chevents.c" 1
 377 0012 83F31188 		msr     BASEPRI, r3
 378              	@ 0 "" 2
 379              	.LVL43:
 380              		.thumb
 381              	.LBE13:
 382              		.loc 1 179 0
 383 0016 08BD     		pop	{r3, pc}
 384              		.cfi_endproc
 385              	.LFE11:
 386              		.size	chEvtSignalFlags, .-chEvtSignalFlags
 387 0018 AFF30080 		.section	.text.chEvtBroadcastFlagsI,"ax",%progbits
 387      AFF30080 
 388              		.align	2
ARM GAS  /tmp/ccisXRBZ.s 			page 8


 389              		.p2align 4,,15
 390              		.global	chEvtBroadcastFlagsI
 391              		.thumb
 392              		.thumb_func
 393              		.type	chEvtBroadcastFlagsI, %function
 394              	chEvtBroadcastFlagsI:
 395              	.LFB14:
 396              		.loc 1 245 0
 397              		.cfi_startproc
 398              		@ args = 0, pretend = 0, frame = 0
 399              		@ frame_needed = 0, uses_anonymous_args = 0
 400              	.LVL44:
 401 0000 70B5     		push	{r4, r5, r6, lr}
 402              	.LCFI3:
 403              		.cfi_def_cfa_offset 16
 404              		.loc 1 251 0
 405 0002 0468     		ldr	r4, [r0, #0]
 406              		.cfi_offset 14, -4
 407              		.cfi_offset 6, -8
 408              		.cfi_offset 5, -12
 409              		.cfi_offset 4, -16
 410              	.LVL45:
 411              		.loc 1 252 0
 412 0004 8442     		cmp	r4, r0
 413              		.loc 1 245 0
 414 0006 0546     		mov	r5, r0
 415 0008 0E46     		mov	r6, r1
 416              		.loc 1 252 0
 417 000a 08D0     		beq	.L24
 418              	.LVL46:
 419              	.L27:
 420              		.loc 1 253 0
 421 000c A168     		ldr	r1, [r4, #8]
 422 000e 6068     		ldr	r0, [r4, #4]
 423 0010 46EA0101 		orr	r1, r6, r1
 424 0014 FFF7FEFF 		bl	chEvtSignalFlagsI
 425              		.loc 1 254 0
 426 0018 2468     		ldr	r4, [r4, #0]
 427              	.LVL47:
 428              		.loc 1 252 0
 429 001a AC42     		cmp	r4, r5
 430 001c F6D1     		bne	.L27
 431              	.L24:
 432 001e 70BD     		pop	{r4, r5, r6, pc}
 433              		.cfi_endproc
 434              	.LFE14:
 435              		.size	chEvtBroadcastFlagsI, .-chEvtBroadcastFlagsI
 436              		.section	.text.chEvtBroadcastFlags,"ax",%progbits
 437              		.align	2
 438              		.p2align 4,,15
 439              		.global	chEvtBroadcastFlags
 440              		.thumb
 441              		.thumb_func
 442              		.type	chEvtBroadcastFlags, %function
 443              	chEvtBroadcastFlags:
 444              	.LFB13:
 445              		.loc 1 220 0
ARM GAS  /tmp/ccisXRBZ.s 			page 9


 446              		.cfi_startproc
 447              		@ args = 0, pretend = 0, frame = 0
 448              		@ frame_needed = 0, uses_anonymous_args = 0
 449              	.LVL48:
 450 0000 08B5     		push	{r3, lr}
 451              	.LCFI4:
 452              		.cfi_def_cfa_offset 8
 453              	.LBB14:
 454              		.loc 1 222 0
 455 0002 2023     		movs	r3, #32
 456              		.cfi_offset 14, -4
 457              		.cfi_offset 3, -8
 458              	.LVL49:
 459              	@ 222 "../libs/ChibiOS_2.4.0/os/kernel/src/chevents.c" 1
 460 0004 83F31188 		msr     BASEPRI, r3
 461              	@ 0 "" 2
 462              	.LVL50:
 463              		.thumb
 464              	.LBE14:
 465              		.loc 1 223 0
 466 0008 FFF7FEFF 		bl	chEvtBroadcastFlagsI
 467              	.LVL51:
 468              		.loc 1 224 0
 469 000c FFF7FEFF 		bl	chSchRescheduleS
 470              	.LBB15:
 471              		.loc 1 225 0
 472 0010 0023     		movs	r3, #0
 473              	.LVL52:
 474              	@ 225 "../libs/ChibiOS_2.4.0/os/kernel/src/chevents.c" 1
 475 0012 83F31188 		msr     BASEPRI, r3
 476              	@ 0 "" 2
 477              	.LVL53:
 478              		.thumb
 479              	.LBE15:
 480              		.loc 1 226 0
 481 0016 08BD     		pop	{r3, pc}
 482              		.cfi_endproc
 483              	.LFE13:
 484              		.size	chEvtBroadcastFlags, .-chEvtBroadcastFlags
 485 0018 AFF30080 		.section	.text.chEvtDispatch,"ax",%progbits
 485      AFF30080 
 486              		.align	2
 487              		.p2align 4,,15
 488              		.global	chEvtDispatch
 489              		.thumb
 490              		.thumb_func
 491              		.type	chEvtDispatch, %function
 492              	chEvtDispatch:
 493              	.LFB15:
 494              		.loc 1 267 0
 495              		.cfi_startproc
 496              		@ args = 0, pretend = 0, frame = 0
 497              		@ frame_needed = 0, uses_anonymous_args = 0
 498              	.LVL54:
 499 0000 F8B5     		push	{r3, r4, r5, r6, r7, lr}
 500              	.LCFI5:
 501              		.cfi_def_cfa_offset 24
ARM GAS  /tmp/ccisXRBZ.s 			page 10


 502              		.loc 1 273 0
 503 0002 0D46     		mov	r5, r1
 504              		.cfi_offset 14, -4
 505              		.cfi_offset 7, -8
 506              		.cfi_offset 6, -12
 507              		.cfi_offset 5, -16
 508              		.cfi_offset 4, -20
 509              		.cfi_offset 3, -24
 510              		.loc 1 267 0
 511 0004 0746     		mov	r7, r0
 512              		.loc 1 273 0
 513 0006 99B1     		cbz	r1, .L30
 514 0008 0024     		movs	r4, #0
 515              		.loc 1 274 0
 516 000a 0126     		movs	r6, #1
 517 000c 16FA04F3 		lsls	r3, r6, r4
 518 0010 2B42     		tst	r3, r5
 519 0012 05D1     		bne	.L34
 520              	.LVL55:
 521              	.L32:
 522              		.loc 1 273 0
 523 0014 65B1     		cbz	r5, .L30
 524              	.LVL56:
 525              	.L35:
 526              		.loc 1 281 0
 527 0016 0134     		adds	r4, r4, #1
 528              		.loc 1 274 0
 529 0018 16FA04F3 		lsls	r3, r6, r4
 530 001c 2B42     		tst	r3, r5
 531 001e F9D0     		beq	.L32
 532              	.L34:
 533              		.loc 1 278 0
 534 0020 25EA0305 		bic	r5, r5, r3
 535              	.LVL57:
 536              		.loc 1 279 0
 537 0024 57F82420 		ldr	r2, [r7, r4, lsl #2]
 538 0028 2046     		mov	r0, r4
 539 002a 9047     		blx	r2
 540              	.LVL58:
 541              		.loc 1 273 0
 542 002c 002D     		cmp	r5, #0
 543 002e F2D1     		bne	.L35
 544              	.LVL59:
 545              	.L30:
 546 0030 F8BD     		pop	{r3, r4, r5, r6, r7, pc}
 547              		.cfi_endproc
 548              	.LFE15:
 549              		.size	chEvtDispatch, .-chEvtDispatch
 550 0032 00BFAFF3 		.section	.text.chEvtWaitOne,"ax",%progbits
 550      0080AFF3 
 550      0080AFF3 
 550      0080
 551              		.align	2
 552              		.p2align 4,,15
 553              		.global	chEvtWaitOne
 554              		.thumb
 555              		.thumb_func
ARM GAS  /tmp/ccisXRBZ.s 			page 11


 556              		.type	chEvtWaitOne, %function
 557              	chEvtWaitOne:
 558              	.LFB16:
 559              		.loc 1 302 0
 560              		.cfi_startproc
 561              		@ args = 0, pretend = 0, frame = 0
 562              		@ frame_needed = 0, uses_anonymous_args = 0
 563              	.LVL60:
 564 0000 38B5     		push	{r3, r4, r5, lr}
 565              	.LCFI6:
 566              		.cfi_def_cfa_offset 16
 567              		.loc 1 303 0
 568 0002 0D4B     		ldr	r3, .L38
 569              		.cfi_offset 14, -4
 570              		.cfi_offset 5, -8
 571              		.cfi_offset 4, -12
 572              		.cfi_offset 3, -16
 573              		.loc 1 302 0
 574 0004 0546     		mov	r5, r0
 575              		.loc 1 303 0
 576 0006 DC69     		ldr	r4, [r3, #28]
 577              	.LVL61:
 578              	.LBB16:
 579              		.loc 1 306 0
 580 0008 2023     		movs	r3, #32
 581              	.LVL62:
 582              	@ 306 "../libs/ChibiOS_2.4.0/os/kernel/src/chevents.c" 1
 583 000a 83F31188 		msr     BASEPRI, r3
 584              	@ 0 "" 2
 585              	.LVL63:
 586              		.thumb
 587              	.LBE16:
 588              		.loc 1 308 0
 589 000e A36B     		ldr	r3, [r4, #56]
 590              	.LVL64:
 591 0010 10EA0302 		ands	r2, r0, r3
 592 0014 06D1     		bne	.L37
 593              		.loc 1 309 0
 594 0016 6062     		str	r0, [r4, #36]
 595              		.loc 1 310 0
 596 0018 0820     		movs	r0, #8
 597              	.LVL65:
 598 001a FFF7FEFF 		bl	chSchGoSleepS
 599              	.LVL66:
 600              		.loc 1 311 0
 601 001e A36B     		ldr	r3, [r4, #56]
 602 0020 05EA0302 		and	r2, r5, r3
 603              	.LVL67:
 604              	.L37:
 605              		.loc 1 313 0
 606 0024 5042     		negs	r0, r2
 607 0026 1040     		ands	r0, r0, r2
 608              	.LVL68:
 609              		.loc 1 314 0
 610 0028 23EA0001 		bic	r1, r3, r0
 611 002c A163     		str	r1, [r4, #56]
 612              	.LBB17:
ARM GAS  /tmp/ccisXRBZ.s 			page 12


 613              		.loc 1 316 0
 614 002e 0023     		movs	r3, #0
 615              	.LVL69:
 616              	@ 316 "../libs/ChibiOS_2.4.0/os/kernel/src/chevents.c" 1
 617 0030 83F31188 		msr     BASEPRI, r3
 618              	@ 0 "" 2
 619              	.LVL70:
 620              		.thumb
 621              	.LBE17:
 622              		.loc 1 318 0
 623 0034 38BD     		pop	{r3, r4, r5, pc}
 624              	.L39:
 625 0036 00BF     		.align	2
 626              	.L38:
 627 0038 00000000 		.word	rlist
 628              		.cfi_endproc
 629              	.LFE16:
 630              		.size	chEvtWaitOne, .-chEvtWaitOne
 631 003c AFF30080 		.section	.text.chEvtWaitAny,"ax",%progbits
 632              		.align	2
 633              		.p2align 4,,15
 634              		.global	chEvtWaitAny
 635              		.thumb
 636              		.thumb_func
 637              		.type	chEvtWaitAny, %function
 638              	chEvtWaitAny:
 639              	.LFB17:
 640              		.loc 1 331 0
 641              		.cfi_startproc
 642              		@ args = 0, pretend = 0, frame = 0
 643              		@ frame_needed = 0, uses_anonymous_args = 0
 644              	.LVL71:
 645 0000 38B5     		push	{r3, r4, r5, lr}
 646              	.LCFI7:
 647              		.cfi_def_cfa_offset 16
 648              		.loc 1 332 0
 649 0002 0B4B     		ldr	r3, .L42
 650              		.cfi_offset 14, -4
 651              		.cfi_offset 5, -8
 652              		.cfi_offset 4, -12
 653              		.cfi_offset 3, -16
 654              		.loc 1 331 0
 655 0004 0546     		mov	r5, r0
 656              		.loc 1 332 0
 657 0006 DC69     		ldr	r4, [r3, #28]
 658              	.LVL72:
 659              	.LBB18:
 660              		.loc 1 335 0
 661 0008 2023     		movs	r3, #32
 662              	.LVL73:
 663              	@ 335 "../libs/ChibiOS_2.4.0/os/kernel/src/chevents.c" 1
 664 000a 83F31188 		msr     BASEPRI, r3
 665              	@ 0 "" 2
 666              	.LVL74:
 667              		.thumb
 668              	.LBE18:
 669              		.loc 1 337 0
ARM GAS  /tmp/ccisXRBZ.s 			page 13


 670 000e A36B     		ldr	r3, [r4, #56]
 671              	.LVL75:
 672 0010 1840     		ands	r0, r0, r3
 673              	.LVL76:
 674 0012 06D1     		bne	.L41
 675              		.loc 1 339 0
 676 0014 0820     		movs	r0, #8
 677              		.loc 1 338 0
 678 0016 6562     		str	r5, [r4, #36]
 679              		.loc 1 339 0
 680 0018 FFF7FEFF 		bl	chSchGoSleepS
 681              	.LVL77:
 682              		.loc 1 340 0
 683 001c A36B     		ldr	r3, [r4, #56]
 684 001e 05EA0300 		and	r0, r5, r3
 685              	.LVL78:
 686              	.L41:
 687              		.loc 1 342 0
 688 0022 23EA0001 		bic	r1, r3, r0
 689 0026 A163     		str	r1, [r4, #56]
 690              	.LBB19:
 691              		.loc 1 344 0
 692 0028 0023     		movs	r3, #0
 693              	.LVL79:
 694              	@ 344 "../libs/ChibiOS_2.4.0/os/kernel/src/chevents.c" 1
 695 002a 83F31188 		msr     BASEPRI, r3
 696              	@ 0 "" 2
 697              	.LVL80:
 698              		.thumb
 699              	.LBE19:
 700              		.loc 1 346 0
 701 002e 38BD     		pop	{r3, r4, r5, pc}
 702              	.L43:
 703              		.align	2
 704              	.L42:
 705 0030 00000000 		.word	rlist
 706              		.cfi_endproc
 707              	.LFE17:
 708              		.size	chEvtWaitAny, .-chEvtWaitAny
 709 0034 AFF30080 		.section	.text.chEvtWaitAll,"ax",%progbits
 709      AFF30080 
 709      AFF30080 
 710              		.align	2
 711              		.p2align 4,,15
 712              		.global	chEvtWaitAll
 713              		.thumb
 714              		.thumb_func
 715              		.type	chEvtWaitAll, %function
 716              	chEvtWaitAll:
 717              	.LFB18:
 718              		.loc 1 359 0
 719              		.cfi_startproc
 720              		@ args = 0, pretend = 0, frame = 0
 721              		@ frame_needed = 0, uses_anonymous_args = 0
 722              	.LVL81:
 723 0000 38B5     		push	{r3, r4, r5, lr}
 724              	.LCFI8:
ARM GAS  /tmp/ccisXRBZ.s 			page 14


 725              		.cfi_def_cfa_offset 16
 726              		.loc 1 360 0
 727 0002 0C4B     		ldr	r3, .L46
 728              		.cfi_offset 14, -4
 729              		.cfi_offset 5, -8
 730              		.cfi_offset 4, -12
 731              		.cfi_offset 3, -16
 732              		.loc 1 359 0
 733 0004 0446     		mov	r4, r0
 734              		.loc 1 360 0
 735 0006 DD69     		ldr	r5, [r3, #28]
 736              	.LVL82:
 737              	.LBB20:
 738              		.loc 1 362 0
 739 0008 2023     		movs	r3, #32
 740              	.LVL83:
 741              	@ 362 "../libs/ChibiOS_2.4.0/os/kernel/src/chevents.c" 1
 742 000a 83F31188 		msr     BASEPRI, r3
 743              	@ 0 "" 2
 744              	.LVL84:
 745              		.thumb
 746              	.LBE20:
 747              		.loc 1 364 0
 748 000e AB6B     		ldr	r3, [r5, #56]
 749              	.LVL85:
 750 0010 00EA0302 		and	r2, r0, r3
 751 0014 8242     		cmp	r2, r0
 752 0016 04D0     		beq	.L45
 753              		.loc 1 365 0
 754 0018 6862     		str	r0, [r5, #36]
 755              		.loc 1 366 0
 756 001a 0920     		movs	r0, #9
 757              	.LVL86:
 758 001c FFF7FEFF 		bl	chSchGoSleepS
 759              	.LVL87:
 760 0020 AB6B     		ldr	r3, [r5, #56]
 761              	.L45:
 762              		.loc 1 368 0
 763 0022 23EA0400 		bic	r0, r3, r4
 764 0026 A863     		str	r0, [r5, #56]
 765              	.LBB21:
 766              		.loc 1 370 0
 767 0028 0023     		movs	r3, #0
 768              	.LVL88:
 769              	@ 370 "../libs/ChibiOS_2.4.0/os/kernel/src/chevents.c" 1
 770 002a 83F31188 		msr     BASEPRI, r3
 771              	@ 0 "" 2
 772              	.LVL89:
 773              		.thumb
 774              	.LBE21:
 775              		.loc 1 372 0
 776 002e 2046     		mov	r0, r4
 777 0030 38BD     		pop	{r3, r4, r5, pc}
 778              	.L47:
 779 0032 00BF     		.align	2
 780              	.L46:
 781 0034 00000000 		.word	rlist
ARM GAS  /tmp/ccisXRBZ.s 			page 15


 782              		.cfi_endproc
 783              	.LFE18:
 784              		.size	chEvtWaitAll, .-chEvtWaitAll
 785 0038 AFF30080 		.section	.text.chEvtWaitOneTimeout,"ax",%progbits
 785      AFF30080 
 786              		.align	2
 787              		.p2align 4,,15
 788              		.global	chEvtWaitOneTimeout
 789              		.thumb
 790              		.thumb_func
 791              		.type	chEvtWaitOneTimeout, %function
 792              	chEvtWaitOneTimeout:
 793              	.LFB19:
 794              		.loc 1 398 0
 795              		.cfi_startproc
 796              		@ args = 0, pretend = 0, frame = 0
 797              		@ frame_needed = 0, uses_anonymous_args = 0
 798              	.LVL90:
 799              		.loc 1 399 0
 800 0000 134B     		ldr	r3, .L54
 801              		.loc 1 398 0
 802 0002 70B5     		push	{r4, r5, r6, lr}
 803              	.LCFI9:
 804              		.cfi_def_cfa_offset 16
 805              		.loc 1 399 0
 806 0004 DE69     		ldr	r6, [r3, #28]
 807              		.cfi_offset 14, -4
 808              		.cfi_offset 6, -8
 809              		.cfi_offset 5, -12
 810              		.cfi_offset 4, -16
 811              	.LVL91:
 812              		.loc 1 398 0
 813 0006 0546     		mov	r5, r0
 814              	.LBB22:
 815              		.loc 1 402 0
 816 0008 2023     		movs	r3, #32
 817              	.LVL92:
 818              	@ 402 "../libs/ChibiOS_2.4.0/os/kernel/src/chevents.c" 1
 819 000a 83F31188 		msr     BASEPRI, r3
 820              	@ 0 "" 2
 821              	.LVL93:
 822              		.thumb
 823              	.LBE22:
 824              		.loc 1 404 0
 825 000e B36B     		ldr	r3, [r6, #56]
 826              	.LVL94:
 827 0010 10EA0304 		ands	r4, r0, r3
 828 0014 0ED1     		bne	.L49
 829              	.LVL95:
 830              		.loc 1 405 0
 831 0016 21B9     		cbnz	r1, .L50
 832              	.LBB23:
 833              		.loc 1 406 0
 834 0018 2346     		mov	r3, r4
 835              	.LVL96:
 836              	@ 406 "../libs/ChibiOS_2.4.0/os/kernel/src/chevents.c" 1
 837 001a 83F31188 		msr     BASEPRI, r3
ARM GAS  /tmp/ccisXRBZ.s 			page 16


 838              	@ 0 "" 2
 839              	.LVL97:
 840              		.thumb
 841              	.LBE23:
 842              		.loc 1 421 0
 843 001e 2046     		mov	r0, r4
 844              	.LVL98:
 845 0020 70BD     		pop	{r4, r5, r6, pc}
 846              	.LVL99:
 847              	.L50:
 848              		.loc 1 409 0
 849 0022 7062     		str	r0, [r6, #36]
 850              		.loc 1 410 0
 851 0024 0820     		movs	r0, #8
 852 0026 FFF7FEFF 		bl	chSchGoSleepTimeoutS
 853              	.LVL100:
 854 002a 0028     		cmp	r0, #0
 855 002c 0CDB     		blt	.L53
 856              		.loc 1 414 0
 857 002e B36B     		ldr	r3, [r6, #56]
 858 0030 05EA0304 		and	r4, r5, r3
 859              	.LVL101:
 860              	.L49:
 861              		.loc 1 416 0
 862 0034 6242     		negs	r2, r4
 863 0036 1440     		ands	r4, r4, r2
 864              	.LVL102:
 865              		.loc 1 417 0
 866 0038 23EA0400 		bic	r0, r3, r4
 867 003c B063     		str	r0, [r6, #56]
 868              	.LBB24:
 869              		.loc 1 419 0
 870 003e 0023     		movs	r3, #0
 871              	.LVL103:
 872              	@ 419 "../libs/ChibiOS_2.4.0/os/kernel/src/chevents.c" 1
 873 0040 83F31188 		msr     BASEPRI, r3
 874              	@ 0 "" 2
 875              	.LVL104:
 876              		.thumb
 877              	.L51:
 878              	.LBE24:
 879              		.loc 1 421 0
 880 0044 2046     		mov	r0, r4
 881 0046 70BD     		pop	{r4, r5, r6, pc}
 882              	.LVL105:
 883              	.L53:
 884              	.LBB25:
 885              		.loc 1 411 0
 886 0048 2346     		mov	r3, r4
 887              	@ 411 "../libs/ChibiOS_2.4.0/os/kernel/src/chevents.c" 1
 888 004a 83F31188 		msr     BASEPRI, r3
 889              	@ 0 "" 2
 890              	.LVL106:
 891              		.thumb
 892              	.LBE25:
 893              		.loc 1 412 0
 894 004e F9E7     		b	.L51
ARM GAS  /tmp/ccisXRBZ.s 			page 17


 895              	.L55:
 896              		.align	2
 897              	.L54:
 898 0050 00000000 		.word	rlist
 899              		.cfi_endproc
 900              	.LFE19:
 901              		.size	chEvtWaitOneTimeout, .-chEvtWaitOneTimeout
 902 0054 AFF30080 		.section	.text.chEvtWaitAnyTimeout,"ax",%progbits
 902      AFF30080 
 902      AFF30080 
 903              		.align	2
 904              		.p2align 4,,15
 905              		.global	chEvtWaitAnyTimeout
 906              		.thumb
 907              		.thumb_func
 908              		.type	chEvtWaitAnyTimeout, %function
 909              	chEvtWaitAnyTimeout:
 910              	.LFB20:
 911              		.loc 1 441 0
 912              		.cfi_startproc
 913              		@ args = 0, pretend = 0, frame = 0
 914              		@ frame_needed = 0, uses_anonymous_args = 0
 915              	.LVL107:
 916              		.loc 1 442 0
 917 0000 124B     		ldr	r3, .L62
 918              		.loc 1 441 0
 919 0002 70B5     		push	{r4, r5, r6, lr}
 920              	.LCFI10:
 921              		.cfi_def_cfa_offset 16
 922              		.loc 1 442 0
 923 0004 DE69     		ldr	r6, [r3, #28]
 924              		.cfi_offset 14, -4
 925              		.cfi_offset 6, -8
 926              		.cfi_offset 5, -12
 927              		.cfi_offset 4, -16
 928              	.LVL108:
 929              		.loc 1 441 0
 930 0006 0446     		mov	r4, r0
 931              	.LBB26:
 932              		.loc 1 445 0
 933 0008 2023     		movs	r3, #32
 934              	.LVL109:
 935              	@ 445 "../libs/ChibiOS_2.4.0/os/kernel/src/chevents.c" 1
 936 000a 83F31188 		msr     BASEPRI, r3
 937              	@ 0 "" 2
 938              	.LVL110:
 939              		.thumb
 940              	.LBE26:
 941              		.loc 1 447 0
 942 000e B36B     		ldr	r3, [r6, #56]
 943              	.LVL111:
 944 0010 10EA0305 		ands	r5, r0, r3
 945 0014 0ED1     		bne	.L57
 946              	.LVL112:
 947              		.loc 1 448 0
 948 0016 21B9     		cbnz	r1, .L58
 949              	.LBB27:
ARM GAS  /tmp/ccisXRBZ.s 			page 18


 950              		.loc 1 449 0
 951 0018 2B46     		mov	r3, r5
 952              	.LVL113:
 953              	@ 449 "../libs/ChibiOS_2.4.0/os/kernel/src/chevents.c" 1
 954 001a 83F31188 		msr     BASEPRI, r3
 955              	@ 0 "" 2
 956              	.LVL114:
 957              		.thumb
 958              	.LBE27:
 959              		.loc 1 463 0
 960 001e 2846     		mov	r0, r5
 961              	.LVL115:
 962 0020 70BD     		pop	{r4, r5, r6, pc}
 963              	.LVL116:
 964              	.L58:
 965              		.loc 1 452 0
 966 0022 7062     		str	r0, [r6, #36]
 967              		.loc 1 453 0
 968 0024 0820     		movs	r0, #8
 969 0026 FFF7FEFF 		bl	chSchGoSleepTimeoutS
 970              	.LVL117:
 971 002a 0028     		cmp	r0, #0
 972 002c 0ADB     		blt	.L61
 973              		.loc 1 457 0
 974 002e B36B     		ldr	r3, [r6, #56]
 975 0030 04EA0305 		and	r5, r4, r3
 976              	.LVL118:
 977              	.L57:
 978              		.loc 1 459 0
 979 0034 23EA0500 		bic	r0, r3, r5
 980 0038 B063     		str	r0, [r6, #56]
 981              	.LBB28:
 982              		.loc 1 461 0
 983 003a 0023     		movs	r3, #0
 984              	.LVL119:
 985              	@ 461 "../libs/ChibiOS_2.4.0/os/kernel/src/chevents.c" 1
 986 003c 83F31188 		msr     BASEPRI, r3
 987              	@ 0 "" 2
 988              	.LVL120:
 989              		.thumb
 990              	.L59:
 991              	.LBE28:
 992              		.loc 1 463 0
 993 0040 2846     		mov	r0, r5
 994 0042 70BD     		pop	{r4, r5, r6, pc}
 995              	.LVL121:
 996              	.L61:
 997              	.LBB29:
 998              		.loc 1 454 0
 999 0044 2B46     		mov	r3, r5
 1000              	@ 454 "../libs/ChibiOS_2.4.0/os/kernel/src/chevents.c" 1
 1001 0046 83F31188 		msr     BASEPRI, r3
 1002              	@ 0 "" 2
 1003              	.LVL122:
 1004              		.thumb
 1005              	.LBE29:
 1006              		.loc 1 455 0
ARM GAS  /tmp/ccisXRBZ.s 			page 19


 1007 004a F9E7     		b	.L59
 1008              	.L63:
 1009              		.align	2
 1010              	.L62:
 1011 004c 00000000 		.word	rlist
 1012              		.cfi_endproc
 1013              	.LFE20:
 1014              		.size	chEvtWaitAnyTimeout, .-chEvtWaitAnyTimeout
 1015              		.section	.text.chEvtWaitAllTimeout,"ax",%progbits
 1016              		.align	2
 1017              		.p2align 4,,15
 1018              		.global	chEvtWaitAllTimeout
 1019              		.thumb
 1020              		.thumb_func
 1021              		.type	chEvtWaitAllTimeout, %function
 1022              	chEvtWaitAllTimeout:
 1023              	.LFB21:
 1024              		.loc 1 482 0
 1025              		.cfi_startproc
 1026              		@ args = 0, pretend = 0, frame = 0
 1027              		@ frame_needed = 0, uses_anonymous_args = 0
 1028              	.LVL123:
 1029 0000 38B5     		push	{r3, r4, r5, lr}
 1030              	.LCFI11:
 1031              		.cfi_def_cfa_offset 16
 1032              		.loc 1 483 0
 1033 0002 124B     		ldr	r3, .L69
 1034              		.cfi_offset 14, -4
 1035              		.cfi_offset 5, -8
 1036              		.cfi_offset 4, -12
 1037              		.cfi_offset 3, -16
 1038              		.loc 1 482 0
 1039 0004 0446     		mov	r4, r0
 1040              		.loc 1 483 0
 1041 0006 DD69     		ldr	r5, [r3, #28]
 1042              	.LVL124:
 1043              	.LBB30:
 1044              		.loc 1 485 0
 1045 0008 2023     		movs	r3, #32
 1046              	.LVL125:
 1047              	@ 485 "../libs/ChibiOS_2.4.0/os/kernel/src/chevents.c" 1
 1048 000a 83F31188 		msr     BASEPRI, r3
 1049              	@ 0 "" 2
 1050              	.LVL126:
 1051              		.thumb
 1052              	.LBE30:
 1053              		.loc 1 487 0
 1054 000e AB6B     		ldr	r3, [r5, #56]
 1055              	.LVL127:
 1056 0010 1840     		ands	r0, r0, r3
 1057              	.LVL128:
 1058 0012 A042     		cmp	r0, r4
 1059 0014 0DD0     		beq	.L65
 1060              		.loc 1 488 0
 1061 0016 29B9     		cbnz	r1, .L66
 1062              	.LBB31:
 1063              		.loc 1 489 0
ARM GAS  /tmp/ccisXRBZ.s 			page 20


 1064 0018 0B46     		mov	r3, r1
 1065              	.LVL129:
 1066              	@ 489 "../libs/ChibiOS_2.4.0/os/kernel/src/chevents.c" 1
 1067 001a 83F31188 		msr     BASEPRI, r3
 1068              	@ 0 "" 2
 1069              	.LVL130:
 1070              		.thumb
 1071              	.LBE31:
 1072              		.loc 1 490 0
 1073 001e 0C46     		mov	r4, r1
 1074              	.LVL131:
 1075              		.loc 1 502 0
 1076 0020 2046     		mov	r0, r4
 1077 0022 38BD     		pop	{r3, r4, r5, pc}
 1078              	.LVL132:
 1079              	.L66:
 1080              		.loc 1 493 0
 1081 0024 0920     		movs	r0, #9
 1082              		.loc 1 492 0
 1083 0026 6C62     		str	r4, [r5, #36]
 1084              		.loc 1 493 0
 1085 0028 FFF7FEFF 		bl	chSchGoSleepTimeoutS
 1086              	.LVL133:
 1087 002c 0028     		cmp	r0, #0
 1088 002e 08DB     		blt	.L68
 1089 0030 AB6B     		ldr	r3, [r5, #56]
 1090              	.L65:
 1091              		.loc 1 498 0
 1092 0032 23EA0401 		bic	r1, r3, r4
 1093 0036 A963     		str	r1, [r5, #56]
 1094              	.LBB32:
 1095              		.loc 1 500 0
 1096 0038 0023     		movs	r3, #0
 1097              	.LVL134:
 1098              	@ 500 "../libs/ChibiOS_2.4.0/os/kernel/src/chevents.c" 1
 1099 003a 83F31188 		msr     BASEPRI, r3
 1100              	@ 0 "" 2
 1101              	.LVL135:
 1102              		.thumb
 1103              	.L67:
 1104              	.LBE32:
 1105              		.loc 1 502 0
 1106 003e 2046     		mov	r0, r4
 1107 0040 38BD     		pop	{r3, r4, r5, pc}
 1108              	.LVL136:
 1109              	.L68:
 1110              	.LBB33:
 1111              		.loc 1 494 0
 1112 0042 0023     		movs	r3, #0
 1113              	@ 494 "../libs/ChibiOS_2.4.0/os/kernel/src/chevents.c" 1
 1114 0044 83F31188 		msr     BASEPRI, r3
 1115              	@ 0 "" 2
 1116              	.LVL137:
 1117              		.thumb
 1118              	.LBE33:
 1119              		.loc 1 495 0
 1120 0048 1C46     		mov	r4, r3
ARM GAS  /tmp/ccisXRBZ.s 			page 21


 1121              	.LVL138:
 1122 004a F8E7     		b	.L67
 1123              	.L70:
 1124              		.align	2
 1125              	.L69:
 1126 004c 00000000 		.word	rlist
 1127              		.cfi_endproc
 1128              	.LFE21:
 1129              		.size	chEvtWaitAllTimeout, .-chEvtWaitAllTimeout
 1130              		.text
 1131              	.Letext0:
 1132              		.section	.debug_loc,"",%progbits
 1133              	.Ldebug_loc0:
 1134              	.LLST0:
 1135 0000 00000000 		.4byte	.LFB7
 1136 0004 02000000 		.4byte	.LCFI0
 1137 0008 0200     		.2byte	0x2
 1138 000a 7D       		.byte	0x7d
 1139 000b 00       		.sleb128 0
 1140 000c 02000000 		.4byte	.LCFI0
 1141 0010 24000000 		.4byte	.LFE7
 1142 0014 0200     		.2byte	0x2
 1143 0016 7D       		.byte	0x7d
 1144 0017 04       		.sleb128 4
 1145 0018 00000000 		.4byte	0x0
 1146 001c 00000000 		.4byte	0x0
 1147              	.LLST1:
 1148 0020 08000000 		.4byte	.LVL2
 1149 0024 0C000000 		.4byte	.LVL3
 1150 0028 0100     		.2byte	0x1
 1151 002a 53       		.byte	0x53
 1152 002b 00000000 		.4byte	0x0
 1153 002f 00000000 		.4byte	0x0
 1154              	.LLST2:
 1155 0033 1C000000 		.4byte	.LVL5
 1156 0037 24000000 		.4byte	.LFE7
 1157 003b 0100     		.2byte	0x1
 1158 003d 53       		.byte	0x53
 1159 003e 00000000 		.4byte	0x0
 1160 0042 00000000 		.4byte	0x0
 1161              	.LLST3:
 1162 0046 00000000 		.4byte	.LVL6
 1163 004a 0A000000 		.4byte	.LVL9
 1164 004e 0100     		.2byte	0x1
 1165 0050 50       		.byte	0x50
 1166 0051 0A000000 		.4byte	.LVL9
 1167 0055 10000000 		.4byte	.LVL10
 1168 0059 0100     		.2byte	0x1
 1169 005b 52       		.byte	0x52
 1170 005c 10000000 		.4byte	.LVL10
 1171 0060 2A000000 		.4byte	.LFE8
 1172 0064 0100     		.2byte	0x1
 1173 0066 52       		.byte	0x52
 1174 0067 00000000 		.4byte	0x0
 1175 006b 00000000 		.4byte	0x0
 1176              	.LLST4:
 1177 006f 06000000 		.4byte	.LVL8
ARM GAS  /tmp/ccisXRBZ.s 			page 22


 1178 0073 0A000000 		.4byte	.LVL9
 1179 0077 0100     		.2byte	0x1
 1180 0079 53       		.byte	0x53
 1181 007a 10000000 		.4byte	.LVL10
 1182 007e 12000000 		.4byte	.LVL11
 1183 0082 0100     		.2byte	0x1
 1184 0084 53       		.byte	0x53
 1185 0085 00000000 		.4byte	0x0
 1186 0089 00000000 		.4byte	0x0
 1187              	.LLST5:
 1188 008d 1C000000 		.4byte	.LVL13
 1189 0091 1E000000 		.4byte	.LVL14
 1190 0095 0100     		.2byte	0x1
 1191 0097 53       		.byte	0x53
 1192 0098 28000000 		.4byte	.LVL15
 1193 009c 2A000000 		.4byte	.LFE8
 1194 00a0 0100     		.2byte	0x1
 1195 00a2 53       		.byte	0x53
 1196 00a3 00000000 		.4byte	0x0
 1197 00a7 00000000 		.4byte	0x0
 1198              	.LLST6:
 1199 00ab 00000000 		.4byte	.LVL16
 1200 00af 1A000000 		.4byte	.LVL23
 1201 00b3 0100     		.2byte	0x1
 1202 00b5 50       		.byte	0x50
 1203 00b6 00000000 		.4byte	0x0
 1204 00ba 00000000 		.4byte	0x0
 1205              	.LLST7:
 1206 00be 0C000000 		.4byte	.LVL20
 1207 00c2 1A000000 		.4byte	.LVL23
 1208 00c6 0600     		.2byte	0x6
 1209 00c8 70       		.byte	0x70
 1210 00c9 00       		.sleb128 0
 1211 00ca 72       		.byte	0x72
 1212 00cb 00       		.sleb128 0
 1213 00cc 1A       		.byte	0x1a
 1214 00cd 9F       		.byte	0x9f
 1215 00ce 1A000000 		.4byte	.LVL23
 1216 00d2 20000000 		.4byte	.LFE9
 1217 00d6 0100     		.2byte	0x1
 1218 00d8 50       		.byte	0x50
 1219 00d9 00000000 		.4byte	0x0
 1220 00dd 00000000 		.4byte	0x0
 1221              	.LLST8:
 1222 00e1 06000000 		.4byte	.LVL18
 1223 00e5 0A000000 		.4byte	.LVL19
 1224 00e9 0100     		.2byte	0x1
 1225 00eb 53       		.byte	0x53
 1226 00ec 00000000 		.4byte	0x0
 1227 00f0 00000000 		.4byte	0x0
 1228              	.LLST9:
 1229 00f4 18000000 		.4byte	.LVL22
 1230 00f8 20000000 		.4byte	.LFE9
 1231 00fc 0100     		.2byte	0x1
 1232 00fe 53       		.byte	0x53
 1233 00ff 00000000 		.4byte	0x0
 1234 0103 00000000 		.4byte	0x0
ARM GAS  /tmp/ccisXRBZ.s 			page 23


 1235              	.LLST10:
 1236 0107 00000000 		.4byte	.LVL24
 1237 010b 0E000000 		.4byte	.LVL28
 1238 010f 0100     		.2byte	0x1
 1239 0111 50       		.byte	0x50
 1240 0112 10000000 		.4byte	.LVL29
 1241 0116 1C000000 		.4byte	.LFE10
 1242 011a 0100     		.2byte	0x1
 1243 011c 50       		.byte	0x50
 1244 011d 00000000 		.4byte	0x0
 1245 0121 00000000 		.4byte	0x0
 1246              	.LLST11:
 1247 0125 06000000 		.4byte	.LVL26
 1248 0129 0A000000 		.4byte	.LVL27
 1249 012d 0100     		.2byte	0x1
 1250 012f 53       		.byte	0x53
 1251 0130 00000000 		.4byte	0x0
 1252 0134 00000000 		.4byte	0x0
 1253              	.LLST12:
 1254 0138 16000000 		.4byte	.LVL31
 1255 013c 1C000000 		.4byte	.LFE10
 1256 0140 0100     		.2byte	0x1
 1257 0142 53       		.byte	0x53
 1258 0143 00000000 		.4byte	0x0
 1259 0147 00000000 		.4byte	0x0
 1260              	.LLST13:
 1261 014b 00000000 		.4byte	.LFB12
 1262 014f 02000000 		.4byte	.LCFI1
 1263 0153 0200     		.2byte	0x2
 1264 0155 7D       		.byte	0x7d
 1265 0156 00       		.sleb128 0
 1266 0157 02000000 		.4byte	.LCFI1
 1267 015b 32000000 		.4byte	.LFE12
 1268 015f 0200     		.2byte	0x2
 1269 0161 7D       		.byte	0x7d
 1270 0162 08       		.sleb128 8
 1271 0163 00000000 		.4byte	0x0
 1272 0167 00000000 		.4byte	0x0
 1273              	.LLST14:
 1274 016b 00000000 		.4byte	.LVL32
 1275 016f 23000000 		.4byte	.LVL36-1
 1276 0173 0100     		.2byte	0x1
 1277 0175 50       		.byte	0x50
 1278 0176 2A000000 		.4byte	.LVL37
 1279 017a 32000000 		.4byte	.LFE12
 1280 017e 0100     		.2byte	0x1
 1281 0180 50       		.byte	0x50
 1282 0181 00000000 		.4byte	0x0
 1283 0185 00000000 		.4byte	0x0
 1284              	.LLST15:
 1285 0189 00000000 		.4byte	.LVL32
 1286 018d 14000000 		.4byte	.LVL33
 1287 0191 0100     		.2byte	0x1
 1288 0193 51       		.byte	0x51
 1289 0194 16000000 		.4byte	.LVL34
 1290 0198 1C000000 		.4byte	.LVL35
 1291 019c 0100     		.2byte	0x1
ARM GAS  /tmp/ccisXRBZ.s 			page 24


 1292 019e 51       		.byte	0x51
 1293 019f 2A000000 		.4byte	.LVL37
 1294 01a3 32000000 		.4byte	.LFE12
 1295 01a7 0100     		.2byte	0x1
 1296 01a9 51       		.byte	0x51
 1297 01aa 00000000 		.4byte	0x0
 1298 01ae 00000000 		.4byte	0x0
 1299              	.LLST16:
 1300 01b2 00000000 		.4byte	.LFB11
 1301 01b6 02000000 		.4byte	.LCFI2
 1302 01ba 0200     		.2byte	0x2
 1303 01bc 7D       		.byte	0x7d
 1304 01bd 00       		.sleb128 0
 1305 01be 02000000 		.4byte	.LCFI2
 1306 01c2 18000000 		.4byte	.LFE11
 1307 01c6 0200     		.2byte	0x2
 1308 01c8 7D       		.byte	0x7d
 1309 01c9 08       		.sleb128 8
 1310 01ca 00000000 		.4byte	0x0
 1311 01ce 00000000 		.4byte	0x0
 1312              	.LLST17:
 1313 01d2 00000000 		.4byte	.LVL38
 1314 01d6 0B000000 		.4byte	.LVL41-1
 1315 01da 0100     		.2byte	0x1
 1316 01dc 50       		.byte	0x50
 1317 01dd 00000000 		.4byte	0x0
 1318 01e1 00000000 		.4byte	0x0
 1319              	.LLST18:
 1320 01e5 00000000 		.4byte	.LVL38
 1321 01e9 0B000000 		.4byte	.LVL41-1
 1322 01ed 0100     		.2byte	0x1
 1323 01ef 51       		.byte	0x51
 1324 01f0 00000000 		.4byte	0x0
 1325 01f4 00000000 		.4byte	0x0
 1326              	.LLST19:
 1327 01f8 08000000 		.4byte	.LVL40
 1328 01fc 0B000000 		.4byte	.LVL41-1
 1329 0200 0100     		.2byte	0x1
 1330 0202 53       		.byte	0x53
 1331 0203 00000000 		.4byte	0x0
 1332 0207 00000000 		.4byte	0x0
 1333              	.LLST20:
 1334 020b 16000000 		.4byte	.LVL43
 1335 020f 18000000 		.4byte	.LFE11
 1336 0213 0100     		.2byte	0x1
 1337 0215 53       		.byte	0x53
 1338 0216 00000000 		.4byte	0x0
 1339 021a 00000000 		.4byte	0x0
 1340              	.LLST21:
 1341 021e 00000000 		.4byte	.LFB14
 1342 0222 02000000 		.4byte	.LCFI3
 1343 0226 0200     		.2byte	0x2
 1344 0228 7D       		.byte	0x7d
 1345 0229 00       		.sleb128 0
 1346 022a 02000000 		.4byte	.LCFI3
 1347 022e 20000000 		.4byte	.LFE14
 1348 0232 0200     		.2byte	0x2
ARM GAS  /tmp/ccisXRBZ.s 			page 25


 1349 0234 7D       		.byte	0x7d
 1350 0235 10       		.sleb128 16
 1351 0236 00000000 		.4byte	0x0
 1352 023a 00000000 		.4byte	0x0
 1353              	.LLST22:
 1354 023e 00000000 		.4byte	.LVL44
 1355 0242 0C000000 		.4byte	.LVL46
 1356 0246 0100     		.2byte	0x1
 1357 0248 50       		.byte	0x50
 1358 0249 0C000000 		.4byte	.LVL46
 1359 024d 20000000 		.4byte	.LFE14
 1360 0251 0100     		.2byte	0x1
 1361 0253 55       		.byte	0x55
 1362 0254 00000000 		.4byte	0x0
 1363 0258 00000000 		.4byte	0x0
 1364              	.LLST23:
 1365 025c 00000000 		.4byte	.LVL44
 1366 0260 0C000000 		.4byte	.LVL46
 1367 0264 0100     		.2byte	0x1
 1368 0266 51       		.byte	0x51
 1369 0267 0C000000 		.4byte	.LVL46
 1370 026b 20000000 		.4byte	.LFE14
 1371 026f 0100     		.2byte	0x1
 1372 0271 56       		.byte	0x56
 1373 0272 00000000 		.4byte	0x0
 1374 0276 00000000 		.4byte	0x0
 1375              	.LLST24:
 1376 027a 04000000 		.4byte	.LVL45
 1377 027e 0C000000 		.4byte	.LVL46
 1378 0282 0200     		.2byte	0x2
 1379 0284 70       		.byte	0x70
 1380 0285 00       		.sleb128 0
 1381 0286 0C000000 		.4byte	.LVL46
 1382 028a 1A000000 		.4byte	.LVL47
 1383 028e 0100     		.2byte	0x1
 1384 0290 54       		.byte	0x54
 1385 0291 1A000000 		.4byte	.LVL47
 1386 0295 20000000 		.4byte	.LFE14
 1387 0299 0100     		.2byte	0x1
 1388 029b 54       		.byte	0x54
 1389 029c 00000000 		.4byte	0x0
 1390 02a0 00000000 		.4byte	0x0
 1391              	.LLST25:
 1392 02a4 00000000 		.4byte	.LFB13
 1393 02a8 02000000 		.4byte	.LCFI4
 1394 02ac 0200     		.2byte	0x2
 1395 02ae 7D       		.byte	0x7d
 1396 02af 00       		.sleb128 0
 1397 02b0 02000000 		.4byte	.LCFI4
 1398 02b4 18000000 		.4byte	.LFE13
 1399 02b8 0200     		.2byte	0x2
 1400 02ba 7D       		.byte	0x7d
 1401 02bb 08       		.sleb128 8
 1402 02bc 00000000 		.4byte	0x0
 1403 02c0 00000000 		.4byte	0x0
 1404              	.LLST26:
 1405 02c4 00000000 		.4byte	.LVL48
ARM GAS  /tmp/ccisXRBZ.s 			page 26


 1406 02c8 0B000000 		.4byte	.LVL51-1
 1407 02cc 0100     		.2byte	0x1
 1408 02ce 50       		.byte	0x50
 1409 02cf 00000000 		.4byte	0x0
 1410 02d3 00000000 		.4byte	0x0
 1411              	.LLST27:
 1412 02d7 00000000 		.4byte	.LVL48
 1413 02db 0B000000 		.4byte	.LVL51-1
 1414 02df 0100     		.2byte	0x1
 1415 02e1 51       		.byte	0x51
 1416 02e2 00000000 		.4byte	0x0
 1417 02e6 00000000 		.4byte	0x0
 1418              	.LLST28:
 1419 02ea 08000000 		.4byte	.LVL50
 1420 02ee 0B000000 		.4byte	.LVL51-1
 1421 02f2 0100     		.2byte	0x1
 1422 02f4 53       		.byte	0x53
 1423 02f5 00000000 		.4byte	0x0
 1424 02f9 00000000 		.4byte	0x0
 1425              	.LLST29:
 1426 02fd 16000000 		.4byte	.LVL53
 1427 0301 18000000 		.4byte	.LFE13
 1428 0305 0100     		.2byte	0x1
 1429 0307 53       		.byte	0x53
 1430 0308 00000000 		.4byte	0x0
 1431 030c 00000000 		.4byte	0x0
 1432              	.LLST30:
 1433 0310 00000000 		.4byte	.LFB15
 1434 0314 02000000 		.4byte	.LCFI5
 1435 0318 0200     		.2byte	0x2
 1436 031a 7D       		.byte	0x7d
 1437 031b 00       		.sleb128 0
 1438 031c 02000000 		.4byte	.LCFI5
 1439 0320 32000000 		.4byte	.LFE15
 1440 0324 0200     		.2byte	0x2
 1441 0326 7D       		.byte	0x7d
 1442 0327 18       		.sleb128 24
 1443 0328 00000000 		.4byte	0x0
 1444 032c 00000000 		.4byte	0x0
 1445              	.LLST31:
 1446 0330 00000000 		.4byte	.LVL54
 1447 0334 14000000 		.4byte	.LVL55
 1448 0338 0100     		.2byte	0x1
 1449 033a 50       		.byte	0x50
 1450 033b 14000000 		.4byte	.LVL55
 1451 033f 32000000 		.4byte	.LFE15
 1452 0343 0100     		.2byte	0x1
 1453 0345 57       		.byte	0x57
 1454 0346 00000000 		.4byte	0x0
 1455 034a 00000000 		.4byte	0x0
 1456              	.LLST32:
 1457 034e 00000000 		.4byte	.LVL54
 1458 0352 14000000 		.4byte	.LVL55
 1459 0356 0100     		.2byte	0x1
 1460 0358 51       		.byte	0x51
 1461 0359 14000000 		.4byte	.LVL55
 1462 035d 24000000 		.4byte	.LVL57
ARM GAS  /tmp/ccisXRBZ.s 			page 27


 1463 0361 0100     		.2byte	0x1
 1464 0363 55       		.byte	0x55
 1465 0364 24000000 		.4byte	.LVL57
 1466 0368 32000000 		.4byte	.LFE15
 1467 036c 0100     		.2byte	0x1
 1468 036e 55       		.byte	0x55
 1469 036f 00000000 		.4byte	0x0
 1470 0373 00000000 		.4byte	0x0
 1471              	.LLST33:
 1472 0377 00000000 		.4byte	.LVL54
 1473 037b 14000000 		.4byte	.LVL55
 1474 037f 0200     		.2byte	0x2
 1475 0381 30       		.byte	0x30
 1476 0382 9F       		.byte	0x9f
 1477 0383 14000000 		.4byte	.LVL55
 1478 0387 16000000 		.4byte	.LVL56
 1479 038b 0300     		.2byte	0x3
 1480 038d 74       		.byte	0x74
 1481 038e 01       		.sleb128 1
 1482 038f 9F       		.byte	0x9f
 1483 0390 2C000000 		.4byte	.LVL58
 1484 0394 30000000 		.4byte	.LVL59
 1485 0398 0300     		.2byte	0x3
 1486 039a 74       		.byte	0x74
 1487 039b 01       		.sleb128 1
 1488 039c 9F       		.byte	0x9f
 1489 039d 00000000 		.4byte	0x0
 1490 03a1 00000000 		.4byte	0x0
 1491              	.LLST34:
 1492 03a5 00000000 		.4byte	.LFB16
 1493 03a9 02000000 		.4byte	.LCFI6
 1494 03ad 0200     		.2byte	0x2
 1495 03af 7D       		.byte	0x7d
 1496 03b0 00       		.sleb128 0
 1497 03b1 02000000 		.4byte	.LCFI6
 1498 03b5 3C000000 		.4byte	.LFE16
 1499 03b9 0200     		.2byte	0x2
 1500 03bb 7D       		.byte	0x7d
 1501 03bc 10       		.sleb128 16
 1502 03bd 00000000 		.4byte	0x0
 1503 03c1 00000000 		.4byte	0x0
 1504              	.LLST35:
 1505 03c5 00000000 		.4byte	.LVL60
 1506 03c9 1A000000 		.4byte	.LVL65
 1507 03cd 0100     		.2byte	0x1
 1508 03cf 50       		.byte	0x50
 1509 03d0 1A000000 		.4byte	.LVL65
 1510 03d4 3C000000 		.4byte	.LFE16
 1511 03d8 0100     		.2byte	0x1
 1512 03da 55       		.byte	0x55
 1513 03db 00000000 		.4byte	0x0
 1514 03df 00000000 		.4byte	0x0
 1515              	.LLST36:
 1516 03e3 08000000 		.4byte	.LVL61
 1517 03e7 0A000000 		.4byte	.LVL62
 1518 03eb 0200     		.2byte	0x2
 1519 03ed 73       		.byte	0x73
ARM GAS  /tmp/ccisXRBZ.s 			page 28


 1520 03ee 1C       		.sleb128 28
 1521 03ef 1D000000 		.4byte	.LVL66-1
 1522 03f3 3C000000 		.4byte	.LFE16
 1523 03f7 0100     		.2byte	0x1
 1524 03f9 54       		.byte	0x54
 1525 03fa 00000000 		.4byte	0x0
 1526 03fe 00000000 		.4byte	0x0
 1527              	.LLST37:
 1528 0402 10000000 		.4byte	.LVL64
 1529 0406 1A000000 		.4byte	.LVL65
 1530 040a 0600     		.2byte	0x6
 1531 040c 70       		.byte	0x70
 1532 040d 00       		.sleb128 0
 1533 040e 73       		.byte	0x73
 1534 040f 00       		.sleb128 0
 1535 0410 1A       		.byte	0x1a
 1536 0411 9F       		.byte	0x9f
 1537 0412 1A000000 		.4byte	.LVL65
 1538 0416 1D000000 		.4byte	.LVL66-1
 1539 041a 0600     		.2byte	0x6
 1540 041c 75       		.byte	0x75
 1541 041d 00       		.sleb128 0
 1542 041e 73       		.byte	0x73
 1543 041f 00       		.sleb128 0
 1544 0420 1A       		.byte	0x1a
 1545 0421 9F       		.byte	0x9f
 1546 0422 24000000 		.4byte	.LVL67
 1547 0426 28000000 		.4byte	.LVL68
 1548 042a 0100     		.2byte	0x1
 1549 042c 52       		.byte	0x52
 1550 042d 28000000 		.4byte	.LVL68
 1551 0431 3C000000 		.4byte	.LFE16
 1552 0435 0100     		.2byte	0x1
 1553 0437 50       		.byte	0x50
 1554 0438 00000000 		.4byte	0x0
 1555 043c 00000000 		.4byte	0x0
 1556              	.LLST38:
 1557 0440 0E000000 		.4byte	.LVL63
 1558 0444 10000000 		.4byte	.LVL64
 1559 0448 0100     		.2byte	0x1
 1560 044a 53       		.byte	0x53
 1561 044b 00000000 		.4byte	0x0
 1562 044f 00000000 		.4byte	0x0
 1563              	.LLST39:
 1564 0453 34000000 		.4byte	.LVL70
 1565 0457 3C000000 		.4byte	.LFE16
 1566 045b 0100     		.2byte	0x1
 1567 045d 53       		.byte	0x53
 1568 045e 00000000 		.4byte	0x0
 1569 0462 00000000 		.4byte	0x0
 1570              	.LLST40:
 1571 0466 00000000 		.4byte	.LFB17
 1572 046a 02000000 		.4byte	.LCFI7
 1573 046e 0200     		.2byte	0x2
 1574 0470 7D       		.byte	0x7d
 1575 0471 00       		.sleb128 0
 1576 0472 02000000 		.4byte	.LCFI7
ARM GAS  /tmp/ccisXRBZ.s 			page 29


 1577 0476 34000000 		.4byte	.LFE17
 1578 047a 0200     		.2byte	0x2
 1579 047c 7D       		.byte	0x7d
 1580 047d 10       		.sleb128 16
 1581 047e 00000000 		.4byte	0x0
 1582 0482 00000000 		.4byte	0x0
 1583              	.LLST41:
 1584 0486 00000000 		.4byte	.LVL71
 1585 048a 12000000 		.4byte	.LVL76
 1586 048e 0100     		.2byte	0x1
 1587 0490 50       		.byte	0x50
 1588 0491 12000000 		.4byte	.LVL76
 1589 0495 34000000 		.4byte	.LFE17
 1590 0499 0100     		.2byte	0x1
 1591 049b 55       		.byte	0x55
 1592 049c 00000000 		.4byte	0x0
 1593 04a0 00000000 		.4byte	0x0
 1594              	.LLST42:
 1595 04a4 08000000 		.4byte	.LVL72
 1596 04a8 0A000000 		.4byte	.LVL73
 1597 04ac 0200     		.2byte	0x2
 1598 04ae 73       		.byte	0x73
 1599 04af 1C       		.sleb128 28
 1600 04b0 1B000000 		.4byte	.LVL77-1
 1601 04b4 34000000 		.4byte	.LFE17
 1602 04b8 0100     		.2byte	0x1
 1603 04ba 54       		.byte	0x54
 1604 04bb 00000000 		.4byte	0x0
 1605 04bf 00000000 		.4byte	0x0
 1606              	.LLST43:
 1607 04c3 10000000 		.4byte	.LVL75
 1608 04c7 12000000 		.4byte	.LVL76
 1609 04cb 0600     		.2byte	0x6
 1610 04cd 70       		.byte	0x70
 1611 04ce 00       		.sleb128 0
 1612 04cf 73       		.byte	0x73
 1613 04d0 00       		.sleb128 0
 1614 04d1 1A       		.byte	0x1a
 1615 04d2 9F       		.byte	0x9f
 1616 04d3 12000000 		.4byte	.LVL76
 1617 04d7 1B000000 		.4byte	.LVL77-1
 1618 04db 0600     		.2byte	0x6
 1619 04dd 75       		.byte	0x75
 1620 04de 00       		.sleb128 0
 1621 04df 73       		.byte	0x73
 1622 04e0 00       		.sleb128 0
 1623 04e1 1A       		.byte	0x1a
 1624 04e2 9F       		.byte	0x9f
 1625 04e3 22000000 		.4byte	.LVL78
 1626 04e7 34000000 		.4byte	.LFE17
 1627 04eb 0100     		.2byte	0x1
 1628 04ed 50       		.byte	0x50
 1629 04ee 00000000 		.4byte	0x0
 1630 04f2 00000000 		.4byte	0x0
 1631              	.LLST44:
 1632 04f6 0E000000 		.4byte	.LVL74
 1633 04fa 10000000 		.4byte	.LVL75
ARM GAS  /tmp/ccisXRBZ.s 			page 30


 1634 04fe 0100     		.2byte	0x1
 1635 0500 53       		.byte	0x53
 1636 0501 00000000 		.4byte	0x0
 1637 0505 00000000 		.4byte	0x0
 1638              	.LLST45:
 1639 0509 2E000000 		.4byte	.LVL80
 1640 050d 34000000 		.4byte	.LFE17
 1641 0511 0100     		.2byte	0x1
 1642 0513 53       		.byte	0x53
 1643 0514 00000000 		.4byte	0x0
 1644 0518 00000000 		.4byte	0x0
 1645              	.LLST46:
 1646 051c 00000000 		.4byte	.LFB18
 1647 0520 02000000 		.4byte	.LCFI8
 1648 0524 0200     		.2byte	0x2
 1649 0526 7D       		.byte	0x7d
 1650 0527 00       		.sleb128 0
 1651 0528 02000000 		.4byte	.LCFI8
 1652 052c 38000000 		.4byte	.LFE18
 1653 0530 0200     		.2byte	0x2
 1654 0532 7D       		.byte	0x7d
 1655 0533 10       		.sleb128 16
 1656 0534 00000000 		.4byte	0x0
 1657 0538 00000000 		.4byte	0x0
 1658              	.LLST47:
 1659 053c 00000000 		.4byte	.LVL81
 1660 0540 1C000000 		.4byte	.LVL86
 1661 0544 0100     		.2byte	0x1
 1662 0546 50       		.byte	0x50
 1663 0547 1C000000 		.4byte	.LVL86
 1664 054b 38000000 		.4byte	.LFE18
 1665 054f 0100     		.2byte	0x1
 1666 0551 54       		.byte	0x54
 1667 0552 00000000 		.4byte	0x0
 1668 0556 00000000 		.4byte	0x0
 1669              	.LLST48:
 1670 055a 08000000 		.4byte	.LVL82
 1671 055e 0A000000 		.4byte	.LVL83
 1672 0562 0200     		.2byte	0x2
 1673 0564 73       		.byte	0x73
 1674 0565 1C       		.sleb128 28
 1675 0566 1F000000 		.4byte	.LVL87-1
 1676 056a 38000000 		.4byte	.LFE18
 1677 056e 0100     		.2byte	0x1
 1678 0570 55       		.byte	0x55
 1679 0571 00000000 		.4byte	0x0
 1680 0575 00000000 		.4byte	0x0
 1681              	.LLST49:
 1682 0579 0E000000 		.4byte	.LVL84
 1683 057d 10000000 		.4byte	.LVL85
 1684 0581 0100     		.2byte	0x1
 1685 0583 53       		.byte	0x53
 1686 0584 00000000 		.4byte	0x0
 1687 0588 00000000 		.4byte	0x0
 1688              	.LLST50:
 1689 058c 2E000000 		.4byte	.LVL89
 1690 0590 38000000 		.4byte	.LFE18
ARM GAS  /tmp/ccisXRBZ.s 			page 31


 1691 0594 0100     		.2byte	0x1
 1692 0596 53       		.byte	0x53
 1693 0597 00000000 		.4byte	0x0
 1694 059b 00000000 		.4byte	0x0
 1695              	.LLST51:
 1696 059f 00000000 		.4byte	.LFB19
 1697 05a3 04000000 		.4byte	.LCFI9
 1698 05a7 0200     		.2byte	0x2
 1699 05a9 7D       		.byte	0x7d
 1700 05aa 00       		.sleb128 0
 1701 05ab 04000000 		.4byte	.LCFI9
 1702 05af 54000000 		.4byte	.LFE19
 1703 05b3 0200     		.2byte	0x2
 1704 05b5 7D       		.byte	0x7d
 1705 05b6 10       		.sleb128 16
 1706 05b7 00000000 		.4byte	0x0
 1707 05bb 00000000 		.4byte	0x0
 1708              	.LLST52:
 1709 05bf 00000000 		.4byte	.LVL90
 1710 05c3 16000000 		.4byte	.LVL95
 1711 05c7 0100     		.2byte	0x1
 1712 05c9 50       		.byte	0x50
 1713 05ca 20000000 		.4byte	.LVL98
 1714 05ce 54000000 		.4byte	.LFE19
 1715 05d2 0100     		.2byte	0x1
 1716 05d4 55       		.byte	0x55
 1717 05d5 00000000 		.4byte	0x0
 1718 05d9 00000000 		.4byte	0x0
 1719              	.LLST53:
 1720 05dd 00000000 		.4byte	.LVL90
 1721 05e1 29000000 		.4byte	.LVL100-1
 1722 05e5 0100     		.2byte	0x1
 1723 05e7 51       		.byte	0x51
 1724 05e8 00000000 		.4byte	0x0
 1725 05ec 00000000 		.4byte	0x0
 1726              	.LLST54:
 1727 05f0 06000000 		.4byte	.LVL91
 1728 05f4 0A000000 		.4byte	.LVL92
 1729 05f8 0200     		.2byte	0x2
 1730 05fa 73       		.byte	0x73
 1731 05fb 1C       		.sleb128 28
 1732 05fc 29000000 		.4byte	.LVL100-1
 1733 0600 54000000 		.4byte	.LFE19
 1734 0604 0100     		.2byte	0x1
 1735 0606 56       		.byte	0x56
 1736 0607 00000000 		.4byte	0x0
 1737 060b 00000000 		.4byte	0x0
 1738              	.LLST55:
 1739 060f 10000000 		.4byte	.LVL94
 1740 0613 1A000000 		.4byte	.LVL96
 1741 0617 0600     		.2byte	0x6
 1742 0619 70       		.byte	0x70
 1743 061a 00       		.sleb128 0
 1744 061b 73       		.byte	0x73
 1745 061c 00       		.sleb128 0
 1746 061d 1A       		.byte	0x1a
 1747 061e 9F       		.byte	0x9f
ARM GAS  /tmp/ccisXRBZ.s 			page 32


 1748 061f 1A000000 		.4byte	.LVL96
 1749 0623 22000000 		.4byte	.LVL99
 1750 0627 0100     		.2byte	0x1
 1751 0629 53       		.byte	0x53
 1752 062a 22000000 		.4byte	.LVL99
 1753 062e 34000000 		.4byte	.LVL101
 1754 0632 0100     		.2byte	0x1
 1755 0634 54       		.byte	0x54
 1756 0635 34000000 		.4byte	.LVL101
 1757 0639 38000000 		.4byte	.LVL102
 1758 063d 0100     		.2byte	0x1
 1759 063f 54       		.byte	0x54
 1760 0640 38000000 		.4byte	.LVL102
 1761 0644 54000000 		.4byte	.LFE19
 1762 0648 0100     		.2byte	0x1
 1763 064a 54       		.byte	0x54
 1764 064b 00000000 		.4byte	0x0
 1765 064f 00000000 		.4byte	0x0
 1766              	.LLST56:
 1767 0653 0E000000 		.4byte	.LVL93
 1768 0657 10000000 		.4byte	.LVL94
 1769 065b 0100     		.2byte	0x1
 1770 065d 53       		.byte	0x53
 1771 065e 00000000 		.4byte	0x0
 1772 0662 00000000 		.4byte	0x0
 1773              	.LLST57:
 1774 0666 1E000000 		.4byte	.LVL97
 1775 066a 22000000 		.4byte	.LVL99
 1776 066e 0100     		.2byte	0x1
 1777 0670 53       		.byte	0x53
 1778 0671 00000000 		.4byte	0x0
 1779 0675 00000000 		.4byte	0x0
 1780              	.LLST58:
 1781 0679 44000000 		.4byte	.LVL104
 1782 067d 48000000 		.4byte	.LVL105
 1783 0681 0100     		.2byte	0x1
 1784 0683 53       		.byte	0x53
 1785 0684 00000000 		.4byte	0x0
 1786 0688 00000000 		.4byte	0x0
 1787              	.LLST59:
 1788 068c 44000000 		.4byte	.LVL104
 1789 0690 48000000 		.4byte	.LVL105
 1790 0694 0100     		.2byte	0x1
 1791 0696 53       		.byte	0x53
 1792 0697 4E000000 		.4byte	.LVL106
 1793 069b 54000000 		.4byte	.LFE19
 1794 069f 0100     		.2byte	0x1
 1795 06a1 53       		.byte	0x53
 1796 06a2 00000000 		.4byte	0x0
 1797 06a6 00000000 		.4byte	0x0
 1798              	.LLST60:
 1799 06aa 00000000 		.4byte	.LFB20
 1800 06ae 04000000 		.4byte	.LCFI10
 1801 06b2 0200     		.2byte	0x2
 1802 06b4 7D       		.byte	0x7d
 1803 06b5 00       		.sleb128 0
 1804 06b6 04000000 		.4byte	.LCFI10
ARM GAS  /tmp/ccisXRBZ.s 			page 33


 1805 06ba 50000000 		.4byte	.LFE20
 1806 06be 0200     		.2byte	0x2
 1807 06c0 7D       		.byte	0x7d
 1808 06c1 10       		.sleb128 16
 1809 06c2 00000000 		.4byte	0x0
 1810 06c6 00000000 		.4byte	0x0
 1811              	.LLST61:
 1812 06ca 00000000 		.4byte	.LVL107
 1813 06ce 16000000 		.4byte	.LVL112
 1814 06d2 0100     		.2byte	0x1
 1815 06d4 50       		.byte	0x50
 1816 06d5 20000000 		.4byte	.LVL115
 1817 06d9 50000000 		.4byte	.LFE20
 1818 06dd 0100     		.2byte	0x1
 1819 06df 54       		.byte	0x54
 1820 06e0 00000000 		.4byte	0x0
 1821 06e4 00000000 		.4byte	0x0
 1822              	.LLST62:
 1823 06e8 00000000 		.4byte	.LVL107
 1824 06ec 29000000 		.4byte	.LVL117-1
 1825 06f0 0100     		.2byte	0x1
 1826 06f2 51       		.byte	0x51
 1827 06f3 00000000 		.4byte	0x0
 1828 06f7 00000000 		.4byte	0x0
 1829              	.LLST63:
 1830 06fb 06000000 		.4byte	.LVL108
 1831 06ff 0A000000 		.4byte	.LVL109
 1832 0703 0200     		.2byte	0x2
 1833 0705 73       		.byte	0x73
 1834 0706 1C       		.sleb128 28
 1835 0707 29000000 		.4byte	.LVL117-1
 1836 070b 50000000 		.4byte	.LFE20
 1837 070f 0100     		.2byte	0x1
 1838 0711 56       		.byte	0x56
 1839 0712 00000000 		.4byte	0x0
 1840 0716 00000000 		.4byte	0x0
 1841              	.LLST64:
 1842 071a 10000000 		.4byte	.LVL111
 1843 071e 1A000000 		.4byte	.LVL113
 1844 0722 0600     		.2byte	0x6
 1845 0724 70       		.byte	0x70
 1846 0725 00       		.sleb128 0
 1847 0726 73       		.byte	0x73
 1848 0727 00       		.sleb128 0
 1849 0728 1A       		.byte	0x1a
 1850 0729 9F       		.byte	0x9f
 1851 072a 1A000000 		.4byte	.LVL113
 1852 072e 22000000 		.4byte	.LVL116
 1853 0732 0100     		.2byte	0x1
 1854 0734 53       		.byte	0x53
 1855 0735 22000000 		.4byte	.LVL116
 1856 0739 34000000 		.4byte	.LVL118
 1857 073d 0100     		.2byte	0x1
 1858 073f 55       		.byte	0x55
 1859 0740 34000000 		.4byte	.LVL118
 1860 0744 50000000 		.4byte	.LFE20
 1861 0748 0100     		.2byte	0x1
ARM GAS  /tmp/ccisXRBZ.s 			page 34


 1862 074a 55       		.byte	0x55
 1863 074b 00000000 		.4byte	0x0
 1864 074f 00000000 		.4byte	0x0
 1865              	.LLST65:
 1866 0753 0E000000 		.4byte	.LVL110
 1867 0757 10000000 		.4byte	.LVL111
 1868 075b 0100     		.2byte	0x1
 1869 075d 53       		.byte	0x53
 1870 075e 00000000 		.4byte	0x0
 1871 0762 00000000 		.4byte	0x0
 1872              	.LLST66:
 1873 0766 1E000000 		.4byte	.LVL114
 1874 076a 22000000 		.4byte	.LVL116
 1875 076e 0100     		.2byte	0x1
 1876 0770 53       		.byte	0x53
 1877 0771 00000000 		.4byte	0x0
 1878 0775 00000000 		.4byte	0x0
 1879              	.LLST67:
 1880 0779 40000000 		.4byte	.LVL120
 1881 077d 44000000 		.4byte	.LVL121
 1882 0781 0100     		.2byte	0x1
 1883 0783 53       		.byte	0x53
 1884 0784 00000000 		.4byte	0x0
 1885 0788 00000000 		.4byte	0x0
 1886              	.LLST68:
 1887 078c 40000000 		.4byte	.LVL120
 1888 0790 44000000 		.4byte	.LVL121
 1889 0794 0100     		.2byte	0x1
 1890 0796 53       		.byte	0x53
 1891 0797 4A000000 		.4byte	.LVL122
 1892 079b 50000000 		.4byte	.LFE20
 1893 079f 0100     		.2byte	0x1
 1894 07a1 53       		.byte	0x53
 1895 07a2 00000000 		.4byte	0x0
 1896 07a6 00000000 		.4byte	0x0
 1897              	.LLST69:
 1898 07aa 00000000 		.4byte	.LFB21
 1899 07ae 02000000 		.4byte	.LCFI11
 1900 07b2 0200     		.2byte	0x2
 1901 07b4 7D       		.byte	0x7d
 1902 07b5 00       		.sleb128 0
 1903 07b6 02000000 		.4byte	.LCFI11
 1904 07ba 50000000 		.4byte	.LFE21
 1905 07be 0200     		.2byte	0x2
 1906 07c0 7D       		.byte	0x7d
 1907 07c1 10       		.sleb128 16
 1908 07c2 00000000 		.4byte	0x0
 1909 07c6 00000000 		.4byte	0x0
 1910              	.LLST70:
 1911 07ca 00000000 		.4byte	.LVL123
 1912 07ce 12000000 		.4byte	.LVL128
 1913 07d2 0100     		.2byte	0x1
 1914 07d4 50       		.byte	0x50
 1915 07d5 12000000 		.4byte	.LVL128
 1916 07d9 20000000 		.4byte	.LVL131
 1917 07dd 0100     		.2byte	0x1
 1918 07df 54       		.byte	0x54
ARM GAS  /tmp/ccisXRBZ.s 			page 35


 1919 07e0 24000000 		.4byte	.LVL132
 1920 07e4 3E000000 		.4byte	.LVL135
 1921 07e8 0100     		.2byte	0x1
 1922 07ea 54       		.byte	0x54
 1923 07eb 42000000 		.4byte	.LVL136
 1924 07ef 4A000000 		.4byte	.LVL138
 1925 07f3 0100     		.2byte	0x1
 1926 07f5 54       		.byte	0x54
 1927 07f6 00000000 		.4byte	0x0
 1928 07fa 00000000 		.4byte	0x0
 1929              	.LLST71:
 1930 07fe 00000000 		.4byte	.LVL123
 1931 0802 2B000000 		.4byte	.LVL133-1
 1932 0806 0100     		.2byte	0x1
 1933 0808 51       		.byte	0x51
 1934 0809 00000000 		.4byte	0x0
 1935 080d 00000000 		.4byte	0x0
 1936              	.LLST72:
 1937 0811 08000000 		.4byte	.LVL124
 1938 0815 0A000000 		.4byte	.LVL125
 1939 0819 0200     		.2byte	0x2
 1940 081b 73       		.byte	0x73
 1941 081c 1C       		.sleb128 28
 1942 081d 2B000000 		.4byte	.LVL133-1
 1943 0821 50000000 		.4byte	.LFE21
 1944 0825 0100     		.2byte	0x1
 1945 0827 55       		.byte	0x55
 1946 0828 00000000 		.4byte	0x0
 1947 082c 00000000 		.4byte	0x0
 1948              	.LLST73:
 1949 0830 0E000000 		.4byte	.LVL126
 1950 0834 10000000 		.4byte	.LVL127
 1951 0838 0100     		.2byte	0x1
 1952 083a 53       		.byte	0x53
 1953 083b 00000000 		.4byte	0x0
 1954 083f 00000000 		.4byte	0x0
 1955              	.LLST74:
 1956 0843 1E000000 		.4byte	.LVL130
 1957 0847 24000000 		.4byte	.LVL132
 1958 084b 0100     		.2byte	0x1
 1959 084d 53       		.byte	0x53
 1960 084e 00000000 		.4byte	0x0
 1961 0852 00000000 		.4byte	0x0
 1962              	.LLST75:
 1963 0856 3E000000 		.4byte	.LVL135
 1964 085a 42000000 		.4byte	.LVL136
 1965 085e 0100     		.2byte	0x1
 1966 0860 53       		.byte	0x53
 1967 0861 00000000 		.4byte	0x0
 1968 0865 00000000 		.4byte	0x0
 1969              	.LLST76:
 1970 0869 3E000000 		.4byte	.LVL135
 1971 086d 42000000 		.4byte	.LVL136
 1972 0871 0100     		.2byte	0x1
 1973 0873 53       		.byte	0x53
 1974 0874 48000000 		.4byte	.LVL137
 1975 0878 50000000 		.4byte	.LFE21
ARM GAS  /tmp/ccisXRBZ.s 			page 36


 1976 087c 0100     		.2byte	0x1
 1977 087e 53       		.byte	0x53
 1978 087f 00000000 		.4byte	0x0
 1979 0883 00000000 		.4byte	0x0
 1980              		.file 2 "/opt/stm32/arm-none-eabi-2011.03/bin/../lib/gcc/arm-none-eabi/4.5.2/../../../../arm-none-
 1981              		.file 3 "../libs/ChibiOS_2.4.0/os/ports/GCC/ARMCMx/chtypes.h"
 1982              		.file 4 "../libs/ChibiOS_2.4.0/os/kernel/include/chlists.h"
 1983              		.file 5 "../libs/ChibiOS_2.4.0/os/kernel/include/chthreads.h"
 1984              		.file 6 "../libs/ChibiOS_2.4.0/os/ports/GCC/ARMCMx/chcore_v7m.h"
 1985              		.file 7 "../libs/ChibiOS_2.4.0/os/kernel/include/chschd.h"
 1986              		.file 8 "../libs/ChibiOS_2.4.0/os/kernel/include/chmtx.h"
 1987              		.file 9 "../libs/ChibiOS_2.4.0/os/kernel/include/chevents.h"
 1988              		.section	.debug_info
 1989 0000 2D0C0000 		.4byte	0xc2d
 1990 0004 0200     		.2byte	0x2
 1991 0006 00000000 		.4byte	.Ldebug_abbrev0
 1992 000a 04       		.byte	0x4
 1993 000b 01       		.uleb128 0x1
 1994 000c 96030000 		.4byte	.LASF88
 1995 0010 01       		.byte	0x1
 1996 0011 4A020000 		.4byte	.LASF89
 1997 0015 D3030000 		.4byte	.LASF90
 1998 0019 00000000 		.4byte	0x0
 1999 001d 00000000 		.4byte	0x0
 2000 0021 30000000 		.4byte	.Ldebug_ranges0+0x30
 2001 0025 00000000 		.4byte	.Ldebug_line0
 2002 0029 02       		.uleb128 0x2
 2003 002a 04       		.byte	0x4
 2004 002b 05       		.byte	0x5
 2005 002c 696E7400 		.ascii	"int\000"
 2006 0030 03       		.uleb128 0x3
 2007 0031 04       		.byte	0x4
 2008 0032 07       		.byte	0x7
 2009 0033 49010000 		.4byte	.LASF0
 2010 0037 03       		.uleb128 0x3
 2011 0038 01       		.byte	0x1
 2012 0039 06       		.byte	0x6
 2013 003a 70000000 		.4byte	.LASF1
 2014 003e 04       		.uleb128 0x4
 2015 003f 65030000 		.4byte	.LASF5
 2016 0043 02       		.byte	0x2
 2017 0044 2A       		.byte	0x2a
 2018 0045 49000000 		.4byte	0x49
 2019 0049 03       		.uleb128 0x3
 2020 004a 01       		.byte	0x1
 2021 004b 08       		.byte	0x8
 2022 004c 91020000 		.4byte	.LASF2
 2023 0050 03       		.uleb128 0x3
 2024 0051 02       		.byte	0x2
 2025 0052 05       		.byte	0x5
 2026 0053 C2020000 		.4byte	.LASF3
 2027 0057 03       		.uleb128 0x3
 2028 0058 02       		.byte	0x2
 2029 0059 07       		.byte	0x7
 2030 005a 70010000 		.4byte	.LASF4
 2031 005e 04       		.uleb128 0x4
 2032 005f 89020000 		.4byte	.LASF6
ARM GAS  /tmp/ccisXRBZ.s 			page 37


 2033 0063 02       		.byte	0x2
 2034 0064 4F       		.byte	0x4f
 2035 0065 69000000 		.4byte	0x69
 2036 0069 03       		.uleb128 0x3
 2037 006a 04       		.byte	0x4
 2038 006b 05       		.byte	0x5
 2039 006c AE000000 		.4byte	.LASF7
 2040 0070 04       		.uleb128 0x4
 2041 0071 03030000 		.4byte	.LASF8
 2042 0075 02       		.byte	0x2
 2043 0076 50       		.byte	0x50
 2044 0077 7B000000 		.4byte	0x7b
 2045 007b 03       		.uleb128 0x3
 2046 007c 04       		.byte	0x4
 2047 007d 07       		.byte	0x7
 2048 007e 56010000 		.4byte	.LASF9
 2049 0082 03       		.uleb128 0x3
 2050 0083 08       		.byte	0x8
 2051 0084 05       		.byte	0x5
 2052 0085 62000000 		.4byte	.LASF10
 2053 0089 03       		.uleb128 0x3
 2054 008a 08       		.byte	0x8
 2055 008b 07       		.byte	0x7
 2056 008c 15000000 		.4byte	.LASF11
 2057 0090 04       		.uleb128 0x4
 2058 0091 B3010000 		.4byte	.LASF12
 2059 0095 03       		.byte	0x3
 2060 0096 2F       		.byte	0x2f
 2061 0097 3E000000 		.4byte	0x3e
 2062 009b 04       		.uleb128 0x4
 2063 009c B7000000 		.4byte	.LASF13
 2064 00a0 03       		.byte	0x3
 2065 00a1 30       		.byte	0x30
 2066 00a2 3E000000 		.4byte	0x3e
 2067 00a6 04       		.uleb128 0x4
 2068 00a7 3B020000 		.4byte	.LASF14
 2069 00ab 03       		.byte	0x3
 2070 00ac 31       		.byte	0x31
 2071 00ad 3E000000 		.4byte	0x3e
 2072 00b1 04       		.uleb128 0x4
 2073 00b2 00000000 		.4byte	.LASF15
 2074 00b6 03       		.byte	0x3
 2075 00b7 32       		.byte	0x32
 2076 00b8 70000000 		.4byte	0x70
 2077 00bc 04       		.uleb128 0x4
 2078 00bd 95010000 		.4byte	.LASF16
 2079 00c1 03       		.byte	0x3
 2080 00c2 33       		.byte	0x33
 2081 00c3 5E000000 		.4byte	0x5e
 2082 00c7 04       		.uleb128 0x4
 2083 00c8 21010000 		.4byte	.LASF17
 2084 00cc 03       		.byte	0x3
 2085 00cd 34       		.byte	0x34
 2086 00ce 5E000000 		.4byte	0x5e
 2087 00d2 04       		.uleb128 0x4
 2088 00d3 C7010000 		.4byte	.LASF18
 2089 00d7 03       		.byte	0x3
ARM GAS  /tmp/ccisXRBZ.s 			page 38


 2090 00d8 35       		.byte	0x35
 2091 00d9 70000000 		.4byte	0x70
 2092 00dd 04       		.uleb128 0x4
 2093 00de 20030000 		.4byte	.LASF19
 2094 00e2 03       		.byte	0x3
 2095 00e3 36       		.byte	0x36
 2096 00e4 70000000 		.4byte	0x70
 2097 00e8 04       		.uleb128 0x4
 2098 00e9 43010000 		.4byte	.LASF20
 2099 00ed 03       		.byte	0x3
 2100 00ee 37       		.byte	0x37
 2101 00ef 5E000000 		.4byte	0x5e
 2102 00f3 04       		.uleb128 0x4
 2103 00f4 F1020000 		.4byte	.LASF21
 2104 00f8 04       		.byte	0x4
 2105 00f9 2A       		.byte	0x2a
 2106 00fa FE000000 		.4byte	0xfe
 2107 00fe 05       		.uleb128 0x5
 2108 00ff F1020000 		.4byte	.LASF21
 2109 0103 48       		.byte	0x48
 2110 0104 05       		.byte	0x5
 2111 0105 5E       		.byte	0x5e
 2112 0106 15020000 		.4byte	0x215
 2113 010a 06       		.uleb128 0x6
 2114 010b E2020000 		.4byte	.LASF22
 2115 010f 05       		.byte	0x5
 2116 0110 5F       		.byte	0x5f
 2117 0111 3A020000 		.4byte	0x23a
 2118 0115 02       		.byte	0x2
 2119 0116 23       		.byte	0x23
 2120 0117 00       		.uleb128 0x0
 2121 0118 06       		.uleb128 0x6
 2122 0119 43020000 		.4byte	.LASF23
 2123 011d 05       		.byte	0x5
 2124 011e 61       		.byte	0x61
 2125 011f 3A020000 		.4byte	0x23a
 2126 0123 02       		.byte	0x2
 2127 0124 23       		.byte	0x23
 2128 0125 04       		.uleb128 0x4
 2129 0126 06       		.uleb128 0x6
 2130 0127 5B000000 		.4byte	.LASF24
 2131 012b 05       		.byte	0x5
 2132 012c 63       		.byte	0x63
 2133 012d B1000000 		.4byte	0xb1
 2134 0131 02       		.byte	0x2
 2135 0132 23       		.byte	0x23
 2136 0133 08       		.uleb128 0x8
 2137 0134 06       		.uleb128 0x6
 2138 0135 C3030000 		.4byte	.LASF25
 2139 0139 05       		.byte	0x5
 2140 013a 64       		.byte	0x64
 2141 013b 07030000 		.4byte	0x307
 2142 013f 02       		.byte	0x2
 2143 0140 23       		.byte	0x23
 2144 0141 0C       		.uleb128 0xc
 2145 0142 06       		.uleb128 0x6
 2146 0143 EF000000 		.4byte	.LASF26
ARM GAS  /tmp/ccisXRBZ.s 			page 39


 2147 0147 05       		.byte	0x5
 2148 0148 66       		.byte	0x66
 2149 0149 3A020000 		.4byte	0x23a
 2150 014d 02       		.byte	0x2
 2151 014e 23       		.byte	0x23
 2152 014f 10       		.uleb128 0x10
 2153 0150 06       		.uleb128 0x6
 2154 0151 E7010000 		.4byte	.LASF27
 2155 0155 05       		.byte	0x5
 2156 0156 67       		.byte	0x67
 2157 0157 3A020000 		.4byte	0x23a
 2158 015b 02       		.byte	0x2
 2159 015c 23       		.byte	0x23
 2160 015d 14       		.uleb128 0x14
 2161 015e 06       		.uleb128 0x6
 2162 015f A2030000 		.4byte	.LASF28
 2163 0163 05       		.byte	0x5
 2164 0164 6E       		.byte	0x6e
 2165 0165 AD040000 		.4byte	0x4ad
 2166 0169 02       		.byte	0x2
 2167 016a 23       		.byte	0x23
 2168 016b 18       		.uleb128 0x18
 2169 016c 06       		.uleb128 0x6
 2170 016d CC020000 		.4byte	.LASF29
 2171 0171 05       		.byte	0x5
 2172 0172 79       		.byte	0x79
 2173 0173 9B000000 		.4byte	0x9b
 2174 0177 02       		.byte	0x2
 2175 0178 23       		.byte	0x23
 2176 0179 1C       		.uleb128 0x1c
 2177 017a 06       		.uleb128 0x6
 2178 017b E9020000 		.4byte	.LASF30
 2179 017f 05       		.byte	0x5
 2180 0180 7D       		.byte	0x7d
 2181 0181 90000000 		.4byte	0x90
 2182 0185 02       		.byte	0x2
 2183 0186 23       		.byte	0x23
 2184 0187 1D       		.uleb128 0x1d
 2185 0188 06       		.uleb128 0x6
 2186 0189 4E030000 		.4byte	.LASF31
 2187 018d 05       		.byte	0x5
 2188 018e 82       		.byte	0x82
 2189 018f A6000000 		.4byte	0xa6
 2190 0193 02       		.byte	0x2
 2191 0194 23       		.byte	0x23
 2192 0195 1E       		.uleb128 0x1e
 2193 0196 06       		.uleb128 0x6
 2194 0197 35030000 		.4byte	.LASF32
 2195 019b 05       		.byte	0x5
 2196 019c 89       		.byte	0x89
 2197 019d 2A030000 		.4byte	0x32a
 2198 01a1 02       		.byte	0x2
 2199 01a2 23       		.byte	0x23
 2200 01a3 20       		.uleb128 0x20
 2201 01a4 07       		.uleb128 0x7
 2202 01a5 705F7500 		.ascii	"p_u\000"
 2203 01a9 05       		.byte	0x5
ARM GAS  /tmp/ccisXRBZ.s 			page 40


 2204 01aa AE       		.byte	0xae
 2205 01ab 78040000 		.4byte	0x478
 2206 01af 02       		.byte	0x2
 2207 01b0 23       		.byte	0x23
 2208 01b1 24       		.uleb128 0x24
 2209 01b2 06       		.uleb128 0x6
 2210 01b3 C9030000 		.4byte	.LASF33
 2211 01b7 05       		.byte	0x5
 2212 01b8 B3       		.byte	0xb3
 2213 01b9 62020000 		.4byte	0x262
 2214 01bd 02       		.byte	0x2
 2215 01be 23       		.byte	0x23
 2216 01bf 28       		.uleb128 0x28
 2217 01c0 06       		.uleb128 0x6
 2218 01c1 43030000 		.4byte	.LASF34
 2219 01c5 05       		.byte	0x5
 2220 01c6 B9       		.byte	0xb9
 2221 01c7 40020000 		.4byte	0x240
 2222 01cb 02       		.byte	0x2
 2223 01cc 23       		.byte	0x23
 2224 01cd 2C       		.uleb128 0x2c
 2225 01ce 06       		.uleb128 0x6
 2226 01cf 08000000 		.4byte	.LASF35
 2227 01d3 05       		.byte	0x5
 2228 01d4 BD       		.byte	0xbd
 2229 01d5 BC000000 		.4byte	0xbc
 2230 01d9 02       		.byte	0x2
 2231 01da 23       		.byte	0x23
 2232 01db 34       		.uleb128 0x34
 2233 01dc 06       		.uleb128 0x6
 2234 01dd F8020000 		.4byte	.LASF36
 2235 01e1 05       		.byte	0x5
 2236 01e2 C3       		.byte	0xc3
 2237 01e3 D2000000 		.4byte	0xd2
 2238 01e7 02       		.byte	0x2
 2239 01e8 23       		.byte	0x23
 2240 01e9 38       		.uleb128 0x38
 2241 01ea 06       		.uleb128 0x6
 2242 01eb B8020000 		.4byte	.LASF37
 2243 01ef 05       		.byte	0x5
 2244 01f0 CA       		.byte	0xca
 2245 01f1 BF040000 		.4byte	0x4bf
 2246 01f5 02       		.byte	0x2
 2247 01f6 23       		.byte	0x23
 2248 01f7 3C       		.uleb128 0x3c
 2249 01f8 06       		.uleb128 0x6
 2250 01f9 2A030000 		.4byte	.LASF38
 2251 01fd 05       		.byte	0x5
 2252 01fe CE       		.byte	0xce
 2253 01ff B1000000 		.4byte	0xb1
 2254 0203 02       		.byte	0x2
 2255 0204 23       		.byte	0x23
 2256 0205 40       		.uleb128 0x40
 2257 0206 06       		.uleb128 0x6
 2258 0207 90000000 		.4byte	.LASF39
 2259 020b 05       		.byte	0x5
 2260 020c D4       		.byte	0xd4
ARM GAS  /tmp/ccisXRBZ.s 			page 41


 2261 020d 78020000 		.4byte	0x278
 2262 0211 02       		.byte	0x2
 2263 0212 23       		.byte	0x23
 2264 0213 44       		.uleb128 0x44
 2265 0214 00       		.byte	0x0
 2266 0215 08       		.uleb128 0x8
 2267 0216 08       		.byte	0x8
 2268 0217 04       		.byte	0x4
 2269 0218 61       		.byte	0x61
 2270 0219 3A020000 		.4byte	0x23a
 2271 021d 06       		.uleb128 0x6
 2272 021e E2020000 		.4byte	.LASF22
 2273 0222 04       		.byte	0x4
 2274 0223 62       		.byte	0x62
 2275 0224 3A020000 		.4byte	0x23a
 2276 0228 02       		.byte	0x2
 2277 0229 23       		.byte	0x23
 2278 022a 00       		.uleb128 0x0
 2279 022b 06       		.uleb128 0x6
 2280 022c 43020000 		.4byte	.LASF23
 2281 0230 04       		.byte	0x4
 2282 0231 64       		.byte	0x64
 2283 0232 3A020000 		.4byte	0x23a
 2284 0236 02       		.byte	0x2
 2285 0237 23       		.byte	0x23
 2286 0238 04       		.uleb128 0x4
 2287 0239 00       		.byte	0x0
 2288 023a 09       		.uleb128 0x9
 2289 023b 04       		.byte	0x4
 2290 023c F3000000 		.4byte	0xf3
 2291 0240 04       		.uleb128 0x4
 2292 0241 F5010000 		.4byte	.LASF40
 2293 0245 04       		.byte	0x4
 2294 0246 66       		.byte	0x66
 2295 0247 15020000 		.4byte	0x215
 2296 024b 08       		.uleb128 0x8
 2297 024c 04       		.byte	0x4
 2298 024d 04       		.byte	0x4
 2299 024e 6B       		.byte	0x6b
 2300 024f 62020000 		.4byte	0x262
 2301 0253 06       		.uleb128 0x6
 2302 0254 E2020000 		.4byte	.LASF22
 2303 0258 04       		.byte	0x4
 2304 0259 6D       		.byte	0x6d
 2305 025a 3A020000 		.4byte	0x23a
 2306 025e 02       		.byte	0x2
 2307 025f 23       		.byte	0x23
 2308 0260 00       		.uleb128 0x0
 2309 0261 00       		.byte	0x0
 2310 0262 04       		.uleb128 0x4
 2311 0263 BB010000 		.4byte	.LASF41
 2312 0267 04       		.byte	0x4
 2313 0268 70       		.byte	0x70
 2314 0269 4B020000 		.4byte	0x24b
 2315 026d 04       		.uleb128 0x4
 2316 026e 04010000 		.4byte	.LASF42
 2317 0272 06       		.byte	0x6
ARM GAS  /tmp/ccisXRBZ.s 			page 42


 2318 0273 D7       		.byte	0xd7
 2319 0274 78020000 		.4byte	0x278
 2320 0278 0A       		.uleb128 0xa
 2321 0279 04       		.byte	0x4
 2322 027a 05       		.uleb128 0x5
 2323 027b 3C030000 		.4byte	.LASF43
 2324 027f 24       		.byte	0x24
 2325 0280 06       		.byte	0x6
 2326 0281 FE       		.byte	0xfe
 2327 0282 07030000 		.4byte	0x307
 2328 0286 0B       		.uleb128 0xb
 2329 0287 723400   		.ascii	"r4\000"
 2330 028a 06       		.byte	0x6
 2331 028b 1101     		.2byte	0x111
 2332 028d 6D020000 		.4byte	0x26d
 2333 0291 02       		.byte	0x2
 2334 0292 23       		.byte	0x23
 2335 0293 00       		.uleb128 0x0
 2336 0294 0B       		.uleb128 0xb
 2337 0295 723500   		.ascii	"r5\000"
 2338 0298 06       		.byte	0x6
 2339 0299 1201     		.2byte	0x112
 2340 029b 6D020000 		.4byte	0x26d
 2341 029f 02       		.byte	0x2
 2342 02a0 23       		.byte	0x23
 2343 02a1 04       		.uleb128 0x4
 2344 02a2 0B       		.uleb128 0xb
 2345 02a3 723600   		.ascii	"r6\000"
 2346 02a6 06       		.byte	0x6
 2347 02a7 1301     		.2byte	0x113
 2348 02a9 6D020000 		.4byte	0x26d
 2349 02ad 02       		.byte	0x2
 2350 02ae 23       		.byte	0x23
 2351 02af 08       		.uleb128 0x8
 2352 02b0 0B       		.uleb128 0xb
 2353 02b1 723700   		.ascii	"r7\000"
 2354 02b4 06       		.byte	0x6
 2355 02b5 1401     		.2byte	0x114
 2356 02b7 6D020000 		.4byte	0x26d
 2357 02bb 02       		.byte	0x2
 2358 02bc 23       		.byte	0x23
 2359 02bd 0C       		.uleb128 0xc
 2360 02be 0B       		.uleb128 0xb
 2361 02bf 723800   		.ascii	"r8\000"
 2362 02c2 06       		.byte	0x6
 2363 02c3 1501     		.2byte	0x115
 2364 02c5 6D020000 		.4byte	0x26d
 2365 02c9 02       		.byte	0x2
 2366 02ca 23       		.byte	0x23
 2367 02cb 10       		.uleb128 0x10
 2368 02cc 0B       		.uleb128 0xb
 2369 02cd 723900   		.ascii	"r9\000"
 2370 02d0 06       		.byte	0x6
 2371 02d1 1601     		.2byte	0x116
 2372 02d3 6D020000 		.4byte	0x26d
 2373 02d7 02       		.byte	0x2
 2374 02d8 23       		.byte	0x23
ARM GAS  /tmp/ccisXRBZ.s 			page 43


 2375 02d9 14       		.uleb128 0x14
 2376 02da 0B       		.uleb128 0xb
 2377 02db 72313000 		.ascii	"r10\000"
 2378 02df 06       		.byte	0x6
 2379 02e0 1701     		.2byte	0x117
 2380 02e2 6D020000 		.4byte	0x26d
 2381 02e6 02       		.byte	0x2
 2382 02e7 23       		.byte	0x23
 2383 02e8 18       		.uleb128 0x18
 2384 02e9 0B       		.uleb128 0xb
 2385 02ea 72313100 		.ascii	"r11\000"
 2386 02ee 06       		.byte	0x6
 2387 02ef 1801     		.2byte	0x118
 2388 02f1 6D020000 		.4byte	0x26d
 2389 02f5 02       		.byte	0x2
 2390 02f6 23       		.byte	0x23
 2391 02f7 1C       		.uleb128 0x1c
 2392 02f8 0B       		.uleb128 0xb
 2393 02f9 6C7200   		.ascii	"lr\000"
 2394 02fc 06       		.byte	0x6
 2395 02fd 1901     		.2byte	0x119
 2396 02ff 6D020000 		.4byte	0x26d
 2397 0303 02       		.byte	0x2
 2398 0304 23       		.byte	0x23
 2399 0305 20       		.uleb128 0x20
 2400 0306 00       		.byte	0x0
 2401 0307 0C       		.uleb128 0xc
 2402 0308 68010000 		.4byte	.LASF44
 2403 030c 04       		.byte	0x4
 2404 030d 06       		.byte	0x6
 2405 030e 2301     		.2byte	0x123
 2406 0310 24030000 		.4byte	0x324
 2407 0314 0B       		.uleb128 0xb
 2408 0315 72313300 		.ascii	"r13\000"
 2409 0319 06       		.byte	0x6
 2410 031a 2401     		.2byte	0x124
 2411 031c 24030000 		.4byte	0x324
 2412 0320 02       		.byte	0x2
 2413 0321 23       		.byte	0x23
 2414 0322 00       		.uleb128 0x0
 2415 0323 00       		.byte	0x0
 2416 0324 09       		.uleb128 0x9
 2417 0325 04       		.byte	0x4
 2418 0326 7A020000 		.4byte	0x27a
 2419 032a 0D       		.uleb128 0xd
 2420 032b DD000000 		.4byte	0xdd
 2421 032f 08       		.uleb128 0x8
 2422 0330 20       		.byte	0x20
 2423 0331 07       		.byte	0x7
 2424 0332 5E       		.byte	0x5e
 2425 0333 9A030000 		.4byte	0x39a
 2426 0337 06       		.uleb128 0x6
 2427 0338 0C030000 		.4byte	.LASF45
 2428 033c 07       		.byte	0x7
 2429 033d 5F       		.byte	0x5f
 2430 033e 40020000 		.4byte	0x240
 2431 0342 02       		.byte	0x2
ARM GAS  /tmp/ccisXRBZ.s 			page 44


 2432 0343 23       		.byte	0x23
 2433 0344 00       		.uleb128 0x0
 2434 0345 06       		.uleb128 0x6
 2435 0346 D4020000 		.4byte	.LASF46
 2436 034a 07       		.byte	0x7
 2437 034b 60       		.byte	0x60
 2438 034c B1000000 		.4byte	0xb1
 2439 0350 02       		.byte	0x2
 2440 0351 23       		.byte	0x23
 2441 0352 08       		.uleb128 0x8
 2442 0353 06       		.uleb128 0x6
 2443 0354 EF010000 		.4byte	.LASF47
 2444 0358 07       		.byte	0x7
 2445 0359 62       		.byte	0x62
 2446 035a 07030000 		.4byte	0x307
 2447 035e 02       		.byte	0x2
 2448 035f 23       		.byte	0x23
 2449 0360 0C       		.uleb128 0xc
 2450 0361 06       		.uleb128 0x6
 2451 0362 F7000000 		.4byte	.LASF48
 2452 0366 07       		.byte	0x7
 2453 0367 65       		.byte	0x65
 2454 0368 3A020000 		.4byte	0x23a
 2455 036c 02       		.byte	0x2
 2456 036d 23       		.byte	0x23
 2457 036e 10       		.uleb128 0x10
 2458 036f 06       		.uleb128 0x6
 2459 0370 22020000 		.4byte	.LASF49
 2460 0374 07       		.byte	0x7
 2461 0375 66       		.byte	0x66
 2462 0376 3A020000 		.4byte	0x23a
 2463 037a 02       		.byte	0x2
 2464 037b 23       		.byte	0x23
 2465 037c 14       		.uleb128 0x14
 2466 037d 06       		.uleb128 0x6
 2467 037e B1030000 		.4byte	.LASF50
 2468 0382 07       		.byte	0x7
 2469 0383 6A       		.byte	0x6a
 2470 0384 E8000000 		.4byte	0xe8
 2471 0388 02       		.byte	0x2
 2472 0389 23       		.byte	0x23
 2473 038a 18       		.uleb128 0x18
 2474 038b 06       		.uleb128 0x6
 2475 038c 18020000 		.4byte	.LASF51
 2476 0390 07       		.byte	0x7
 2477 0391 6C       		.byte	0x6c
 2478 0392 3A020000 		.4byte	0x23a
 2479 0396 02       		.byte	0x2
 2480 0397 23       		.byte	0x23
 2481 0398 1C       		.uleb128 0x1c
 2482 0399 00       		.byte	0x0
 2483 039a 04       		.uleb128 0x4
 2484 039b 55030000 		.4byte	.LASF52
 2485 039f 07       		.byte	0x7
 2486 03a0 6E       		.byte	0x6e
 2487 03a1 2F030000 		.4byte	0x32f
 2488 03a5 05       		.uleb128 0x5
ARM GAS  /tmp/ccisXRBZ.s 			page 45


 2489 03a6 D3010000 		.4byte	.LASF53
 2490 03aa 10       		.byte	0x10
 2491 03ab 08       		.byte	0x8
 2492 03ac 2C       		.byte	0x2c
 2493 03ad DC030000 		.4byte	0x3dc
 2494 03b1 06       		.uleb128 0x6
 2495 03b2 98000000 		.4byte	.LASF54
 2496 03b6 08       		.byte	0x8
 2497 03b7 2D       		.byte	0x2d
 2498 03b8 40020000 		.4byte	0x240
 2499 03bc 02       		.byte	0x2
 2500 03bd 23       		.byte	0x23
 2501 03be 00       		.uleb128 0x0
 2502 03bf 06       		.uleb128 0x6
 2503 03c0 BB030000 		.4byte	.LASF55
 2504 03c4 08       		.byte	0x8
 2505 03c5 2F       		.byte	0x2f
 2506 03c6 3A020000 		.4byte	0x23a
 2507 03ca 02       		.byte	0x2
 2508 03cb 23       		.byte	0x23
 2509 03cc 08       		.uleb128 0x8
 2510 03cd 06       		.uleb128 0x6
 2511 03ce 19030000 		.4byte	.LASF56
 2512 03d2 08       		.byte	0x8
 2513 03d3 31       		.byte	0x31
 2514 03d4 DC030000 		.4byte	0x3dc
 2515 03d8 02       		.byte	0x2
 2516 03d9 23       		.byte	0x23
 2517 03da 0C       		.uleb128 0xc
 2518 03db 00       		.byte	0x0
 2519 03dc 09       		.uleb128 0x9
 2520 03dd 04       		.byte	0x4
 2521 03de A5030000 		.4byte	0x3a5
 2522 03e2 04       		.uleb128 0x4
 2523 03e3 D3010000 		.4byte	.LASF53
 2524 03e7 08       		.byte	0x8
 2525 03e8 33       		.byte	0x33
 2526 03e9 A5030000 		.4byte	0x3a5
 2527 03ed 04       		.uleb128 0x4
 2528 03ee 6D030000 		.4byte	.LASF57
 2529 03f2 09       		.byte	0x9
 2530 03f3 29       		.byte	0x29
 2531 03f4 F8030000 		.4byte	0x3f8
 2532 03f8 05       		.uleb128 0x5
 2533 03f9 6D030000 		.4byte	.LASF57
 2534 03fd 0C       		.byte	0xc
 2535 03fe 09       		.byte	0x9
 2536 03ff 2E       		.byte	0x2e
 2537 0400 2F040000 		.4byte	0x42f
 2538 0404 06       		.uleb128 0x6
 2539 0405 9B010000 		.4byte	.LASF58
 2540 0409 09       		.byte	0x9
 2541 040a 2F       		.byte	0x2f
 2542 040b 2F040000 		.4byte	0x42f
 2543 040f 02       		.byte	0x2
 2544 0410 23       		.byte	0x23
 2545 0411 00       		.uleb128 0x0
ARM GAS  /tmp/ccisXRBZ.s 			page 46


 2546 0412 06       		.uleb128 0x6
 2547 0413 AC020000 		.4byte	.LASF59
 2548 0417 09       		.byte	0x9
 2549 0418 32       		.byte	0x32
 2550 0419 3A020000 		.4byte	0x23a
 2551 041d 02       		.byte	0x2
 2552 041e 23       		.byte	0x23
 2553 041f 04       		.uleb128 0x4
 2554 0420 06       		.uleb128 0x6
 2555 0421 2A020000 		.4byte	.LASF60
 2556 0425 09       		.byte	0x9
 2557 0426 34       		.byte	0x34
 2558 0427 D2000000 		.4byte	0xd2
 2559 042b 02       		.byte	0x2
 2560 042c 23       		.byte	0x23
 2561 042d 08       		.uleb128 0x8
 2562 042e 00       		.byte	0x0
 2563 042f 09       		.uleb128 0x9
 2564 0430 04       		.byte	0x4
 2565 0431 ED030000 		.4byte	0x3ed
 2566 0435 05       		.uleb128 0x5
 2567 0436 2B010000 		.4byte	.LASF61
 2568 043a 04       		.byte	0x4
 2569 043b 09       		.byte	0x9
 2570 043c 3C       		.byte	0x3c
 2571 043d 50040000 		.4byte	0x450
 2572 0441 06       		.uleb128 0x6
 2573 0442 A9030000 		.4byte	.LASF62
 2574 0446 09       		.byte	0x9
 2575 0447 3D       		.byte	0x3d
 2576 0448 2F040000 		.4byte	0x42f
 2577 044c 02       		.byte	0x2
 2578 044d 23       		.byte	0x23
 2579 044e 00       		.uleb128 0x0
 2580 044f 00       		.byte	0x0
 2581 0450 04       		.uleb128 0x4
 2582 0451 2B010000 		.4byte	.LASF61
 2583 0455 09       		.byte	0x9
 2584 0456 40       		.byte	0x40
 2585 0457 35040000 		.4byte	0x435
 2586 045b 04       		.uleb128 0x4
 2587 045c 37010000 		.4byte	.LASF63
 2588 0460 09       		.byte	0x9
 2589 0461 45       		.byte	0x45
 2590 0462 66040000 		.4byte	0x466
 2591 0466 09       		.uleb128 0x9
 2592 0467 04       		.byte	0x4
 2593 0468 6C040000 		.4byte	0x46c
 2594 046c 0E       		.uleb128 0xe
 2595 046d 01       		.byte	0x1
 2596 046e 78040000 		.4byte	0x478
 2597 0472 0F       		.uleb128 0xf
 2598 0473 C7000000 		.4byte	0xc7
 2599 0477 00       		.byte	0x0
 2600 0478 10       		.uleb128 0x10
 2601 0479 04       		.byte	0x4
 2602 047a 05       		.byte	0x5
ARM GAS  /tmp/ccisXRBZ.s 			page 47


 2603 047b 90       		.byte	0x90
 2604 047c AD040000 		.4byte	0x4ad
 2605 0480 11       		.uleb128 0x11
 2606 0481 0E000000 		.4byte	.LASF64
 2607 0485 05       		.byte	0x5
 2608 0486 97       		.byte	0x97
 2609 0487 BC000000 		.4byte	0xbc
 2610 048b 11       		.uleb128 0x11
 2611 048c 2C000000 		.4byte	.LASF65
 2612 0490 05       		.byte	0x5
 2613 0491 9E       		.byte	0x9e
 2614 0492 BC000000 		.4byte	0xbc
 2615 0496 11       		.uleb128 0x11
 2616 0497 8F030000 		.4byte	.LASF66
 2617 049b 05       		.byte	0x5
 2618 049c A5       		.byte	0xa5
 2619 049d 78020000 		.4byte	0x278
 2620 04a1 11       		.uleb128 0x11
 2621 04a2 DB020000 		.4byte	.LASF67
 2622 04a6 05       		.byte	0x5
 2623 04a7 AC       		.byte	0xac
 2624 04a8 D2000000 		.4byte	0xd2
 2625 04ac 00       		.byte	0x0
 2626 04ad 09       		.uleb128 0x9
 2627 04ae 04       		.byte	0x4
 2628 04af B3040000 		.4byte	0x4b3
 2629 04b3 12       		.uleb128 0x12
 2630 04b4 B8040000 		.4byte	0x4b8
 2631 04b8 03       		.uleb128 0x3
 2632 04b9 01       		.byte	0x1
 2633 04ba 08       		.byte	0x8
 2634 04bb 14030000 		.4byte	.LASF68
 2635 04bf 09       		.uleb128 0x9
 2636 04c0 04       		.byte	0x4
 2637 04c1 E2030000 		.4byte	0x3e2
 2638 04c5 13       		.uleb128 0x13
 2639 04c6 01       		.byte	0x1
 2640 04c7 83010000 		.4byte	.LASF70
 2641 04cb 01       		.byte	0x1
 2642 04cc 52       		.byte	0x52
 2643 04cd 01       		.byte	0x1
 2644 04ce 00000000 		.4byte	.LFB7
 2645 04d2 24000000 		.4byte	.LFE7
 2646 04d6 00000000 		.4byte	.LLST0
 2647 04da 38050000 		.4byte	0x538
 2648 04de 14       		.uleb128 0x14
 2649 04df 65737000 		.ascii	"esp\000"
 2650 04e3 01       		.byte	0x1
 2651 04e4 52       		.byte	0x52
 2652 04e5 38050000 		.4byte	0x538
 2653 04e9 01       		.byte	0x1
 2654 04ea 50       		.byte	0x50
 2655 04eb 14       		.uleb128 0x14
 2656 04ec 656C7000 		.ascii	"elp\000"
 2657 04f0 01       		.byte	0x1
 2658 04f1 52       		.byte	0x52
 2659 04f2 2F040000 		.4byte	0x42f
ARM GAS  /tmp/ccisXRBZ.s 			page 48


 2660 04f6 01       		.byte	0x1
 2661 04f7 51       		.byte	0x51
 2662 04f8 15       		.uleb128 0x15
 2663 04f9 FF000000 		.4byte	.LASF69
 2664 04fd 01       		.byte	0x1
 2665 04fe 52       		.byte	0x52
 2666 04ff D2000000 		.4byte	0xd2
 2667 0503 01       		.byte	0x1
 2668 0504 52       		.byte	0x52
 2669 0505 16       		.uleb128 0x16
 2670 0506 02000000 		.4byte	.LBB2
 2671 050a 08000000 		.4byte	.LBE2
 2672 050e 22050000 		.4byte	0x522
 2673 0512 17       		.uleb128 0x17
 2674 0513 746D7000 		.ascii	"tmp\000"
 2675 0517 01       		.byte	0x1
 2676 0518 56       		.byte	0x56
 2677 0519 70000000 		.4byte	0x70
 2678 051d 20000000 		.4byte	.LLST1
 2679 0521 00       		.byte	0x0
 2680 0522 18       		.uleb128 0x18
 2681 0523 00000000 		.4byte	.Ldebug_ranges0+0x0
 2682 0527 17       		.uleb128 0x17
 2683 0528 746D7000 		.ascii	"tmp\000"
 2684 052c 01       		.byte	0x1
 2685 052d 5B       		.byte	0x5b
 2686 052e 70000000 		.4byte	0x70
 2687 0532 33000000 		.4byte	.LLST2
 2688 0536 00       		.byte	0x0
 2689 0537 00       		.byte	0x0
 2690 0538 09       		.uleb128 0x9
 2691 0539 04       		.byte	0x4
 2692 053a 50040000 		.4byte	0x450
 2693 053e 19       		.uleb128 0x19
 2694 053f 01       		.byte	0x1
 2695 0540 A3010000 		.4byte	.LASF71
 2696 0544 01       		.byte	0x1
 2697 0545 6B       		.byte	0x6b
 2698 0546 01       		.byte	0x1
 2699 0547 00000000 		.4byte	.LFB8
 2700 054b 2A000000 		.4byte	.LFE8
 2701 054f 02       		.byte	0x2
 2702 0550 7D       		.byte	0x7d
 2703 0551 00       		.sleb128 0
 2704 0552 B0050000 		.4byte	0x5b0
 2705 0556 14       		.uleb128 0x14
 2706 0557 65737000 		.ascii	"esp\000"
 2707 055b 01       		.byte	0x1
 2708 055c 6B       		.byte	0x6b
 2709 055d 38050000 		.4byte	0x538
 2710 0561 01       		.byte	0x1
 2711 0562 50       		.byte	0x50
 2712 0563 14       		.uleb128 0x14
 2713 0564 656C7000 		.ascii	"elp\000"
 2714 0568 01       		.byte	0x1
 2715 0569 6B       		.byte	0x6b
 2716 056a 2F040000 		.4byte	0x42f
ARM GAS  /tmp/ccisXRBZ.s 			page 49


 2717 056e 01       		.byte	0x1
 2718 056f 51       		.byte	0x51
 2719 0570 17       		.uleb128 0x17
 2720 0571 7000     		.ascii	"p\000"
 2721 0573 01       		.byte	0x1
 2722 0574 6C       		.byte	0x6c
 2723 0575 2F040000 		.4byte	0x42f
 2724 0579 46000000 		.4byte	.LLST3
 2725 057d 16       		.uleb128 0x16
 2726 057e 00000000 		.4byte	.LBB5
 2727 0582 06000000 		.4byte	.LBE5
 2728 0586 9A050000 		.4byte	0x59a
 2729 058a 17       		.uleb128 0x17
 2730 058b 746D7000 		.ascii	"tmp\000"
 2731 058f 01       		.byte	0x1
 2732 0590 71       		.byte	0x71
 2733 0591 70000000 		.4byte	0x70
 2734 0595 6F000000 		.4byte	.LLST4
 2735 0599 00       		.byte	0x0
 2736 059a 18       		.uleb128 0x18
 2737 059b 18000000 		.4byte	.Ldebug_ranges0+0x18
 2738 059f 17       		.uleb128 0x17
 2739 05a0 746D7000 		.ascii	"tmp\000"
 2740 05a4 01       		.byte	0x1
 2741 05a5 79       		.byte	0x79
 2742 05a6 70000000 		.4byte	0x70
 2743 05aa 8D000000 		.4byte	.LLST5
 2744 05ae 00       		.byte	0x0
 2745 05af 00       		.byte	0x0
 2746 05b0 1A       		.uleb128 0x1a
 2747 05b1 01       		.byte	0x1
 2748 05b2 79020000 		.4byte	.LASF72
 2749 05b6 01       		.byte	0x1
 2750 05b7 84       		.byte	0x84
 2751 05b8 01       		.byte	0x1
 2752 05b9 D2000000 		.4byte	0xd2
 2753 05bd 00000000 		.4byte	.LFB9
 2754 05c1 20000000 		.4byte	.LFE9
 2755 05c5 02       		.byte	0x2
 2756 05c6 7D       		.byte	0x7d
 2757 05c7 00       		.sleb128 0
 2758 05c8 1F060000 		.4byte	0x61f
 2759 05cc 1B       		.uleb128 0x1b
 2760 05cd FF000000 		.4byte	.LASF69
 2761 05d1 01       		.byte	0x1
 2762 05d2 84       		.byte	0x84
 2763 05d3 D2000000 		.4byte	0xd2
 2764 05d7 AB000000 		.4byte	.LLST6
 2765 05db 17       		.uleb128 0x17
 2766 05dc 6D00     		.ascii	"m\000"
 2767 05de 01       		.byte	0x1
 2768 05df 85       		.byte	0x85
 2769 05e0 D2000000 		.4byte	0xd2
 2770 05e4 BE000000 		.4byte	.LLST7
 2771 05e8 16       		.uleb128 0x16
 2772 05e9 00000000 		.4byte	.LBB8
 2773 05ed 06000000 		.4byte	.LBE8
ARM GAS  /tmp/ccisXRBZ.s 			page 50


 2774 05f1 05060000 		.4byte	0x605
 2775 05f5 17       		.uleb128 0x17
 2776 05f6 746D7000 		.ascii	"tmp\000"
 2777 05fa 01       		.byte	0x1
 2778 05fb 87       		.byte	0x87
 2779 05fc 70000000 		.4byte	0x70
 2780 0600 E1000000 		.4byte	.LLST8
 2781 0604 00       		.byte	0x0
 2782 0605 1C       		.uleb128 0x1c
 2783 0606 12000000 		.4byte	.LBB9
 2784 060a 18000000 		.4byte	.LBE9
 2785 060e 17       		.uleb128 0x17
 2786 060f 746D7000 		.ascii	"tmp\000"
 2787 0613 01       		.byte	0x1
 2788 0614 8C       		.byte	0x8c
 2789 0615 70000000 		.4byte	0x70
 2790 0619 F4000000 		.4byte	.LLST9
 2791 061d 00       		.byte	0x0
 2792 061e 00       		.byte	0x0
 2793 061f 1A       		.uleb128 0x1a
 2794 0620 01       		.byte	0x1
 2795 0621 A0000000 		.4byte	.LASF73
 2796 0625 01       		.byte	0x1
 2797 0626 99       		.byte	0x99
 2798 0627 01       		.byte	0x1
 2799 0628 D2000000 		.4byte	0xd2
 2800 062c 00000000 		.4byte	.LFB10
 2801 0630 1C000000 		.4byte	.LFE10
 2802 0634 02       		.byte	0x2
 2803 0635 7D       		.byte	0x7d
 2804 0636 00       		.sleb128 0
 2805 0637 81060000 		.4byte	0x681
 2806 063b 1B       		.uleb128 0x1b
 2807 063c FF000000 		.4byte	.LASF69
 2808 0640 01       		.byte	0x1
 2809 0641 99       		.byte	0x99
 2810 0642 D2000000 		.4byte	0xd2
 2811 0646 07010000 		.4byte	.LLST10
 2812 064a 16       		.uleb128 0x16
 2813 064b 00000000 		.4byte	.LBB10
 2814 064f 06000000 		.4byte	.LBE10
 2815 0653 67060000 		.4byte	0x667
 2816 0657 17       		.uleb128 0x17
 2817 0658 746D7000 		.ascii	"tmp\000"
 2818 065c 01       		.byte	0x1
 2819 065d 9B       		.byte	0x9b
 2820 065e 70000000 		.4byte	0x70
 2821 0662 25010000 		.4byte	.LLST11
 2822 0666 00       		.byte	0x0
 2823 0667 1C       		.uleb128 0x1c
 2824 0668 10000000 		.4byte	.LBB11
 2825 066c 16000000 		.4byte	.LBE11
 2826 0670 17       		.uleb128 0x17
 2827 0671 746D7000 		.ascii	"tmp\000"
 2828 0675 01       		.byte	0x1
 2829 0676 9F       		.byte	0x9f
 2830 0677 70000000 		.4byte	0x70
ARM GAS  /tmp/ccisXRBZ.s 			page 51


 2831 067b 38010000 		.4byte	.LLST12
 2832 067f 00       		.byte	0x0
 2833 0680 00       		.byte	0x0
 2834 0681 13       		.uleb128 0x13
 2835 0682 01       		.byte	0x1
 2836 0683 35000000 		.4byte	.LASF74
 2837 0687 01       		.byte	0x1
 2838 0688 C1       		.byte	0xc1
 2839 0689 01       		.byte	0x1
 2840 068a 00000000 		.4byte	.LFB12
 2841 068e 32000000 		.4byte	.LFE12
 2842 0692 4B010000 		.4byte	.LLST13
 2843 0696 B8060000 		.4byte	0x6b8
 2844 069a 1D       		.uleb128 0x1d
 2845 069b 747000   		.ascii	"tp\000"
 2846 069e 01       		.byte	0x1
 2847 069f C1       		.byte	0xc1
 2848 06a0 3A020000 		.4byte	0x23a
 2849 06a4 6B010000 		.4byte	.LLST14
 2850 06a8 1B       		.uleb128 0x1b
 2851 06a9 FF000000 		.4byte	.LASF69
 2852 06ad 01       		.byte	0x1
 2853 06ae C1       		.byte	0xc1
 2854 06af D2000000 		.4byte	0xd2
 2855 06b3 89010000 		.4byte	.LLST15
 2856 06b7 00       		.byte	0x0
 2857 06b8 13       		.uleb128 0x13
 2858 06b9 01       		.byte	0x1
 2859 06ba 07020000 		.4byte	.LASF75
 2860 06be 01       		.byte	0x1
 2861 06bf AB       		.byte	0xab
 2862 06c0 01       		.byte	0x1
 2863 06c1 00000000 		.4byte	.LFB11
 2864 06c5 18000000 		.4byte	.LFE11
 2865 06c9 B2010000 		.4byte	.LLST16
 2866 06cd 25070000 		.4byte	0x725
 2867 06d1 1D       		.uleb128 0x1d
 2868 06d2 747000   		.ascii	"tp\000"
 2869 06d5 01       		.byte	0x1
 2870 06d6 AB       		.byte	0xab
 2871 06d7 3A020000 		.4byte	0x23a
 2872 06db D2010000 		.4byte	.LLST17
 2873 06df 1B       		.uleb128 0x1b
 2874 06e0 FF000000 		.4byte	.LASF69
 2875 06e4 01       		.byte	0x1
 2876 06e5 AB       		.byte	0xab
 2877 06e6 D2000000 		.4byte	0xd2
 2878 06ea E5010000 		.4byte	.LLST18
 2879 06ee 16       		.uleb128 0x16
 2880 06ef 02000000 		.4byte	.LBB12
 2881 06f3 08000000 		.4byte	.LBE12
 2882 06f7 0B070000 		.4byte	0x70b
 2883 06fb 17       		.uleb128 0x17
 2884 06fc 746D7000 		.ascii	"tmp\000"
 2885 0700 01       		.byte	0x1
 2886 0701 AF       		.byte	0xaf
 2887 0702 70000000 		.4byte	0x70
ARM GAS  /tmp/ccisXRBZ.s 			page 52


 2888 0706 F8010000 		.4byte	.LLST19
 2889 070a 00       		.byte	0x0
 2890 070b 1C       		.uleb128 0x1c
 2891 070c 10000000 		.4byte	.LBB13
 2892 0710 16000000 		.4byte	.LBE13
 2893 0714 17       		.uleb128 0x17
 2894 0715 746D7000 		.ascii	"tmp\000"
 2895 0719 01       		.byte	0x1
 2896 071a B2       		.byte	0xb2
 2897 071b 70000000 		.4byte	0x70
 2898 071f 0B020000 		.4byte	.LLST20
 2899 0723 00       		.byte	0x0
 2900 0724 00       		.byte	0x0
 2901 0725 13       		.uleb128 0x13
 2902 0726 01       		.byte	0x1
 2903 0727 DA000000 		.4byte	.LASF76
 2904 072b 01       		.byte	0x1
 2905 072c F5       		.byte	0xf5
 2906 072d 01       		.byte	0x1
 2907 072e 00000000 		.4byte	.LFB14
 2908 0732 20000000 		.4byte	.LFE14
 2909 0736 1E020000 		.4byte	.LLST21
 2910 073a 6C070000 		.4byte	0x76c
 2911 073e 1D       		.uleb128 0x1d
 2912 073f 65737000 		.ascii	"esp\000"
 2913 0743 01       		.byte	0x1
 2914 0744 F5       		.byte	0xf5
 2915 0745 38050000 		.4byte	0x538
 2916 0749 3E020000 		.4byte	.LLST22
 2917 074d 1B       		.uleb128 0x1b
 2918 074e FF000000 		.4byte	.LASF69
 2919 0752 01       		.byte	0x1
 2920 0753 F5       		.byte	0xf5
 2921 0754 D2000000 		.4byte	0xd2
 2922 0758 5C020000 		.4byte	.LLST23
 2923 075c 17       		.uleb128 0x17
 2924 075d 656C7000 		.ascii	"elp\000"
 2925 0761 01       		.byte	0x1
 2926 0762 F6       		.byte	0xf6
 2927 0763 2F040000 		.4byte	0x42f
 2928 0767 7A020000 		.4byte	.LLST24
 2929 076b 00       		.byte	0x0
 2930 076c 13       		.uleb128 0x13
 2931 076d 01       		.byte	0x1
 2932 076e 0D010000 		.4byte	.LASF77
 2933 0772 01       		.byte	0x1
 2934 0773 DC       		.byte	0xdc
 2935 0774 01       		.byte	0x1
 2936 0775 00000000 		.4byte	.LFB13
 2937 0779 18000000 		.4byte	.LFE13
 2938 077d A4020000 		.4byte	.LLST25
 2939 0781 DA070000 		.4byte	0x7da
 2940 0785 1D       		.uleb128 0x1d
 2941 0786 65737000 		.ascii	"esp\000"
 2942 078a 01       		.byte	0x1
 2943 078b DC       		.byte	0xdc
 2944 078c 38050000 		.4byte	0x538
ARM GAS  /tmp/ccisXRBZ.s 			page 53


 2945 0790 C4020000 		.4byte	.LLST26
 2946 0794 1B       		.uleb128 0x1b
 2947 0795 FF000000 		.4byte	.LASF69
 2948 0799 01       		.byte	0x1
 2949 079a DC       		.byte	0xdc
 2950 079b D2000000 		.4byte	0xd2
 2951 079f D7020000 		.4byte	.LLST27
 2952 07a3 16       		.uleb128 0x16
 2953 07a4 02000000 		.4byte	.LBB14
 2954 07a8 08000000 		.4byte	.LBE14
 2955 07ac C0070000 		.4byte	0x7c0
 2956 07b0 17       		.uleb128 0x17
 2957 07b1 746D7000 		.ascii	"tmp\000"
 2958 07b5 01       		.byte	0x1
 2959 07b6 DE       		.byte	0xde
 2960 07b7 70000000 		.4byte	0x70
 2961 07bb EA020000 		.4byte	.LLST28
 2962 07bf 00       		.byte	0x0
 2963 07c0 1C       		.uleb128 0x1c
 2964 07c1 10000000 		.4byte	.LBB15
 2965 07c5 16000000 		.4byte	.LBE15
 2966 07c9 17       		.uleb128 0x17
 2967 07ca 746D7000 		.ascii	"tmp\000"
 2968 07ce 01       		.byte	0x1
 2969 07cf E1       		.byte	0xe1
 2970 07d0 70000000 		.4byte	0x70
 2971 07d4 FD020000 		.4byte	.LLST29
 2972 07d8 00       		.byte	0x0
 2973 07d9 00       		.byte	0x0
 2974 07da 1E       		.uleb128 0x1e
 2975 07db 01       		.byte	0x1
 2976 07dc D9010000 		.4byte	.LASF78
 2977 07e0 01       		.byte	0x1
 2978 07e1 0B01     		.2byte	0x10b
 2979 07e3 01       		.byte	0x1
 2980 07e4 00000000 		.4byte	.LFB15
 2981 07e8 32000000 		.4byte	.LFE15
 2982 07ec 10030000 		.4byte	.LLST30
 2983 07f0 25080000 		.4byte	0x825
 2984 07f4 1F       		.uleb128 0x1f
 2985 07f5 32020000 		.4byte	.LASF79
 2986 07f9 01       		.byte	0x1
 2987 07fa 0B01     		.2byte	0x10b
 2988 07fc 25080000 		.4byte	0x825
 2989 0800 30030000 		.4byte	.LLST31
 2990 0804 1F       		.uleb128 0x1f
 2991 0805 FF000000 		.4byte	.LASF69
 2992 0809 01       		.byte	0x1
 2993 080a 0B01     		.2byte	0x10b
 2994 080c D2000000 		.4byte	0xd2
 2995 0810 4E030000 		.4byte	.LLST32
 2996 0814 20       		.uleb128 0x20
 2997 0815 65696400 		.ascii	"eid\000"
 2998 0819 01       		.byte	0x1
 2999 081a 0C01     		.2byte	0x10c
 3000 081c C7000000 		.4byte	0xc7
 3001 0820 77030000 		.4byte	.LLST33
ARM GAS  /tmp/ccisXRBZ.s 			page 54


 3002 0824 00       		.byte	0x0
 3003 0825 09       		.uleb128 0x9
 3004 0826 04       		.byte	0x4
 3005 0827 2B080000 		.4byte	0x82b
 3006 082b 12       		.uleb128 0x12
 3007 082c 5B040000 		.4byte	0x45b
 3008 0830 21       		.uleb128 0x21
 3009 0831 01       		.byte	0x1
 3010 0832 9F020000 		.4byte	.LASF80
 3011 0836 01       		.byte	0x1
 3012 0837 2E01     		.2byte	0x12e
 3013 0839 01       		.byte	0x1
 3014 083a D2000000 		.4byte	0xd2
 3015 083e 00000000 		.4byte	.LFB16
 3016 0842 3C000000 		.4byte	.LFE16
 3017 0846 A5030000 		.4byte	.LLST34
 3018 084a B5080000 		.4byte	0x8b5
 3019 084e 1F       		.uleb128 0x1f
 3020 084f FF000000 		.4byte	.LASF69
 3021 0853 01       		.byte	0x1
 3022 0854 2E01     		.2byte	0x12e
 3023 0856 D2000000 		.4byte	0xd2
 3024 085a C5030000 		.4byte	.LLST35
 3025 085e 20       		.uleb128 0x20
 3026 085f 63747000 		.ascii	"ctp\000"
 3027 0863 01       		.byte	0x1
 3028 0864 2F01     		.2byte	0x12f
 3029 0866 3A020000 		.4byte	0x23a
 3030 086a E3030000 		.4byte	.LLST36
 3031 086e 20       		.uleb128 0x20
 3032 086f 6D00     		.ascii	"m\000"
 3033 0871 01       		.byte	0x1
 3034 0872 3001     		.2byte	0x130
 3035 0874 D2000000 		.4byte	0xd2
 3036 0878 02040000 		.4byte	.LLST37
 3037 087c 16       		.uleb128 0x16
 3038 087d 08000000 		.4byte	.LBB16
 3039 0881 0E000000 		.4byte	.LBE16
 3040 0885 9A080000 		.4byte	0x89a
 3041 0889 20       		.uleb128 0x20
 3042 088a 746D7000 		.ascii	"tmp\000"
 3043 088e 01       		.byte	0x1
 3044 088f 3201     		.2byte	0x132
 3045 0891 70000000 		.4byte	0x70
 3046 0895 40040000 		.4byte	.LLST38
 3047 0899 00       		.byte	0x0
 3048 089a 1C       		.uleb128 0x1c
 3049 089b 2E000000 		.4byte	.LBB17
 3050 089f 34000000 		.4byte	.LBE17
 3051 08a3 20       		.uleb128 0x20
 3052 08a4 746D7000 		.ascii	"tmp\000"
 3053 08a8 01       		.byte	0x1
 3054 08a9 3C01     		.2byte	0x13c
 3055 08ab 70000000 		.4byte	0x70
 3056 08af 53040000 		.4byte	.LLST39
 3057 08b3 00       		.byte	0x0
 3058 08b4 00       		.byte	0x0
ARM GAS  /tmp/ccisXRBZ.s 			page 55


 3059 08b5 21       		.uleb128 0x21
 3060 08b6 01       		.byte	0x1
 3061 08b7 CD000000 		.4byte	.LASF81
 3062 08bb 01       		.byte	0x1
 3063 08bc 4B01     		.2byte	0x14b
 3064 08be 01       		.byte	0x1
 3065 08bf D2000000 		.4byte	0xd2
 3066 08c3 00000000 		.4byte	.LFB17
 3067 08c7 34000000 		.4byte	.LFE17
 3068 08cb 66040000 		.4byte	.LLST40
 3069 08cf 3A090000 		.4byte	0x93a
 3070 08d3 1F       		.uleb128 0x1f
 3071 08d4 FF000000 		.4byte	.LASF69
 3072 08d8 01       		.byte	0x1
 3073 08d9 4B01     		.2byte	0x14b
 3074 08db D2000000 		.4byte	0xd2
 3075 08df 86040000 		.4byte	.LLST41
 3076 08e3 20       		.uleb128 0x20
 3077 08e4 63747000 		.ascii	"ctp\000"
 3078 08e8 01       		.byte	0x1
 3079 08e9 4C01     		.2byte	0x14c
 3080 08eb 3A020000 		.4byte	0x23a
 3081 08ef A4040000 		.4byte	.LLST42
 3082 08f3 20       		.uleb128 0x20
 3083 08f4 6D00     		.ascii	"m\000"
 3084 08f6 01       		.byte	0x1
 3085 08f7 4D01     		.2byte	0x14d
 3086 08f9 D2000000 		.4byte	0xd2
 3087 08fd C3040000 		.4byte	.LLST43
 3088 0901 16       		.uleb128 0x16
 3089 0902 08000000 		.4byte	.LBB18
 3090 0906 0E000000 		.4byte	.LBE18
 3091 090a 1F090000 		.4byte	0x91f
 3092 090e 20       		.uleb128 0x20
 3093 090f 746D7000 		.ascii	"tmp\000"
 3094 0913 01       		.byte	0x1
 3095 0914 4F01     		.2byte	0x14f
 3096 0916 70000000 		.4byte	0x70
 3097 091a F6040000 		.4byte	.LLST44
 3098 091e 00       		.byte	0x0
 3099 091f 1C       		.uleb128 0x1c
 3100 0920 28000000 		.4byte	.LBB19
 3101 0924 2E000000 		.4byte	.LBE19
 3102 0928 20       		.uleb128 0x20
 3103 0929 746D7000 		.ascii	"tmp\000"
 3104 092d 01       		.byte	0x1
 3105 092e 5801     		.2byte	0x158
 3106 0930 70000000 		.4byte	0x70
 3107 0934 09050000 		.4byte	.LLST45
 3108 0938 00       		.byte	0x0
 3109 0939 00       		.byte	0x0
 3110 093a 21       		.uleb128 0x21
 3111 093b 01       		.byte	0x1
 3112 093c C0000000 		.4byte	.LASF82
 3113 0940 01       		.byte	0x1
 3114 0941 6701     		.2byte	0x167
 3115 0943 01       		.byte	0x1
ARM GAS  /tmp/ccisXRBZ.s 			page 56


 3116 0944 D2000000 		.4byte	0xd2
 3117 0948 00000000 		.4byte	.LFB18
 3118 094c 38000000 		.4byte	.LFE18
 3119 0950 1C050000 		.4byte	.LLST46
 3120 0954 B1090000 		.4byte	0x9b1
 3121 0958 1F       		.uleb128 0x1f
 3122 0959 FF000000 		.4byte	.LASF69
 3123 095d 01       		.byte	0x1
 3124 095e 6701     		.2byte	0x167
 3125 0960 D2000000 		.4byte	0xd2
 3126 0964 3C050000 		.4byte	.LLST47
 3127 0968 20       		.uleb128 0x20
 3128 0969 63747000 		.ascii	"ctp\000"
 3129 096d 01       		.byte	0x1
 3130 096e 6801     		.2byte	0x168
 3131 0970 3A020000 		.4byte	0x23a
 3132 0974 5A050000 		.4byte	.LLST48
 3133 0978 16       		.uleb128 0x16
 3134 0979 08000000 		.4byte	.LBB20
 3135 097d 0E000000 		.4byte	.LBE20
 3136 0981 96090000 		.4byte	0x996
 3137 0985 20       		.uleb128 0x20
 3138 0986 746D7000 		.ascii	"tmp\000"
 3139 098a 01       		.byte	0x1
 3140 098b 6A01     		.2byte	0x16a
 3141 098d 70000000 		.4byte	0x70
 3142 0991 79050000 		.4byte	.LLST49
 3143 0995 00       		.byte	0x0
 3144 0996 1C       		.uleb128 0x1c
 3145 0997 28000000 		.4byte	.LBB21
 3146 099b 2E000000 		.4byte	.LBE21
 3147 099f 20       		.uleb128 0x20
 3148 09a0 746D7000 		.ascii	"tmp\000"
 3149 09a4 01       		.byte	0x1
 3150 09a5 7201     		.2byte	0x172
 3151 09a7 70000000 		.4byte	0x70
 3152 09ab 8C050000 		.4byte	.LLST50
 3153 09af 00       		.byte	0x0
 3154 09b0 00       		.byte	0x0
 3155 09b1 21       		.uleb128 0x21
 3156 09b2 01       		.byte	0x1
 3157 09b3 7B030000 		.4byte	.LASF83
 3158 09b7 01       		.byte	0x1
 3159 09b8 8E01     		.2byte	0x18e
 3160 09ba 01       		.byte	0x1
 3161 09bb D2000000 		.4byte	0xd2
 3162 09bf 00000000 		.4byte	.LFB19
 3163 09c3 54000000 		.4byte	.LFE19
 3164 09c7 9F050000 		.4byte	.LLST51
 3165 09cb 820A0000 		.4byte	0xa82
 3166 09cf 1F       		.uleb128 0x1f
 3167 09d0 FF000000 		.4byte	.LASF69
 3168 09d4 01       		.byte	0x1
 3169 09d5 8E01     		.2byte	0x18e
 3170 09d7 D2000000 		.4byte	0xd2
 3171 09db BF050000 		.4byte	.LLST52
 3172 09df 1F       		.uleb128 0x1f
ARM GAS  /tmp/ccisXRBZ.s 			page 57


 3173 09e0 02020000 		.4byte	.LASF84
 3174 09e4 01       		.byte	0x1
 3175 09e5 8E01     		.2byte	0x18e
 3176 09e7 DD000000 		.4byte	0xdd
 3177 09eb DD050000 		.4byte	.LLST53
 3178 09ef 20       		.uleb128 0x20
 3179 09f0 63747000 		.ascii	"ctp\000"
 3180 09f4 01       		.byte	0x1
 3181 09f5 8F01     		.2byte	0x18f
 3182 09f7 3A020000 		.4byte	0x23a
 3183 09fb F0050000 		.4byte	.LLST54
 3184 09ff 20       		.uleb128 0x20
 3185 0a00 6D00     		.ascii	"m\000"
 3186 0a02 01       		.byte	0x1
 3187 0a03 9001     		.2byte	0x190
 3188 0a05 D2000000 		.4byte	0xd2
 3189 0a09 0F060000 		.4byte	.LLST55
 3190 0a0d 16       		.uleb128 0x16
 3191 0a0e 08000000 		.4byte	.LBB22
 3192 0a12 0E000000 		.4byte	.LBE22
 3193 0a16 2B0A0000 		.4byte	0xa2b
 3194 0a1a 20       		.uleb128 0x20
 3195 0a1b 746D7000 		.ascii	"tmp\000"
 3196 0a1f 01       		.byte	0x1
 3197 0a20 9201     		.2byte	0x192
 3198 0a22 70000000 		.4byte	0x70
 3199 0a26 53060000 		.4byte	.LLST56
 3200 0a2a 00       		.byte	0x0
 3201 0a2b 16       		.uleb128 0x16
 3202 0a2c 18000000 		.4byte	.LBB23
 3203 0a30 1E000000 		.4byte	.LBE23
 3204 0a34 490A0000 		.4byte	0xa49
 3205 0a38 20       		.uleb128 0x20
 3206 0a39 746D7000 		.ascii	"tmp\000"
 3207 0a3d 01       		.byte	0x1
 3208 0a3e 9601     		.2byte	0x196
 3209 0a40 70000000 		.4byte	0x70
 3210 0a44 66060000 		.4byte	.LLST57
 3211 0a48 00       		.byte	0x0
 3212 0a49 16       		.uleb128 0x16
 3213 0a4a 3E000000 		.4byte	.LBB24
 3214 0a4e 44000000 		.4byte	.LBE24
 3215 0a52 670A0000 		.4byte	0xa67
 3216 0a56 20       		.uleb128 0x20
 3217 0a57 746D7000 		.ascii	"tmp\000"
 3218 0a5b 01       		.byte	0x1
 3219 0a5c A301     		.2byte	0x1a3
 3220 0a5e 70000000 		.4byte	0x70
 3221 0a62 79060000 		.4byte	.LLST58
 3222 0a66 00       		.byte	0x0
 3223 0a67 1C       		.uleb128 0x1c
 3224 0a68 48000000 		.4byte	.LBB25
 3225 0a6c 4E000000 		.4byte	.LBE25
 3226 0a70 20       		.uleb128 0x20
 3227 0a71 746D7000 		.ascii	"tmp\000"
 3228 0a75 01       		.byte	0x1
 3229 0a76 9B01     		.2byte	0x19b
ARM GAS  /tmp/ccisXRBZ.s 			page 58


 3230 0a78 70000000 		.4byte	0x70
 3231 0a7c 8C060000 		.4byte	.LLST59
 3232 0a80 00       		.byte	0x0
 3233 0a81 00       		.byte	0x0
 3234 0a82 21       		.uleb128 0x21
 3235 0a83 01       		.byte	0x1
 3236 0a84 47000000 		.4byte	.LASF85
 3237 0a88 01       		.byte	0x1
 3238 0a89 B901     		.2byte	0x1b9
 3239 0a8b 01       		.byte	0x1
 3240 0a8c D2000000 		.4byte	0xd2
 3241 0a90 00000000 		.4byte	.LFB20
 3242 0a94 50000000 		.4byte	.LFE20
 3243 0a98 AA060000 		.4byte	.LLST60
 3244 0a9c 530B0000 		.4byte	0xb53
 3245 0aa0 1F       		.uleb128 0x1f
 3246 0aa1 FF000000 		.4byte	.LASF69
 3247 0aa5 01       		.byte	0x1
 3248 0aa6 B901     		.2byte	0x1b9
 3249 0aa8 D2000000 		.4byte	0xd2
 3250 0aac CA060000 		.4byte	.LLST61
 3251 0ab0 1F       		.uleb128 0x1f
 3252 0ab1 02020000 		.4byte	.LASF84
 3253 0ab5 01       		.byte	0x1
 3254 0ab6 B901     		.2byte	0x1b9
 3255 0ab8 DD000000 		.4byte	0xdd
 3256 0abc E8060000 		.4byte	.LLST62
 3257 0ac0 20       		.uleb128 0x20
 3258 0ac1 63747000 		.ascii	"ctp\000"
 3259 0ac5 01       		.byte	0x1
 3260 0ac6 BA01     		.2byte	0x1ba
 3261 0ac8 3A020000 		.4byte	0x23a
 3262 0acc FB060000 		.4byte	.LLST63
 3263 0ad0 20       		.uleb128 0x20
 3264 0ad1 6D00     		.ascii	"m\000"
 3265 0ad3 01       		.byte	0x1
 3266 0ad4 BB01     		.2byte	0x1bb
 3267 0ad6 D2000000 		.4byte	0xd2
 3268 0ada 1A070000 		.4byte	.LLST64
 3269 0ade 16       		.uleb128 0x16
 3270 0adf 08000000 		.4byte	.LBB26
 3271 0ae3 0E000000 		.4byte	.LBE26
 3272 0ae7 FC0A0000 		.4byte	0xafc
 3273 0aeb 20       		.uleb128 0x20
 3274 0aec 746D7000 		.ascii	"tmp\000"
 3275 0af0 01       		.byte	0x1
 3276 0af1 BD01     		.2byte	0x1bd
 3277 0af3 70000000 		.4byte	0x70
 3278 0af7 53070000 		.4byte	.LLST65
 3279 0afb 00       		.byte	0x0
 3280 0afc 16       		.uleb128 0x16
 3281 0afd 18000000 		.4byte	.LBB27
 3282 0b01 1E000000 		.4byte	.LBE27
 3283 0b05 1A0B0000 		.4byte	0xb1a
 3284 0b09 20       		.uleb128 0x20
 3285 0b0a 746D7000 		.ascii	"tmp\000"
 3286 0b0e 01       		.byte	0x1
ARM GAS  /tmp/ccisXRBZ.s 			page 59


 3287 0b0f C101     		.2byte	0x1c1
 3288 0b11 70000000 		.4byte	0x70
 3289 0b15 66070000 		.4byte	.LLST66
 3290 0b19 00       		.byte	0x0
 3291 0b1a 16       		.uleb128 0x16
 3292 0b1b 3A000000 		.4byte	.LBB28
 3293 0b1f 40000000 		.4byte	.LBE28
 3294 0b23 380B0000 		.4byte	0xb38
 3295 0b27 20       		.uleb128 0x20
 3296 0b28 746D7000 		.ascii	"tmp\000"
 3297 0b2c 01       		.byte	0x1
 3298 0b2d CD01     		.2byte	0x1cd
 3299 0b2f 70000000 		.4byte	0x70
 3300 0b33 79070000 		.4byte	.LLST67
 3301 0b37 00       		.byte	0x0
 3302 0b38 1C       		.uleb128 0x1c
 3303 0b39 44000000 		.4byte	.LBB29
 3304 0b3d 4A000000 		.4byte	.LBE29
 3305 0b41 20       		.uleb128 0x20
 3306 0b42 746D7000 		.ascii	"tmp\000"
 3307 0b46 01       		.byte	0x1
 3308 0b47 C601     		.2byte	0x1c6
 3309 0b49 70000000 		.4byte	0x70
 3310 0b4d 8C070000 		.4byte	.LLST68
 3311 0b51 00       		.byte	0x0
 3312 0b52 00       		.byte	0x0
 3313 0b53 21       		.uleb128 0x21
 3314 0b54 01       		.byte	0x1
 3315 0b55 7C000000 		.4byte	.LASF86
 3316 0b59 01       		.byte	0x1
 3317 0b5a E201     		.2byte	0x1e2
 3318 0b5c 01       		.byte	0x1
 3319 0b5d D2000000 		.4byte	0xd2
 3320 0b61 00000000 		.4byte	.LFB21
 3321 0b65 50000000 		.4byte	.LFE21
 3322 0b69 AA070000 		.4byte	.LLST69
 3323 0b6d 160C0000 		.4byte	0xc16
 3324 0b71 1F       		.uleb128 0x1f
 3325 0b72 FF000000 		.4byte	.LASF69
 3326 0b76 01       		.byte	0x1
 3327 0b77 E201     		.2byte	0x1e2
 3328 0b79 D2000000 		.4byte	0xd2
 3329 0b7d CA070000 		.4byte	.LLST70
 3330 0b81 1F       		.uleb128 0x1f
 3331 0b82 02020000 		.4byte	.LASF84
 3332 0b86 01       		.byte	0x1
 3333 0b87 E201     		.2byte	0x1e2
 3334 0b89 DD000000 		.4byte	0xdd
 3335 0b8d FE070000 		.4byte	.LLST71
 3336 0b91 20       		.uleb128 0x20
 3337 0b92 63747000 		.ascii	"ctp\000"
 3338 0b96 01       		.byte	0x1
 3339 0b97 E301     		.2byte	0x1e3
 3340 0b99 3A020000 		.4byte	0x23a
 3341 0b9d 11080000 		.4byte	.LLST72
 3342 0ba1 16       		.uleb128 0x16
 3343 0ba2 08000000 		.4byte	.LBB30
ARM GAS  /tmp/ccisXRBZ.s 			page 60


 3344 0ba6 0E000000 		.4byte	.LBE30
 3345 0baa BF0B0000 		.4byte	0xbbf
 3346 0bae 20       		.uleb128 0x20
 3347 0baf 746D7000 		.ascii	"tmp\000"
 3348 0bb3 01       		.byte	0x1
 3349 0bb4 E501     		.2byte	0x1e5
 3350 0bb6 70000000 		.4byte	0x70
 3351 0bba 30080000 		.4byte	.LLST73
 3352 0bbe 00       		.byte	0x0
 3353 0bbf 16       		.uleb128 0x16
 3354 0bc0 18000000 		.4byte	.LBB31
 3355 0bc4 1E000000 		.4byte	.LBE31
 3356 0bc8 DD0B0000 		.4byte	0xbdd
 3357 0bcc 20       		.uleb128 0x20
 3358 0bcd 746D7000 		.ascii	"tmp\000"
 3359 0bd1 01       		.byte	0x1
 3360 0bd2 E901     		.2byte	0x1e9
 3361 0bd4 70000000 		.4byte	0x70
 3362 0bd8 43080000 		.4byte	.LLST74
 3363 0bdc 00       		.byte	0x0
 3364 0bdd 16       		.uleb128 0x16
 3365 0bde 38000000 		.4byte	.LBB32
 3366 0be2 3E000000 		.4byte	.LBE32
 3367 0be6 FB0B0000 		.4byte	0xbfb
 3368 0bea 20       		.uleb128 0x20
 3369 0beb 746D7000 		.ascii	"tmp\000"
 3370 0bef 01       		.byte	0x1
 3371 0bf0 F401     		.2byte	0x1f4
 3372 0bf2 70000000 		.4byte	0x70
 3373 0bf6 56080000 		.4byte	.LLST75
 3374 0bfa 00       		.byte	0x0
 3375 0bfb 1C       		.uleb128 0x1c
 3376 0bfc 42000000 		.4byte	.LBB33
 3377 0c00 48000000 		.4byte	.LBE33
 3378 0c04 20       		.uleb128 0x20
 3379 0c05 746D7000 		.ascii	"tmp\000"
 3380 0c09 01       		.byte	0x1
 3381 0c0a EE01     		.2byte	0x1ee
 3382 0c0c 70000000 		.4byte	0x70
 3383 0c10 69080000 		.4byte	.LLST76
 3384 0c14 00       		.byte	0x0
 3385 0c15 00       		.byte	0x0
 3386 0c16 22       		.uleb128 0x22
 3387 0c17 5F030000 		.4byte	.LASF87
 3388 0c1b 07       		.byte	0x7
 3389 0c1c 72       		.byte	0x72
 3390 0c1d 9A030000 		.4byte	0x39a
 3391 0c21 01       		.byte	0x1
 3392 0c22 01       		.byte	0x1
 3393 0c23 22       		.uleb128 0x22
 3394 0c24 5F030000 		.4byte	.LASF87
 3395 0c28 07       		.byte	0x7
 3396 0c29 72       		.byte	0x72
 3397 0c2a 9A030000 		.4byte	0x39a
 3398 0c2e 01       		.byte	0x1
 3399 0c2f 01       		.byte	0x1
 3400 0c30 00       		.byte	0x0
ARM GAS  /tmp/ccisXRBZ.s 			page 61


 3401              		.section	.debug_abbrev
 3402 0000 01       		.uleb128 0x1
 3403 0001 11       		.uleb128 0x11
 3404 0002 01       		.byte	0x1
 3405 0003 25       		.uleb128 0x25
 3406 0004 0E       		.uleb128 0xe
 3407 0005 13       		.uleb128 0x13
 3408 0006 0B       		.uleb128 0xb
 3409 0007 03       		.uleb128 0x3
 3410 0008 0E       		.uleb128 0xe
 3411 0009 1B       		.uleb128 0x1b
 3412 000a 0E       		.uleb128 0xe
 3413 000b 11       		.uleb128 0x11
 3414 000c 01       		.uleb128 0x1
 3415 000d 52       		.uleb128 0x52
 3416 000e 01       		.uleb128 0x1
 3417 000f 55       		.uleb128 0x55
 3418 0010 06       		.uleb128 0x6
 3419 0011 10       		.uleb128 0x10
 3420 0012 06       		.uleb128 0x6
 3421 0013 00       		.byte	0x0
 3422 0014 00       		.byte	0x0
 3423 0015 02       		.uleb128 0x2
 3424 0016 24       		.uleb128 0x24
 3425 0017 00       		.byte	0x0
 3426 0018 0B       		.uleb128 0xb
 3427 0019 0B       		.uleb128 0xb
 3428 001a 3E       		.uleb128 0x3e
 3429 001b 0B       		.uleb128 0xb
 3430 001c 03       		.uleb128 0x3
 3431 001d 08       		.uleb128 0x8
 3432 001e 00       		.byte	0x0
 3433 001f 00       		.byte	0x0
 3434 0020 03       		.uleb128 0x3
 3435 0021 24       		.uleb128 0x24
 3436 0022 00       		.byte	0x0
 3437 0023 0B       		.uleb128 0xb
 3438 0024 0B       		.uleb128 0xb
 3439 0025 3E       		.uleb128 0x3e
 3440 0026 0B       		.uleb128 0xb
 3441 0027 03       		.uleb128 0x3
 3442 0028 0E       		.uleb128 0xe
 3443 0029 00       		.byte	0x0
 3444 002a 00       		.byte	0x0
 3445 002b 04       		.uleb128 0x4
 3446 002c 16       		.uleb128 0x16
 3447 002d 00       		.byte	0x0
 3448 002e 03       		.uleb128 0x3
 3449 002f 0E       		.uleb128 0xe
 3450 0030 3A       		.uleb128 0x3a
 3451 0031 0B       		.uleb128 0xb
 3452 0032 3B       		.uleb128 0x3b
 3453 0033 0B       		.uleb128 0xb
 3454 0034 49       		.uleb128 0x49
 3455 0035 13       		.uleb128 0x13
 3456 0036 00       		.byte	0x0
 3457 0037 00       		.byte	0x0
ARM GAS  /tmp/ccisXRBZ.s 			page 62


 3458 0038 05       		.uleb128 0x5
 3459 0039 13       		.uleb128 0x13
 3460 003a 01       		.byte	0x1
 3461 003b 03       		.uleb128 0x3
 3462 003c 0E       		.uleb128 0xe
 3463 003d 0B       		.uleb128 0xb
 3464 003e 0B       		.uleb128 0xb
 3465 003f 3A       		.uleb128 0x3a
 3466 0040 0B       		.uleb128 0xb
 3467 0041 3B       		.uleb128 0x3b
 3468 0042 0B       		.uleb128 0xb
 3469 0043 01       		.uleb128 0x1
 3470 0044 13       		.uleb128 0x13
 3471 0045 00       		.byte	0x0
 3472 0046 00       		.byte	0x0
 3473 0047 06       		.uleb128 0x6
 3474 0048 0D       		.uleb128 0xd
 3475 0049 00       		.byte	0x0
 3476 004a 03       		.uleb128 0x3
 3477 004b 0E       		.uleb128 0xe
 3478 004c 3A       		.uleb128 0x3a
 3479 004d 0B       		.uleb128 0xb
 3480 004e 3B       		.uleb128 0x3b
 3481 004f 0B       		.uleb128 0xb
 3482 0050 49       		.uleb128 0x49
 3483 0051 13       		.uleb128 0x13
 3484 0052 38       		.uleb128 0x38
 3485 0053 0A       		.uleb128 0xa
 3486 0054 00       		.byte	0x0
 3487 0055 00       		.byte	0x0
 3488 0056 07       		.uleb128 0x7
 3489 0057 0D       		.uleb128 0xd
 3490 0058 00       		.byte	0x0
 3491 0059 03       		.uleb128 0x3
 3492 005a 08       		.uleb128 0x8
 3493 005b 3A       		.uleb128 0x3a
 3494 005c 0B       		.uleb128 0xb
 3495 005d 3B       		.uleb128 0x3b
 3496 005e 0B       		.uleb128 0xb
 3497 005f 49       		.uleb128 0x49
 3498 0060 13       		.uleb128 0x13
 3499 0061 38       		.uleb128 0x38
 3500 0062 0A       		.uleb128 0xa
 3501 0063 00       		.byte	0x0
 3502 0064 00       		.byte	0x0
 3503 0065 08       		.uleb128 0x8
 3504 0066 13       		.uleb128 0x13
 3505 0067 01       		.byte	0x1
 3506 0068 0B       		.uleb128 0xb
 3507 0069 0B       		.uleb128 0xb
 3508 006a 3A       		.uleb128 0x3a
 3509 006b 0B       		.uleb128 0xb
 3510 006c 3B       		.uleb128 0x3b
 3511 006d 0B       		.uleb128 0xb
 3512 006e 01       		.uleb128 0x1
 3513 006f 13       		.uleb128 0x13
 3514 0070 00       		.byte	0x0
ARM GAS  /tmp/ccisXRBZ.s 			page 63


 3515 0071 00       		.byte	0x0
 3516 0072 09       		.uleb128 0x9
 3517 0073 0F       		.uleb128 0xf
 3518 0074 00       		.byte	0x0
 3519 0075 0B       		.uleb128 0xb
 3520 0076 0B       		.uleb128 0xb
 3521 0077 49       		.uleb128 0x49
 3522 0078 13       		.uleb128 0x13
 3523 0079 00       		.byte	0x0
 3524 007a 00       		.byte	0x0
 3525 007b 0A       		.uleb128 0xa
 3526 007c 0F       		.uleb128 0xf
 3527 007d 00       		.byte	0x0
 3528 007e 0B       		.uleb128 0xb
 3529 007f 0B       		.uleb128 0xb
 3530 0080 00       		.byte	0x0
 3531 0081 00       		.byte	0x0
 3532 0082 0B       		.uleb128 0xb
 3533 0083 0D       		.uleb128 0xd
 3534 0084 00       		.byte	0x0
 3535 0085 03       		.uleb128 0x3
 3536 0086 08       		.uleb128 0x8
 3537 0087 3A       		.uleb128 0x3a
 3538 0088 0B       		.uleb128 0xb
 3539 0089 3B       		.uleb128 0x3b
 3540 008a 05       		.uleb128 0x5
 3541 008b 49       		.uleb128 0x49
 3542 008c 13       		.uleb128 0x13
 3543 008d 38       		.uleb128 0x38
 3544 008e 0A       		.uleb128 0xa
 3545 008f 00       		.byte	0x0
 3546 0090 00       		.byte	0x0
 3547 0091 0C       		.uleb128 0xc
 3548 0092 13       		.uleb128 0x13
 3549 0093 01       		.byte	0x1
 3550 0094 03       		.uleb128 0x3
 3551 0095 0E       		.uleb128 0xe
 3552 0096 0B       		.uleb128 0xb
 3553 0097 0B       		.uleb128 0xb
 3554 0098 3A       		.uleb128 0x3a
 3555 0099 0B       		.uleb128 0xb
 3556 009a 3B       		.uleb128 0x3b
 3557 009b 05       		.uleb128 0x5
 3558 009c 01       		.uleb128 0x1
 3559 009d 13       		.uleb128 0x13
 3560 009e 00       		.byte	0x0
 3561 009f 00       		.byte	0x0
 3562 00a0 0D       		.uleb128 0xd
 3563 00a1 35       		.uleb128 0x35
 3564 00a2 00       		.byte	0x0
 3565 00a3 49       		.uleb128 0x49
 3566 00a4 13       		.uleb128 0x13
 3567 00a5 00       		.byte	0x0
 3568 00a6 00       		.byte	0x0
 3569 00a7 0E       		.uleb128 0xe
 3570 00a8 15       		.uleb128 0x15
 3571 00a9 01       		.byte	0x1
ARM GAS  /tmp/ccisXRBZ.s 			page 64


 3572 00aa 27       		.uleb128 0x27
 3573 00ab 0C       		.uleb128 0xc
 3574 00ac 01       		.uleb128 0x1
 3575 00ad 13       		.uleb128 0x13
 3576 00ae 00       		.byte	0x0
 3577 00af 00       		.byte	0x0
 3578 00b0 0F       		.uleb128 0xf
 3579 00b1 05       		.uleb128 0x5
 3580 00b2 00       		.byte	0x0
 3581 00b3 49       		.uleb128 0x49
 3582 00b4 13       		.uleb128 0x13
 3583 00b5 00       		.byte	0x0
 3584 00b6 00       		.byte	0x0
 3585 00b7 10       		.uleb128 0x10
 3586 00b8 17       		.uleb128 0x17
 3587 00b9 01       		.byte	0x1
 3588 00ba 0B       		.uleb128 0xb
 3589 00bb 0B       		.uleb128 0xb
 3590 00bc 3A       		.uleb128 0x3a
 3591 00bd 0B       		.uleb128 0xb
 3592 00be 3B       		.uleb128 0x3b
 3593 00bf 0B       		.uleb128 0xb
 3594 00c0 01       		.uleb128 0x1
 3595 00c1 13       		.uleb128 0x13
 3596 00c2 00       		.byte	0x0
 3597 00c3 00       		.byte	0x0
 3598 00c4 11       		.uleb128 0x11
 3599 00c5 0D       		.uleb128 0xd
 3600 00c6 00       		.byte	0x0
 3601 00c7 03       		.uleb128 0x3
 3602 00c8 0E       		.uleb128 0xe
 3603 00c9 3A       		.uleb128 0x3a
 3604 00ca 0B       		.uleb128 0xb
 3605 00cb 3B       		.uleb128 0x3b
 3606 00cc 0B       		.uleb128 0xb
 3607 00cd 49       		.uleb128 0x49
 3608 00ce 13       		.uleb128 0x13
 3609 00cf 00       		.byte	0x0
 3610 00d0 00       		.byte	0x0
 3611 00d1 12       		.uleb128 0x12
 3612 00d2 26       		.uleb128 0x26
 3613 00d3 00       		.byte	0x0
 3614 00d4 49       		.uleb128 0x49
 3615 00d5 13       		.uleb128 0x13
 3616 00d6 00       		.byte	0x0
 3617 00d7 00       		.byte	0x0
 3618 00d8 13       		.uleb128 0x13
 3619 00d9 2E       		.uleb128 0x2e
 3620 00da 01       		.byte	0x1
 3621 00db 3F       		.uleb128 0x3f
 3622 00dc 0C       		.uleb128 0xc
 3623 00dd 03       		.uleb128 0x3
 3624 00de 0E       		.uleb128 0xe
 3625 00df 3A       		.uleb128 0x3a
 3626 00e0 0B       		.uleb128 0xb
 3627 00e1 3B       		.uleb128 0x3b
 3628 00e2 0B       		.uleb128 0xb
ARM GAS  /tmp/ccisXRBZ.s 			page 65


 3629 00e3 27       		.uleb128 0x27
 3630 00e4 0C       		.uleb128 0xc
 3631 00e5 11       		.uleb128 0x11
 3632 00e6 01       		.uleb128 0x1
 3633 00e7 12       		.uleb128 0x12
 3634 00e8 01       		.uleb128 0x1
 3635 00e9 40       		.uleb128 0x40
 3636 00ea 06       		.uleb128 0x6
 3637 00eb 01       		.uleb128 0x1
 3638 00ec 13       		.uleb128 0x13
 3639 00ed 00       		.byte	0x0
 3640 00ee 00       		.byte	0x0
 3641 00ef 14       		.uleb128 0x14
 3642 00f0 05       		.uleb128 0x5
 3643 00f1 00       		.byte	0x0
 3644 00f2 03       		.uleb128 0x3
 3645 00f3 08       		.uleb128 0x8
 3646 00f4 3A       		.uleb128 0x3a
 3647 00f5 0B       		.uleb128 0xb
 3648 00f6 3B       		.uleb128 0x3b
 3649 00f7 0B       		.uleb128 0xb
 3650 00f8 49       		.uleb128 0x49
 3651 00f9 13       		.uleb128 0x13
 3652 00fa 02       		.uleb128 0x2
 3653 00fb 0A       		.uleb128 0xa
 3654 00fc 00       		.byte	0x0
 3655 00fd 00       		.byte	0x0
 3656 00fe 15       		.uleb128 0x15
 3657 00ff 05       		.uleb128 0x5
 3658 0100 00       		.byte	0x0
 3659 0101 03       		.uleb128 0x3
 3660 0102 0E       		.uleb128 0xe
 3661 0103 3A       		.uleb128 0x3a
 3662 0104 0B       		.uleb128 0xb
 3663 0105 3B       		.uleb128 0x3b
 3664 0106 0B       		.uleb128 0xb
 3665 0107 49       		.uleb128 0x49
 3666 0108 13       		.uleb128 0x13
 3667 0109 02       		.uleb128 0x2
 3668 010a 0A       		.uleb128 0xa
 3669 010b 00       		.byte	0x0
 3670 010c 00       		.byte	0x0
 3671 010d 16       		.uleb128 0x16
 3672 010e 0B       		.uleb128 0xb
 3673 010f 01       		.byte	0x1
 3674 0110 11       		.uleb128 0x11
 3675 0111 01       		.uleb128 0x1
 3676 0112 12       		.uleb128 0x12
 3677 0113 01       		.uleb128 0x1
 3678 0114 01       		.uleb128 0x1
 3679 0115 13       		.uleb128 0x13
 3680 0116 00       		.byte	0x0
 3681 0117 00       		.byte	0x0
 3682 0118 17       		.uleb128 0x17
 3683 0119 34       		.uleb128 0x34
 3684 011a 00       		.byte	0x0
 3685 011b 03       		.uleb128 0x3
ARM GAS  /tmp/ccisXRBZ.s 			page 66


 3686 011c 08       		.uleb128 0x8
 3687 011d 3A       		.uleb128 0x3a
 3688 011e 0B       		.uleb128 0xb
 3689 011f 3B       		.uleb128 0x3b
 3690 0120 0B       		.uleb128 0xb
 3691 0121 49       		.uleb128 0x49
 3692 0122 13       		.uleb128 0x13
 3693 0123 02       		.uleb128 0x2
 3694 0124 06       		.uleb128 0x6
 3695 0125 00       		.byte	0x0
 3696 0126 00       		.byte	0x0
 3697 0127 18       		.uleb128 0x18
 3698 0128 0B       		.uleb128 0xb
 3699 0129 01       		.byte	0x1
 3700 012a 55       		.uleb128 0x55
 3701 012b 06       		.uleb128 0x6
 3702 012c 00       		.byte	0x0
 3703 012d 00       		.byte	0x0
 3704 012e 19       		.uleb128 0x19
 3705 012f 2E       		.uleb128 0x2e
 3706 0130 01       		.byte	0x1
 3707 0131 3F       		.uleb128 0x3f
 3708 0132 0C       		.uleb128 0xc
 3709 0133 03       		.uleb128 0x3
 3710 0134 0E       		.uleb128 0xe
 3711 0135 3A       		.uleb128 0x3a
 3712 0136 0B       		.uleb128 0xb
 3713 0137 3B       		.uleb128 0x3b
 3714 0138 0B       		.uleb128 0xb
 3715 0139 27       		.uleb128 0x27
 3716 013a 0C       		.uleb128 0xc
 3717 013b 11       		.uleb128 0x11
 3718 013c 01       		.uleb128 0x1
 3719 013d 12       		.uleb128 0x12
 3720 013e 01       		.uleb128 0x1
 3721 013f 40       		.uleb128 0x40
 3722 0140 0A       		.uleb128 0xa
 3723 0141 01       		.uleb128 0x1
 3724 0142 13       		.uleb128 0x13
 3725 0143 00       		.byte	0x0
 3726 0144 00       		.byte	0x0
 3727 0145 1A       		.uleb128 0x1a
 3728 0146 2E       		.uleb128 0x2e
 3729 0147 01       		.byte	0x1
 3730 0148 3F       		.uleb128 0x3f
 3731 0149 0C       		.uleb128 0xc
 3732 014a 03       		.uleb128 0x3
 3733 014b 0E       		.uleb128 0xe
 3734 014c 3A       		.uleb128 0x3a
 3735 014d 0B       		.uleb128 0xb
 3736 014e 3B       		.uleb128 0x3b
 3737 014f 0B       		.uleb128 0xb
 3738 0150 27       		.uleb128 0x27
 3739 0151 0C       		.uleb128 0xc
 3740 0152 49       		.uleb128 0x49
 3741 0153 13       		.uleb128 0x13
 3742 0154 11       		.uleb128 0x11
ARM GAS  /tmp/ccisXRBZ.s 			page 67


 3743 0155 01       		.uleb128 0x1
 3744 0156 12       		.uleb128 0x12
 3745 0157 01       		.uleb128 0x1
 3746 0158 40       		.uleb128 0x40
 3747 0159 0A       		.uleb128 0xa
 3748 015a 01       		.uleb128 0x1
 3749 015b 13       		.uleb128 0x13
 3750 015c 00       		.byte	0x0
 3751 015d 00       		.byte	0x0
 3752 015e 1B       		.uleb128 0x1b
 3753 015f 05       		.uleb128 0x5
 3754 0160 00       		.byte	0x0
 3755 0161 03       		.uleb128 0x3
 3756 0162 0E       		.uleb128 0xe
 3757 0163 3A       		.uleb128 0x3a
 3758 0164 0B       		.uleb128 0xb
 3759 0165 3B       		.uleb128 0x3b
 3760 0166 0B       		.uleb128 0xb
 3761 0167 49       		.uleb128 0x49
 3762 0168 13       		.uleb128 0x13
 3763 0169 02       		.uleb128 0x2
 3764 016a 06       		.uleb128 0x6
 3765 016b 00       		.byte	0x0
 3766 016c 00       		.byte	0x0
 3767 016d 1C       		.uleb128 0x1c
 3768 016e 0B       		.uleb128 0xb
 3769 016f 01       		.byte	0x1
 3770 0170 11       		.uleb128 0x11
 3771 0171 01       		.uleb128 0x1
 3772 0172 12       		.uleb128 0x12
 3773 0173 01       		.uleb128 0x1
 3774 0174 00       		.byte	0x0
 3775 0175 00       		.byte	0x0
 3776 0176 1D       		.uleb128 0x1d
 3777 0177 05       		.uleb128 0x5
 3778 0178 00       		.byte	0x0
 3779 0179 03       		.uleb128 0x3
 3780 017a 08       		.uleb128 0x8
 3781 017b 3A       		.uleb128 0x3a
 3782 017c 0B       		.uleb128 0xb
 3783 017d 3B       		.uleb128 0x3b
 3784 017e 0B       		.uleb128 0xb
 3785 017f 49       		.uleb128 0x49
 3786 0180 13       		.uleb128 0x13
 3787 0181 02       		.uleb128 0x2
 3788 0182 06       		.uleb128 0x6
 3789 0183 00       		.byte	0x0
 3790 0184 00       		.byte	0x0
 3791 0185 1E       		.uleb128 0x1e
 3792 0186 2E       		.uleb128 0x2e
 3793 0187 01       		.byte	0x1
 3794 0188 3F       		.uleb128 0x3f
 3795 0189 0C       		.uleb128 0xc
 3796 018a 03       		.uleb128 0x3
 3797 018b 0E       		.uleb128 0xe
 3798 018c 3A       		.uleb128 0x3a
 3799 018d 0B       		.uleb128 0xb
ARM GAS  /tmp/ccisXRBZ.s 			page 68


 3800 018e 3B       		.uleb128 0x3b
 3801 018f 05       		.uleb128 0x5
 3802 0190 27       		.uleb128 0x27
 3803 0191 0C       		.uleb128 0xc
 3804 0192 11       		.uleb128 0x11
 3805 0193 01       		.uleb128 0x1
 3806 0194 12       		.uleb128 0x12
 3807 0195 01       		.uleb128 0x1
 3808 0196 40       		.uleb128 0x40
 3809 0197 06       		.uleb128 0x6
 3810 0198 01       		.uleb128 0x1
 3811 0199 13       		.uleb128 0x13
 3812 019a 00       		.byte	0x0
 3813 019b 00       		.byte	0x0
 3814 019c 1F       		.uleb128 0x1f
 3815 019d 05       		.uleb128 0x5
 3816 019e 00       		.byte	0x0
 3817 019f 03       		.uleb128 0x3
 3818 01a0 0E       		.uleb128 0xe
 3819 01a1 3A       		.uleb128 0x3a
 3820 01a2 0B       		.uleb128 0xb
 3821 01a3 3B       		.uleb128 0x3b
 3822 01a4 05       		.uleb128 0x5
 3823 01a5 49       		.uleb128 0x49
 3824 01a6 13       		.uleb128 0x13
 3825 01a7 02       		.uleb128 0x2
 3826 01a8 06       		.uleb128 0x6
 3827 01a9 00       		.byte	0x0
 3828 01aa 00       		.byte	0x0
 3829 01ab 20       		.uleb128 0x20
 3830 01ac 34       		.uleb128 0x34
 3831 01ad 00       		.byte	0x0
 3832 01ae 03       		.uleb128 0x3
 3833 01af 08       		.uleb128 0x8
 3834 01b0 3A       		.uleb128 0x3a
 3835 01b1 0B       		.uleb128 0xb
 3836 01b2 3B       		.uleb128 0x3b
 3837 01b3 05       		.uleb128 0x5
 3838 01b4 49       		.uleb128 0x49
 3839 01b5 13       		.uleb128 0x13
 3840 01b6 02       		.uleb128 0x2
 3841 01b7 06       		.uleb128 0x6
 3842 01b8 00       		.byte	0x0
 3843 01b9 00       		.byte	0x0
 3844 01ba 21       		.uleb128 0x21
 3845 01bb 2E       		.uleb128 0x2e
 3846 01bc 01       		.byte	0x1
 3847 01bd 3F       		.uleb128 0x3f
 3848 01be 0C       		.uleb128 0xc
 3849 01bf 03       		.uleb128 0x3
 3850 01c0 0E       		.uleb128 0xe
 3851 01c1 3A       		.uleb128 0x3a
 3852 01c2 0B       		.uleb128 0xb
 3853 01c3 3B       		.uleb128 0x3b
 3854 01c4 05       		.uleb128 0x5
 3855 01c5 27       		.uleb128 0x27
 3856 01c6 0C       		.uleb128 0xc
ARM GAS  /tmp/ccisXRBZ.s 			page 69


 3857 01c7 49       		.uleb128 0x49
 3858 01c8 13       		.uleb128 0x13
 3859 01c9 11       		.uleb128 0x11
 3860 01ca 01       		.uleb128 0x1
 3861 01cb 12       		.uleb128 0x12
 3862 01cc 01       		.uleb128 0x1
 3863 01cd 40       		.uleb128 0x40
 3864 01ce 06       		.uleb128 0x6
 3865 01cf 01       		.uleb128 0x1
 3866 01d0 13       		.uleb128 0x13
 3867 01d1 00       		.byte	0x0
 3868 01d2 00       		.byte	0x0
 3869 01d3 22       		.uleb128 0x22
 3870 01d4 34       		.uleb128 0x34
 3871 01d5 00       		.byte	0x0
 3872 01d6 03       		.uleb128 0x3
 3873 01d7 0E       		.uleb128 0xe
 3874 01d8 3A       		.uleb128 0x3a
 3875 01d9 0B       		.uleb128 0xb
 3876 01da 3B       		.uleb128 0x3b
 3877 01db 0B       		.uleb128 0xb
 3878 01dc 49       		.uleb128 0x49
 3879 01dd 13       		.uleb128 0x13
 3880 01de 3F       		.uleb128 0x3f
 3881 01df 0C       		.uleb128 0xc
 3882 01e0 3C       		.uleb128 0x3c
 3883 01e1 0C       		.uleb128 0xc
 3884 01e2 00       		.byte	0x0
 3885 01e3 00       		.byte	0x0
 3886 01e4 00       		.byte	0x0
 3887              		.section	.debug_pubnames,"",%progbits
 3888 0000 47010000 		.4byte	0x147
 3889 0004 0200     		.2byte	0x2
 3890 0006 00000000 		.4byte	.Ldebug_info0
 3891 000a 310C0000 		.4byte	0xc31
 3892 000e C5040000 		.4byte	0x4c5
 3893 0012 63684576 		.ascii	"chEvtRegisterMask\000"
 3893      74526567 
 3893      69737465 
 3893      724D6173 
 3893      6B00
 3894 0024 3E050000 		.4byte	0x53e
 3895 0028 63684576 		.ascii	"chEvtUnregister\000"
 3895      74556E72 
 3895      65676973 
 3895      74657200 
 3896 0038 B0050000 		.4byte	0x5b0
 3897 003c 63684576 		.ascii	"chEvtClearFlags\000"
 3897      74436C65 
 3897      6172466C 
 3897      61677300 
 3898 004c 1F060000 		.4byte	0x61f
 3899 0050 63684576 		.ascii	"chEvtAddFlags\000"
 3899      74416464 
 3899      466C6167 
 3899      7300
 3900 005e 81060000 		.4byte	0x681
ARM GAS  /tmp/ccisXRBZ.s 			page 70


 3901 0062 63684576 		.ascii	"chEvtSignalFlagsI\000"
 3901      74536967 
 3901      6E616C46 
 3901      6C616773 
 3901      4900
 3902 0074 B8060000 		.4byte	0x6b8
 3903 0078 63684576 		.ascii	"chEvtSignalFlags\000"
 3903      74536967 
 3903      6E616C46 
 3903      6C616773 
 3903      00
 3904 0089 25070000 		.4byte	0x725
 3905 008d 63684576 		.ascii	"chEvtBroadcastFlagsI\000"
 3905      7442726F 
 3905      61646361 
 3905      7374466C 
 3905      61677349 
 3906 00a2 6C070000 		.4byte	0x76c
 3907 00a6 63684576 		.ascii	"chEvtBroadcastFlags\000"
 3907      7442726F 
 3907      61646361 
 3907      7374466C 
 3907      61677300 
 3908 00ba DA070000 		.4byte	0x7da
 3909 00be 63684576 		.ascii	"chEvtDispatch\000"
 3909      74446973 
 3909      70617463 
 3909      6800
 3910 00cc 30080000 		.4byte	0x830
 3911 00d0 63684576 		.ascii	"chEvtWaitOne\000"
 3911      74576169 
 3911      744F6E65 
 3911      00
 3912 00dd B5080000 		.4byte	0x8b5
 3913 00e1 63684576 		.ascii	"chEvtWaitAny\000"
 3913      74576169 
 3913      74416E79 
 3913      00
 3914 00ee 3A090000 		.4byte	0x93a
 3915 00f2 63684576 		.ascii	"chEvtWaitAll\000"
 3915      74576169 
 3915      74416C6C 
 3915      00
 3916 00ff B1090000 		.4byte	0x9b1
 3917 0103 63684576 		.ascii	"chEvtWaitOneTimeout\000"
 3917      74576169 
 3917      744F6E65 
 3917      54696D65 
 3917      6F757400 
 3918 0117 820A0000 		.4byte	0xa82
 3919 011b 63684576 		.ascii	"chEvtWaitAnyTimeout\000"
 3919      74576169 
 3919      74416E79 
 3919      54696D65 
 3919      6F757400 
 3920 012f 530B0000 		.4byte	0xb53
 3921 0133 63684576 		.ascii	"chEvtWaitAllTimeout\000"
ARM GAS  /tmp/ccisXRBZ.s 			page 71


 3921      74576169 
 3921      74416C6C 
 3921      54696D65 
 3921      6F757400 
 3922 0147 00000000 		.4byte	0x0
 3923              		.section	.debug_pubtypes,"",%progbits
 3924 0000 75010000 		.4byte	0x175
 3925 0004 0200     		.2byte	0x2
 3926 0006 00000000 		.4byte	.Ldebug_info0
 3927 000a 310C0000 		.4byte	0xc31
 3928 000e 3E000000 		.4byte	0x3e
 3929 0012 75696E74 		.ascii	"uint8_t\000"
 3929      385F7400 
 3930 001a 5E000000 		.4byte	0x5e
 3931 001e 696E7433 		.ascii	"int32_t\000"
 3931      325F7400 
 3932 0026 70000000 		.4byte	0x70
 3933 002a 75696E74 		.ascii	"uint32_t\000"
 3933      33325F74 
 3933      00
 3934 0033 90000000 		.4byte	0x90
 3935 0037 746D6F64 		.ascii	"tmode_t\000"
 3935      655F7400 
 3936 003f 9B000000 		.4byte	0x9b
 3937 0043 74737461 		.ascii	"tstate_t\000"
 3937      74655F74 
 3937      00
 3938 004c A6000000 		.4byte	0xa6
 3939 0050 74726566 		.ascii	"trefs_t\000"
 3939      735F7400 
 3940 0058 B1000000 		.4byte	0xb1
 3941 005c 74707269 		.ascii	"tprio_t\000"
 3941      6F5F7400 
 3942 0064 BC000000 		.4byte	0xbc
 3943 0068 6D73675F 		.ascii	"msg_t\000"
 3943      7400
 3944 006e C7000000 		.4byte	0xc7
 3945 0072 6576656E 		.ascii	"eventid_t\000"
 3945      7469645F 
 3945      7400
 3946 007c D2000000 		.4byte	0xd2
 3947 0080 6576656E 		.ascii	"eventmask_t\000"
 3947      746D6173 
 3947      6B5F7400 
 3948 008c DD000000 		.4byte	0xdd
 3949 0090 73797374 		.ascii	"systime_t\000"
 3949      696D655F 
 3949      7400
 3950 009a E8000000 		.4byte	0xe8
 3951 009e 636E745F 		.ascii	"cnt_t\000"
 3951      7400
 3952 00a4 F3000000 		.4byte	0xf3
 3953 00a8 54687265 		.ascii	"Thread\000"
 3953      616400
 3954 00af 40020000 		.4byte	0x240
 3955 00b3 54687265 		.ascii	"ThreadsQueue\000"
 3955      61647351 
ARM GAS  /tmp/ccisXRBZ.s 			page 72


 3955      75657565 
 3955      00
 3956 00c0 62020000 		.4byte	0x262
 3957 00c4 54687265 		.ascii	"ThreadsList\000"
 3957      6164734C 
 3957      69737400 
 3958 00d0 6D020000 		.4byte	0x26d
 3959 00d4 72656761 		.ascii	"regarm_t\000"
 3959      726D5F74 
 3959      00
 3960 00dd 7A020000 		.4byte	0x27a
 3961 00e1 696E7463 		.ascii	"intctx\000"
 3961      747800
 3962 00e8 07030000 		.4byte	0x307
 3963 00ec 636F6E74 		.ascii	"context\000"
 3963      65787400 
 3964 00f4 9A030000 		.4byte	0x39a
 3965 00f8 52656164 		.ascii	"ReadyList\000"
 3965      794C6973 
 3965      7400
 3966 0102 A5030000 		.4byte	0x3a5
 3967 0106 4D757465 		.ascii	"Mutex\000"
 3967      7800
 3968 010c E2030000 		.4byte	0x3e2
 3969 0110 4D757465 		.ascii	"Mutex\000"
 3969      7800
 3970 0116 ED030000 		.4byte	0x3ed
 3971 011a 4576656E 		.ascii	"EventListener\000"
 3971      744C6973 
 3971      74656E65 
 3971      7200
 3972 0128 F8030000 		.4byte	0x3f8
 3973 012c 4576656E 		.ascii	"EventListener\000"
 3973      744C6973 
 3973      74656E65 
 3973      7200
 3974 013a 35040000 		.4byte	0x435
 3975 013e 4576656E 		.ascii	"EventSource\000"
 3975      74536F75 
 3975      72636500 
 3976 014a 50040000 		.4byte	0x450
 3977 014e 4576656E 		.ascii	"EventSource\000"
 3977      74536F75 
 3977      72636500 
 3978 015a 5B040000 		.4byte	0x45b
 3979 015e 65766861 		.ascii	"evhandler_t\000"
 3979      6E646C65 
 3979      725F7400 
 3980 016a FE000000 		.4byte	0xfe
 3981 016e 54687265 		.ascii	"Thread\000"
 3981      616400
 3982 0175 00000000 		.4byte	0x0
 3983              		.section	.debug_aranges,"",%progbits
 3984 0000 8C000000 		.4byte	0x8c
 3985 0004 0200     		.2byte	0x2
 3986 0006 00000000 		.4byte	.Ldebug_info0
 3987 000a 04       		.byte	0x4
ARM GAS  /tmp/ccisXRBZ.s 			page 73


 3988 000b 00       		.byte	0x0
 3989 000c 0000     		.2byte	0x0
 3990 000e 0000     		.2byte	0x0
 3991 0010 00000000 		.4byte	.LFB7
 3992 0014 24000000 		.4byte	.LFE7-.LFB7
 3993 0018 00000000 		.4byte	.LFB8
 3994 001c 2A000000 		.4byte	.LFE8-.LFB8
 3995 0020 00000000 		.4byte	.LFB9
 3996 0024 20000000 		.4byte	.LFE9-.LFB9
 3997 0028 00000000 		.4byte	.LFB10
 3998 002c 1C000000 		.4byte	.LFE10-.LFB10
 3999 0030 00000000 		.4byte	.LFB12
 4000 0034 32000000 		.4byte	.LFE12-.LFB12
 4001 0038 00000000 		.4byte	.LFB11
 4002 003c 18000000 		.4byte	.LFE11-.LFB11
 4003 0040 00000000 		.4byte	.LFB14
 4004 0044 20000000 		.4byte	.LFE14-.LFB14
 4005 0048 00000000 		.4byte	.LFB13
 4006 004c 18000000 		.4byte	.LFE13-.LFB13
 4007 0050 00000000 		.4byte	.LFB15
 4008 0054 32000000 		.4byte	.LFE15-.LFB15
 4009 0058 00000000 		.4byte	.LFB16
 4010 005c 3C000000 		.4byte	.LFE16-.LFB16
 4011 0060 00000000 		.4byte	.LFB17
 4012 0064 34000000 		.4byte	.LFE17-.LFB17
 4013 0068 00000000 		.4byte	.LFB18
 4014 006c 38000000 		.4byte	.LFE18-.LFB18
 4015 0070 00000000 		.4byte	.LFB19
 4016 0074 54000000 		.4byte	.LFE19-.LFB19
 4017 0078 00000000 		.4byte	.LFB20
 4018 007c 50000000 		.4byte	.LFE20-.LFB20
 4019 0080 00000000 		.4byte	.LFB21
 4020 0084 50000000 		.4byte	.LFE21-.LFB21
 4021 0088 00000000 		.4byte	0x0
 4022 008c 00000000 		.4byte	0x0
 4023              		.section	.debug_ranges,"",%progbits
 4024              	.Ldebug_ranges0:
 4025 0000 12000000 		.4byte	.LBB3
 4026 0004 14000000 		.4byte	.LBE3
 4027 0008 18000000 		.4byte	.LBB4
 4028 000c 1C000000 		.4byte	.LBE4
 4029 0010 00000000 		.4byte	0x0
 4030 0014 00000000 		.4byte	0x0
 4031 0018 16000000 		.4byte	.LBB6
 4032 001c 1C000000 		.4byte	.LBE6
 4033 0020 22000000 		.4byte	.LBB7
 4034 0024 28000000 		.4byte	.LBE7
 4035 0028 00000000 		.4byte	0x0
 4036 002c 00000000 		.4byte	0x0
 4037 0030 00000000 		.4byte	.LFB7
 4038 0034 24000000 		.4byte	.LFE7
 4039 0038 00000000 		.4byte	.LFB8
 4040 003c 2A000000 		.4byte	.LFE8
 4041 0040 00000000 		.4byte	.LFB9
 4042 0044 20000000 		.4byte	.LFE9
 4043 0048 00000000 		.4byte	.LFB10
 4044 004c 1C000000 		.4byte	.LFE10
ARM GAS  /tmp/ccisXRBZ.s 			page 74


 4045 0050 00000000 		.4byte	.LFB12
 4046 0054 32000000 		.4byte	.LFE12
 4047 0058 00000000 		.4byte	.LFB11
 4048 005c 18000000 		.4byte	.LFE11
 4049 0060 00000000 		.4byte	.LFB14
 4050 0064 20000000 		.4byte	.LFE14
 4051 0068 00000000 		.4byte	.LFB13
 4052 006c 18000000 		.4byte	.LFE13
 4053 0070 00000000 		.4byte	.LFB15
 4054 0074 32000000 		.4byte	.LFE15
 4055 0078 00000000 		.4byte	.LFB16
 4056 007c 3C000000 		.4byte	.LFE16
 4057 0080 00000000 		.4byte	.LFB17
 4058 0084 34000000 		.4byte	.LFE17
 4059 0088 00000000 		.4byte	.LFB18
 4060 008c 38000000 		.4byte	.LFE18
 4061 0090 00000000 		.4byte	.LFB19
 4062 0094 54000000 		.4byte	.LFE19
 4063 0098 00000000 		.4byte	.LFB20
 4064 009c 50000000 		.4byte	.LFE20
 4065 00a0 00000000 		.4byte	.LFB21
 4066 00a4 50000000 		.4byte	.LFE21
 4067 00a8 00000000 		.4byte	0x0
 4068 00ac 00000000 		.4byte	0x0
 4069              		.section	.debug_str,"MS",%progbits,1
 4070              	.LASF15:
 4071 0000 74707269 		.ascii	"tprio_t\000"
 4071      6F5F7400 
 4072              	.LASF35:
 4073 0008 705F6D73 		.ascii	"p_msg\000"
 4073      6700
 4074              	.LASF64:
 4075 000e 7264796D 		.ascii	"rdymsg\000"
 4075      736700
 4076              	.LASF11:
 4077 0015 6C6F6E67 		.ascii	"long long unsigned int\000"
 4077      206C6F6E 
 4077      6720756E 
 4077      7369676E 
 4077      65642069 
 4078              	.LASF65:
 4079 002c 65786974 		.ascii	"exitcode\000"
 4079      636F6465 
 4079      00
 4080              	.LASF74:
 4081 0035 63684576 		.ascii	"chEvtSignalFlagsI\000"
 4081      74536967 
 4081      6E616C46 
 4081      6C616773 
 4081      4900
 4082              	.LASF85:
 4083 0047 63684576 		.ascii	"chEvtWaitAnyTimeout\000"
 4083      74576169 
 4083      74416E79 
 4083      54696D65 
 4083      6F757400 
 4084              	.LASF24:
ARM GAS  /tmp/ccisXRBZ.s 			page 75


 4085 005b 705F7072 		.ascii	"p_prio\000"
 4085      696F00
 4086              	.LASF10:
 4087 0062 6C6F6E67 		.ascii	"long long int\000"
 4087      206C6F6E 
 4087      6720696E 
 4087      7400
 4088              	.LASF1:
 4089 0070 7369676E 		.ascii	"signed char\000"
 4089      65642063 
 4089      68617200 
 4090              	.LASF86:
 4091 007c 63684576 		.ascii	"chEvtWaitAllTimeout\000"
 4091      74576169 
 4091      74416C6C 
 4091      54696D65 
 4091      6F757400 
 4092              	.LASF39:
 4093 0090 705F6D70 		.ascii	"p_mpool\000"
 4093      6F6F6C00 
 4094              	.LASF54:
 4095 0098 6D5F7175 		.ascii	"m_queue\000"
 4095      65756500 
 4096              	.LASF73:
 4097 00a0 63684576 		.ascii	"chEvtAddFlags\000"
 4097      74416464 
 4097      466C6167 
 4097      7300
 4098              	.LASF7:
 4099 00ae 6C6F6E67 		.ascii	"long int\000"
 4099      20696E74 
 4099      00
 4100              	.LASF13:
 4101 00b7 74737461 		.ascii	"tstate_t\000"
 4101      74655F74 
 4101      00
 4102              	.LASF82:
 4103 00c0 63684576 		.ascii	"chEvtWaitAll\000"
 4103      74576169 
 4103      74416C6C 
 4103      00
 4104              	.LASF81:
 4105 00cd 63684576 		.ascii	"chEvtWaitAny\000"
 4105      74576169 
 4105      74416E79 
 4105      00
 4106              	.LASF76:
 4107 00da 63684576 		.ascii	"chEvtBroadcastFlagsI\000"
 4107      7442726F 
 4107      61646361 
 4107      7374466C 
 4107      61677349 
 4108              	.LASF26:
 4109 00ef 705F6E65 		.ascii	"p_newer\000"
 4109      77657200 
 4110              	.LASF48:
 4111 00f7 725F6E65 		.ascii	"r_newer\000"
ARM GAS  /tmp/ccisXRBZ.s 			page 76


 4111      77657200 
 4112              	.LASF69:
 4113 00ff 6D61736B 		.ascii	"mask\000"
 4113      00
 4114              	.LASF42:
 4115 0104 72656761 		.ascii	"regarm_t\000"
 4115      726D5F74 
 4115      00
 4116              	.LASF77:
 4117 010d 63684576 		.ascii	"chEvtBroadcastFlags\000"
 4117      7442726F 
 4117      61646361 
 4117      7374466C 
 4117      61677300 
 4118              	.LASF17:
 4119 0121 6576656E 		.ascii	"eventid_t\000"
 4119      7469645F 
 4119      7400
 4120              	.LASF61:
 4121 012b 4576656E 		.ascii	"EventSource\000"
 4121      74536F75 
 4121      72636500 
 4122              	.LASF63:
 4123 0137 65766861 		.ascii	"evhandler_t\000"
 4123      6E646C65 
 4123      725F7400 
 4124              	.LASF20:
 4125 0143 636E745F 		.ascii	"cnt_t\000"
 4125      7400
 4126              	.LASF0:
 4127 0149 756E7369 		.ascii	"unsigned int\000"
 4127      676E6564 
 4127      20696E74 
 4127      00
 4128              	.LASF9:
 4129 0156 6C6F6E67 		.ascii	"long unsigned int\000"
 4129      20756E73 
 4129      69676E65 
 4129      6420696E 
 4129      7400
 4130              	.LASF44:
 4131 0168 636F6E74 		.ascii	"context\000"
 4131      65787400 
 4132              	.LASF4:
 4133 0170 73686F72 		.ascii	"short unsigned int\000"
 4133      7420756E 
 4133      7369676E 
 4133      65642069 
 4133      6E7400
 4134              	.LASF70:
 4135 0183 63684576 		.ascii	"chEvtRegisterMask\000"
 4135      74526567 
 4135      69737465 
 4135      724D6173 
 4135      6B00
 4136              	.LASF16:
 4137 0195 6D73675F 		.ascii	"msg_t\000"
ARM GAS  /tmp/ccisXRBZ.s 			page 77


 4137      7400
 4138              	.LASF58:
 4139 019b 656C5F6E 		.ascii	"el_next\000"
 4139      65787400 
 4140              	.LASF71:
 4141 01a3 63684576 		.ascii	"chEvtUnregister\000"
 4141      74556E72 
 4141      65676973 
 4141      74657200 
 4142              	.LASF12:
 4143 01b3 746D6F64 		.ascii	"tmode_t\000"
 4143      655F7400 
 4144              	.LASF41:
 4145 01bb 54687265 		.ascii	"ThreadsList\000"
 4145      6164734C 
 4145      69737400 
 4146              	.LASF18:
 4147 01c7 6576656E 		.ascii	"eventmask_t\000"
 4147      746D6173 
 4147      6B5F7400 
 4148              	.LASF53:
 4149 01d3 4D757465 		.ascii	"Mutex\000"
 4149      7800
 4150              	.LASF78:
 4151 01d9 63684576 		.ascii	"chEvtDispatch\000"
 4151      74446973 
 4151      70617463 
 4151      6800
 4152              	.LASF27:
 4153 01e7 705F6F6C 		.ascii	"p_older\000"
 4153      64657200 
 4154              	.LASF47:
 4155 01ef 725F6374 		.ascii	"r_ctx\000"
 4155      7800
 4156              	.LASF40:
 4157 01f5 54687265 		.ascii	"ThreadsQueue\000"
 4157      61647351 
 4157      75657565 
 4157      00
 4158              	.LASF84:
 4159 0202 74696D65 		.ascii	"time\000"
 4159      00
 4160              	.LASF75:
 4161 0207 63684576 		.ascii	"chEvtSignalFlags\000"
 4161      74536967 
 4161      6E616C46 
 4161      6C616773 
 4161      00
 4162              	.LASF51:
 4163 0218 725F6375 		.ascii	"r_current\000"
 4163      7272656E 
 4163      7400
 4164              	.LASF49:
 4165 0222 725F6F6C 		.ascii	"r_older\000"
 4165      64657200 
 4166              	.LASF60:
 4167 022a 656C5F6D 		.ascii	"el_mask\000"
ARM GAS  /tmp/ccisXRBZ.s 			page 78


 4167      61736B00 
 4168              	.LASF79:
 4169 0232 68616E64 		.ascii	"handlers\000"
 4169      6C657273 
 4169      00
 4170              	.LASF14:
 4171 023b 74726566 		.ascii	"trefs_t\000"
 4171      735F7400 
 4172              	.LASF23:
 4173 0243 705F7072 		.ascii	"p_prev\000"
 4173      657600
 4174              	.LASF89:
 4175 024a 2E2E2F6C 		.ascii	"../libs/ChibiOS_2.4.0/os/kernel/src/chevents.c\000"
 4175      6962732F 
 4175      43686962 
 4175      694F535F 
 4175      322E342E 
 4176              	.LASF72:
 4177 0279 63684576 		.ascii	"chEvtClearFlags\000"
 4177      74436C65 
 4177      6172466C 
 4177      61677300 
 4178              	.LASF6:
 4179 0289 696E7433 		.ascii	"int32_t\000"
 4179      325F7400 
 4180              	.LASF2:
 4181 0291 756E7369 		.ascii	"unsigned char\000"
 4181      676E6564 
 4181      20636861 
 4181      7200
 4182              	.LASF80:
 4183 029f 63684576 		.ascii	"chEvtWaitOne\000"
 4183      74576169 
 4183      744F6E65 
 4183      00
 4184              	.LASF59:
 4185 02ac 656C5F6C 		.ascii	"el_listener\000"
 4185      69737465 
 4185      6E657200 
 4186              	.LASF37:
 4187 02b8 705F6D74 		.ascii	"p_mtxlist\000"
 4187      786C6973 
 4187      7400
 4188              	.LASF3:
 4189 02c2 73686F72 		.ascii	"short int\000"
 4189      7420696E 
 4189      7400
 4190              	.LASF29:
 4191 02cc 705F7374 		.ascii	"p_state\000"
 4191      61746500 
 4192              	.LASF46:
 4193 02d4 725F7072 		.ascii	"r_prio\000"
 4193      696F00
 4194              	.LASF67:
 4195 02db 65776D61 		.ascii	"ewmask\000"
 4195      736B00
 4196              	.LASF22:
ARM GAS  /tmp/ccisXRBZ.s 			page 79


 4197 02e2 705F6E65 		.ascii	"p_next\000"
 4197      787400
 4198              	.LASF30:
 4199 02e9 705F666C 		.ascii	"p_flags\000"
 4199      61677300 
 4200              	.LASF21:
 4201 02f1 54687265 		.ascii	"Thread\000"
 4201      616400
 4202              	.LASF36:
 4203 02f8 705F6570 		.ascii	"p_epending\000"
 4203      656E6469 
 4203      6E6700
 4204              	.LASF8:
 4205 0303 75696E74 		.ascii	"uint32_t\000"
 4205      33325F74 
 4205      00
 4206              	.LASF45:
 4207 030c 725F7175 		.ascii	"r_queue\000"
 4207      65756500 
 4208              	.LASF68:
 4209 0314 63686172 		.ascii	"char\000"
 4209      00
 4210              	.LASF56:
 4211 0319 6D5F6E65 		.ascii	"m_next\000"
 4211      787400
 4212              	.LASF19:
 4213 0320 73797374 		.ascii	"systime_t\000"
 4213      696D655F 
 4213      7400
 4214              	.LASF38:
 4215 032a 705F7265 		.ascii	"p_realprio\000"
 4215      616C7072 
 4215      696F00
 4216              	.LASF32:
 4217 0335 705F7469 		.ascii	"p_time\000"
 4217      6D6500
 4218              	.LASF43:
 4219 033c 696E7463 		.ascii	"intctx\000"
 4219      747800
 4220              	.LASF34:
 4221 0343 705F6D73 		.ascii	"p_msgqueue\000"
 4221      67717565 
 4221      756500
 4222              	.LASF31:
 4223 034e 705F7265 		.ascii	"p_refs\000"
 4223      667300
 4224              	.LASF52:
 4225 0355 52656164 		.ascii	"ReadyList\000"
 4225      794C6973 
 4225      7400
 4226              	.LASF87:
 4227 035f 726C6973 		.ascii	"rlist\000"
 4227      7400
 4228              	.LASF5:
 4229 0365 75696E74 		.ascii	"uint8_t\000"
 4229      385F7400 
 4230              	.LASF57:
ARM GAS  /tmp/ccisXRBZ.s 			page 80


 4231 036d 4576656E 		.ascii	"EventListener\000"
 4231      744C6973 
 4231      74656E65 
 4231      7200
 4232              	.LASF83:
 4233 037b 63684576 		.ascii	"chEvtWaitOneTimeout\000"
 4233      74576169 
 4233      744F6E65 
 4233      54696D65 
 4233      6F757400 
 4234              	.LASF66:
 4235 038f 77746F62 		.ascii	"wtobjp\000"
 4235      6A7000
 4236              	.LASF88:
 4237 0396 474E5520 		.ascii	"GNU C 4.5.2\000"
 4237      4320342E 
 4237      352E3200 
 4238              	.LASF28:
 4239 03a2 705F6E61 		.ascii	"p_name\000"
 4239      6D6500
 4240              	.LASF62:
 4241 03a9 65735F6E 		.ascii	"es_next\000"
 4241      65787400 
 4242              	.LASF50:
 4243 03b1 725F7072 		.ascii	"r_preempt\000"
 4243      65656D70 
 4243      7400
 4244              	.LASF55:
 4245 03bb 6D5F6F77 		.ascii	"m_owner\000"
 4245      6E657200 
 4246              	.LASF25:
 4247 03c3 705F6374 		.ascii	"p_ctx\000"
 4247      7800
 4248              	.LASF33:
 4249 03c9 705F7761 		.ascii	"p_waiting\000"
 4249      6974696E 
 4249      6700
 4250              	.LASF90:
 4251 03d3 2F686F6D 		.ascii	"/home/stm32/Workspace/FirmwareSpykee\000"
 4251      652F7374 
 4251      6D33322F 
 4251      576F726B 
 4251      73706163 
 4252              		.ident	"GCC: (Sourcery G++ Lite 2011.03-42) 4.5.2"
ARM GAS  /tmp/ccisXRBZ.s 			page 81


DEFINED SYMBOLS
                            *ABS*:00000000 chevents.c
     /tmp/ccisXRBZ.s:26     .text.chEvtRegisterMask:00000000 $t
     /tmp/ccisXRBZ.s:32     .text.chEvtRegisterMask:00000000 chEvtRegisterMask
     /tmp/ccisXRBZ.s:89     .text.chEvtRegisterMask:00000020 $d
     /tmp/ccisXRBZ.s:94     .text.chEvtUnregister:00000000 $t
     /tmp/ccisXRBZ.s:100    .text.chEvtUnregister:00000000 chEvtUnregister
     /tmp/ccisXRBZ.s:167    .text.chEvtClearFlags:00000000 $t
     /tmp/ccisXRBZ.s:173    .text.chEvtClearFlags:00000000 chEvtClearFlags
     /tmp/ccisXRBZ.s:217    .text.chEvtClearFlags:0000001c $d
     /tmp/ccisXRBZ.s:222    .text.chEvtAddFlags:00000000 $t
     /tmp/ccisXRBZ.s:228    .text.chEvtAddFlags:00000000 chEvtAddFlags
     /tmp/ccisXRBZ.s:270    .text.chEvtAddFlags:00000018 $d
     /tmp/ccisXRBZ.s:275    .text.chEvtSignalFlagsI:00000000 $t
     /tmp/ccisXRBZ.s:281    .text.chEvtSignalFlagsI:00000000 chEvtSignalFlagsI
     /tmp/ccisXRBZ.s:339    .text.chEvtSignalFlags:00000000 $t
     /tmp/ccisXRBZ.s:345    .text.chEvtSignalFlags:00000000 chEvtSignalFlags
     /tmp/ccisXRBZ.s:388    .text.chEvtBroadcastFlagsI:00000000 $t
     /tmp/ccisXRBZ.s:394    .text.chEvtBroadcastFlagsI:00000000 chEvtBroadcastFlagsI
     /tmp/ccisXRBZ.s:437    .text.chEvtBroadcastFlags:00000000 $t
     /tmp/ccisXRBZ.s:443    .text.chEvtBroadcastFlags:00000000 chEvtBroadcastFlags
     /tmp/ccisXRBZ.s:486    .text.chEvtDispatch:00000000 $t
     /tmp/ccisXRBZ.s:492    .text.chEvtDispatch:00000000 chEvtDispatch
     /tmp/ccisXRBZ.s:551    .text.chEvtWaitOne:00000000 $t
     /tmp/ccisXRBZ.s:557    .text.chEvtWaitOne:00000000 chEvtWaitOne
     /tmp/ccisXRBZ.s:627    .text.chEvtWaitOne:00000038 $d
     /tmp/ccisXRBZ.s:632    .text.chEvtWaitAny:00000000 $t
     /tmp/ccisXRBZ.s:638    .text.chEvtWaitAny:00000000 chEvtWaitAny
     /tmp/ccisXRBZ.s:705    .text.chEvtWaitAny:00000030 $d
     /tmp/ccisXRBZ.s:710    .text.chEvtWaitAll:00000000 $t
     /tmp/ccisXRBZ.s:716    .text.chEvtWaitAll:00000000 chEvtWaitAll
     /tmp/ccisXRBZ.s:781    .text.chEvtWaitAll:00000034 $d
     /tmp/ccisXRBZ.s:786    .text.chEvtWaitOneTimeout:00000000 $t
     /tmp/ccisXRBZ.s:792    .text.chEvtWaitOneTimeout:00000000 chEvtWaitOneTimeout
     /tmp/ccisXRBZ.s:898    .text.chEvtWaitOneTimeout:00000050 $d
     /tmp/ccisXRBZ.s:903    .text.chEvtWaitAnyTimeout:00000000 $t
     /tmp/ccisXRBZ.s:909    .text.chEvtWaitAnyTimeout:00000000 chEvtWaitAnyTimeout
     /tmp/ccisXRBZ.s:1011   .text.chEvtWaitAnyTimeout:0000004c $d
     /tmp/ccisXRBZ.s:1016   .text.chEvtWaitAllTimeout:00000000 $t
     /tmp/ccisXRBZ.s:1022   .text.chEvtWaitAllTimeout:00000000 chEvtWaitAllTimeout
     /tmp/ccisXRBZ.s:1126   .text.chEvtWaitAllTimeout:0000004c $d
                     .debug_frame:00000010 $d
     /tmp/ccisXRBZ.s:93     .text.chEvtRegisterMask:00000024 $t
     /tmp/ccisXRBZ.s:274    .text.chEvtAddFlags:0000001c $t
     /tmp/ccisXRBZ.s:631    .text.chEvtWaitOne:0000003c $t
     /tmp/ccisXRBZ.s:709    .text.chEvtWaitAny:00000034 $t
     /tmp/ccisXRBZ.s:785    .text.chEvtWaitAll:00000038 $t
     /tmp/ccisXRBZ.s:902    .text.chEvtWaitOneTimeout:00000054 $t

UNDEFINED SYMBOLS
rlist
chSchReadyI
chSchRescheduleS
chSchGoSleepS
chSchGoSleepTimeoutS
