ARM GAS  /tmp/ccShuc6d.s 			page 1


   1              		.syntax unified
   2              		.cpu cortex-m4
   3              		.eabi_attribute 27, 3
   4              		.eabi_attribute 28, 1
   5              		.fpu fpv4-sp-d16
   6              		.eabi_attribute 20, 1
   7              		.eabi_attribute 21, 1
   8              		.eabi_attribute 23, 3
   9              		.eabi_attribute 24, 1
  10              		.eabi_attribute 25, 1
  11              		.eabi_attribute 26, 1
  12              		.eabi_attribute 30, 2
  13              		.eabi_attribute 18, 4
  14              		.thumb
  15              		.file	"chmemcore.c"
  22 0000 73010000 		.text
  22      02001001 
  22      00000201 
  22      FB0E0D00 
  22      01010101 
  23              	.Ltext0:
  24              		.cfi_sections	.debug_frame
  25              		.section	.text._core_init,"ax",%progbits
  26              		.align	2
  27              		.p2align 4,,15
  28              		.global	_core_init
  29              		.thumb
  30              		.thumb_func
  31              		.type	_core_init, %function
  32              	_core_init:
  33              	.LFB7:
  34              		.file 1 "../libs/ChibiOS_2.4.0/os/kernel/src/chmemcore.c"
  35              		.loc 1 66 0
  36              		.cfi_startproc
  37              		@ args = 0, pretend = 0, frame = 0
  38              		@ frame_needed = 0, uses_anonymous_args = 0
  39              		@ link register save eliminated.
  40              		.loc 1 70 0
  41 0000 054B     		ldr	r3, .L2
  42 0002 064A     		ldr	r2, .L2+4
  43              		.loc 1 71 0
  44 0004 0648     		ldr	r0, .L2+8
  45              		.loc 1 70 0
  46 0006 23F00701 		bic	r1, r3, #7
  47              		.loc 1 71 0
  48 000a 064B     		ldr	r3, .L2+12
  49              		.loc 1 70 0
  50 000c 1160     		str	r1, [r2, #0]
  51              		.loc 1 71 0
  52 000e 20F00702 		bic	r2, r0, #7
  53 0012 1A60     		str	r2, [r3, #0]
ARM GAS  /tmp/ccShuc6d.s 			page 2


  54              		.loc 1 77 0
  55 0014 7047     		bx	lr
  56              	.L3:
  57 0016 00BF     		.align	2
  58              	.L2:
  59 0018 07000000 		.word	__heap_base__+7
  60 001c 00000000 		.word	.LANCHOR0
  61 0020 00000000 		.word	__heap_end__
  62 0024 00000000 		.word	.LANCHOR1
  63              		.cfi_endproc
  64              	.LFE7:
  65              		.size	_core_init, .-_core_init
  66 0028 AFF30080 		.section	.text.chCoreAlloc,"ax",%progbits
  66      AFF30080 
  67              		.align	2
  68              		.p2align 4,,15
  69              		.global	chCoreAlloc
  70              		.thumb
  71              		.thumb_func
  72              		.type	chCoreAlloc, %function
  73              	chCoreAlloc:
  74              	.LFB8:
  75              		.loc 1 91 0
  76              		.cfi_startproc
  77              		@ args = 0, pretend = 0, frame = 0
  78              		@ frame_needed = 0, uses_anonymous_args = 0
  79              		@ link register save eliminated.
  80              	.LVL0:
  81              	.LBB6:
  82              		.loc 1 94 0
  83 0000 2023     		movs	r3, #32
  84              	.LVL1:
  85              	@ 94 "../libs/ChibiOS_2.4.0/os/kernel/src/chmemcore.c" 1
  86 0002 83F31188 		msr     BASEPRI, r3
  87              	@ 0 "" 2
  88              	.LVL2:
  89              		.thumb
  90              	.LBE6:
  91              	.LBB7:
  92              	.LBB8:
  93              		.loc 1 118 0
  94 0006 094A     		ldr	r2, .L7
  95 0008 0949     		ldr	r1, .L7+4
  96 000a 1368     		ldr	r3, [r2, #0]
  97              	.LVL3:
  98 000c 0968     		ldr	r1, [r1, #0]
  99              		.loc 1 117 0
 100 000e 0730     		adds	r0, r0, #7
 101              	.LVL4:
 102 0010 20F00700 		bic	r0, r0, #7
 103              	.LVL5:
 104              		.loc 1 118 0
 105 0014 C91A     		subs	r1, r1, r3
 106 0016 8842     		cmp	r0, r1
 107              	.LVL6:
 108              		.loc 1 121 0
 109 0018 9DBF     		ittte	ls
ARM GAS  /tmp/ccShuc6d.s 			page 3


 110 001a 1818     		addls	r0, r3, r0
 111              	.LVL7:
 112 001c 1060     		strls	r0, [r2, #0]
 113              		.loc 1 122 0
 114 001e 1846     		movls	r0, r3
 115              		.loc 1 119 0
 116 0020 0020     		movhi	r0, #0
 117              	.LBE8:
 118              	.LBE7:
 119              	.LBB9:
 120              		.loc 1 96 0
 121 0022 0023     		movs	r3, #0
 122              	.LVL8:
 123              	@ 96 "../libs/ChibiOS_2.4.0/os/kernel/src/chmemcore.c" 1
 124 0024 83F31188 		msr     BASEPRI, r3
 125              	@ 0 "" 2
 126              	.LVL9:
 127              		.thumb
 128              	.LBE9:
 129              		.loc 1 98 0
 130 0028 7047     		bx	lr
 131              	.L8:
 132 002a 00BF     		.align	2
 133              	.L7:
 134 002c 00000000 		.word	.LANCHOR0
 135 0030 00000000 		.word	.LANCHOR1
 136              		.cfi_endproc
 137              	.LFE8:
 138              		.size	chCoreAlloc, .-chCoreAlloc
 139 0034 AFF30080 		.section	.text.chCoreAllocI,"ax",%progbits
 139      AFF30080 
 139      AFF30080 
 140              		.align	2
 141              		.p2align 4,,15
 142              		.global	chCoreAllocI
 143              		.thumb
 144              		.thumb_func
 145              		.type	chCoreAllocI, %function
 146              	chCoreAllocI:
 147              	.LFB9:
 148              		.loc 1 112 0
 149              		.cfi_startproc
 150              		@ args = 0, pretend = 0, frame = 0
 151              		@ frame_needed = 0, uses_anonymous_args = 0
 152              		@ link register save eliminated.
 153              	.LVL10:
 154              		.loc 1 118 0
 155 0000 074A     		ldr	r2, .L13
 156 0002 0849     		ldr	r1, .L13+4
 157 0004 1368     		ldr	r3, [r2, #0]
 158 0006 0968     		ldr	r1, [r1, #0]
 159              		.loc 1 117 0
 160 0008 0730     		adds	r0, r0, #7
 161              	.LVL11:
 162 000a 20F00700 		bic	r0, r0, #7
 163              	.LVL12:
 164              		.loc 1 118 0
ARM GAS  /tmp/ccShuc6d.s 			page 4


 165 000e C91A     		subs	r1, r1, r3
 166 0010 8842     		cmp	r0, r1
 167 0012 03D8     		bhi	.L11
 168              	.LVL13:
 169              		.loc 1 121 0
 170 0014 1818     		adds	r0, r3, r0
 171              	.LVL14:
 172 0016 1060     		str	r0, [r2, #0]
 173              		.loc 1 122 0
 174 0018 1846     		mov	r0, r3
 175 001a 7047     		bx	lr
 176              	.LVL15:
 177              	.L11:
 178              		.loc 1 119 0
 179 001c 0020     		movs	r0, #0
 180              	.LVL16:
 181              		.loc 1 123 0
 182 001e 7047     		bx	lr
 183              	.L14:
 184              		.align	2
 185              	.L13:
 186 0020 00000000 		.word	.LANCHOR0
 187 0024 00000000 		.word	.LANCHOR1
 188              		.cfi_endproc
 189              	.LFE9:
 190              		.size	chCoreAllocI, .-chCoreAllocI
 191 0028 AFF30080 		.section	.text.chCoreStatus,"ax",%progbits
 191      AFF30080 
 192              		.align	2
 193              		.p2align 4,,15
 194              		.global	chCoreStatus
 195              		.thumb
 196              		.thumb_func
 197              		.type	chCoreStatus, %function
 198              	chCoreStatus:
 199              	.LFB10:
 200              		.loc 1 132 0
 201              		.cfi_startproc
 202              		@ args = 0, pretend = 0, frame = 0
 203              		@ frame_needed = 0, uses_anonymous_args = 0
 204              		@ link register save eliminated.
 205              		.loc 1 134 0
 206 0000 024A     		ldr	r2, .L16
 207 0002 0349     		ldr	r1, .L16+4
 208 0004 1068     		ldr	r0, [r2, #0]
 209 0006 0B68     		ldr	r3, [r1, #0]
 210              		.loc 1 135 0
 211 0008 C01A     		subs	r0, r0, r3
 212 000a 7047     		bx	lr
 213              	.L17:
 214              		.align	2
 215              	.L16:
 216 000c 00000000 		.word	.LANCHOR1
 217 0010 00000000 		.word	.LANCHOR0
 218              		.cfi_endproc
 219              	.LFE10:
 220              		.size	chCoreStatus, .-chCoreStatus
ARM GAS  /tmp/ccShuc6d.s 			page 5


 221 0014 AFF30080 		.section	.bss.endmem,"aw",%nobits
 221      AFF30080 
 221      AFF30080 
 222              		.align	2
 223              		.set	.LANCHOR1,. + 0
 224              		.type	endmem, %object
 225              		.size	endmem, 4
 226              	endmem:
 227 0000 00000000 		.space	4
 228              		.section	.bss.nextmem,"aw",%nobits
 229              		.align	2
 230              		.set	.LANCHOR0,. + 0
 231              		.type	nextmem, %object
 232              		.size	nextmem, 4
 233              	nextmem:
 234 0000 00000000 		.space	4
 235              		.text
 236              	.Letext0: