ARM GAS  /tmp/cchRNrHQ.s 			page 1


   1              		.syntax unified
   2              		.cpu cortex-m4
   3              		.eabi_attribute 27, 3
   4              		.eabi_attribute 28, 1
   5              		.fpu fpv4-sp-d16
   6              		.eabi_attribute 20, 1
   7              		.eabi_attribute 21, 1
   8              		.eabi_attribute 23, 3
   9              		.eabi_attribute 24, 1
  10              		.eabi_attribute 25, 1
  11              		.eabi_attribute 26, 1
  12              		.eabi_attribute 30, 2
  13              		.eabi_attribute 18, 4
  14              		.thumb
  15              		.file	"chqueues.c"
  16              		.section	.debug_abbrev,"",%progbits
  17              	.Ldebug_abbrev0:
  18              		.section	.debug_info,"",%progbits
  19              	.Ldebug_info0:
  20              		.section	.debug_line,"",%progbits
  21              	.Ldebug_line0:
  22 0000 8F030000 		.text
  22      0200CD01 
  22      00000201 
  22      FB0E0D00 
  22      01010101 
  23              	.Ltext0:
  24              		.cfi_sections	.debug_frame
  25              		.section	.text.qwait,"ax",%progbits
  26              		.align	2
  27              		.p2align 4,,15
  28              		.thumb
  29              		.thumb_func
  30              		.type	qwait, %function
  31              	qwait:
  32              	.LFB7:
  33              		.file 1 "../libs/ChibiOS_2.4.0/os/kernel/src/chqueues.c"
  34              		.loc 1 72 0
  35              		.cfi_startproc
  36              		@ args = 0, pretend = 0, frame = 0
  37              		@ frame_needed = 0, uses_anonymous_args = 0
  38              		@ link register save eliminated.
  39              	.LVL0:
  40 0000 10B4     		push	{r4}
  41              	.LCFI0:
  42              		.cfi_def_cfa_offset 4
  43              		.loc 1 72 0
  44 0002 0346     		mov	r3, r0
  45              		.loc 1 74 0
  46 0004 19B9     		cbnz	r1, .L4
  47              		.cfi_offset 4, -4
  48              		.loc 1 79 0
  49 0006 4FF0FF30 		mov	r0, #-1
  50              	.LVL1:
  51 000a 10BC     		pop	{r4}
  52 000c 7047     		bx	lr
  53              	.L4:
ARM GAS  /tmp/cchRNrHQ.s 			page 2


  54              		.loc 1 76 0
  55 000e 064C     		ldr	r4, .L5
  56 0010 E269     		ldr	r2, [r4, #28]
  57 0012 5062     		str	r0, [r2, #36]
  58              	.LVL2:
  59              	.LBB12:
  60              	.LBB13:
  61              		.file 2 "../libs/ChibiOS_2.4.0/os/kernel/include/chinline.h"
  62              		.loc 2 55 0
  63 0014 4468     		ldr	r4, [r0, #4]
  64              	.LVL3:
  65              		.loc 2 54 0
  66 0016 1060     		str	r0, [r2, #0]
  67              	.LBE13:
  68              	.LBE12:
  69              		.loc 1 78 0
  70 0018 0D20     		movs	r0, #13
  71              	.LBB15:
  72              	.LBB14:
  73              		.loc 2 55 0
  74 001a 5460     		str	r4, [r2, #4]
  75              		.loc 2 56 0
  76 001c 5A60     		str	r2, [r3, #4]
  77 001e 2260     		str	r2, [r4, #0]
  78              	.LBE14:
  79              	.LBE15:
  80              		.loc 1 79 0
  81 0020 10BC     		pop	{r4}
  82              		.loc 1 78 0
  83 0022 FFF7FEBF 		b	chSchGoSleepTimeoutS
  84              	.LVL4:
  85              	.L6:
  86 0026 00BF     		.align	2
  87              	.L5:
  88 0028 00000000 		.word	rlist
  89              		.cfi_endproc
  90              	.LFE7:
  91              		.size	qwait, .-qwait
  92 002c AFF30080 		.section	.text.chIQInit,"ax",%progbits
  93              		.align	2
  94              		.p2align 4,,15
  95              		.global	chIQInit
  96              		.thumb
  97              		.thumb_func
  98              		.type	chIQInit, %function
  99              	chIQInit:
 100              	.LFB8:
 101              		.loc 1 96 0
 102              		.cfi_startproc
 103              		@ args = 0, pretend = 0, frame = 0
 104              		@ frame_needed = 0, uses_anonymous_args = 0
 105              		@ link register save eliminated.
 106              	.LVL5:
 107 0000 10B4     		push	{r4}
 108              	.LCFI1:
 109              		.cfi_def_cfa_offset 4
 110              		.loc 1 101 0
ARM GAS  /tmp/cchRNrHQ.s 			page 3


 111 0002 8A18     		adds	r2, r1, r2
 112              	.LVL6:
 113              		.loc 1 99 0
 114 0004 0024     		movs	r4, #0
 115              		.cfi_offset 4, -4
 116              		.loc 1 98 0
 117 0006 4060     		str	r0, [r0, #4]
 118 0008 0060     		str	r0, [r0, #0]
 119              		.loc 1 99 0
 120 000a 8460     		str	r4, [r0, #8]
 121              		.loc 1 100 0
 122 000c 4161     		str	r1, [r0, #20]
 123 000e 8161     		str	r1, [r0, #24]
 124 0010 C160     		str	r1, [r0, #12]
 125              		.loc 1 101 0
 126 0012 0261     		str	r2, [r0, #16]
 127              		.loc 1 102 0
 128 0014 C361     		str	r3, [r0, #28]
 129              		.loc 1 103 0
 130 0016 10BC     		pop	{r4}
 131 0018 7047     		bx	lr
 132              		.cfi_endproc
 133              	.LFE8:
 134              		.size	chIQInit, .-chIQInit
 135              		.section	.text.chIQResetI,"ax",%progbits
 136              		.align	2
 137              		.p2align 4,,15
 138              		.global	chIQResetI
 139              		.thumb
 140              		.thumb_func
 141              		.type	chIQResetI, %function
 142              	chIQResetI:
 143              	.LFB9:
 144              		.loc 1 116 0
 145              		.cfi_startproc
 146              		@ args = 0, pretend = 0, frame = 0
 147              		@ frame_needed = 0, uses_anonymous_args = 0
 148              	.LVL7:
 149 0000 38B5     		push	{r3, r4, r5, lr}
 150              	.LCFI2:
 151              		.cfi_def_cfa_offset 16
 152              		.loc 1 120 0
 153 0002 C168     		ldr	r1, [r0, #12]
 154              		.loc 1 116 0
 155 0004 0446     		mov	r4, r0
 156              		.cfi_offset 14, -4
 157              		.cfi_offset 5, -8
 158              		.cfi_offset 4, -12
 159              		.cfi_offset 3, -16
 160              		.loc 1 122 0
 161 0006 0068     		ldr	r0, [r0, #0]
 162              	.LVL8:
 163              		.loc 1 120 0
 164 0008 6161     		str	r1, [r4, #20]
 165              		.loc 1 121 0
 166 000a 0023     		movs	r3, #0
 167              		.loc 1 122 0
ARM GAS  /tmp/cchRNrHQ.s 			page 4


 168 000c A042     		cmp	r0, r4
 169              		.loc 1 120 0
 170 000e A161     		str	r1, [r4, #24]
 171              		.loc 1 121 0
 172 0010 A360     		str	r3, [r4, #8]
 173              		.loc 1 122 0
 174 0012 0AD0     		beq	.L8
 175              		.loc 1 123 0
 176 0014 6FF00105 		mvn	r5, #1
 177              	.L11:
 178              	.LVL9:
 179              	.LBB16:
 180              	.LBB17:
 181              		.loc 2 62 0
 182 0018 0268     		ldr	r2, [r0, #0]
 183 001a 2260     		str	r2, [r4, #0]
 184 001c 5460     		str	r4, [r2, #4]
 185              	.LBE17:
 186              	.LBE16:
 187              		.loc 1 123 0
 188 001e FFF7FEFF 		bl	chSchReadyI
 189              	.LVL10:
 190 0022 4562     		str	r5, [r0, #36]
 191              		.loc 1 122 0
 192 0024 2068     		ldr	r0, [r4, #0]
 193 0026 A042     		cmp	r0, r4
 194 0028 F6D1     		bne	.L11
 195              	.LVL11:
 196              	.L8:
 197 002a 38BD     		pop	{r3, r4, r5, pc}
 198              		.cfi_endproc
 199              	.LFE9:
 200              		.size	chIQResetI, .-chIQResetI
 201 002c AFF30080 		.section	.text.chIQPutI,"ax",%progbits
 202              		.align	2
 203              		.p2align 4,,15
 204              		.global	chIQPutI
 205              		.thumb
 206              		.thumb_func
 207              		.type	chIQPutI, %function
 208              	chIQPutI:
 209              	.LFB10:
 210              		.loc 1 139 0
 211              		.cfi_startproc
 212              		@ args = 0, pretend = 0, frame = 0
 213              		@ frame_needed = 0, uses_anonymous_args = 0
 214              	.LVL12:
 215              		.loc 1 143 0
 216 0000 4269     		ldr	r2, [r0, #20]
 217              		.loc 1 139 0
 218 0002 08B5     		push	{r3, lr}
 219              	.LCFI3:
 220              		.cfi_def_cfa_offset 8
 221              		.loc 1 139 0
 222 0004 0346     		mov	r3, r0
 223              		.cfi_offset 14, -4
 224              		.cfi_offset 3, -8
ARM GAS  /tmp/cchRNrHQ.s 			page 5


 225              		.loc 1 143 0
 226 0006 8069     		ldr	r0, [r0, #24]
 227              	.LVL13:
 228 0008 8242     		cmp	r2, r0
 229 000a 19D0     		beq	.L14
 230 000c 9868     		ldr	r0, [r3, #8]
 231              	.L15:
 232              		.loc 1 146 0
 233 000e 0130     		adds	r0, r0, #1
 234 0010 9860     		str	r0, [r3, #8]
 235              		.loc 1 147 0
 236 0012 02F8011B 		strb	r1, [r2], #1
 237              		.loc 1 148 0
 238 0016 1969     		ldr	r1, [r3, #16]
 239              	.LVL14:
 240              		.loc 1 147 0
 241 0018 5A61     		str	r2, [r3, #20]
 242              		.loc 1 148 0
 243 001a 8A42     		cmp	r2, r1
 244              		.loc 1 149 0
 245 001c 28BF     		it	cs
 246 001e DA68     		ldrcs	r2, [r3, #12]
 247              		.loc 1 151 0
 248 0020 1868     		ldr	r0, [r3, #0]
 249              		.loc 1 149 0
 250 0022 28BF     		it	cs
 251 0024 5A61     		strcs	r2, [r3, #20]
 252              		.loc 1 151 0
 253 0026 9842     		cmp	r0, r3
 254 0028 08D0     		beq	.L19
 255              	.LVL15:
 256              	.LBB18:
 257              	.LBB19:
 258              		.loc 2 62 0
 259 002a 0268     		ldr	r2, [r0, #0]
 260 002c 1A60     		str	r2, [r3, #0]
 261 002e 5360     		str	r3, [r2, #4]
 262              	.LBE19:
 263              	.LBE18:
 264              		.loc 1 152 0
 265 0030 FFF7FEFF 		bl	chSchReadyI
 266              	.LVL16:
 267 0034 0023     		movs	r3, #0
 268 0036 4362     		str	r3, [r0, #36]
 269              		.loc 1 154 0
 270 0038 1846     		mov	r0, r3
 271 003a 08BD     		pop	{r3, pc}
 272              	.LVL17:
 273              	.L19:
 274 003c 0020     		movs	r0, #0
 275              		.loc 1 155 0
 276 003e 08BD     		pop	{r3, pc}
 277              	.LVL18:
 278              	.L14:
 279              		.loc 1 143 0 discriminator 1
 280 0040 9868     		ldr	r0, [r3, #8]
 281 0042 0028     		cmp	r0, #0
ARM GAS  /tmp/cchRNrHQ.s 			page 6


 282 0044 E3D0     		beq	.L15
 283              		.loc 1 144 0
 284 0046 6FF00300 		mvn	r0, #3
 285 004a 08BD     		pop	{r3, pc}
 286              		.cfi_endproc
 287              	.LFE10:
 288              		.size	chIQPutI, .-chIQPutI
 289 004c AFF30080 		.section	.text.chIQGetTimeout,"ax",%progbits
 290              		.align	2
 291              		.p2align 4,,15
 292              		.global	chIQGetTimeout
 293              		.thumb
 294              		.thumb_func
 295              		.type	chIQGetTimeout, %function
 296              	chIQGetTimeout:
 297              	.LFB11:
 298              		.loc 1 177 0
 299              		.cfi_startproc
 300              		@ args = 0, pretend = 0, frame = 0
 301              		@ frame_needed = 0, uses_anonymous_args = 0
 302              	.LVL19:
 303 0000 70B5     		push	{r4, r5, r6, lr}
 304              	.LCFI4:
 305              		.cfi_def_cfa_offset 16
 306              	.LBB20:
 307              		.loc 1 180 0
 308 0002 2023     		movs	r3, #32
 309              	.LVL20:
 310              	.LBE20:
 311              		.loc 1 177 0
 312 0004 0446     		mov	r4, r0
 313              		.cfi_offset 14, -4
 314              		.cfi_offset 6, -8
 315              		.cfi_offset 5, -12
 316              		.cfi_offset 4, -16
 317 0006 0D46     		mov	r5, r1
 318              	.LBB21:
 319              		.loc 1 180 0
 320              	@ 180 "../libs/ChibiOS_2.4.0/os/kernel/src/chqueues.c" 1
 321 0008 83F31188 		msr     BASEPRI, r3
 322              	@ 0 "" 2
 323              	.LVL21:
 324              		.thumb
 325              	.LBE21:
 326              		.loc 1 181 0
 327 000c C369     		ldr	r3, [r0, #28]
 328              	.LVL22:
 329 000e 03B1     		cbz	r3, .L26
 330              		.loc 1 182 0
 331 0010 9847     		blx	r3
 332              	.LVL23:
 333              	.L26:
 334              		.loc 1 184 0 discriminator 1
 335 0012 A668     		ldr	r6, [r4, #8]
 336 0014 4EB9     		cbnz	r6, .L28
 337              	.LBB22:
 338              		.loc 1 186 0
ARM GAS  /tmp/cchRNrHQ.s 			page 7


 339 0016 2046     		mov	r0, r4
 340 0018 2946     		mov	r1, r5
 341 001a FFF7FEFF 		bl	qwait
 342              	.LVL24:
 343 001e 0028     		cmp	r0, #0
 344 0020 F7DA     		bge	.L26
 345              	.LBB23:
 346              		.loc 1 187 0
 347 0022 3346     		mov	r3, r6
 348              	.LVL25:
 349              	@ 187 "../libs/ChibiOS_2.4.0/os/kernel/src/chqueues.c" 1
 350 0024 83F31188 		msr     BASEPRI, r3
 351              	@ 0 "" 2
 352              	.LVL26:
 353              		.thumb
 354              	.LBE23:
 355              		.loc 1 188 0
 356 0028 70BD     		pop	{r4, r5, r6, pc}
 357              	.LVL27:
 358              	.L28:
 359              	.LBE22:
 360              		.loc 1 193 0
 361 002a A369     		ldr	r3, [r4, #24]
 362              		.loc 1 194 0
 363 002c 2269     		ldr	r2, [r4, #16]
 364              		.loc 1 192 0
 365 002e 013E     		subs	r6, r6, #1
 366 0030 A660     		str	r6, [r4, #8]
 367              		.loc 1 193 0
 368 0032 13F8010B 		ldrb	r0, [r3], #1	@ zero_extendqisi2
 369              	.LVL28:
 370              		.loc 1 194 0
 371 0036 9342     		cmp	r3, r2
 372              		.loc 1 193 0
 373 0038 A361     		str	r3, [r4, #24]
 374              		.loc 1 195 0
 375 003a 24BF     		itt	cs
 376 003c E368     		ldrcs	r3, [r4, #12]
 377 003e A361     		strcs	r3, [r4, #24]
 378              	.LBB24:
 379              		.loc 1 197 0
 380 0040 0023     		movs	r3, #0
 381              	.LVL29:
 382              	@ 197 "../libs/ChibiOS_2.4.0/os/kernel/src/chqueues.c" 1
 383 0042 83F31188 		msr     BASEPRI, r3
 384              	@ 0 "" 2
 385              	.LVL30:
 386              		.thumb
 387              	.LBE24:
 388              		.loc 1 199 0
 389 0046 70BD     		pop	{r4, r5, r6, pc}
 390              		.cfi_endproc
 391              	.LFE11:
 392              		.size	chIQGetTimeout, .-chIQGetTimeout
 393 0048 AFF30080 		.section	.text.chIQReadTimeout,"ax",%progbits
 393      AFF30080 
 394              		.align	2
ARM GAS  /tmp/cchRNrHQ.s 			page 8


 395              		.p2align 4,,15
 396              		.global	chIQReadTimeout
 397              		.thumb
 398              		.thumb_func
 399              		.type	chIQReadTimeout, %function
 400              	chIQReadTimeout:
 401              	.LFB12:
 402              		.loc 1 226 0
 403              		.cfi_startproc
 404              		@ args = 0, pretend = 0, frame = 0
 405              		@ frame_needed = 0, uses_anonymous_args = 0
 406              	.LVL31:
 407 0000 2DE9F047 		push	{r4, r5, r6, r7, r8, r9, sl, lr}
 408              	.LCFI5:
 409              		.cfi_def_cfa_offset 32
 410              		.loc 1 226 0
 411 0004 1D46     		mov	r5, r3
 412              		.cfi_offset 14, -4
 413              		.cfi_offset 10, -8
 414              		.cfi_offset 9, -12
 415              		.cfi_offset 8, -16
 416              		.cfi_offset 7, -20
 417              		.cfi_offset 6, -24
 418              		.cfi_offset 5, -28
 419              		.cfi_offset 4, -32
 420 0006 0446     		mov	r4, r0
 421 0008 0E46     		mov	r6, r1
 422 000a 9146     		mov	r9, r2
 423              		.loc 1 227 0
 424 000c D0F81C80 		ldr	r8, [r0, #28]
 425              	.LVL32:
 426              	.LBB25:
 427              		.loc 1 232 0
 428 0010 2023     		movs	r3, #32
 429              	.LVL33:
 430              	@ 232 "../libs/ChibiOS_2.4.0/os/kernel/src/chqueues.c" 1
 431 0012 83F31188 		msr     BASEPRI, r3
 432              	@ 0 "" 2
 433              	.LVL34:
 434              		.loc 1 228 0
 435              		.thumb
 436 0016 0027     		movs	r7, #0
 437              	.LVL35:
 438              	.L35:
 439              	.LBE25:
 440              		.loc 1 234 0
 441 0018 B8F1000F 		cmp	r8, #0
 442 001c 01D0     		beq	.L36
 443              		.loc 1 235 0
 444 001e 2046     		mov	r0, r4
 445 0020 C047     		blx	r8
 446              	.LVL36:
 447              	.L36:
 448              		.loc 1 237 0 discriminator 1
 449 0022 D4F808A0 		ldr	sl, [r4, #8]
 450 0026 BAF1000F 		cmp	sl, #0
 451 002a 0BD1     		bne	.L38
ARM GAS  /tmp/cchRNrHQ.s 			page 9


 452              		.loc 1 238 0
 453 002c 2046     		mov	r0, r4
 454 002e 2946     		mov	r1, r5
 455 0030 FFF7FEFF 		bl	qwait
 456              	.LVL37:
 457 0034 0028     		cmp	r0, #0
 458 0036 F4D0     		beq	.L36
 459              	.LBB26:
 460              		.loc 1 239 0
 461 0038 5346     		mov	r3, sl
 462              	.LVL38:
 463              	@ 239 "../libs/ChibiOS_2.4.0/os/kernel/src/chqueues.c" 1
 464 003a 83F31188 		msr     BASEPRI, r3
 465              	@ 0 "" 2
 466              	.LVL39:
 467              		.thumb
 468              	.L32:
 469              	.LBE26:
 470              		.loc 1 256 0
 471 003e 3846     		mov	r0, r7
 472 0040 BDE8F087 		pop	{r4, r5, r6, r7, r8, r9, sl, pc}
 473              	.LVL40:
 474              	.L38:
 475              		.loc 1 245 0
 476 0044 A369     		ldr	r3, [r4, #24]
 477              	.LVL41:
 478              		.loc 1 244 0
 479 0046 0AF1FF31 		add	r1, sl, #-1
 480 004a A160     		str	r1, [r4, #8]
 481              		.loc 1 245 0
 482 004c 13F8010B 		ldrb	r0, [r3], #1	@ zero_extendqisi2
 483 0050 F055     		strb	r0, [r6, r7]
 484              		.loc 1 246 0
 485 0052 2269     		ldr	r2, [r4, #16]
 486              		.loc 1 245 0
 487 0054 A361     		str	r3, [r4, #24]
 488              		.loc 1 246 0
 489 0056 9342     		cmp	r3, r2
 490              		.loc 1 247 0
 491 0058 24BF     		itt	cs
 492 005a E368     		ldrcs	r3, [r4, #12]
 493 005c A361     		strcs	r3, [r4, #24]
 494              	.LBB27:
 495              		.loc 1 249 0
 496 005e 0023     		movs	r3, #0
 497              	@ 249 "../libs/ChibiOS_2.4.0/os/kernel/src/chqueues.c" 1
 498 0060 83F31188 		msr     BASEPRI, r3
 499              	@ 0 "" 2
 500              	.LVL42:
 501              		.thumb
 502              	.LBE27:
 503              		.loc 1 250 0
 504 0064 0137     		adds	r7, r7, #1
 505              	.LVL43:
 506              		.loc 1 251 0
 507 0066 4F45     		cmp	r7, r9
 508 0068 E9D0     		beq	.L32
ARM GAS  /tmp/cchRNrHQ.s 			page 10


 509              	.LBB28:
 510              		.loc 1 254 0
 511 006a 2023     		movs	r3, #32
 512              	.LVL44:
 513              	@ 254 "../libs/ChibiOS_2.4.0/os/kernel/src/chqueues.c" 1
 514 006c 83F31188 		msr     BASEPRI, r3
 515              	@ 0 "" 2
 516              	.LVL45:
 517              		.thumb
 518              	.LBE28:
 519              		.loc 1 255 0
 520 0070 D2E7     		b	.L35
 521              		.cfi_endproc
 522              	.LFE12:
 523              		.size	chIQReadTimeout, .-chIQReadTimeout
 524 0072 00BFAFF3 		.section	.text.chOQInit,"ax",%progbits
 524      0080AFF3 
 524      0080AFF3 
 524      0080
 525              		.align	2
 526              		.p2align 4,,15
 527              		.global	chOQInit
 528              		.thumb
 529              		.thumb_func
 530              		.type	chOQInit, %function
 531              	chOQInit:
 532              	.LFB13:
 533              		.loc 1 273 0
 534              		.cfi_startproc
 535              		@ args = 0, pretend = 0, frame = 0
 536              		@ frame_needed = 0, uses_anonymous_args = 0
 537              		@ link register save eliminated.
 538              	.LVL46:
 539 0000 10B4     		push	{r4}
 540              	.LCFI6:
 541              		.cfi_def_cfa_offset 4
 542              		.loc 1 278 0
 543 0002 8C18     		adds	r4, r1, r2
 544              		.cfi_offset 4, -4
 545              		.loc 1 275 0
 546 0004 4060     		str	r0, [r0, #4]
 547 0006 0060     		str	r0, [r0, #0]
 548              		.loc 1 276 0
 549 0008 8260     		str	r2, [r0, #8]
 550              		.loc 1 277 0
 551 000a 4161     		str	r1, [r0, #20]
 552 000c 8161     		str	r1, [r0, #24]
 553 000e C160     		str	r1, [r0, #12]
 554              		.loc 1 278 0
 555 0010 0461     		str	r4, [r0, #16]
 556              		.loc 1 279 0
 557 0012 C361     		str	r3, [r0, #28]
 558              		.loc 1 280 0
 559 0014 10BC     		pop	{r4}
 560 0016 7047     		bx	lr
 561              		.cfi_endproc
 562              	.LFE13:
ARM GAS  /tmp/cchRNrHQ.s 			page 11


 563              		.size	chOQInit, .-chOQInit
 564 0018 AFF30080 		.section	.text.chOQResetI,"ax",%progbits
 564      AFF30080 
 565              		.align	2
 566              		.p2align 4,,15
 567              		.global	chOQResetI
 568              		.thumb
 569              		.thumb_func
 570              		.type	chOQResetI, %function
 571              	chOQResetI:
 572              	.LFB14:
 573              		.loc 1 293 0
 574              		.cfi_startproc
 575              		@ args = 0, pretend = 0, frame = 0
 576              		@ frame_needed = 0, uses_anonymous_args = 0
 577              	.LVL47:
 578 0000 38B5     		push	{r3, r4, r5, lr}
 579              	.LCFI7:
 580              		.cfi_def_cfa_offset 16
 581              		.loc 1 298 0
 582 0002 0169     		ldr	r1, [r0, #16]
 583              		.loc 1 297 0
 584 0004 C368     		ldr	r3, [r0, #12]
 585              		.cfi_offset 14, -4
 586              		.cfi_offset 5, -8
 587              		.cfi_offset 4, -12
 588              		.cfi_offset 3, -16
 589              		.loc 1 293 0
 590 0006 0446     		mov	r4, r0
 591              		.loc 1 299 0
 592 0008 0068     		ldr	r0, [r0, #0]
 593              	.LVL48:
 594              		.loc 1 297 0
 595 000a 6361     		str	r3, [r4, #20]
 596              		.loc 1 298 0
 597 000c CA1A     		subs	r2, r1, r3
 598              		.loc 1 299 0
 599 000e A042     		cmp	r0, r4
 600              		.loc 1 297 0
 601 0010 A361     		str	r3, [r4, #24]
 602              		.loc 1 298 0
 603 0012 A260     		str	r2, [r4, #8]
 604              		.loc 1 299 0
 605 0014 0AD0     		beq	.L40
 606              		.loc 1 300 0
 607 0016 6FF00105 		mvn	r5, #1
 608              	.L43:
 609              	.LVL49:
 610              	.LBB29:
 611              	.LBB30:
 612              		.loc 2 62 0
 613 001a 0268     		ldr	r2, [r0, #0]
 614 001c 2260     		str	r2, [r4, #0]
 615 001e 5460     		str	r4, [r2, #4]
 616              	.LBE30:
 617              	.LBE29:
 618              		.loc 1 300 0
ARM GAS  /tmp/cchRNrHQ.s 			page 12


 619 0020 FFF7FEFF 		bl	chSchReadyI
 620              	.LVL50:
 621 0024 4562     		str	r5, [r0, #36]
 622              		.loc 1 299 0
 623 0026 2068     		ldr	r0, [r4, #0]
 624 0028 A042     		cmp	r0, r4
 625 002a F6D1     		bne	.L43
 626              	.LVL51:
 627              	.L40:
 628 002c 38BD     		pop	{r3, r4, r5, pc}
 629              		.cfi_endproc
 630              	.LFE14:
 631              		.size	chOQResetI, .-chOQResetI
 632 002e 00BF     		.section	.text.chOQPutTimeout,"ax",%progbits
 633              		.align	2
 634              		.p2align 4,,15
 635              		.global	chOQPutTimeout
 636              		.thumb
 637              		.thumb_func
 638              		.type	chOQPutTimeout, %function
 639              	chOQPutTimeout:
 640              	.LFB15:
 641              		.loc 1 325 0
 642              		.cfi_startproc
 643              		@ args = 0, pretend = 0, frame = 0
 644              		@ frame_needed = 0, uses_anonymous_args = 0
 645              	.LVL52:
 646 0000 F8B5     		push	{r3, r4, r5, r6, r7, lr}
 647              	.LCFI8:
 648              		.cfi_def_cfa_offset 24
 649              		.loc 1 325 0
 650 0002 0446     		mov	r4, r0
 651              		.cfi_offset 14, -4
 652              		.cfi_offset 7, -8
 653              		.cfi_offset 6, -12
 654              		.cfi_offset 5, -16
 655              		.cfi_offset 4, -20
 656              		.cfi_offset 3, -24
 657 0004 0D46     		mov	r5, r1
 658 0006 1646     		mov	r6, r2
 659              	.LBB31:
 660              		.loc 1 327 0
 661 0008 2023     		movs	r3, #32
 662              	.LVL53:
 663              	@ 327 "../libs/ChibiOS_2.4.0/os/kernel/src/chqueues.c" 1
 664 000a 83F31188 		msr     BASEPRI, r3
 665              	@ 0 "" 2
 666              	.LVL54:
 667              		.thumb
 668              	.L46:
 669              	.LBE31:
 670              		.loc 1 328 0 discriminator 1
 671 000e A768     		ldr	r7, [r4, #8]
 672 0010 4FB9     		cbnz	r7, .L52
 673              	.LBB32:
 674              		.loc 1 331 0
 675 0012 2046     		mov	r0, r4
ARM GAS  /tmp/cchRNrHQ.s 			page 13


 676 0014 3146     		mov	r1, r6
 677 0016 FFF7FEFF 		bl	qwait
 678              	.LVL55:
 679 001a 0028     		cmp	r0, #0
 680 001c F7DA     		bge	.L46
 681              	.LBB33:
 682              		.loc 1 332 0
 683 001e 3B46     		mov	r3, r7
 684              	.LVL56:
 685              	@ 332 "../libs/ChibiOS_2.4.0/os/kernel/src/chqueues.c" 1
 686 0020 83F31188 		msr     BASEPRI, r3
 687              	@ 0 "" 2
 688              	.LVL57:
 689              		.thumb
 690              	.LBE33:
 691              		.loc 1 333 0
 692 0024 F8BD     		pop	{r3, r4, r5, r6, r7, pc}
 693              	.LVL58:
 694              	.L52:
 695              	.LBE32:
 696              		.loc 1 338 0
 697 0026 6369     		ldr	r3, [r4, #20]
 698              	.LVL59:
 699              		.loc 1 337 0
 700 0028 013F     		subs	r7, r7, #1
 701 002a A760     		str	r7, [r4, #8]
 702              		.loc 1 338 0
 703 002c 03F8015B 		strb	r5, [r3], #1
 704              		.loc 1 339 0
 705 0030 2269     		ldr	r2, [r4, #16]
 706              		.loc 1 338 0
 707 0032 6361     		str	r3, [r4, #20]
 708              		.loc 1 339 0
 709 0034 9342     		cmp	r3, r2
 710              		.loc 1 340 0
 711 0036 24BF     		itt	cs
 712 0038 E368     		ldrcs	r3, [r4, #12]
 713 003a 6361     		strcs	r3, [r4, #20]
 714              		.loc 1 342 0
 715 003c E369     		ldr	r3, [r4, #28]
 716 003e 0BB1     		cbz	r3, .L50
 717              		.loc 1 343 0
 718 0040 2046     		mov	r0, r4
 719 0042 9847     		blx	r3
 720              	.L50:
 721              	.LBB34:
 722              		.loc 1 345 0
 723 0044 0023     		movs	r3, #0
 724              	.LVL60:
 725              	@ 345 "../libs/ChibiOS_2.4.0/os/kernel/src/chqueues.c" 1
 726 0046 83F31188 		msr     BASEPRI, r3
 727              	@ 0 "" 2
 728              	.LVL61:
 729              		.thumb
 730              	.LBE34:
 731              		.loc 1 346 0
 732 004a 1846     		mov	r0, r3
ARM GAS  /tmp/cchRNrHQ.s 			page 14


 733              		.loc 1 347 0
 734 004c F8BD     		pop	{r3, r4, r5, r6, r7, pc}
 735              		.cfi_endproc
 736              	.LFE15:
 737              		.size	chOQPutTimeout, .-chOQPutTimeout
 738 004e 00BF     		.section	.text.chOQGetI,"ax",%progbits
 739              		.align	2
 740              		.p2align 4,,15
 741              		.global	chOQGetI
 742              		.thumb
 743              		.thumb_func
 744              		.type	chOQGetI, %function
 745              	chOQGetI:
 746              	.LFB16:
 747              		.loc 1 359 0
 748              		.cfi_startproc
 749              		@ args = 0, pretend = 0, frame = 0
 750              		@ frame_needed = 0, uses_anonymous_args = 0
 751              	.LVL62:
 752              		.loc 1 364 0
 753 0000 8269     		ldr	r2, [r0, #24]
 754 0002 4169     		ldr	r1, [r0, #20]
 755 0004 9142     		cmp	r1, r2
 756              		.loc 1 359 0
 757 0006 10B5     		push	{r4, lr}
 758              	.LCFI9:
 759              		.cfi_def_cfa_offset 8
 760              		.loc 1 359 0
 761 0008 0346     		mov	r3, r0
 762              		.loc 1 364 0
 763 000a 17D0     		beq	.L54
 764              		.cfi_offset 14, -4
 765              		.cfi_offset 4, -8
 766 000c 8168     		ldr	r1, [r0, #8]
 767              	.L55:
 768              		.loc 1 367 0
 769 000e 4C1C     		adds	r4, r1, #1
 770 0010 9C60     		str	r4, [r3, #8]
 771              		.loc 1 368 0
 772 0012 12F8014B 		ldrb	r4, [r2], #1	@ zero_extendqisi2
 773              	.LVL63:
 774              		.loc 1 369 0
 775 0016 1869     		ldr	r0, [r3, #16]
 776              	.LVL64:
 777              		.loc 1 368 0
 778 0018 9A61     		str	r2, [r3, #24]
 779              		.loc 1 369 0
 780 001a 8242     		cmp	r2, r0
 781              		.loc 1 370 0
 782 001c 28BF     		it	cs
 783 001e DA68     		ldrcs	r2, [r3, #12]
 784              		.loc 1 372 0
 785 0020 1868     		ldr	r0, [r3, #0]
 786              		.loc 1 370 0
 787 0022 28BF     		it	cs
 788 0024 9A61     		strcs	r2, [r3, #24]
 789              		.loc 1 372 0
ARM GAS  /tmp/cchRNrHQ.s 			page 15


 790 0026 9842     		cmp	r0, r3
 791 0028 06D0     		beq	.L58
 792              	.LVL65:
 793              	.LBB35:
 794              	.LBB36:
 795              		.loc 2 62 0
 796 002a 0268     		ldr	r2, [r0, #0]
 797 002c 1A60     		str	r2, [r3, #0]
 798 002e 5360     		str	r3, [r2, #4]
 799              	.LBE36:
 800              	.LBE35:
 801              		.loc 1 373 0
 802 0030 FFF7FEFF 		bl	chSchReadyI
 803              	.LVL66:
 804 0034 0023     		movs	r3, #0
 805 0036 4362     		str	r3, [r0, #36]
 806              	.L58:
 807              		.loc 1 375 0
 808 0038 2046     		mov	r0, r4
 809 003a 10BD     		pop	{r4, pc}
 810              	.LVL67:
 811              	.L54:
 812              		.loc 1 364 0 discriminator 1
 813 003c 8168     		ldr	r1, [r0, #8]
 814 003e 0029     		cmp	r1, #0
 815 0040 E5D0     		beq	.L55
 816              		.loc 1 365 0
 817 0042 6FF00200 		mvn	r0, #2
 818              	.LVL68:
 819              		.loc 1 376 0
 820 0046 10BD     		pop	{r4, pc}
 821              		.cfi_endproc
 822              	.LFE16:
 823              		.size	chOQGetI, .-chOQGetI
 824 0048 AFF30080 		.section	.text.chOQWriteTimeout,"ax",%progbits
 824      AFF30080 
 825              		.align	2
 826              		.p2align 4,,15
 827              		.global	chOQWriteTimeout
 828              		.thumb
 829              		.thumb_func
 830              		.type	chOQWriteTimeout, %function
 831              	chOQWriteTimeout:
 832              	.LFB17:
 833              		.loc 1 403 0
 834              		.cfi_startproc
 835              		@ args = 0, pretend = 0, frame = 0
 836              		@ frame_needed = 0, uses_anonymous_args = 0
 837              	.LVL69:
 838 0000 2DE9F047 		push	{r4, r5, r6, r7, r8, r9, sl, lr}
 839              	.LCFI10:
 840              		.cfi_def_cfa_offset 32
 841              		.loc 1 403 0
 842 0004 1E46     		mov	r6, r3
 843              		.cfi_offset 14, -4
 844              		.cfi_offset 10, -8
 845              		.cfi_offset 9, -12
ARM GAS  /tmp/cchRNrHQ.s 			page 16


 846              		.cfi_offset 8, -16
 847              		.cfi_offset 7, -20
 848              		.cfi_offset 6, -24
 849              		.cfi_offset 5, -28
 850              		.cfi_offset 4, -32
 851 0006 0446     		mov	r4, r0
 852 0008 0D46     		mov	r5, r1
 853 000a 1746     		mov	r7, r2
 854              		.loc 1 404 0
 855 000c D0F81C90 		ldr	r9, [r0, #28]
 856              	.LVL70:
 857              	.LBB37:
 858              		.loc 1 409 0
 859 0010 2023     		movs	r3, #32
 860              	.LVL71:
 861              	@ 409 "../libs/ChibiOS_2.4.0/os/kernel/src/chqueues.c" 1
 862 0012 83F31188 		msr     BASEPRI, r3
 863              	@ 0 "" 2
 864              	.LVL72:
 865              		.loc 1 405 0
 866              		.thumb
 867 0016 4FF00008 		mov	r8, #0
 868              	.LVL73:
 869              	.L69:
 870              	.LBE37:
 871              		.loc 1 411 0 discriminator 1
 872 001a D4F808A0 		ldr	sl, [r4, #8]
 873 001e BAF1000F 		cmp	sl, #0
 874 0022 21D0     		beq	.L64
 875              	.LVL74:
 876              	.L70:
 877              		.loc 1 417 0
 878 0024 0AF1FF31 		add	r1, sl, #-1
 879 0028 A160     		str	r1, [r4, #8]
 880              		.loc 1 418 0
 881 002a 6369     		ldr	r3, [r4, #20]
 882              	.LVL75:
 883 002c 2878     		ldrb	r0, [r5, #0]	@ zero_extendqisi2
 884 002e 03F8010B 		strb	r0, [r3], #1
 885              		.loc 1 419 0
 886 0032 2269     		ldr	r2, [r4, #16]
 887              		.loc 1 418 0
 888 0034 6361     		str	r3, [r4, #20]
 889              	.LVL76:
 890              		.loc 1 419 0
 891 0036 9342     		cmp	r3, r2
 892              		.loc 1 420 0
 893 0038 24BF     		itt	cs
 894 003a E368     		ldrcs	r3, [r4, #12]
 895 003c 6361     		strcs	r3, [r4, #20]
 896              		.loc 1 422 0
 897 003e B9F1000F 		cmp	r9, #0
 898 0042 01D0     		beq	.L66
 899              		.loc 1 423 0
 900 0044 2046     		mov	r0, r4
 901 0046 C847     		blx	r9
 902              	.L66:
ARM GAS  /tmp/cchRNrHQ.s 			page 17


 903              	.LBB38:
 904              		.loc 1 425 0
 905 0048 0023     		movs	r3, #0
 906              	.LVL77:
 907              	@ 425 "../libs/ChibiOS_2.4.0/os/kernel/src/chqueues.c" 1
 908 004a 83F31188 		msr     BASEPRI, r3
 909              	@ 0 "" 2
 910              	.LVL78:
 911              		.thumb
 912              	.LBE38:
 913              		.loc 1 427 0
 914 004e 013F     		subs	r7, r7, #1
 915              	.LVL79:
 916              		.loc 1 426 0
 917 0050 08F10108 		add	r8, r8, #1
 918              	.LVL80:
 919              		.loc 1 427 0
 920 0054 11D0     		beq	.L63
 921              		.loc 1 418 0
 922 0056 0135     		adds	r5, r5, #1
 923              	.LVL81:
 924              	.LBB39:
 925              		.loc 1 429 0
 926 0058 2023     		movs	r3, #32
 927              	.LVL82:
 928              	@ 429 "../libs/ChibiOS_2.4.0/os/kernel/src/chqueues.c" 1
 929 005a 83F31188 		msr     BASEPRI, r3
 930              	@ 0 "" 2
 931              	.LVL83:
 932              		.thumb
 933              	.LBE39:
 934              		.loc 1 411 0
 935 005e D4F808A0 		ldr	sl, [r4, #8]
 936 0062 BAF1000F 		cmp	sl, #0
 937 0066 DDD1     		bne	.L70
 938              	.LVL84:
 939              	.L64:
 940              		.loc 1 412 0
 941 0068 2046     		mov	r0, r4
 942 006a 3146     		mov	r1, r6
 943 006c FFF7FEFF 		bl	qwait
 944              	.LVL85:
 945 0070 0028     		cmp	r0, #0
 946 0072 D2D0     		beq	.L69
 947              	.LBB40:
 948              		.loc 1 413 0
 949 0074 5346     		mov	r3, sl
 950              	.LVL86:
 951              	@ 413 "../libs/ChibiOS_2.4.0/os/kernel/src/chqueues.c" 1
 952 0076 83F31188 		msr     BASEPRI, r3
 953              	@ 0 "" 2
 954              	.LVL87:
 955              		.thumb
 956              	.L63:
 957              	.LBE40:
 958              		.loc 1 431 0
 959 007a 4046     		mov	r0, r8
ARM GAS  /tmp/cchRNrHQ.s 			page 18


 960 007c BDE8F087 		pop	{r4, r5, r6, r7, r8, r9, sl, pc}
 961              		.cfi_endproc
 962              	.LFE17:
 963              		.size	chOQWriteTimeout, .-chOQWriteTimeout
 964              		.text
 965              	.Letext0:
 966              		.section	.debug_loc,"",%progbits
 967              	.Ldebug_loc0:
 968              	.LLST0:
 969 0000 00000000 		.4byte	.LFB7
 970 0004 02000000 		.4byte	.LCFI0
 971 0008 0200     		.2byte	0x2
 972 000a 7D       		.byte	0x7d
 973 000b 00       		.sleb128 0
 974 000c 02000000 		.4byte	.LCFI0
 975 0010 2C000000 		.4byte	.LFE7
 976 0014 0200     		.2byte	0x2
 977 0016 7D       		.byte	0x7d
 978 0017 04       		.sleb128 4
 979 0018 00000000 		.4byte	0x0
 980 001c 00000000 		.4byte	0x0
 981              	.LLST1:
 982 0020 00000000 		.4byte	.LVL0
 983 0024 0A000000 		.4byte	.LVL1
 984 0028 0100     		.2byte	0x1
 985 002a 50       		.byte	0x50
 986 002b 0A000000 		.4byte	.LVL1
 987 002f 25000000 		.4byte	.LVL4-1
 988 0033 0100     		.2byte	0x1
 989 0035 53       		.byte	0x53
 990 0036 00000000 		.4byte	0x0
 991 003a 00000000 		.4byte	0x0
 992              	.LLST2:
 993 003e 00000000 		.4byte	.LVL0
 994 0042 25000000 		.4byte	.LVL4-1
 995 0046 0100     		.2byte	0x1
 996 0048 51       		.byte	0x51
 997 0049 00000000 		.4byte	0x0
 998 004d 00000000 		.4byte	0x0
 999              	.LLST3:
 1000 0051 14000000 		.4byte	.LVL2
 1001 0055 25000000 		.4byte	.LVL4-1
 1002 0059 0100     		.2byte	0x1
 1003 005b 53       		.byte	0x53
 1004 005c 00000000 		.4byte	0x0
 1005 0060 00000000 		.4byte	0x0
 1006              	.LLST4:
 1007 0064 14000000 		.4byte	.LVL2
 1008 0068 16000000 		.4byte	.LVL3
 1009 006c 0200     		.2byte	0x2
 1010 006e 74       		.byte	0x74
 1011 006f 1C       		.sleb128 28
 1012 0070 00000000 		.4byte	0x0
 1013 0074 00000000 		.4byte	0x0
 1014              	.LLST5:
 1015 0078 00000000 		.4byte	.LFB8
 1016 007c 02000000 		.4byte	.LCFI1
ARM GAS  /tmp/cchRNrHQ.s 			page 19


 1017 0080 0200     		.2byte	0x2
 1018 0082 7D       		.byte	0x7d
 1019 0083 00       		.sleb128 0
 1020 0084 02000000 		.4byte	.LCFI1
 1021 0088 1A000000 		.4byte	.LFE8
 1022 008c 0200     		.2byte	0x2
 1023 008e 7D       		.byte	0x7d
 1024 008f 04       		.sleb128 4
 1025 0090 00000000 		.4byte	0x0
 1026 0094 00000000 		.4byte	0x0
 1027              	.LLST6:
 1028 0098 00000000 		.4byte	.LVL5
 1029 009c 04000000 		.4byte	.LVL6
 1030 00a0 0100     		.2byte	0x1
 1031 00a2 52       		.byte	0x52
 1032 00a3 00000000 		.4byte	0x0
 1033 00a7 00000000 		.4byte	0x0
 1034              	.LLST7:
 1035 00ab 00000000 		.4byte	.LFB9
 1036 00af 02000000 		.4byte	.LCFI2
 1037 00b3 0200     		.2byte	0x2
 1038 00b5 7D       		.byte	0x7d
 1039 00b6 00       		.sleb128 0
 1040 00b7 02000000 		.4byte	.LCFI2
 1041 00bb 2C000000 		.4byte	.LFE9
 1042 00bf 0200     		.2byte	0x2
 1043 00c1 7D       		.byte	0x7d
 1044 00c2 10       		.sleb128 16
 1045 00c3 00000000 		.4byte	0x0
 1046 00c7 00000000 		.4byte	0x0
 1047              	.LLST8:
 1048 00cb 00000000 		.4byte	.LVL7
 1049 00cf 08000000 		.4byte	.LVL8
 1050 00d3 0100     		.2byte	0x1
 1051 00d5 50       		.byte	0x50
 1052 00d6 08000000 		.4byte	.LVL8
 1053 00da 2C000000 		.4byte	.LFE9
 1054 00de 0100     		.2byte	0x1
 1055 00e0 54       		.byte	0x54
 1056 00e1 00000000 		.4byte	0x0
 1057 00e5 00000000 		.4byte	0x0
 1058              	.LLST9:
 1059 00e9 18000000 		.4byte	.LVL9
 1060 00ed 2A000000 		.4byte	.LVL11
 1061 00f1 0100     		.2byte	0x1
 1062 00f3 54       		.byte	0x54
 1063 00f4 00000000 		.4byte	0x0
 1064 00f8 00000000 		.4byte	0x0
 1065              	.LLST10:
 1066 00fc 18000000 		.4byte	.LVL9
 1067 0100 21000000 		.4byte	.LVL10-1
 1068 0104 0100     		.2byte	0x1
 1069 0106 50       		.byte	0x50
 1070 0107 00000000 		.4byte	0x0
 1071 010b 00000000 		.4byte	0x0
 1072              	.LLST11:
 1073 010f 00000000 		.4byte	.LFB10
ARM GAS  /tmp/cchRNrHQ.s 			page 20


 1074 0113 04000000 		.4byte	.LCFI3
 1075 0117 0200     		.2byte	0x2
 1076 0119 7D       		.byte	0x7d
 1077 011a 00       		.sleb128 0
 1078 011b 04000000 		.4byte	.LCFI3
 1079 011f 4C000000 		.4byte	.LFE10
 1080 0123 0200     		.2byte	0x2
 1081 0125 7D       		.byte	0x7d
 1082 0126 08       		.sleb128 8
 1083 0127 00000000 		.4byte	0x0
 1084 012b 00000000 		.4byte	0x0
 1085              	.LLST12:
 1086 012f 00000000 		.4byte	.LVL12
 1087 0133 08000000 		.4byte	.LVL13
 1088 0137 0100     		.2byte	0x1
 1089 0139 50       		.byte	0x50
 1090 013a 08000000 		.4byte	.LVL13
 1091 013e 33000000 		.4byte	.LVL16-1
 1092 0142 0100     		.2byte	0x1
 1093 0144 53       		.byte	0x53
 1094 0145 3C000000 		.4byte	.LVL17
 1095 0149 4C000000 		.4byte	.LFE10
 1096 014d 0100     		.2byte	0x1
 1097 014f 53       		.byte	0x53
 1098 0150 00000000 		.4byte	0x0
 1099 0154 00000000 		.4byte	0x0
 1100              	.LLST13:
 1101 0158 00000000 		.4byte	.LVL12
 1102 015c 18000000 		.4byte	.LVL14
 1103 0160 0100     		.2byte	0x1
 1104 0162 51       		.byte	0x51
 1105 0163 18000000 		.4byte	.LVL14
 1106 0167 33000000 		.4byte	.LVL16-1
 1107 016b 0300     		.2byte	0x3
 1108 016d 73       		.byte	0x73
 1109 016e 14       		.sleb128 20
 1110 016f 06       		.byte	0x6
 1111 0170 3C000000 		.4byte	.LVL17
 1112 0174 40000000 		.4byte	.LVL18
 1113 0178 0300     		.2byte	0x3
 1114 017a 73       		.byte	0x73
 1115 017b 14       		.sleb128 20
 1116 017c 06       		.byte	0x6
 1117 017d 40000000 		.4byte	.LVL18
 1118 0181 4C000000 		.4byte	.LFE10
 1119 0185 0100     		.2byte	0x1
 1120 0187 51       		.byte	0x51
 1121 0188 00000000 		.4byte	0x0
 1122 018c 00000000 		.4byte	0x0
 1123              	.LLST14:
 1124 0190 2A000000 		.4byte	.LVL15
 1125 0194 33000000 		.4byte	.LVL16-1
 1126 0198 0100     		.2byte	0x1
 1127 019a 53       		.byte	0x53
 1128 019b 00000000 		.4byte	0x0
 1129 019f 00000000 		.4byte	0x0
 1130              	.LLST15:
ARM GAS  /tmp/cchRNrHQ.s 			page 21


 1131 01a3 2A000000 		.4byte	.LVL15
 1132 01a7 33000000 		.4byte	.LVL16-1
 1133 01ab 0200     		.2byte	0x2
 1134 01ad 73       		.byte	0x73
 1135 01ae 00       		.sleb128 0
 1136 01af 00000000 		.4byte	0x0
 1137 01b3 00000000 		.4byte	0x0
 1138              	.LLST16:
 1139 01b7 00000000 		.4byte	.LFB11
 1140 01bb 02000000 		.4byte	.LCFI4
 1141 01bf 0200     		.2byte	0x2
 1142 01c1 7D       		.byte	0x7d
 1143 01c2 00       		.sleb128 0
 1144 01c3 02000000 		.4byte	.LCFI4
 1145 01c7 48000000 		.4byte	.LFE11
 1146 01cb 0200     		.2byte	0x2
 1147 01cd 7D       		.byte	0x7d
 1148 01ce 10       		.sleb128 16
 1149 01cf 00000000 		.4byte	0x0
 1150 01d3 00000000 		.4byte	0x0
 1151              	.LLST17:
 1152 01d7 00000000 		.4byte	.LVL19
 1153 01db 11000000 		.4byte	.LVL23-1
 1154 01df 0100     		.2byte	0x1
 1155 01e1 50       		.byte	0x50
 1156 01e2 11000000 		.4byte	.LVL23-1
 1157 01e6 48000000 		.4byte	.LFE11
 1158 01ea 0100     		.2byte	0x1
 1159 01ec 54       		.byte	0x54
 1160 01ed 00000000 		.4byte	0x0
 1161 01f1 00000000 		.4byte	0x0
 1162              	.LLST18:
 1163 01f5 00000000 		.4byte	.LVL19
 1164 01f9 11000000 		.4byte	.LVL23-1
 1165 01fd 0100     		.2byte	0x1
 1166 01ff 51       		.byte	0x51
 1167 0200 11000000 		.4byte	.LVL23-1
 1168 0204 48000000 		.4byte	.LFE11
 1169 0208 0100     		.2byte	0x1
 1170 020a 55       		.byte	0x55
 1171 020b 00000000 		.4byte	0x0
 1172 020f 00000000 		.4byte	0x0
 1173              	.LLST19:
 1174 0213 0C000000 		.4byte	.LVL21
 1175 0217 0E000000 		.4byte	.LVL22
 1176 021b 0100     		.2byte	0x1
 1177 021d 53       		.byte	0x53
 1178 021e 00000000 		.4byte	0x0
 1179 0222 00000000 		.4byte	0x0
 1180              	.LLST20:
 1181 0226 1E000000 		.4byte	.LVL24
 1182 022a 2A000000 		.4byte	.LVL27
 1183 022e 0100     		.2byte	0x1
 1184 0230 50       		.byte	0x50
 1185 0231 00000000 		.4byte	0x0
 1186 0235 00000000 		.4byte	0x0
 1187              	.LLST21:
ARM GAS  /tmp/cchRNrHQ.s 			page 22


 1188 0239 28000000 		.4byte	.LVL26
 1189 023d 2A000000 		.4byte	.LVL27
 1190 0241 0100     		.2byte	0x1
 1191 0243 53       		.byte	0x53
 1192 0244 00000000 		.4byte	0x0
 1193 0248 00000000 		.4byte	0x0
 1194              	.LLST22:
 1195 024c 46000000 		.4byte	.LVL30
 1196 0250 48000000 		.4byte	.LFE11
 1197 0254 0100     		.2byte	0x1
 1198 0256 53       		.byte	0x53
 1199 0257 00000000 		.4byte	0x0
 1200 025b 00000000 		.4byte	0x0
 1201              	.LLST23:
 1202 025f 00000000 		.4byte	.LFB12
 1203 0263 04000000 		.4byte	.LCFI5
 1204 0267 0200     		.2byte	0x2
 1205 0269 7D       		.byte	0x7d
 1206 026a 00       		.sleb128 0
 1207 026b 04000000 		.4byte	.LCFI5
 1208 026f 72000000 		.4byte	.LFE12
 1209 0273 0200     		.2byte	0x2
 1210 0275 7D       		.byte	0x7d
 1211 0276 20       		.sleb128 32
 1212 0277 00000000 		.4byte	0x0
 1213 027b 00000000 		.4byte	0x0
 1214              	.LLST24:
 1215 027f 00000000 		.4byte	.LVL31
 1216 0283 18000000 		.4byte	.LVL35
 1217 0287 0100     		.2byte	0x1
 1218 0289 50       		.byte	0x50
 1219 028a 18000000 		.4byte	.LVL35
 1220 028e 72000000 		.4byte	.LFE12
 1221 0292 0100     		.2byte	0x1
 1222 0294 54       		.byte	0x54
 1223 0295 00000000 		.4byte	0x0
 1224 0299 00000000 		.4byte	0x0
 1225              	.LLST25:
 1226 029d 00000000 		.4byte	.LVL31
 1227 02a1 18000000 		.4byte	.LVL35
 1228 02a5 0100     		.2byte	0x1
 1229 02a7 51       		.byte	0x51
 1230 02a8 00000000 		.4byte	0x0
 1231 02ac 00000000 		.4byte	0x0
 1232              	.LLST26:
 1233 02b0 00000000 		.4byte	.LVL31
 1234 02b4 18000000 		.4byte	.LVL35
 1235 02b8 0100     		.2byte	0x1
 1236 02ba 52       		.byte	0x52
 1237 02bb 00000000 		.4byte	0x0
 1238 02bf 00000000 		.4byte	0x0
 1239              	.LLST27:
 1240 02c3 00000000 		.4byte	.LVL31
 1241 02c7 12000000 		.4byte	.LVL33
 1242 02cb 0100     		.2byte	0x1
 1243 02cd 53       		.byte	0x53
 1244 02ce 12000000 		.4byte	.LVL33
ARM GAS  /tmp/cchRNrHQ.s 			page 23


 1245 02d2 72000000 		.4byte	.LFE12
 1246 02d6 0100     		.2byte	0x1
 1247 02d8 55       		.byte	0x55
 1248 02d9 00000000 		.4byte	0x0
 1249 02dd 00000000 		.4byte	0x0
 1250              	.LLST28:
 1251 02e1 10000000 		.4byte	.LVL32
 1252 02e5 18000000 		.4byte	.LVL35
 1253 02e9 0200     		.2byte	0x2
 1254 02eb 70       		.byte	0x70
 1255 02ec 1C       		.sleb128 28
 1256 02ed 18000000 		.4byte	.LVL35
 1257 02f1 72000000 		.4byte	.LFE12
 1258 02f5 0100     		.2byte	0x1
 1259 02f7 58       		.byte	0x58
 1260 02f8 00000000 		.4byte	0x0
 1261 02fc 00000000 		.4byte	0x0
 1262              	.LLST29:
 1263 0300 10000000 		.4byte	.LVL32
 1264 0304 18000000 		.4byte	.LVL35
 1265 0308 0200     		.2byte	0x2
 1266 030a 30       		.byte	0x30
 1267 030b 9F       		.byte	0x9f
 1268 030c 18000000 		.4byte	.LVL35
 1269 0310 66000000 		.4byte	.LVL43
 1270 0314 0100     		.2byte	0x1
 1271 0316 57       		.byte	0x57
 1272 0317 66000000 		.4byte	.LVL43
 1273 031b 72000000 		.4byte	.LFE12
 1274 031f 0100     		.2byte	0x1
 1275 0321 57       		.byte	0x57
 1276 0322 00000000 		.4byte	0x0
 1277 0326 00000000 		.4byte	0x0
 1278              	.LLST30:
 1279 032a 16000000 		.4byte	.LVL34
 1280 032e 21000000 		.4byte	.LVL36-1
 1281 0332 0100     		.2byte	0x1
 1282 0334 53       		.byte	0x53
 1283 0335 22000000 		.4byte	.LVL36
 1284 0339 33000000 		.4byte	.LVL37-1
 1285 033d 0100     		.2byte	0x1
 1286 033f 53       		.byte	0x53
 1287 0340 44000000 		.4byte	.LVL40
 1288 0344 46000000 		.4byte	.LVL41
 1289 0348 0100     		.2byte	0x1
 1290 034a 53       		.byte	0x53
 1291 034b 00000000 		.4byte	0x0
 1292 034f 00000000 		.4byte	0x0
 1293              	.LLST31:
 1294 0353 3E000000 		.4byte	.LVL39
 1295 0357 44000000 		.4byte	.LVL40
 1296 035b 0100     		.2byte	0x1
 1297 035d 53       		.byte	0x53
 1298 035e 00000000 		.4byte	0x0
 1299 0362 00000000 		.4byte	0x0
 1300              	.LLST32:
 1301 0366 3E000000 		.4byte	.LVL39
ARM GAS  /tmp/cchRNrHQ.s 			page 24


 1302 036a 44000000 		.4byte	.LVL40
 1303 036e 0100     		.2byte	0x1
 1304 0370 53       		.byte	0x53
 1305 0371 64000000 		.4byte	.LVL42
 1306 0375 6C000000 		.4byte	.LVL44
 1307 0379 0100     		.2byte	0x1
 1308 037b 53       		.byte	0x53
 1309 037c 00000000 		.4byte	0x0
 1310 0380 00000000 		.4byte	0x0
 1311              	.LLST33:
 1312 0384 18000000 		.4byte	.LVL35
 1313 0388 21000000 		.4byte	.LVL36-1
 1314 038c 0100     		.2byte	0x1
 1315 038e 53       		.byte	0x53
 1316 038f 22000000 		.4byte	.LVL36
 1317 0393 33000000 		.4byte	.LVL37-1
 1318 0397 0100     		.2byte	0x1
 1319 0399 53       		.byte	0x53
 1320 039a 44000000 		.4byte	.LVL40
 1321 039e 46000000 		.4byte	.LVL41
 1322 03a2 0100     		.2byte	0x1
 1323 03a4 53       		.byte	0x53
 1324 03a5 70000000 		.4byte	.LVL45
 1325 03a9 72000000 		.4byte	.LFE12
 1326 03ad 0100     		.2byte	0x1
 1327 03af 53       		.byte	0x53
 1328 03b0 00000000 		.4byte	0x0
 1329 03b4 00000000 		.4byte	0x0
 1330              	.LLST34:
 1331 03b8 00000000 		.4byte	.LFB13
 1332 03bc 02000000 		.4byte	.LCFI6
 1333 03c0 0200     		.2byte	0x2
 1334 03c2 7D       		.byte	0x7d
 1335 03c3 00       		.sleb128 0
 1336 03c4 02000000 		.4byte	.LCFI6
 1337 03c8 18000000 		.4byte	.LFE13
 1338 03cc 0200     		.2byte	0x2
 1339 03ce 7D       		.byte	0x7d
 1340 03cf 04       		.sleb128 4
 1341 03d0 00000000 		.4byte	0x0
 1342 03d4 00000000 		.4byte	0x0
 1343              	.LLST35:
 1344 03d8 00000000 		.4byte	.LFB14
 1345 03dc 02000000 		.4byte	.LCFI7
 1346 03e0 0200     		.2byte	0x2
 1347 03e2 7D       		.byte	0x7d
 1348 03e3 00       		.sleb128 0
 1349 03e4 02000000 		.4byte	.LCFI7
 1350 03e8 2E000000 		.4byte	.LFE14
 1351 03ec 0200     		.2byte	0x2
 1352 03ee 7D       		.byte	0x7d
 1353 03ef 10       		.sleb128 16
 1354 03f0 00000000 		.4byte	0x0
 1355 03f4 00000000 		.4byte	0x0
 1356              	.LLST36:
 1357 03f8 00000000 		.4byte	.LVL47
 1358 03fc 0A000000 		.4byte	.LVL48
ARM GAS  /tmp/cchRNrHQ.s 			page 25


 1359 0400 0100     		.2byte	0x1
 1360 0402 50       		.byte	0x50
 1361 0403 0A000000 		.4byte	.LVL48
 1362 0407 2E000000 		.4byte	.LFE14
 1363 040b 0100     		.2byte	0x1
 1364 040d 54       		.byte	0x54
 1365 040e 00000000 		.4byte	0x0
 1366 0412 00000000 		.4byte	0x0
 1367              	.LLST37:
 1368 0416 1A000000 		.4byte	.LVL49
 1369 041a 2C000000 		.4byte	.LVL51
 1370 041e 0100     		.2byte	0x1
 1371 0420 54       		.byte	0x54
 1372 0421 00000000 		.4byte	0x0
 1373 0425 00000000 		.4byte	0x0
 1374              	.LLST38:
 1375 0429 1A000000 		.4byte	.LVL49
 1376 042d 23000000 		.4byte	.LVL50-1
 1377 0431 0100     		.2byte	0x1
 1378 0433 50       		.byte	0x50
 1379 0434 00000000 		.4byte	0x0
 1380 0438 00000000 		.4byte	0x0
 1381              	.LLST39:
 1382 043c 00000000 		.4byte	.LFB15
 1383 0440 02000000 		.4byte	.LCFI8
 1384 0444 0200     		.2byte	0x2
 1385 0446 7D       		.byte	0x7d
 1386 0447 00       		.sleb128 0
 1387 0448 02000000 		.4byte	.LCFI8
 1388 044c 4E000000 		.4byte	.LFE15
 1389 0450 0200     		.2byte	0x2
 1390 0452 7D       		.byte	0x7d
 1391 0453 18       		.sleb128 24
 1392 0454 00000000 		.4byte	0x0
 1393 0458 00000000 		.4byte	0x0
 1394              	.LLST40:
 1395 045c 00000000 		.4byte	.LVL52
 1396 0460 0E000000 		.4byte	.LVL54
 1397 0464 0100     		.2byte	0x1
 1398 0466 50       		.byte	0x50
 1399 0467 0E000000 		.4byte	.LVL54
 1400 046b 4E000000 		.4byte	.LFE15
 1401 046f 0100     		.2byte	0x1
 1402 0471 54       		.byte	0x54
 1403 0472 00000000 		.4byte	0x0
 1404 0476 00000000 		.4byte	0x0
 1405              	.LLST41:
 1406 047a 00000000 		.4byte	.LVL52
 1407 047e 0E000000 		.4byte	.LVL54
 1408 0482 0100     		.2byte	0x1
 1409 0484 51       		.byte	0x51
 1410 0485 00000000 		.4byte	0x0
 1411 0489 00000000 		.4byte	0x0
 1412              	.LLST42:
 1413 048d 00000000 		.4byte	.LVL52
 1414 0491 0E000000 		.4byte	.LVL54
 1415 0495 0100     		.2byte	0x1
ARM GAS  /tmp/cchRNrHQ.s 			page 26


 1416 0497 52       		.byte	0x52
 1417 0498 0E000000 		.4byte	.LVL54
 1418 049c 4E000000 		.4byte	.LFE15
 1419 04a0 0100     		.2byte	0x1
 1420 04a2 56       		.byte	0x56
 1421 04a3 00000000 		.4byte	0x0
 1422 04a7 00000000 		.4byte	0x0
 1423              	.LLST43:
 1424 04ab 0E000000 		.4byte	.LVL54
 1425 04af 19000000 		.4byte	.LVL55-1
 1426 04b3 0100     		.2byte	0x1
 1427 04b5 53       		.byte	0x53
 1428 04b6 26000000 		.4byte	.LVL58
 1429 04ba 28000000 		.4byte	.LVL59
 1430 04be 0100     		.2byte	0x1
 1431 04c0 53       		.byte	0x53
 1432 04c1 00000000 		.4byte	0x0
 1433 04c5 00000000 		.4byte	0x0
 1434              	.LLST44:
 1435 04c9 1A000000 		.4byte	.LVL55
 1436 04cd 26000000 		.4byte	.LVL58
 1437 04d1 0100     		.2byte	0x1
 1438 04d3 50       		.byte	0x50
 1439 04d4 00000000 		.4byte	0x0
 1440 04d8 00000000 		.4byte	0x0
 1441              	.LLST45:
 1442 04dc 24000000 		.4byte	.LVL57
 1443 04e0 26000000 		.4byte	.LVL58
 1444 04e4 0100     		.2byte	0x1
 1445 04e6 53       		.byte	0x53
 1446 04e7 00000000 		.4byte	0x0
 1447 04eb 00000000 		.4byte	0x0
 1448              	.LLST46:
 1449 04ef 4A000000 		.4byte	.LVL61
 1450 04f3 4E000000 		.4byte	.LFE15
 1451 04f7 0100     		.2byte	0x1
 1452 04f9 53       		.byte	0x53
 1453 04fa 00000000 		.4byte	0x0
 1454 04fe 00000000 		.4byte	0x0
 1455              	.LLST47:
 1456 0502 00000000 		.4byte	.LFB16
 1457 0506 08000000 		.4byte	.LCFI9
 1458 050a 0200     		.2byte	0x2
 1459 050c 7D       		.byte	0x7d
 1460 050d 00       		.sleb128 0
 1461 050e 08000000 		.4byte	.LCFI9
 1462 0512 48000000 		.4byte	.LFE16
 1463 0516 0200     		.2byte	0x2
 1464 0518 7D       		.byte	0x7d
 1465 0519 08       		.sleb128 8
 1466 051a 00000000 		.4byte	0x0
 1467 051e 00000000 		.4byte	0x0
 1468              	.LLST48:
 1469 0522 00000000 		.4byte	.LVL62
 1470 0526 18000000 		.4byte	.LVL64
 1471 052a 0100     		.2byte	0x1
 1472 052c 50       		.byte	0x50
ARM GAS  /tmp/cchRNrHQ.s 			page 27


 1473 052d 18000000 		.4byte	.LVL64
 1474 0531 33000000 		.4byte	.LVL66-1
 1475 0535 0100     		.2byte	0x1
 1476 0537 53       		.byte	0x53
 1477 0538 3C000000 		.4byte	.LVL67
 1478 053c 46000000 		.4byte	.LVL68
 1479 0540 0100     		.2byte	0x1
 1480 0542 50       		.byte	0x50
 1481 0543 46000000 		.4byte	.LVL68
 1482 0547 48000000 		.4byte	.LFE16
 1483 054b 0100     		.2byte	0x1
 1484 054d 53       		.byte	0x53
 1485 054e 00000000 		.4byte	0x0
 1486 0552 00000000 		.4byte	0x0
 1487              	.LLST49:
 1488 0556 16000000 		.4byte	.LVL63
 1489 055a 3C000000 		.4byte	.LVL67
 1490 055e 0100     		.2byte	0x1
 1491 0560 54       		.byte	0x54
 1492 0561 00000000 		.4byte	0x0
 1493 0565 00000000 		.4byte	0x0
 1494              	.LLST50:
 1495 0569 2A000000 		.4byte	.LVL65
 1496 056d 33000000 		.4byte	.LVL66-1
 1497 0571 0100     		.2byte	0x1
 1498 0573 53       		.byte	0x53
 1499 0574 00000000 		.4byte	0x0
 1500 0578 00000000 		.4byte	0x0
 1501              	.LLST51:
 1502 057c 2A000000 		.4byte	.LVL65
 1503 0580 33000000 		.4byte	.LVL66-1
 1504 0584 0200     		.2byte	0x2
 1505 0586 73       		.byte	0x73
 1506 0587 00       		.sleb128 0
 1507 0588 00000000 		.4byte	0x0
 1508 058c 00000000 		.4byte	0x0
 1509              	.LLST52:
 1510 0590 00000000 		.4byte	.LFB17
 1511 0594 04000000 		.4byte	.LCFI10
 1512 0598 0200     		.2byte	0x2
 1513 059a 7D       		.byte	0x7d
 1514 059b 00       		.sleb128 0
 1515 059c 04000000 		.4byte	.LCFI10
 1516 05a0 80000000 		.4byte	.LFE17
 1517 05a4 0200     		.2byte	0x2
 1518 05a6 7D       		.byte	0x7d
 1519 05a7 20       		.sleb128 32
 1520 05a8 00000000 		.4byte	0x0
 1521 05ac 00000000 		.4byte	0x0
 1522              	.LLST53:
 1523 05b0 00000000 		.4byte	.LVL69
 1524 05b4 1A000000 		.4byte	.LVL73
 1525 05b8 0100     		.2byte	0x1
 1526 05ba 50       		.byte	0x50
 1527 05bb 1A000000 		.4byte	.LVL73
 1528 05bf 80000000 		.4byte	.LFE17
 1529 05c3 0100     		.2byte	0x1
ARM GAS  /tmp/cchRNrHQ.s 			page 28


 1530 05c5 54       		.byte	0x54
 1531 05c6 00000000 		.4byte	0x0
 1532 05ca 00000000 		.4byte	0x0
 1533              	.LLST54:
 1534 05ce 00000000 		.4byte	.LVL69
 1535 05d2 1A000000 		.4byte	.LVL73
 1536 05d6 0100     		.2byte	0x1
 1537 05d8 51       		.byte	0x51
 1538 05d9 1A000000 		.4byte	.LVL73
 1539 05dd 36000000 		.4byte	.LVL76
 1540 05e1 0100     		.2byte	0x1
 1541 05e3 55       		.byte	0x55
 1542 05e4 36000000 		.4byte	.LVL76
 1543 05e8 58000000 		.4byte	.LVL81
 1544 05ec 0300     		.2byte	0x3
 1545 05ee 75       		.byte	0x75
 1546 05ef 01       		.sleb128 1
 1547 05f0 9F       		.byte	0x9f
 1548 05f1 58000000 		.4byte	.LVL81
 1549 05f5 7A000000 		.4byte	.LVL87
 1550 05f9 0100     		.2byte	0x1
 1551 05fb 55       		.byte	0x55
 1552 05fc 00000000 		.4byte	0x0
 1553 0600 00000000 		.4byte	0x0
 1554              	.LLST55:
 1555 0604 00000000 		.4byte	.LVL69
 1556 0608 1A000000 		.4byte	.LVL73
 1557 060c 0100     		.2byte	0x1
 1558 060e 52       		.byte	0x52
 1559 060f 1A000000 		.4byte	.LVL73
 1560 0613 50000000 		.4byte	.LVL79
 1561 0617 0100     		.2byte	0x1
 1562 0619 57       		.byte	0x57
 1563 061a 50000000 		.4byte	.LVL79
 1564 061e 54000000 		.4byte	.LVL80
 1565 0622 0300     		.2byte	0x3
 1566 0624 77       		.byte	0x77
 1567 0625 01       		.sleb128 1
 1568 0626 9F       		.byte	0x9f
 1569 0627 5E000000 		.4byte	.LVL83
 1570 062b 7A000000 		.4byte	.LVL87
 1571 062f 0100     		.2byte	0x1
 1572 0631 57       		.byte	0x57
 1573 0632 00000000 		.4byte	0x0
 1574 0636 00000000 		.4byte	0x0
 1575              	.LLST56:
 1576 063a 00000000 		.4byte	.LVL69
 1577 063e 12000000 		.4byte	.LVL71
 1578 0642 0100     		.2byte	0x1
 1579 0644 53       		.byte	0x53
 1580 0645 12000000 		.4byte	.LVL71
 1581 0649 80000000 		.4byte	.LFE17
 1582 064d 0100     		.2byte	0x1
 1583 064f 56       		.byte	0x56
 1584 0650 00000000 		.4byte	0x0
 1585 0654 00000000 		.4byte	0x0
 1586              	.LLST57:
ARM GAS  /tmp/cchRNrHQ.s 			page 29


 1587 0658 10000000 		.4byte	.LVL70
 1588 065c 1A000000 		.4byte	.LVL73
 1589 0660 0200     		.2byte	0x2
 1590 0662 70       		.byte	0x70
 1591 0663 1C       		.sleb128 28
 1592 0664 1A000000 		.4byte	.LVL73
 1593 0668 80000000 		.4byte	.LFE17
 1594 066c 0100     		.2byte	0x1
 1595 066e 59       		.byte	0x59
 1596 066f 00000000 		.4byte	0x0
 1597 0673 00000000 		.4byte	0x0
 1598              	.LLST58:
 1599 0677 10000000 		.4byte	.LVL70
 1600 067b 1A000000 		.4byte	.LVL73
 1601 067f 0200     		.2byte	0x2
 1602 0681 30       		.byte	0x30
 1603 0682 9F       		.byte	0x9f
 1604 0683 1A000000 		.4byte	.LVL73
 1605 0687 54000000 		.4byte	.LVL80
 1606 068b 0100     		.2byte	0x1
 1607 068d 58       		.byte	0x58
 1608 068e 54000000 		.4byte	.LVL80
 1609 0692 80000000 		.4byte	.LFE17
 1610 0696 0100     		.2byte	0x1
 1611 0698 58       		.byte	0x58
 1612 0699 00000000 		.4byte	0x0
 1613 069d 00000000 		.4byte	0x0
 1614              	.LLST59:
 1615 06a1 16000000 		.4byte	.LVL72
 1616 06a5 2C000000 		.4byte	.LVL75
 1617 06a9 0100     		.2byte	0x1
 1618 06ab 53       		.byte	0x53
 1619 06ac 68000000 		.4byte	.LVL84
 1620 06b0 6F000000 		.4byte	.LVL85-1
 1621 06b4 0100     		.2byte	0x1
 1622 06b6 53       		.byte	0x53
 1623 06b7 00000000 		.4byte	0x0
 1624 06bb 00000000 		.4byte	0x0
 1625              	.LLST60:
 1626 06bf 4E000000 		.4byte	.LVL78
 1627 06c3 5A000000 		.4byte	.LVL82
 1628 06c7 0100     		.2byte	0x1
 1629 06c9 53       		.byte	0x53
 1630 06ca 7A000000 		.4byte	.LVL87
 1631 06ce 80000000 		.4byte	.LFE17
 1632 06d2 0100     		.2byte	0x1
 1633 06d4 53       		.byte	0x53
 1634 06d5 00000000 		.4byte	0x0
 1635 06d9 00000000 		.4byte	0x0
 1636              	.LLST61:
 1637 06dd 24000000 		.4byte	.LVL74
 1638 06e1 2C000000 		.4byte	.LVL75
 1639 06e5 0100     		.2byte	0x1
 1640 06e7 53       		.byte	0x53
 1641 06e8 5E000000 		.4byte	.LVL83
 1642 06ec 6F000000 		.4byte	.LVL85-1
 1643 06f0 0100     		.2byte	0x1
ARM GAS  /tmp/cchRNrHQ.s 			page 30


 1644 06f2 53       		.byte	0x53
 1645 06f3 00000000 		.4byte	0x0
 1646 06f7 00000000 		.4byte	0x0
 1647              	.LLST62:
 1648 06fb 7A000000 		.4byte	.LVL87
 1649 06ff 80000000 		.4byte	.LFE17
 1650 0703 0100     		.2byte	0x1
 1651 0705 53       		.byte	0x53
 1652 0706 00000000 		.4byte	0x0
 1653 070a 00000000 		.4byte	0x0
 1654              		.file 3 "/opt/stm32/arm-none-eabi-2011.03/bin/../lib/gcc/arm-none-eabi/4.5.2/include/stddef.h"
 1655              		.file 4 "/opt/stm32/arm-none-eabi-2011.03/bin/../lib/gcc/arm-none-eabi/4.5.2/../../../../arm-none-
 1656              		.file 5 "../libs/ChibiOS_2.4.0/os/ports/GCC/ARMCMx/chtypes.h"
 1657              		.file 6 "../libs/ChibiOS_2.4.0/os/kernel/include/chlists.h"
 1658              		.file 7 "../libs/ChibiOS_2.4.0/os/kernel/include/chthreads.h"
 1659              		.file 8 "../libs/ChibiOS_2.4.0/os/ports/GCC/ARMCMx/chcore_v7m.h"
 1660              		.file 9 "../libs/ChibiOS_2.4.0/os/kernel/include/chschd.h"
 1661              		.file 10 "../libs/ChibiOS_2.4.0/os/kernel/include/chmtx.h"
 1662              		.file 11 "../libs/ChibiOS_2.4.0/os/kernel/include/chqueues.h"
 1663              		.section	.debug_info
 1664 0000 330B0000 		.4byte	0xb33
 1665 0004 0200     		.2byte	0x2
 1666 0006 00000000 		.4byte	.Ldebug_abbrev0
 1667 000a 04       		.byte	0x4
 1668 000b 01       		.uleb128 0x1
 1669 000c 4F030000 		.4byte	.LASF89
 1670 0010 01       		.byte	0x1
 1671 0011 7B000000 		.4byte	.LASF90
 1672 0015 93030000 		.4byte	.LASF91
 1673 0019 00000000 		.4byte	0x0
 1674 001d 00000000 		.4byte	0x0
 1675 0021 30000000 		.4byte	.Ldebug_ranges0+0x30
 1676 0025 00000000 		.4byte	.Ldebug_line0
 1677 0029 02       		.uleb128 0x2
 1678 002a 04       		.byte	0x4
 1679 002b 05       		.byte	0x5
 1680 002c 696E7400 		.ascii	"int\000"
 1681 0030 03       		.uleb128 0x3
 1682 0031 21000000 		.4byte	.LASF2
 1683 0035 03       		.byte	0x3
 1684 0036 D3       		.byte	0xd3
 1685 0037 3B000000 		.4byte	0x3b
 1686 003b 04       		.uleb128 0x4
 1687 003c 04       		.byte	0x4
 1688 003d 07       		.byte	0x7
 1689 003e 4E010000 		.4byte	.LASF0
 1690 0042 04       		.uleb128 0x4
 1691 0043 01       		.byte	0x1
 1692 0044 06       		.byte	0x6
 1693 0045 C2000000 		.4byte	.LASF1
 1694 0049 03       		.uleb128 0x3
 1695 004a 40030000 		.4byte	.LASF3
 1696 004e 04       		.byte	0x4
 1697 004f 2A       		.byte	0x2a
 1698 0050 54000000 		.4byte	0x54
 1699 0054 04       		.uleb128 0x4
 1700 0055 01       		.byte	0x1
ARM GAS  /tmp/cchRNrHQ.s 			page 31


 1701 0056 08       		.byte	0x8
 1702 0057 5A020000 		.4byte	.LASF4
 1703 005b 04       		.uleb128 0x4
 1704 005c 02       		.byte	0x2
 1705 005d 05       		.byte	0x5
 1706 005e 72020000 		.4byte	.LASF5
 1707 0062 04       		.uleb128 0x4
 1708 0063 02       		.byte	0x2
 1709 0064 07       		.byte	0x7
 1710 0065 85010000 		.4byte	.LASF6
 1711 0069 03       		.uleb128 0x3
 1712 006a 52020000 		.4byte	.LASF7
 1713 006e 04       		.byte	0x4
 1714 006f 4F       		.byte	0x4f
 1715 0070 74000000 		.4byte	0x74
 1716 0074 04       		.uleb128 0x4
 1717 0075 04       		.byte	0x4
 1718 0076 05       		.byte	0x5
 1719 0077 EB000000 		.4byte	.LASF8
 1720 007b 03       		.uleb128 0x3
 1721 007c B8020000 		.4byte	.LASF9
 1722 0080 04       		.byte	0x4
 1723 0081 50       		.byte	0x50
 1724 0082 86000000 		.4byte	0x86
 1725 0086 04       		.uleb128 0x4
 1726 0087 04       		.byte	0x4
 1727 0088 07       		.byte	0x7
 1728 0089 66010000 		.4byte	.LASF10
 1729 008d 04       		.uleb128 0x4
 1730 008e 08       		.byte	0x8
 1731 008f 05       		.byte	0x5
 1732 0090 B4000000 		.4byte	.LASF11
 1733 0094 04       		.uleb128 0x4
 1734 0095 08       		.byte	0x8
 1735 0096 07       		.byte	0x7
 1736 0097 54000000 		.4byte	.LASF12
 1737 009b 03       		.uleb128 0x3
 1738 009c D6000000 		.4byte	.LASF13
 1739 00a0 05       		.byte	0x5
 1740 00a1 2E       		.byte	0x2e
 1741 00a2 69000000 		.4byte	0x69
 1742 00a6 03       		.uleb128 0x3
 1743 00a7 9E010000 		.4byte	.LASF14
 1744 00ab 05       		.byte	0x5
 1745 00ac 2F       		.byte	0x2f
 1746 00ad 49000000 		.4byte	0x49
 1747 00b1 03       		.uleb128 0x3
 1748 00b2 F4000000 		.4byte	.LASF15
 1749 00b6 05       		.byte	0x5
 1750 00b7 30       		.byte	0x30
 1751 00b8 49000000 		.4byte	0x49
 1752 00bc 03       		.uleb128 0x3
 1753 00bd 29020000 		.4byte	.LASF16
 1754 00c1 05       		.byte	0x5
 1755 00c2 31       		.byte	0x31
 1756 00c3 49000000 		.4byte	0x49
 1757 00c7 03       		.uleb128 0x3
ARM GAS  /tmp/cchRNrHQ.s 			page 32


 1758 00c8 42020000 		.4byte	.LASF17
 1759 00cc 05       		.byte	0x5
 1760 00cd 32       		.byte	0x32
 1761 00ce 7B000000 		.4byte	0x7b
 1762 00d2 03       		.uleb128 0x3
 1763 00d3 98010000 		.4byte	.LASF18
 1764 00d7 05       		.byte	0x5
 1765 00d8 33       		.byte	0x33
 1766 00d9 69000000 		.4byte	0x69
 1767 00dd 03       		.uleb128 0x3
 1768 00de B2010000 		.4byte	.LASF19
 1769 00e2 05       		.byte	0x5
 1770 00e3 35       		.byte	0x35
 1771 00e4 7B000000 		.4byte	0x7b
 1772 00e8 03       		.uleb128 0x3
 1773 00e9 E1020000 		.4byte	.LASF20
 1774 00ed 05       		.byte	0x5
 1775 00ee 36       		.byte	0x36
 1776 00ef 7B000000 		.4byte	0x7b
 1777 00f3 03       		.uleb128 0x3
 1778 00f4 48010000 		.4byte	.LASF21
 1779 00f8 05       		.byte	0x5
 1780 00f9 37       		.byte	0x37
 1781 00fa 69000000 		.4byte	0x69
 1782 00fe 03       		.uleb128 0x3
 1783 00ff A6020000 		.4byte	.LASF22
 1784 0103 06       		.byte	0x6
 1785 0104 2A       		.byte	0x2a
 1786 0105 09010000 		.4byte	0x109
 1787 0109 05       		.uleb128 0x5
 1788 010a A6020000 		.4byte	.LASF22
 1789 010e 48       		.byte	0x48
 1790 010f 07       		.byte	0x7
 1791 0110 5E       		.byte	0x5e
 1792 0111 20020000 		.4byte	0x220
 1793 0115 06       		.uleb128 0x6
 1794 0116 92020000 		.4byte	.LASF23
 1795 011a 07       		.byte	0x7
 1796 011b 5F       		.byte	0x5f
 1797 011c 45020000 		.4byte	0x245
 1798 0120 02       		.byte	0x2
 1799 0121 23       		.byte	0x23
 1800 0122 00       		.uleb128 0x0
 1801 0123 06       		.uleb128 0x6
 1802 0124 3B020000 		.4byte	.LASF24
 1803 0128 07       		.byte	0x7
 1804 0129 61       		.byte	0x61
 1805 012a 45020000 		.4byte	0x245
 1806 012e 02       		.byte	0x2
 1807 012f 23       		.byte	0x23
 1808 0130 04       		.uleb128 0x4
 1809 0131 06       		.uleb128 0x6
 1810 0132 74000000 		.4byte	.LASF25
 1811 0136 07       		.byte	0x7
 1812 0137 63       		.byte	0x63
 1813 0138 C7000000 		.4byte	0xc7
 1814 013c 02       		.byte	0x2
ARM GAS  /tmp/cchRNrHQ.s 			page 33


 1815 013d 23       		.byte	0x23
 1816 013e 08       		.uleb128 0x8
 1817 013f 06       		.uleb128 0x6
 1818 0140 74030000 		.4byte	.LASF26
 1819 0144 07       		.byte	0x7
 1820 0145 64       		.byte	0x64
 1821 0146 12030000 		.4byte	0x312
 1822 014a 02       		.byte	0x2
 1823 014b 23       		.byte	0x23
 1824 014c 0C       		.uleb128 0xc
 1825 014d 06       		.uleb128 0x6
 1826 014e 17010000 		.4byte	.LASF27
 1827 0152 07       		.byte	0x7
 1828 0153 66       		.byte	0x66
 1829 0154 45020000 		.4byte	0x245
 1830 0158 02       		.byte	0x2
 1831 0159 23       		.byte	0x23
 1832 015a 10       		.uleb128 0x10
 1833 015b 06       		.uleb128 0x6
 1834 015c F7010000 		.4byte	.LASF28
 1835 0160 07       		.byte	0x7
 1836 0161 67       		.byte	0x67
 1837 0162 45020000 		.4byte	0x245
 1838 0166 02       		.byte	0x2
 1839 0167 23       		.byte	0x23
 1840 0168 14       		.uleb128 0x14
 1841 0169 06       		.uleb128 0x6
 1842 016a 5B030000 		.4byte	.LASF29
 1843 016e 07       		.byte	0x7
 1844 016f 6E       		.byte	0x6e
 1845 0170 2D040000 		.4byte	0x42d
 1846 0174 02       		.byte	0x2
 1847 0175 23       		.byte	0x23
 1848 0176 18       		.uleb128 0x18
 1849 0177 06       		.uleb128 0x6
 1850 0178 7C020000 		.4byte	.LASF30
 1851 017c 07       		.byte	0x7
 1852 017d 79       		.byte	0x79
 1853 017e B1000000 		.4byte	0xb1
 1854 0182 02       		.byte	0x2
 1855 0183 23       		.byte	0x23
 1856 0184 1C       		.uleb128 0x1c
 1857 0185 06       		.uleb128 0x6
 1858 0186 9E020000 		.4byte	.LASF31
 1859 018a 07       		.byte	0x7
 1860 018b 7D       		.byte	0x7d
 1861 018c A6000000 		.4byte	0xa6
 1862 0190 02       		.byte	0x2
 1863 0191 23       		.byte	0x23
 1864 0192 1D       		.uleb128 0x1d
 1865 0193 06       		.uleb128 0x6
 1866 0194 20030000 		.4byte	.LASF32
 1867 0198 07       		.byte	0x7
 1868 0199 82       		.byte	0x82
 1869 019a BC000000 		.4byte	0xbc
 1870 019e 02       		.byte	0x2
 1871 019f 23       		.byte	0x23
ARM GAS  /tmp/cchRNrHQ.s 			page 34


 1872 01a0 1E       		.uleb128 0x1e
 1873 01a1 06       		.uleb128 0x6
 1874 01a2 01030000 		.4byte	.LASF33
 1875 01a6 07       		.byte	0x7
 1876 01a7 89       		.byte	0x89
 1877 01a8 35030000 		.4byte	0x335
 1878 01ac 02       		.byte	0x2
 1879 01ad 23       		.byte	0x23
 1880 01ae 20       		.uleb128 0x20
 1881 01af 07       		.uleb128 0x7
 1882 01b0 705F7500 		.ascii	"p_u\000"
 1883 01b4 07       		.byte	0x7
 1884 01b5 AE       		.byte	0xae
 1885 01b6 F8030000 		.4byte	0x3f8
 1886 01ba 02       		.byte	0x2
 1887 01bb 23       		.byte	0x23
 1888 01bc 24       		.uleb128 0x24
 1889 01bd 06       		.uleb128 0x6
 1890 01be 7A030000 		.4byte	.LASF34
 1891 01c2 07       		.byte	0x7
 1892 01c3 B3       		.byte	0xb3
 1893 01c4 6D020000 		.4byte	0x26d
 1894 01c8 02       		.byte	0x2
 1895 01c9 23       		.byte	0x23
 1896 01ca 28       		.uleb128 0x28
 1897 01cb 06       		.uleb128 0x6
 1898 01cc 0F030000 		.4byte	.LASF35
 1899 01d0 07       		.byte	0x7
 1900 01d1 B9       		.byte	0xb9
 1901 01d2 4B020000 		.4byte	0x24b
 1902 01d6 02       		.byte	0x2
 1903 01d7 23       		.byte	0x23
 1904 01d8 2C       		.uleb128 0x2c
 1905 01d9 06       		.uleb128 0x6
 1906 01da 09000000 		.4byte	.LASF36
 1907 01de 07       		.byte	0x7
 1908 01df BD       		.byte	0xbd
 1909 01e0 D2000000 		.4byte	0xd2
 1910 01e4 02       		.byte	0x2
 1911 01e5 23       		.byte	0x23
 1912 01e6 34       		.uleb128 0x34
 1913 01e7 06       		.uleb128 0x6
 1914 01e8 AD020000 		.4byte	.LASF37
 1915 01ec 07       		.byte	0x7
 1916 01ed C3       		.byte	0xc3
 1917 01ee DD000000 		.4byte	0xdd
 1918 01f2 02       		.byte	0x2
 1919 01f3 23       		.byte	0x23
 1920 01f4 38       		.uleb128 0x38
 1921 01f5 06       		.uleb128 0x6
 1922 01f6 68020000 		.4byte	.LASF38
 1923 01fa 07       		.byte	0x7
 1924 01fb CA       		.byte	0xca
 1925 01fc 3F040000 		.4byte	0x43f
 1926 0200 02       		.byte	0x2
 1927 0201 23       		.byte	0x23
 1928 0202 3C       		.uleb128 0x3c
ARM GAS  /tmp/cchRNrHQ.s 			page 35


 1929 0203 06       		.uleb128 0x6
 1930 0204 EB020000 		.4byte	.LASF39
 1931 0208 07       		.byte	0x7
 1932 0209 CE       		.byte	0xce
 1933 020a C7000000 		.4byte	0xc7
 1934 020e 02       		.byte	0x2
 1935 020f 23       		.byte	0x23
 1936 0210 40       		.uleb128 0x40
 1937 0211 06       		.uleb128 0x6
 1938 0212 CE000000 		.4byte	.LASF40
 1939 0216 07       		.byte	0x7
 1940 0217 D4       		.byte	0xd4
 1941 0218 83020000 		.4byte	0x283
 1942 021c 02       		.byte	0x2
 1943 021d 23       		.byte	0x23
 1944 021e 44       		.uleb128 0x44
 1945 021f 00       		.byte	0x0
 1946 0220 08       		.uleb128 0x8
 1947 0221 08       		.byte	0x8
 1948 0222 06       		.byte	0x6
 1949 0223 61       		.byte	0x61
 1950 0224 45020000 		.4byte	0x245
 1951 0228 06       		.uleb128 0x6
 1952 0229 92020000 		.4byte	.LASF23
 1953 022d 06       		.byte	0x6
 1954 022e 62       		.byte	0x62
 1955 022f 45020000 		.4byte	0x245
 1956 0233 02       		.byte	0x2
 1957 0234 23       		.byte	0x23
 1958 0235 00       		.uleb128 0x0
 1959 0236 06       		.uleb128 0x6
 1960 0237 3B020000 		.4byte	.LASF24
 1961 023b 06       		.byte	0x6
 1962 023c 64       		.byte	0x64
 1963 023d 45020000 		.4byte	0x245
 1964 0241 02       		.byte	0x2
 1965 0242 23       		.byte	0x23
 1966 0243 04       		.uleb128 0x4
 1967 0244 00       		.byte	0x0
 1968 0245 09       		.uleb128 0x9
 1969 0246 04       		.byte	0x4
 1970 0247 FE000000 		.4byte	0xfe
 1971 024b 03       		.uleb128 0x3
 1972 024c 05020000 		.4byte	.LASF41
 1973 0250 06       		.byte	0x6
 1974 0251 66       		.byte	0x66
 1975 0252 20020000 		.4byte	0x220
 1976 0256 08       		.uleb128 0x8
 1977 0257 04       		.byte	0x4
 1978 0258 06       		.byte	0x6
 1979 0259 6B       		.byte	0x6b
 1980 025a 6D020000 		.4byte	0x26d
 1981 025e 06       		.uleb128 0x6
 1982 025f 92020000 		.4byte	.LASF23
 1983 0263 06       		.byte	0x6
 1984 0264 6D       		.byte	0x6d
 1985 0265 45020000 		.4byte	0x245
ARM GAS  /tmp/cchRNrHQ.s 			page 36


 1986 0269 02       		.byte	0x2
 1987 026a 23       		.byte	0x23
 1988 026b 00       		.uleb128 0x0
 1989 026c 00       		.byte	0x0
 1990 026d 03       		.uleb128 0x3
 1991 026e A6010000 		.4byte	.LASF42
 1992 0272 06       		.byte	0x6
 1993 0273 70       		.byte	0x70
 1994 0274 56020000 		.4byte	0x256
 1995 0278 03       		.uleb128 0x3
 1996 0279 27010000 		.4byte	.LASF43
 1997 027d 08       		.byte	0x8
 1998 027e D7       		.byte	0xd7
 1999 027f 83020000 		.4byte	0x283
 2000 0283 0A       		.uleb128 0xa
 2001 0284 04       		.byte	0x4
 2002 0285 05       		.uleb128 0x5
 2003 0286 08030000 		.4byte	.LASF44
 2004 028a 24       		.byte	0x24
 2005 028b 08       		.byte	0x8
 2006 028c FE       		.byte	0xfe
 2007 028d 12030000 		.4byte	0x312
 2008 0291 0B       		.uleb128 0xb
 2009 0292 723400   		.ascii	"r4\000"
 2010 0295 08       		.byte	0x8
 2011 0296 1101     		.2byte	0x111
 2012 0298 78020000 		.4byte	0x278
 2013 029c 02       		.byte	0x2
 2014 029d 23       		.byte	0x23
 2015 029e 00       		.uleb128 0x0
 2016 029f 0B       		.uleb128 0xb
 2017 02a0 723500   		.ascii	"r5\000"
 2018 02a3 08       		.byte	0x8
 2019 02a4 1201     		.2byte	0x112
 2020 02a6 78020000 		.4byte	0x278
 2021 02aa 02       		.byte	0x2
 2022 02ab 23       		.byte	0x23
 2023 02ac 04       		.uleb128 0x4
 2024 02ad 0B       		.uleb128 0xb
 2025 02ae 723600   		.ascii	"r6\000"
 2026 02b1 08       		.byte	0x8
 2027 02b2 1301     		.2byte	0x113
 2028 02b4 78020000 		.4byte	0x278
 2029 02b8 02       		.byte	0x2
 2030 02b9 23       		.byte	0x23
 2031 02ba 08       		.uleb128 0x8
 2032 02bb 0B       		.uleb128 0xb
 2033 02bc 723700   		.ascii	"r7\000"
 2034 02bf 08       		.byte	0x8
 2035 02c0 1401     		.2byte	0x114
 2036 02c2 78020000 		.4byte	0x278
 2037 02c6 02       		.byte	0x2
 2038 02c7 23       		.byte	0x23
 2039 02c8 0C       		.uleb128 0xc
 2040 02c9 0B       		.uleb128 0xb
 2041 02ca 723800   		.ascii	"r8\000"
 2042 02cd 08       		.byte	0x8
ARM GAS  /tmp/cchRNrHQ.s 			page 37


 2043 02ce 1501     		.2byte	0x115
 2044 02d0 78020000 		.4byte	0x278
 2045 02d4 02       		.byte	0x2
 2046 02d5 23       		.byte	0x23
 2047 02d6 10       		.uleb128 0x10
 2048 02d7 0B       		.uleb128 0xb
 2049 02d8 723900   		.ascii	"r9\000"
 2050 02db 08       		.byte	0x8
 2051 02dc 1601     		.2byte	0x116
 2052 02de 78020000 		.4byte	0x278
 2053 02e2 02       		.byte	0x2
 2054 02e3 23       		.byte	0x23
 2055 02e4 14       		.uleb128 0x14
 2056 02e5 0B       		.uleb128 0xb
 2057 02e6 72313000 		.ascii	"r10\000"
 2058 02ea 08       		.byte	0x8
 2059 02eb 1701     		.2byte	0x117
 2060 02ed 78020000 		.4byte	0x278
 2061 02f1 02       		.byte	0x2
 2062 02f2 23       		.byte	0x23
 2063 02f3 18       		.uleb128 0x18
 2064 02f4 0B       		.uleb128 0xb
 2065 02f5 72313100 		.ascii	"r11\000"
 2066 02f9 08       		.byte	0x8
 2067 02fa 1801     		.2byte	0x118
 2068 02fc 78020000 		.4byte	0x278
 2069 0300 02       		.byte	0x2
 2070 0301 23       		.byte	0x23
 2071 0302 1C       		.uleb128 0x1c
 2072 0303 0B       		.uleb128 0xb
 2073 0304 6C7200   		.ascii	"lr\000"
 2074 0307 08       		.byte	0x8
 2075 0308 1901     		.2byte	0x119
 2076 030a 78020000 		.4byte	0x278
 2077 030e 02       		.byte	0x2
 2078 030f 23       		.byte	0x23
 2079 0310 20       		.uleb128 0x20
 2080 0311 00       		.byte	0x0
 2081 0312 0C       		.uleb128 0xc
 2082 0313 78010000 		.4byte	.LASF45
 2083 0317 04       		.byte	0x4
 2084 0318 08       		.byte	0x8
 2085 0319 2301     		.2byte	0x123
 2086 031b 2F030000 		.4byte	0x32f
 2087 031f 0B       		.uleb128 0xb
 2088 0320 72313300 		.ascii	"r13\000"
 2089 0324 08       		.byte	0x8
 2090 0325 2401     		.2byte	0x124
 2091 0327 2F030000 		.4byte	0x32f
 2092 032b 02       		.byte	0x2
 2093 032c 23       		.byte	0x23
 2094 032d 00       		.uleb128 0x0
 2095 032e 00       		.byte	0x0
 2096 032f 09       		.uleb128 0x9
 2097 0330 04       		.byte	0x4
 2098 0331 85020000 		.4byte	0x285
 2099 0335 0D       		.uleb128 0xd
ARM GAS  /tmp/cchRNrHQ.s 			page 38


 2100 0336 E8000000 		.4byte	0xe8
 2101 033a 08       		.uleb128 0x8
 2102 033b 20       		.byte	0x20
 2103 033c 09       		.byte	0x9
 2104 033d 5E       		.byte	0x5e
 2105 033e A5030000 		.4byte	0x3a5
 2106 0342 06       		.uleb128 0x6
 2107 0343 C1020000 		.4byte	.LASF46
 2108 0347 09       		.byte	0x9
 2109 0348 5F       		.byte	0x5f
 2110 0349 4B020000 		.4byte	0x24b
 2111 034d 02       		.byte	0x2
 2112 034e 23       		.byte	0x23
 2113 034f 00       		.uleb128 0x0
 2114 0350 06       		.uleb128 0x6
 2115 0351 84020000 		.4byte	.LASF47
 2116 0355 09       		.byte	0x9
 2117 0356 60       		.byte	0x60
 2118 0357 C7000000 		.4byte	0xc7
 2119 035b 02       		.byte	0x2
 2120 035c 23       		.byte	0x23
 2121 035d 08       		.uleb128 0x8
 2122 035e 06       		.uleb128 0x6
 2123 035f FF010000 		.4byte	.LASF48
 2124 0363 09       		.byte	0x9
 2125 0364 62       		.byte	0x62
 2126 0365 12030000 		.4byte	0x312
 2127 0369 02       		.byte	0x2
 2128 036a 23       		.byte	0x23
 2129 036b 0C       		.uleb128 0xc
 2130 036c 06       		.uleb128 0x6
 2131 036d 1F010000 		.4byte	.LASF49
 2132 0371 09       		.byte	0x9
 2133 0372 65       		.byte	0x65
 2134 0373 45020000 		.4byte	0x245
 2135 0377 02       		.byte	0x2
 2136 0378 23       		.byte	0x23
 2137 0379 10       		.uleb128 0x10
 2138 037a 06       		.uleb128 0x6
 2139 037b 21020000 		.4byte	.LASF50
 2140 037f 09       		.byte	0x9
 2141 0380 66       		.byte	0x66
 2142 0381 45020000 		.4byte	0x245
 2143 0385 02       		.byte	0x2
 2144 0386 23       		.byte	0x23
 2145 0387 14       		.uleb128 0x14
 2146 0388 06       		.uleb128 0x6
 2147 0389 62030000 		.4byte	.LASF51
 2148 038d 09       		.byte	0x9
 2149 038e 6A       		.byte	0x6a
 2150 038f F3000000 		.4byte	0xf3
 2151 0393 02       		.byte	0x2
 2152 0394 23       		.byte	0x23
 2153 0395 18       		.uleb128 0x18
 2154 0396 06       		.uleb128 0x6
 2155 0397 17020000 		.4byte	.LASF52
 2156 039b 09       		.byte	0x9
ARM GAS  /tmp/cchRNrHQ.s 			page 39


 2157 039c 6C       		.byte	0x6c
 2158 039d 45020000 		.4byte	0x245
 2159 03a1 02       		.byte	0x2
 2160 03a2 23       		.byte	0x23
 2161 03a3 1C       		.uleb128 0x1c
 2162 03a4 00       		.byte	0x0
 2163 03a5 03       		.uleb128 0x3
 2164 03a6 27030000 		.4byte	.LASF53
 2165 03aa 09       		.byte	0x9
 2166 03ab 6E       		.byte	0x6e
 2167 03ac 3A030000 		.4byte	0x33a
 2168 03b0 05       		.uleb128 0x5
 2169 03b1 C9010000 		.4byte	.LASF54
 2170 03b5 10       		.byte	0x10
 2171 03b6 0A       		.byte	0xa
 2172 03b7 2C       		.byte	0x2c
 2173 03b8 E7030000 		.4byte	0x3e7
 2174 03bc 06       		.uleb128 0x6
 2175 03bd DD000000 		.4byte	.LASF55
 2176 03c1 0A       		.byte	0xa
 2177 03c2 2D       		.byte	0x2d
 2178 03c3 4B020000 		.4byte	0x24b
 2179 03c7 02       		.byte	0x2
 2180 03c8 23       		.byte	0x23
 2181 03c9 00       		.uleb128 0x0
 2182 03ca 06       		.uleb128 0x6
 2183 03cb 6C030000 		.4byte	.LASF56
 2184 03cf 0A       		.byte	0xa
 2185 03d0 2F       		.byte	0x2f
 2186 03d1 45020000 		.4byte	0x245
 2187 03d5 02       		.byte	0x2
 2188 03d6 23       		.byte	0x23
 2189 03d7 08       		.uleb128 0x8
 2190 03d8 06       		.uleb128 0x6
 2191 03d9 DA020000 		.4byte	.LASF57
 2192 03dd 0A       		.byte	0xa
 2193 03de 31       		.byte	0x31
 2194 03df E7030000 		.4byte	0x3e7
 2195 03e3 02       		.byte	0x2
 2196 03e4 23       		.byte	0x23
 2197 03e5 0C       		.uleb128 0xc
 2198 03e6 00       		.byte	0x0
 2199 03e7 09       		.uleb128 0x9
 2200 03e8 04       		.byte	0x4
 2201 03e9 B0030000 		.4byte	0x3b0
 2202 03ed 03       		.uleb128 0x3
 2203 03ee C9010000 		.4byte	.LASF54
 2204 03f2 0A       		.byte	0xa
 2205 03f3 33       		.byte	0x33
 2206 03f4 B0030000 		.4byte	0x3b0
 2207 03f8 0E       		.uleb128 0xe
 2208 03f9 04       		.byte	0x4
 2209 03fa 07       		.byte	0x7
 2210 03fb 90       		.byte	0x90
 2211 03fc 2D040000 		.4byte	0x42d
 2212 0400 0F       		.uleb128 0xf
 2213 0401 28000000 		.4byte	.LASF58
ARM GAS  /tmp/cchRNrHQ.s 			page 40


 2214 0405 07       		.byte	0x7
 2215 0406 97       		.byte	0x97
 2216 0407 D2000000 		.4byte	0xd2
 2217 040b 0F       		.uleb128 0xf
 2218 040c 6B000000 		.4byte	.LASF59
 2219 0410 07       		.byte	0x7
 2220 0411 9E       		.byte	0x9e
 2221 0412 D2000000 		.4byte	0xd2
 2222 0416 0F       		.uleb128 0xf
 2223 0417 48030000 		.4byte	.LASF60
 2224 041b 07       		.byte	0x7
 2225 041c A5       		.byte	0xa5
 2226 041d 83020000 		.4byte	0x283
 2227 0421 0F       		.uleb128 0xf
 2228 0422 8B020000 		.4byte	.LASF61
 2229 0426 07       		.byte	0x7
 2230 0427 AC       		.byte	0xac
 2231 0428 DD000000 		.4byte	0xdd
 2232 042c 00       		.byte	0x0
 2233 042d 09       		.uleb128 0x9
 2234 042e 04       		.byte	0x4
 2235 042f 33040000 		.4byte	0x433
 2236 0433 10       		.uleb128 0x10
 2237 0434 38040000 		.4byte	0x438
 2238 0438 04       		.uleb128 0x4
 2239 0439 01       		.byte	0x1
 2240 043a 08       		.byte	0x8
 2241 043b C9020000 		.4byte	.LASF62
 2242 043f 09       		.uleb128 0x9
 2243 0440 04       		.byte	0x4
 2244 0441 ED030000 		.4byte	0x3ed
 2245 0445 03       		.uleb128 0x3
 2246 0446 CF010000 		.4byte	.LASF63
 2247 044a 0B       		.byte	0xb
 2248 044b 37       		.byte	0x37
 2249 044c 50040000 		.4byte	0x450
 2250 0450 05       		.uleb128 0x5
 2251 0451 CF010000 		.4byte	.LASF63
 2252 0455 20       		.byte	0x20
 2253 0456 0B       		.byte	0xb
 2254 0457 45       		.byte	0x45
 2255 0458 BF040000 		.4byte	0x4bf
 2256 045c 06       		.uleb128 0x6
 2257 045d AA000000 		.4byte	.LASF64
 2258 0461 0B       		.byte	0xb
 2259 0462 46       		.byte	0x46
 2260 0463 4B020000 		.4byte	0x24b
 2261 0467 02       		.byte	0x2
 2262 0468 23       		.byte	0x23
 2263 0469 00       		.uleb128 0x0
 2264 046a 06       		.uleb128 0x6
 2265 046b ED010000 		.4byte	.LASF65
 2266 046f 0B       		.byte	0xb
 2267 0470 47       		.byte	0x47
 2268 0471 30000000 		.4byte	0x30
 2269 0475 02       		.byte	0x2
 2270 0476 23       		.byte	0x23
ARM GAS  /tmp/cchRNrHQ.s 			page 41


 2271 0477 08       		.uleb128 0x8
 2272 0478 06       		.uleb128 0x6
 2273 0479 06010000 		.4byte	.LASF66
 2274 047d 0B       		.byte	0xb
 2275 047e 48       		.byte	0x48
 2276 047f E2040000 		.4byte	0x4e2
 2277 0483 02       		.byte	0x2
 2278 0484 23       		.byte	0x23
 2279 0485 0C       		.uleb128 0xc
 2280 0486 06       		.uleb128 0x6
 2281 0487 1A030000 		.4byte	.LASF67
 2282 048b 0B       		.byte	0xb
 2283 048c 49       		.byte	0x49
 2284 048d E2040000 		.4byte	0x4e2
 2285 0491 02       		.byte	0x2
 2286 0492 23       		.byte	0x23
 2287 0493 10       		.uleb128 0x10
 2288 0494 06       		.uleb128 0x6
 2289 0495 0F010000 		.4byte	.LASF68
 2290 0499 0B       		.byte	0xb
 2291 049a 4B       		.byte	0x4b
 2292 049b E2040000 		.4byte	0x4e2
 2293 049f 02       		.byte	0x2
 2294 04a0 23       		.byte	0x23
 2295 04a1 14       		.uleb128 0x14
 2296 04a2 06       		.uleb128 0x6
 2297 04a3 4A020000 		.4byte	.LASF69
 2298 04a7 0B       		.byte	0xb
 2299 04a8 4C       		.byte	0x4c
 2300 04a9 E2040000 		.4byte	0x4e2
 2301 04ad 02       		.byte	0x2
 2302 04ae 23       		.byte	0x23
 2303 04af 18       		.uleb128 0x18
 2304 04b0 06       		.uleb128 0x6
 2305 04b1 31030000 		.4byte	.LASF70
 2306 04b5 0B       		.byte	0xb
 2307 04b6 4D       		.byte	0x4d
 2308 04b7 BF040000 		.4byte	0x4bf
 2309 04bb 02       		.byte	0x2
 2310 04bc 23       		.byte	0x23
 2311 04bd 1C       		.uleb128 0x1c
 2312 04be 00       		.byte	0x0
 2313 04bf 03       		.uleb128 0x3
 2314 04c0 31020000 		.4byte	.LASF71
 2315 04c4 0B       		.byte	0xb
 2316 04c5 3A       		.byte	0x3a
 2317 04c6 CA040000 		.4byte	0x4ca
 2318 04ca 09       		.uleb128 0x9
 2319 04cb 04       		.byte	0x4
 2320 04cc D0040000 		.4byte	0x4d0
 2321 04d0 11       		.uleb128 0x11
 2322 04d1 01       		.byte	0x1
 2323 04d2 DC040000 		.4byte	0x4dc
 2324 04d6 12       		.uleb128 0x12
 2325 04d7 DC040000 		.4byte	0x4dc
 2326 04db 00       		.byte	0x0
 2327 04dc 09       		.uleb128 0x9
ARM GAS  /tmp/cchRNrHQ.s 			page 42


 2328 04dd 04       		.byte	0x4
 2329 04de 45040000 		.4byte	0x445
 2330 04e2 09       		.uleb128 0x9
 2331 04e3 04       		.byte	0x4
 2332 04e4 49000000 		.4byte	0x49
 2333 04e8 03       		.uleb128 0x3
 2334 04e9 BE010000 		.4byte	.LASF72
 2335 04ed 0B       		.byte	0xb
 2336 04ee 76       		.byte	0x76
 2337 04ef 45040000 		.4byte	0x445
 2338 04f3 03       		.uleb128 0x3
 2339 04f4 38000000 		.4byte	.LASF73
 2340 04f8 0B       		.byte	0xb
 2341 04f9 E6       		.byte	0xe6
 2342 04fa 45040000 		.4byte	0x445
 2343 04fe 09       		.uleb128 0x9
 2344 04ff 04       		.byte	0x4
 2345 0500 04050000 		.4byte	0x504
 2346 0504 10       		.uleb128 0x10
 2347 0505 49000000 		.4byte	0x49
 2348 0509 13       		.uleb128 0x13
 2349 050a 0F000000 		.4byte	.LASF92
 2350 050e 02       		.byte	0x2
 2351 050f 34       		.byte	0x34
 2352 0510 01       		.byte	0x1
 2353 0511 03       		.byte	0x3
 2354 0512 2C050000 		.4byte	0x52c
 2355 0516 14       		.uleb128 0x14
 2356 0517 747000   		.ascii	"tp\000"
 2357 051a 02       		.byte	0x2
 2358 051b 34       		.byte	0x34
 2359 051c 45020000 		.4byte	0x245
 2360 0520 14       		.uleb128 0x14
 2361 0521 74717000 		.ascii	"tqp\000"
 2362 0525 02       		.byte	0x2
 2363 0526 34       		.byte	0x34
 2364 0527 2C050000 		.4byte	0x52c
 2365 052b 00       		.byte	0x0
 2366 052c 09       		.uleb128 0x9
 2367 052d 04       		.byte	0x4
 2368 052e 4B020000 		.4byte	0x24b
 2369 0532 15       		.uleb128 0x15
 2370 0533 CE020000 		.4byte	.LASF93
 2371 0537 02       		.byte	0x2
 2372 0538 3B       		.byte	0x3b
 2373 0539 01       		.byte	0x1
 2374 053a 45020000 		.4byte	0x245
 2375 053e 03       		.byte	0x3
 2376 053f 59050000 		.4byte	0x559
 2377 0543 14       		.uleb128 0x14
 2378 0544 74717000 		.ascii	"tqp\000"
 2379 0548 02       		.byte	0x2
 2380 0549 3B       		.byte	0x3b
 2381 054a 2C050000 		.4byte	0x52c
 2382 054e 16       		.uleb128 0x16
 2383 054f 747000   		.ascii	"tp\000"
 2384 0552 02       		.byte	0x2
ARM GAS  /tmp/cchRNrHQ.s 			page 43


 2385 0553 3C       		.byte	0x3c
 2386 0554 45020000 		.4byte	0x245
 2387 0558 00       		.byte	0x0
 2388 0559 17       		.uleb128 0x17
 2389 055a E5000000 		.4byte	.LASF94
 2390 055e 01       		.byte	0x1
 2391 055f 48       		.byte	0x48
 2392 0560 01       		.byte	0x1
 2393 0561 D2000000 		.4byte	0xd2
 2394 0565 00000000 		.4byte	.LFB7
 2395 0569 2C000000 		.4byte	.LFE7
 2396 056d 00000000 		.4byte	.LLST0
 2397 0571 B5050000 		.4byte	0x5b5
 2398 0575 18       		.uleb128 0x18
 2399 0576 717000   		.ascii	"qp\000"
 2400 0579 01       		.byte	0x1
 2401 057a 48       		.byte	0x48
 2402 057b DC040000 		.4byte	0x4dc
 2403 057f 20000000 		.4byte	.LLST1
 2404 0583 19       		.uleb128 0x19
 2405 0584 12020000 		.4byte	.LASF74
 2406 0588 01       		.byte	0x1
 2407 0589 48       		.byte	0x48
 2408 058a E8000000 		.4byte	0xe8
 2409 058e 3E000000 		.4byte	.LLST2
 2410 0592 1A       		.uleb128 0x1a
 2411 0593 09050000 		.4byte	0x509
 2412 0597 14000000 		.4byte	.LBB12
 2413 059b 00000000 		.4byte	.Ldebug_ranges0+0x0
 2414 059f 01       		.byte	0x1
 2415 05a0 4D       		.byte	0x4d
 2416 05a1 1B       		.uleb128 0x1b
 2417 05a2 20050000 		.4byte	0x520
 2418 05a6 51000000 		.4byte	.LLST3
 2419 05aa 1B       		.uleb128 0x1b
 2420 05ab 16050000 		.4byte	0x516
 2421 05af 64000000 		.4byte	.LLST4
 2422 05b3 00       		.byte	0x0
 2423 05b4 00       		.byte	0x0
 2424 05b5 1C       		.uleb128 0x1c
 2425 05b6 01       		.byte	0x1
 2426 05b7 2F000000 		.4byte	.LASF77
 2427 05bb 01       		.byte	0x1
 2428 05bc 60       		.byte	0x60
 2429 05bd 01       		.byte	0x1
 2430 05be 00000000 		.4byte	.LFB8
 2431 05c2 1A000000 		.4byte	.LFE8
 2432 05c6 78000000 		.4byte	.LLST5
 2433 05ca 04060000 		.4byte	0x604
 2434 05ce 1D       		.uleb128 0x1d
 2435 05cf 69717000 		.ascii	"iqp\000"
 2436 05d3 01       		.byte	0x1
 2437 05d4 60       		.byte	0x60
 2438 05d5 04060000 		.4byte	0x604
 2439 05d9 01       		.byte	0x1
 2440 05da 50       		.byte	0x50
 2441 05db 1D       		.uleb128 0x1d
ARM GAS  /tmp/cchRNrHQ.s 			page 44


 2442 05dc 627000   		.ascii	"bp\000"
 2443 05df 01       		.byte	0x1
 2444 05e0 60       		.byte	0x60
 2445 05e1 E2040000 		.4byte	0x4e2
 2446 05e5 01       		.byte	0x1
 2447 05e6 51       		.byte	0x51
 2448 05e7 19       		.uleb128 0x19
 2449 05e8 80010000 		.4byte	.LASF75
 2450 05ec 01       		.byte	0x1
 2451 05ed 60       		.byte	0x60
 2452 05ee 30000000 		.4byte	0x30
 2453 05f2 98000000 		.4byte	.LLST6
 2454 05f6 1E       		.uleb128 0x1e
 2455 05f7 99020000 		.4byte	.LASF76
 2456 05fb 01       		.byte	0x1
 2457 05fc 60       		.byte	0x60
 2458 05fd BF040000 		.4byte	0x4bf
 2459 0601 01       		.byte	0x1
 2460 0602 53       		.byte	0x53
 2461 0603 00       		.byte	0x0
 2462 0604 09       		.uleb128 0x9
 2463 0605 04       		.byte	0x4
 2464 0606 E8040000 		.4byte	0x4e8
 2465 060a 1C       		.uleb128 0x1c
 2466 060b 01       		.byte	0x1
 2467 060c 5B010000 		.4byte	.LASF78
 2468 0610 01       		.byte	0x1
 2469 0611 74       		.byte	0x74
 2470 0612 01       		.byte	0x1
 2471 0613 00000000 		.4byte	.LFB9
 2472 0617 2C000000 		.4byte	.LFE9
 2473 061b AB000000 		.4byte	.LLST7
 2474 061f 5F060000 		.4byte	0x65f
 2475 0623 18       		.uleb128 0x18
 2476 0624 69717000 		.ascii	"iqp\000"
 2477 0628 01       		.byte	0x1
 2478 0629 74       		.byte	0x74
 2479 062a 04060000 		.4byte	0x604
 2480 062e CB000000 		.4byte	.LLST8
 2481 0632 1F       		.uleb128 0x1f
 2482 0633 32050000 		.4byte	0x532
 2483 0637 18000000 		.4byte	.LBB16
 2484 063b 1E000000 		.4byte	.LBE16
 2485 063f 01       		.byte	0x1
 2486 0640 7B       		.byte	0x7b
 2487 0641 1B       		.uleb128 0x1b
 2488 0642 43050000 		.4byte	0x543
 2489 0646 E9000000 		.4byte	.LLST9
 2490 064a 20       		.uleb128 0x20
 2491 064b 18000000 		.4byte	.LBB17
 2492 064f 1E000000 		.4byte	.LBE17
 2493 0653 21       		.uleb128 0x21
 2494 0654 4E050000 		.4byte	0x54e
 2495 0658 FC000000 		.4byte	.LLST10
 2496 065c 00       		.byte	0x0
 2497 065d 00       		.byte	0x0
 2498 065e 00       		.byte	0x0
ARM GAS  /tmp/cchRNrHQ.s 			page 45


 2499 065f 22       		.uleb128 0x22
 2500 0660 01       		.byte	0x1
 2501 0661 3F010000 		.4byte	.LASF79
 2502 0665 01       		.byte	0x1
 2503 0666 8B       		.byte	0x8b
 2504 0667 01       		.byte	0x1
 2505 0668 D2000000 		.4byte	0xd2
 2506 066c 00000000 		.4byte	.LFB10
 2507 0670 4C000000 		.4byte	.LFE10
 2508 0674 0F010000 		.4byte	.LLST11
 2509 0678 C5060000 		.4byte	0x6c5
 2510 067c 18       		.uleb128 0x18
 2511 067d 69717000 		.ascii	"iqp\000"
 2512 0681 01       		.byte	0x1
 2513 0682 8B       		.byte	0x8b
 2514 0683 04060000 		.4byte	0x604
 2515 0687 2F010000 		.4byte	.LLST12
 2516 068b 18       		.uleb128 0x18
 2517 068c 6200     		.ascii	"b\000"
 2518 068e 01       		.byte	0x1
 2519 068f 8B       		.byte	0x8b
 2520 0690 49000000 		.4byte	0x49
 2521 0694 58010000 		.4byte	.LLST13
 2522 0698 1F       		.uleb128 0x1f
 2523 0699 32050000 		.4byte	0x532
 2524 069d 2A000000 		.4byte	.LBB18
 2525 06a1 30000000 		.4byte	.LBE18
 2526 06a5 01       		.byte	0x1
 2527 06a6 98       		.byte	0x98
 2528 06a7 1B       		.uleb128 0x1b
 2529 06a8 43050000 		.4byte	0x543
 2530 06ac 90010000 		.4byte	.LLST14
 2531 06b0 20       		.uleb128 0x20
 2532 06b1 2A000000 		.4byte	.LBB19
 2533 06b5 30000000 		.4byte	.LBE19
 2534 06b9 21       		.uleb128 0x21
 2535 06ba 4E050000 		.4byte	0x54e
 2536 06be A3010000 		.4byte	.LLST15
 2537 06c2 00       		.byte	0x0
 2538 06c3 00       		.byte	0x0
 2539 06c4 00       		.byte	0x0
 2540 06c5 22       		.uleb128 0x22
 2541 06c6 01       		.byte	0x1
 2542 06c7 84030000 		.4byte	.LASF80
 2543 06cb 01       		.byte	0x1
 2544 06cc B1       		.byte	0xb1
 2545 06cd 01       		.byte	0x1
 2546 06ce D2000000 		.4byte	0xd2
 2547 06d2 00000000 		.4byte	.LFB11
 2548 06d6 48000000 		.4byte	.LFE11
 2549 06da B7010000 		.4byte	.LLST16
 2550 06de 74070000 		.4byte	0x774
 2551 06e2 18       		.uleb128 0x18
 2552 06e3 69717000 		.ascii	"iqp\000"
 2553 06e7 01       		.byte	0x1
 2554 06e8 B1       		.byte	0xb1
 2555 06e9 04060000 		.4byte	0x604
ARM GAS  /tmp/cchRNrHQ.s 			page 46


 2556 06ed D7010000 		.4byte	.LLST17
 2557 06f1 19       		.uleb128 0x19
 2558 06f2 12020000 		.4byte	.LASF74
 2559 06f6 01       		.byte	0x1
 2560 06f7 B1       		.byte	0xb1
 2561 06f8 E8000000 		.4byte	0xe8
 2562 06fc F5010000 		.4byte	.LLST18
 2563 0700 23       		.uleb128 0x23
 2564 0701 6200     		.ascii	"b\000"
 2565 0703 01       		.byte	0x1
 2566 0704 B2       		.byte	0xb2
 2567 0705 49000000 		.4byte	0x49
 2568 0709 01       		.byte	0x1
 2569 070a 50       		.byte	0x50
 2570 070b 24       		.uleb128 0x24
 2571 070c 18000000 		.4byte	.Ldebug_ranges0+0x18
 2572 0710 24070000 		.4byte	0x724
 2573 0714 25       		.uleb128 0x25
 2574 0715 746D7000 		.ascii	"tmp\000"
 2575 0719 01       		.byte	0x1
 2576 071a B4       		.byte	0xb4
 2577 071b 7B000000 		.4byte	0x7b
 2578 071f 13020000 		.4byte	.LLST19
 2579 0723 00       		.byte	0x0
 2580 0724 26       		.uleb128 0x26
 2581 0725 16000000 		.4byte	.LBB22
 2582 0729 2A000000 		.4byte	.LBE22
 2583 072d 5A070000 		.4byte	0x75a
 2584 0731 25       		.uleb128 0x25
 2585 0732 6D736700 		.ascii	"msg\000"
 2586 0736 01       		.byte	0x1
 2587 0737 B9       		.byte	0xb9
 2588 0738 D2000000 		.4byte	0xd2
 2589 073c 26020000 		.4byte	.LLST20
 2590 0740 20       		.uleb128 0x20
 2591 0741 22000000 		.4byte	.LBB23
 2592 0745 28000000 		.4byte	.LBE23
 2593 0749 25       		.uleb128 0x25
 2594 074a 746D7000 		.ascii	"tmp\000"
 2595 074e 01       		.byte	0x1
 2596 074f BB       		.byte	0xbb
 2597 0750 7B000000 		.4byte	0x7b
 2598 0754 39020000 		.4byte	.LLST21
 2599 0758 00       		.byte	0x0
 2600 0759 00       		.byte	0x0
 2601 075a 20       		.uleb128 0x20
 2602 075b 40000000 		.4byte	.LBB24
 2603 075f 46000000 		.4byte	.LBE24
 2604 0763 25       		.uleb128 0x25
 2605 0764 746D7000 		.ascii	"tmp\000"
 2606 0768 01       		.byte	0x1
 2607 0769 C5       		.byte	0xc5
 2608 076a 7B000000 		.4byte	0x7b
 2609 076e 4C020000 		.4byte	.LLST22
 2610 0772 00       		.byte	0x0
 2611 0773 00       		.byte	0x0
 2612 0774 22       		.uleb128 0x22
ARM GAS  /tmp/cchRNrHQ.s 			page 47


 2613 0775 01       		.byte	0x1
 2614 0776 44000000 		.4byte	.LASF81
 2615 077a 01       		.byte	0x1
 2616 077b E1       		.byte	0xe1
 2617 077c 01       		.byte	0x1
 2618 077d 30000000 		.4byte	0x30
 2619 0781 00000000 		.4byte	.LFB12
 2620 0785 72000000 		.4byte	.LFE12
 2621 0789 5F020000 		.4byte	.LLST23
 2622 078d 57080000 		.4byte	0x857
 2623 0791 18       		.uleb128 0x18
 2624 0792 69717000 		.ascii	"iqp\000"
 2625 0796 01       		.byte	0x1
 2626 0797 E1       		.byte	0xe1
 2627 0798 04060000 		.4byte	0x604
 2628 079c 7F020000 		.4byte	.LLST24
 2629 07a0 18       		.uleb128 0x18
 2630 07a1 627000   		.ascii	"bp\000"
 2631 07a4 01       		.byte	0x1
 2632 07a5 E1       		.byte	0xe1
 2633 07a6 E2040000 		.4byte	0x4e2
 2634 07aa 9D020000 		.4byte	.LLST25
 2635 07ae 18       		.uleb128 0x18
 2636 07af 6E00     		.ascii	"n\000"
 2637 07b1 01       		.byte	0x1
 2638 07b2 E2       		.byte	0xe2
 2639 07b3 30000000 		.4byte	0x30
 2640 07b7 B0020000 		.4byte	.LLST26
 2641 07bb 19       		.uleb128 0x19
 2642 07bc 12020000 		.4byte	.LASF74
 2643 07c0 01       		.byte	0x1
 2644 07c1 E2       		.byte	0xe2
 2645 07c2 E8000000 		.4byte	0xe8
 2646 07c6 C3020000 		.4byte	.LLST27
 2647 07ca 25       		.uleb128 0x25
 2648 07cb 6E667900 		.ascii	"nfy\000"
 2649 07cf 01       		.byte	0x1
 2650 07d0 E3       		.byte	0xe3
 2651 07d1 BF040000 		.4byte	0x4bf
 2652 07d5 E1020000 		.4byte	.LLST28
 2653 07d9 25       		.uleb128 0x25
 2654 07da 7200     		.ascii	"r\000"
 2655 07dc 01       		.byte	0x1
 2656 07dd E4       		.byte	0xe4
 2657 07de 30000000 		.4byte	0x30
 2658 07e2 00030000 		.4byte	.LLST29
 2659 07e6 26       		.uleb128 0x26
 2660 07e7 10000000 		.4byte	.LBB25
 2661 07eb 18000000 		.4byte	.LBE25
 2662 07ef 03080000 		.4byte	0x803
 2663 07f3 25       		.uleb128 0x25
 2664 07f4 746D7000 		.ascii	"tmp\000"
 2665 07f8 01       		.byte	0x1
 2666 07f9 E8       		.byte	0xe8
 2667 07fa 7B000000 		.4byte	0x7b
 2668 07fe 2A030000 		.4byte	.LLST30
 2669 0802 00       		.byte	0x0
ARM GAS  /tmp/cchRNrHQ.s 			page 48


 2670 0803 26       		.uleb128 0x26
 2671 0804 38000000 		.4byte	.LBB26
 2672 0808 3E000000 		.4byte	.LBE26
 2673 080c 20080000 		.4byte	0x820
 2674 0810 25       		.uleb128 0x25
 2675 0811 746D7000 		.ascii	"tmp\000"
 2676 0815 01       		.byte	0x1
 2677 0816 EF       		.byte	0xef
 2678 0817 7B000000 		.4byte	0x7b
 2679 081b 53030000 		.4byte	.LLST31
 2680 081f 00       		.byte	0x0
 2681 0820 26       		.uleb128 0x26
 2682 0821 5E000000 		.4byte	.LBB27
 2683 0825 64000000 		.4byte	.LBE27
 2684 0829 3D080000 		.4byte	0x83d
 2685 082d 25       		.uleb128 0x25
 2686 082e 746D7000 		.ascii	"tmp\000"
 2687 0832 01       		.byte	0x1
 2688 0833 F9       		.byte	0xf9
 2689 0834 7B000000 		.4byte	0x7b
 2690 0838 66030000 		.4byte	.LLST32
 2691 083c 00       		.byte	0x0
 2692 083d 20       		.uleb128 0x20
 2693 083e 6A000000 		.4byte	.LBB28
 2694 0842 70000000 		.4byte	.LBE28
 2695 0846 25       		.uleb128 0x25
 2696 0847 746D7000 		.ascii	"tmp\000"
 2697 084b 01       		.byte	0x1
 2698 084c FE       		.byte	0xfe
 2699 084d 7B000000 		.4byte	0x7b
 2700 0851 84030000 		.4byte	.LLST33
 2701 0855 00       		.byte	0x0
 2702 0856 00       		.byte	0x0
 2703 0857 27       		.uleb128 0x27
 2704 0858 01       		.byte	0x1
 2705 0859 00000000 		.4byte	.LASF82
 2706 085d 01       		.byte	0x1
 2707 085e 1101     		.2byte	0x111
 2708 0860 01       		.byte	0x1
 2709 0861 00000000 		.4byte	.LFB13
 2710 0865 18000000 		.4byte	.LFE13
 2711 0869 B8030000 		.4byte	.LLST34
 2712 086d A9080000 		.4byte	0x8a9
 2713 0871 28       		.uleb128 0x28
 2714 0872 6F717000 		.ascii	"oqp\000"
 2715 0876 01       		.byte	0x1
 2716 0877 1101     		.2byte	0x111
 2717 0879 A9080000 		.4byte	0x8a9
 2718 087d 01       		.byte	0x1
 2719 087e 50       		.byte	0x50
 2720 087f 28       		.uleb128 0x28
 2721 0880 627000   		.ascii	"bp\000"
 2722 0883 01       		.byte	0x1
 2723 0884 1101     		.2byte	0x111
 2724 0886 E2040000 		.4byte	0x4e2
 2725 088a 01       		.byte	0x1
 2726 088b 51       		.byte	0x51
ARM GAS  /tmp/cchRNrHQ.s 			page 49


 2727 088c 29       		.uleb128 0x29
 2728 088d 80010000 		.4byte	.LASF75
 2729 0891 01       		.byte	0x1
 2730 0892 1101     		.2byte	0x111
 2731 0894 30000000 		.4byte	0x30
 2732 0898 01       		.byte	0x1
 2733 0899 52       		.byte	0x52
 2734 089a 29       		.uleb128 0x29
 2735 089b 1C000000 		.4byte	.LASF83
 2736 089f 01       		.byte	0x1
 2737 08a0 1101     		.2byte	0x111
 2738 08a2 BF040000 		.4byte	0x4bf
 2739 08a6 01       		.byte	0x1
 2740 08a7 53       		.byte	0x53
 2741 08a8 00       		.byte	0x0
 2742 08a9 09       		.uleb128 0x9
 2743 08aa 04       		.byte	0x4
 2744 08ab F3040000 		.4byte	0x4f3
 2745 08af 27       		.uleb128 0x27
 2746 08b0 01       		.byte	0x1
 2747 08b1 F6020000 		.4byte	.LASF84
 2748 08b5 01       		.byte	0x1
 2749 08b6 2501     		.2byte	0x125
 2750 08b8 01       		.byte	0x1
 2751 08b9 00000000 		.4byte	.LFB14
 2752 08bd 2E000000 		.4byte	.LFE14
 2753 08c1 D8030000 		.4byte	.LLST35
 2754 08c5 07090000 		.4byte	0x907
 2755 08c9 2A       		.uleb128 0x2a
 2756 08ca 6F717000 		.ascii	"oqp\000"
 2757 08ce 01       		.byte	0x1
 2758 08cf 2501     		.2byte	0x125
 2759 08d1 A9080000 		.4byte	0x8a9
 2760 08d5 F8030000 		.4byte	.LLST36
 2761 08d9 2B       		.uleb128 0x2b
 2762 08da 32050000 		.4byte	0x532
 2763 08de 1A000000 		.4byte	.LBB29
 2764 08e2 20000000 		.4byte	.LBE29
 2765 08e6 01       		.byte	0x1
 2766 08e7 2C01     		.2byte	0x12c
 2767 08e9 1B       		.uleb128 0x1b
 2768 08ea 43050000 		.4byte	0x543
 2769 08ee 16040000 		.4byte	.LLST37
 2770 08f2 20       		.uleb128 0x20
 2771 08f3 1A000000 		.4byte	.LBB30
 2772 08f7 20000000 		.4byte	.LBE30
 2773 08fb 21       		.uleb128 0x21
 2774 08fc 4E050000 		.4byte	0x54e
 2775 0900 29040000 		.4byte	.LLST38
 2776 0904 00       		.byte	0x0
 2777 0905 00       		.byte	0x0
 2778 0906 00       		.byte	0x0
 2779 0907 2C       		.uleb128 0x2c
 2780 0908 01       		.byte	0x1
 2781 0909 30010000 		.4byte	.LASF85
 2782 090d 01       		.byte	0x1
 2783 090e 4501     		.2byte	0x145
ARM GAS  /tmp/cchRNrHQ.s 			page 50


 2784 0910 01       		.byte	0x1
 2785 0911 D2000000 		.4byte	0xd2
 2786 0915 00000000 		.4byte	.LFB15
 2787 0919 4E000000 		.4byte	.LFE15
 2788 091d 3C040000 		.4byte	.LLST39
 2789 0921 C4090000 		.4byte	0x9c4
 2790 0925 2A       		.uleb128 0x2a
 2791 0926 6F717000 		.ascii	"oqp\000"
 2792 092a 01       		.byte	0x1
 2793 092b 4501     		.2byte	0x145
 2794 092d A9080000 		.4byte	0x8a9
 2795 0931 5C040000 		.4byte	.LLST40
 2796 0935 2A       		.uleb128 0x2a
 2797 0936 6200     		.ascii	"b\000"
 2798 0938 01       		.byte	0x1
 2799 0939 4501     		.2byte	0x145
 2800 093b 49000000 		.4byte	0x49
 2801 093f 7A040000 		.4byte	.LLST41
 2802 0943 2D       		.uleb128 0x2d
 2803 0944 12020000 		.4byte	.LASF74
 2804 0948 01       		.byte	0x1
 2805 0949 4501     		.2byte	0x145
 2806 094b E8000000 		.4byte	0xe8
 2807 094f 8D040000 		.4byte	.LLST42
 2808 0953 26       		.uleb128 0x26
 2809 0954 08000000 		.4byte	.LBB31
 2810 0958 0E000000 		.4byte	.LBE31
 2811 095c 71090000 		.4byte	0x971
 2812 0960 2E       		.uleb128 0x2e
 2813 0961 746D7000 		.ascii	"tmp\000"
 2814 0965 01       		.byte	0x1
 2815 0966 4701     		.2byte	0x147
 2816 0968 7B000000 		.4byte	0x7b
 2817 096c AB040000 		.4byte	.LLST43
 2818 0970 00       		.byte	0x0
 2819 0971 26       		.uleb128 0x26
 2820 0972 12000000 		.4byte	.LBB32
 2821 0976 26000000 		.4byte	.LBE32
 2822 097a A9090000 		.4byte	0x9a9
 2823 097e 2E       		.uleb128 0x2e
 2824 097f 6D736700 		.ascii	"msg\000"
 2825 0983 01       		.byte	0x1
 2826 0984 4901     		.2byte	0x149
 2827 0986 D2000000 		.4byte	0xd2
 2828 098a C9040000 		.4byte	.LLST44
 2829 098e 20       		.uleb128 0x20
 2830 098f 1E000000 		.4byte	.LBB33
 2831 0993 24000000 		.4byte	.LBE33
 2832 0997 2E       		.uleb128 0x2e
 2833 0998 746D7000 		.ascii	"tmp\000"
 2834 099c 01       		.byte	0x1
 2835 099d 4C01     		.2byte	0x14c
 2836 099f 7B000000 		.4byte	0x7b
 2837 09a3 DC040000 		.4byte	.LLST45
 2838 09a7 00       		.byte	0x0
 2839 09a8 00       		.byte	0x0
 2840 09a9 20       		.uleb128 0x20
ARM GAS  /tmp/cchRNrHQ.s 			page 51


 2841 09aa 44000000 		.4byte	.LBB34
 2842 09ae 4A000000 		.4byte	.LBE34
 2843 09b2 2E       		.uleb128 0x2e
 2844 09b3 746D7000 		.ascii	"tmp\000"
 2845 09b7 01       		.byte	0x1
 2846 09b8 5901     		.2byte	0x159
 2847 09ba 7B000000 		.4byte	0x7b
 2848 09be EF040000 		.4byte	.LLST46
 2849 09c2 00       		.byte	0x0
 2850 09c3 00       		.byte	0x0
 2851 09c4 2C       		.uleb128 0x2c
 2852 09c5 01       		.byte	0x1
 2853 09c6 FD000000 		.4byte	.LASF86
 2854 09ca 01       		.byte	0x1
 2855 09cb 6701     		.2byte	0x167
 2856 09cd 01       		.byte	0x1
 2857 09ce D2000000 		.4byte	0xd2
 2858 09d2 00000000 		.4byte	.LFB16
 2859 09d6 48000000 		.4byte	.LFE16
 2860 09da 02050000 		.4byte	.LLST47
 2861 09de 2E0A0000 		.4byte	0xa2e
 2862 09e2 2A       		.uleb128 0x2a
 2863 09e3 6F717000 		.ascii	"oqp\000"
 2864 09e7 01       		.byte	0x1
 2865 09e8 6701     		.2byte	0x167
 2866 09ea A9080000 		.4byte	0x8a9
 2867 09ee 22050000 		.4byte	.LLST48
 2868 09f2 2E       		.uleb128 0x2e
 2869 09f3 6200     		.ascii	"b\000"
 2870 09f5 01       		.byte	0x1
 2871 09f6 6801     		.2byte	0x168
 2872 09f8 49000000 		.4byte	0x49
 2873 09fc 56050000 		.4byte	.LLST49
 2874 0a00 2B       		.uleb128 0x2b
 2875 0a01 32050000 		.4byte	0x532
 2876 0a05 2A000000 		.4byte	.LBB35
 2877 0a09 30000000 		.4byte	.LBE35
 2878 0a0d 01       		.byte	0x1
 2879 0a0e 7501     		.2byte	0x175
 2880 0a10 1B       		.uleb128 0x1b
 2881 0a11 43050000 		.4byte	0x543
 2882 0a15 69050000 		.4byte	.LLST50
 2883 0a19 20       		.uleb128 0x20
 2884 0a1a 2A000000 		.4byte	.LBB36
 2885 0a1e 30000000 		.4byte	.LBE36
 2886 0a22 21       		.uleb128 0x21
 2887 0a23 4E050000 		.4byte	0x54e
 2888 0a27 7C050000 		.4byte	.LLST51
 2889 0a2b 00       		.byte	0x0
 2890 0a2c 00       		.byte	0x0
 2891 0a2d 00       		.byte	0x0
 2892 0a2e 2C       		.uleb128 0x2c
 2893 0a2f 01       		.byte	0x1
 2894 0a30 DC010000 		.4byte	.LASF87
 2895 0a34 01       		.byte	0x1
 2896 0a35 9201     		.2byte	0x192
 2897 0a37 01       		.byte	0x1
ARM GAS  /tmp/cchRNrHQ.s 			page 52


 2898 0a38 30000000 		.4byte	0x30
 2899 0a3c 00000000 		.4byte	.LFB17
 2900 0a40 80000000 		.4byte	.LFE17
 2901 0a44 90050000 		.4byte	.LLST52
 2902 0a48 1C0B0000 		.4byte	0xb1c
 2903 0a4c 2A       		.uleb128 0x2a
 2904 0a4d 6F717000 		.ascii	"oqp\000"
 2905 0a51 01       		.byte	0x1
 2906 0a52 9201     		.2byte	0x192
 2907 0a54 A9080000 		.4byte	0x8a9
 2908 0a58 B0050000 		.4byte	.LLST53
 2909 0a5c 2A       		.uleb128 0x2a
 2910 0a5d 627000   		.ascii	"bp\000"
 2911 0a60 01       		.byte	0x1
 2912 0a61 9201     		.2byte	0x192
 2913 0a63 FE040000 		.4byte	0x4fe
 2914 0a67 CE050000 		.4byte	.LLST54
 2915 0a6b 2A       		.uleb128 0x2a
 2916 0a6c 6E00     		.ascii	"n\000"
 2917 0a6e 01       		.byte	0x1
 2918 0a6f 9301     		.2byte	0x193
 2919 0a71 30000000 		.4byte	0x30
 2920 0a75 04060000 		.4byte	.LLST55
 2921 0a79 2D       		.uleb128 0x2d
 2922 0a7a 12020000 		.4byte	.LASF74
 2923 0a7e 01       		.byte	0x1
 2924 0a7f 9301     		.2byte	0x193
 2925 0a81 E8000000 		.4byte	0xe8
 2926 0a85 3A060000 		.4byte	.LLST56
 2927 0a89 2E       		.uleb128 0x2e
 2928 0a8a 6E667900 		.ascii	"nfy\000"
 2929 0a8e 01       		.byte	0x1
 2930 0a8f 9401     		.2byte	0x194
 2931 0a91 BF040000 		.4byte	0x4bf
 2932 0a95 58060000 		.4byte	.LLST57
 2933 0a99 2E       		.uleb128 0x2e
 2934 0a9a 7700     		.ascii	"w\000"
 2935 0a9c 01       		.byte	0x1
 2936 0a9d 9501     		.2byte	0x195
 2937 0a9f 30000000 		.4byte	0x30
 2938 0aa3 77060000 		.4byte	.LLST58
 2939 0aa7 26       		.uleb128 0x26
 2940 0aa8 10000000 		.4byte	.LBB37
 2941 0aac 1A000000 		.4byte	.LBE37
 2942 0ab0 C50A0000 		.4byte	0xac5
 2943 0ab4 2E       		.uleb128 0x2e
 2944 0ab5 746D7000 		.ascii	"tmp\000"
 2945 0ab9 01       		.byte	0x1
 2946 0aba 9901     		.2byte	0x199
 2947 0abc 7B000000 		.4byte	0x7b
 2948 0ac0 A1060000 		.4byte	.LLST59
 2949 0ac4 00       		.byte	0x0
 2950 0ac5 26       		.uleb128 0x26
 2951 0ac6 48000000 		.4byte	.LBB38
 2952 0aca 4E000000 		.4byte	.LBE38
 2953 0ace E30A0000 		.4byte	0xae3
 2954 0ad2 2E       		.uleb128 0x2e
ARM GAS  /tmp/cchRNrHQ.s 			page 53


 2955 0ad3 746D7000 		.ascii	"tmp\000"
 2956 0ad7 01       		.byte	0x1
 2957 0ad8 A901     		.2byte	0x1a9
 2958 0ada 7B000000 		.4byte	0x7b
 2959 0ade BF060000 		.4byte	.LLST60
 2960 0ae2 00       		.byte	0x0
 2961 0ae3 26       		.uleb128 0x26
 2962 0ae4 58000000 		.4byte	.LBB39
 2963 0ae8 5E000000 		.4byte	.LBE39
 2964 0aec 010B0000 		.4byte	0xb01
 2965 0af0 2E       		.uleb128 0x2e
 2966 0af1 746D7000 		.ascii	"tmp\000"
 2967 0af5 01       		.byte	0x1
 2968 0af6 AD01     		.2byte	0x1ad
 2969 0af8 7B000000 		.4byte	0x7b
 2970 0afc DD060000 		.4byte	.LLST61
 2971 0b00 00       		.byte	0x0
 2972 0b01 20       		.uleb128 0x20
 2973 0b02 74000000 		.4byte	.LBB40
 2974 0b06 7A000000 		.4byte	.LBE40
 2975 0b0a 2E       		.uleb128 0x2e
 2976 0b0b 746D7000 		.ascii	"tmp\000"
 2977 0b0f 01       		.byte	0x1
 2978 0b10 9D01     		.2byte	0x19d
 2979 0b12 7B000000 		.4byte	0x7b
 2980 0b16 FB060000 		.4byte	.LLST62
 2981 0b1a 00       		.byte	0x0
 2982 0b1b 00       		.byte	0x0
 2983 0b1c 2F       		.uleb128 0x2f
 2984 0b1d 3A030000 		.4byte	.LASF88
 2985 0b21 09       		.byte	0x9
 2986 0b22 72       		.byte	0x72
 2987 0b23 A5030000 		.4byte	0x3a5
 2988 0b27 01       		.byte	0x1
 2989 0b28 01       		.byte	0x1
 2990 0b29 2F       		.uleb128 0x2f
 2991 0b2a 3A030000 		.4byte	.LASF88
 2992 0b2e 09       		.byte	0x9
 2993 0b2f 72       		.byte	0x72
 2994 0b30 A5030000 		.4byte	0x3a5
 2995 0b34 01       		.byte	0x1
 2996 0b35 01       		.byte	0x1
 2997 0b36 00       		.byte	0x0
 2998              		.section	.debug_abbrev
 2999 0000 01       		.uleb128 0x1
 3000 0001 11       		.uleb128 0x11
 3001 0002 01       		.byte	0x1
 3002 0003 25       		.uleb128 0x25
 3003 0004 0E       		.uleb128 0xe
 3004 0005 13       		.uleb128 0x13
 3005 0006 0B       		.uleb128 0xb
 3006 0007 03       		.uleb128 0x3
 3007 0008 0E       		.uleb128 0xe
 3008 0009 1B       		.uleb128 0x1b
 3009 000a 0E       		.uleb128 0xe
 3010 000b 11       		.uleb128 0x11
 3011 000c 01       		.uleb128 0x1
ARM GAS  /tmp/cchRNrHQ.s 			page 54


 3012 000d 52       		.uleb128 0x52
 3013 000e 01       		.uleb128 0x1
 3014 000f 55       		.uleb128 0x55
 3015 0010 06       		.uleb128 0x6
 3016 0011 10       		.uleb128 0x10
 3017 0012 06       		.uleb128 0x6
 3018 0013 00       		.byte	0x0
 3019 0014 00       		.byte	0x0
 3020 0015 02       		.uleb128 0x2
 3021 0016 24       		.uleb128 0x24
 3022 0017 00       		.byte	0x0
 3023 0018 0B       		.uleb128 0xb
 3024 0019 0B       		.uleb128 0xb
 3025 001a 3E       		.uleb128 0x3e
 3026 001b 0B       		.uleb128 0xb
 3027 001c 03       		.uleb128 0x3
 3028 001d 08       		.uleb128 0x8
 3029 001e 00       		.byte	0x0
 3030 001f 00       		.byte	0x0
 3031 0020 03       		.uleb128 0x3
 3032 0021 16       		.uleb128 0x16
 3033 0022 00       		.byte	0x0
 3034 0023 03       		.uleb128 0x3
 3035 0024 0E       		.uleb128 0xe
 3036 0025 3A       		.uleb128 0x3a
 3037 0026 0B       		.uleb128 0xb
 3038 0027 3B       		.uleb128 0x3b
 3039 0028 0B       		.uleb128 0xb
 3040 0029 49       		.uleb128 0x49
 3041 002a 13       		.uleb128 0x13
 3042 002b 00       		.byte	0x0
 3043 002c 00       		.byte	0x0
 3044 002d 04       		.uleb128 0x4
 3045 002e 24       		.uleb128 0x24
 3046 002f 00       		.byte	0x0
 3047 0030 0B       		.uleb128 0xb
 3048 0031 0B       		.uleb128 0xb
 3049 0032 3E       		.uleb128 0x3e
 3050 0033 0B       		.uleb128 0xb
 3051 0034 03       		.uleb128 0x3
 3052 0035 0E       		.uleb128 0xe
 3053 0036 00       		.byte	0x0
 3054 0037 00       		.byte	0x0
 3055 0038 05       		.uleb128 0x5
 3056 0039 13       		.uleb128 0x13
 3057 003a 01       		.byte	0x1
 3058 003b 03       		.uleb128 0x3
 3059 003c 0E       		.uleb128 0xe
 3060 003d 0B       		.uleb128 0xb
 3061 003e 0B       		.uleb128 0xb
 3062 003f 3A       		.uleb128 0x3a
 3063 0040 0B       		.uleb128 0xb
 3064 0041 3B       		.uleb128 0x3b
 3065 0042 0B       		.uleb128 0xb
 3066 0043 01       		.uleb128 0x1
 3067 0044 13       		.uleb128 0x13
 3068 0045 00       		.byte	0x0
ARM GAS  /tmp/cchRNrHQ.s 			page 55


 3069 0046 00       		.byte	0x0
 3070 0047 06       		.uleb128 0x6
 3071 0048 0D       		.uleb128 0xd
 3072 0049 00       		.byte	0x0
 3073 004a 03       		.uleb128 0x3
 3074 004b 0E       		.uleb128 0xe
 3075 004c 3A       		.uleb128 0x3a
 3076 004d 0B       		.uleb128 0xb
 3077 004e 3B       		.uleb128 0x3b
 3078 004f 0B       		.uleb128 0xb
 3079 0050 49       		.uleb128 0x49
 3080 0051 13       		.uleb128 0x13
 3081 0052 38       		.uleb128 0x38
 3082 0053 0A       		.uleb128 0xa
 3083 0054 00       		.byte	0x0
 3084 0055 00       		.byte	0x0
 3085 0056 07       		.uleb128 0x7
 3086 0057 0D       		.uleb128 0xd
 3087 0058 00       		.byte	0x0
 3088 0059 03       		.uleb128 0x3
 3089 005a 08       		.uleb128 0x8
 3090 005b 3A       		.uleb128 0x3a
 3091 005c 0B       		.uleb128 0xb
 3092 005d 3B       		.uleb128 0x3b
 3093 005e 0B       		.uleb128 0xb
 3094 005f 49       		.uleb128 0x49
 3095 0060 13       		.uleb128 0x13
 3096 0061 38       		.uleb128 0x38
 3097 0062 0A       		.uleb128 0xa
 3098 0063 00       		.byte	0x0
 3099 0064 00       		.byte	0x0
 3100 0065 08       		.uleb128 0x8
 3101 0066 13       		.uleb128 0x13
 3102 0067 01       		.byte	0x1
 3103 0068 0B       		.uleb128 0xb
 3104 0069 0B       		.uleb128 0xb
 3105 006a 3A       		.uleb128 0x3a
 3106 006b 0B       		.uleb128 0xb
 3107 006c 3B       		.uleb128 0x3b
 3108 006d 0B       		.uleb128 0xb
 3109 006e 01       		.uleb128 0x1
 3110 006f 13       		.uleb128 0x13
 3111 0070 00       		.byte	0x0
 3112 0071 00       		.byte	0x0
 3113 0072 09       		.uleb128 0x9
 3114 0073 0F       		.uleb128 0xf
 3115 0074 00       		.byte	0x0
 3116 0075 0B       		.uleb128 0xb
 3117 0076 0B       		.uleb128 0xb
 3118 0077 49       		.uleb128 0x49
 3119 0078 13       		.uleb128 0x13
 3120 0079 00       		.byte	0x0
 3121 007a 00       		.byte	0x0
 3122 007b 0A       		.uleb128 0xa
 3123 007c 0F       		.uleb128 0xf
 3124 007d 00       		.byte	0x0
 3125 007e 0B       		.uleb128 0xb
ARM GAS  /tmp/cchRNrHQ.s 			page 56


 3126 007f 0B       		.uleb128 0xb
 3127 0080 00       		.byte	0x0
 3128 0081 00       		.byte	0x0
 3129 0082 0B       		.uleb128 0xb
 3130 0083 0D       		.uleb128 0xd
 3131 0084 00       		.byte	0x0
 3132 0085 03       		.uleb128 0x3
 3133 0086 08       		.uleb128 0x8
 3134 0087 3A       		.uleb128 0x3a
 3135 0088 0B       		.uleb128 0xb
 3136 0089 3B       		.uleb128 0x3b
 3137 008a 05       		.uleb128 0x5
 3138 008b 49       		.uleb128 0x49
 3139 008c 13       		.uleb128 0x13
 3140 008d 38       		.uleb128 0x38
 3141 008e 0A       		.uleb128 0xa
 3142 008f 00       		.byte	0x0
 3143 0090 00       		.byte	0x0
 3144 0091 0C       		.uleb128 0xc
 3145 0092 13       		.uleb128 0x13
 3146 0093 01       		.byte	0x1
 3147 0094 03       		.uleb128 0x3
 3148 0095 0E       		.uleb128 0xe
 3149 0096 0B       		.uleb128 0xb
 3150 0097 0B       		.uleb128 0xb
 3151 0098 3A       		.uleb128 0x3a
 3152 0099 0B       		.uleb128 0xb
 3153 009a 3B       		.uleb128 0x3b
 3154 009b 05       		.uleb128 0x5
 3155 009c 01       		.uleb128 0x1
 3156 009d 13       		.uleb128 0x13
 3157 009e 00       		.byte	0x0
 3158 009f 00       		.byte	0x0
 3159 00a0 0D       		.uleb128 0xd
 3160 00a1 35       		.uleb128 0x35
 3161 00a2 00       		.byte	0x0
 3162 00a3 49       		.uleb128 0x49
 3163 00a4 13       		.uleb128 0x13
 3164 00a5 00       		.byte	0x0
 3165 00a6 00       		.byte	0x0
 3166 00a7 0E       		.uleb128 0xe
 3167 00a8 17       		.uleb128 0x17
 3168 00a9 01       		.byte	0x1
 3169 00aa 0B       		.uleb128 0xb
 3170 00ab 0B       		.uleb128 0xb
 3171 00ac 3A       		.uleb128 0x3a
 3172 00ad 0B       		.uleb128 0xb
 3173 00ae 3B       		.uleb128 0x3b
 3174 00af 0B       		.uleb128 0xb
 3175 00b0 01       		.uleb128 0x1
 3176 00b1 13       		.uleb128 0x13
 3177 00b2 00       		.byte	0x0
 3178 00b3 00       		.byte	0x0
 3179 00b4 0F       		.uleb128 0xf
 3180 00b5 0D       		.uleb128 0xd
 3181 00b6 00       		.byte	0x0
 3182 00b7 03       		.uleb128 0x3
ARM GAS  /tmp/cchRNrHQ.s 			page 57


 3183 00b8 0E       		.uleb128 0xe
 3184 00b9 3A       		.uleb128 0x3a
 3185 00ba 0B       		.uleb128 0xb
 3186 00bb 3B       		.uleb128 0x3b
 3187 00bc 0B       		.uleb128 0xb
 3188 00bd 49       		.uleb128 0x49
 3189 00be 13       		.uleb128 0x13
 3190 00bf 00       		.byte	0x0
 3191 00c0 00       		.byte	0x0
 3192 00c1 10       		.uleb128 0x10
 3193 00c2 26       		.uleb128 0x26
 3194 00c3 00       		.byte	0x0
 3195 00c4 49       		.uleb128 0x49
 3196 00c5 13       		.uleb128 0x13
 3197 00c6 00       		.byte	0x0
 3198 00c7 00       		.byte	0x0
 3199 00c8 11       		.uleb128 0x11
 3200 00c9 15       		.uleb128 0x15
 3201 00ca 01       		.byte	0x1
 3202 00cb 27       		.uleb128 0x27
 3203 00cc 0C       		.uleb128 0xc
 3204 00cd 01       		.uleb128 0x1
 3205 00ce 13       		.uleb128 0x13
 3206 00cf 00       		.byte	0x0
 3207 00d0 00       		.byte	0x0
 3208 00d1 12       		.uleb128 0x12
 3209 00d2 05       		.uleb128 0x5
 3210 00d3 00       		.byte	0x0
 3211 00d4 49       		.uleb128 0x49
 3212 00d5 13       		.uleb128 0x13
 3213 00d6 00       		.byte	0x0
 3214 00d7 00       		.byte	0x0
 3215 00d8 13       		.uleb128 0x13
 3216 00d9 2E       		.uleb128 0x2e
 3217 00da 01       		.byte	0x1
 3218 00db 03       		.uleb128 0x3
 3219 00dc 0E       		.uleb128 0xe
 3220 00dd 3A       		.uleb128 0x3a
 3221 00de 0B       		.uleb128 0xb
 3222 00df 3B       		.uleb128 0x3b
 3223 00e0 0B       		.uleb128 0xb
 3224 00e1 27       		.uleb128 0x27
 3225 00e2 0C       		.uleb128 0xc
 3226 00e3 20       		.uleb128 0x20
 3227 00e4 0B       		.uleb128 0xb
 3228 00e5 01       		.uleb128 0x1
 3229 00e6 13       		.uleb128 0x13
 3230 00e7 00       		.byte	0x0
 3231 00e8 00       		.byte	0x0
 3232 00e9 14       		.uleb128 0x14
 3233 00ea 05       		.uleb128 0x5
 3234 00eb 00       		.byte	0x0
 3235 00ec 03       		.uleb128 0x3
 3236 00ed 08       		.uleb128 0x8
 3237 00ee 3A       		.uleb128 0x3a
 3238 00ef 0B       		.uleb128 0xb
 3239 00f0 3B       		.uleb128 0x3b
ARM GAS  /tmp/cchRNrHQ.s 			page 58


 3240 00f1 0B       		.uleb128 0xb
 3241 00f2 49       		.uleb128 0x49
 3242 00f3 13       		.uleb128 0x13
 3243 00f4 00       		.byte	0x0
 3244 00f5 00       		.byte	0x0
 3245 00f6 15       		.uleb128 0x15
 3246 00f7 2E       		.uleb128 0x2e
 3247 00f8 01       		.byte	0x1
 3248 00f9 03       		.uleb128 0x3
 3249 00fa 0E       		.uleb128 0xe
 3250 00fb 3A       		.uleb128 0x3a
 3251 00fc 0B       		.uleb128 0xb
 3252 00fd 3B       		.uleb128 0x3b
 3253 00fe 0B       		.uleb128 0xb
 3254 00ff 27       		.uleb128 0x27
 3255 0100 0C       		.uleb128 0xc
 3256 0101 49       		.uleb128 0x49
 3257 0102 13       		.uleb128 0x13
 3258 0103 20       		.uleb128 0x20
 3259 0104 0B       		.uleb128 0xb
 3260 0105 01       		.uleb128 0x1
 3261 0106 13       		.uleb128 0x13
 3262 0107 00       		.byte	0x0
 3263 0108 00       		.byte	0x0
 3264 0109 16       		.uleb128 0x16
 3265 010a 34       		.uleb128 0x34
 3266 010b 00       		.byte	0x0
 3267 010c 03       		.uleb128 0x3
 3268 010d 08       		.uleb128 0x8
 3269 010e 3A       		.uleb128 0x3a
 3270 010f 0B       		.uleb128 0xb
 3271 0110 3B       		.uleb128 0x3b
 3272 0111 0B       		.uleb128 0xb
 3273 0112 49       		.uleb128 0x49
 3274 0113 13       		.uleb128 0x13
 3275 0114 00       		.byte	0x0
 3276 0115 00       		.byte	0x0
 3277 0116 17       		.uleb128 0x17
 3278 0117 2E       		.uleb128 0x2e
 3279 0118 01       		.byte	0x1
 3280 0119 03       		.uleb128 0x3
 3281 011a 0E       		.uleb128 0xe
 3282 011b 3A       		.uleb128 0x3a
 3283 011c 0B       		.uleb128 0xb
 3284 011d 3B       		.uleb128 0x3b
 3285 011e 0B       		.uleb128 0xb
 3286 011f 27       		.uleb128 0x27
 3287 0120 0C       		.uleb128 0xc
 3288 0121 49       		.uleb128 0x49
 3289 0122 13       		.uleb128 0x13
 3290 0123 11       		.uleb128 0x11
 3291 0124 01       		.uleb128 0x1
 3292 0125 12       		.uleb128 0x12
 3293 0126 01       		.uleb128 0x1
 3294 0127 40       		.uleb128 0x40
 3295 0128 06       		.uleb128 0x6
 3296 0129 01       		.uleb128 0x1
ARM GAS  /tmp/cchRNrHQ.s 			page 59


 3297 012a 13       		.uleb128 0x13
 3298 012b 00       		.byte	0x0
 3299 012c 00       		.byte	0x0
 3300 012d 18       		.uleb128 0x18
 3301 012e 05       		.uleb128 0x5
 3302 012f 00       		.byte	0x0
 3303 0130 03       		.uleb128 0x3
 3304 0131 08       		.uleb128 0x8
 3305 0132 3A       		.uleb128 0x3a
 3306 0133 0B       		.uleb128 0xb
 3307 0134 3B       		.uleb128 0x3b
 3308 0135 0B       		.uleb128 0xb
 3309 0136 49       		.uleb128 0x49
 3310 0137 13       		.uleb128 0x13
 3311 0138 02       		.uleb128 0x2
 3312 0139 06       		.uleb128 0x6
 3313 013a 00       		.byte	0x0
 3314 013b 00       		.byte	0x0
 3315 013c 19       		.uleb128 0x19
 3316 013d 05       		.uleb128 0x5
 3317 013e 00       		.byte	0x0
 3318 013f 03       		.uleb128 0x3
 3319 0140 0E       		.uleb128 0xe
 3320 0141 3A       		.uleb128 0x3a
 3321 0142 0B       		.uleb128 0xb
 3322 0143 3B       		.uleb128 0x3b
 3323 0144 0B       		.uleb128 0xb
 3324 0145 49       		.uleb128 0x49
 3325 0146 13       		.uleb128 0x13
 3326 0147 02       		.uleb128 0x2
 3327 0148 06       		.uleb128 0x6
 3328 0149 00       		.byte	0x0
 3329 014a 00       		.byte	0x0
 3330 014b 1A       		.uleb128 0x1a
 3331 014c 1D       		.uleb128 0x1d
 3332 014d 01       		.byte	0x1
 3333 014e 31       		.uleb128 0x31
 3334 014f 13       		.uleb128 0x13
 3335 0150 52       		.uleb128 0x52
 3336 0151 01       		.uleb128 0x1
 3337 0152 55       		.uleb128 0x55
 3338 0153 06       		.uleb128 0x6
 3339 0154 58       		.uleb128 0x58
 3340 0155 0B       		.uleb128 0xb
 3341 0156 59       		.uleb128 0x59
 3342 0157 0B       		.uleb128 0xb
 3343 0158 00       		.byte	0x0
 3344 0159 00       		.byte	0x0
 3345 015a 1B       		.uleb128 0x1b
 3346 015b 05       		.uleb128 0x5
 3347 015c 00       		.byte	0x0
 3348 015d 31       		.uleb128 0x31
 3349 015e 13       		.uleb128 0x13
 3350 015f 02       		.uleb128 0x2
 3351 0160 06       		.uleb128 0x6
 3352 0161 00       		.byte	0x0
 3353 0162 00       		.byte	0x0
ARM GAS  /tmp/cchRNrHQ.s 			page 60


 3354 0163 1C       		.uleb128 0x1c
 3355 0164 2E       		.uleb128 0x2e
 3356 0165 01       		.byte	0x1
 3357 0166 3F       		.uleb128 0x3f
 3358 0167 0C       		.uleb128 0xc
 3359 0168 03       		.uleb128 0x3
 3360 0169 0E       		.uleb128 0xe
 3361 016a 3A       		.uleb128 0x3a
 3362 016b 0B       		.uleb128 0xb
 3363 016c 3B       		.uleb128 0x3b
 3364 016d 0B       		.uleb128 0xb
 3365 016e 27       		.uleb128 0x27
 3366 016f 0C       		.uleb128 0xc
 3367 0170 11       		.uleb128 0x11
 3368 0171 01       		.uleb128 0x1
 3369 0172 12       		.uleb128 0x12
 3370 0173 01       		.uleb128 0x1
 3371 0174 40       		.uleb128 0x40
 3372 0175 06       		.uleb128 0x6
 3373 0176 01       		.uleb128 0x1
 3374 0177 13       		.uleb128 0x13
 3375 0178 00       		.byte	0x0
 3376 0179 00       		.byte	0x0
 3377 017a 1D       		.uleb128 0x1d
 3378 017b 05       		.uleb128 0x5
 3379 017c 00       		.byte	0x0
 3380 017d 03       		.uleb128 0x3
 3381 017e 08       		.uleb128 0x8
 3382 017f 3A       		.uleb128 0x3a
 3383 0180 0B       		.uleb128 0xb
 3384 0181 3B       		.uleb128 0x3b
 3385 0182 0B       		.uleb128 0xb
 3386 0183 49       		.uleb128 0x49
 3387 0184 13       		.uleb128 0x13
 3388 0185 02       		.uleb128 0x2
 3389 0186 0A       		.uleb128 0xa
 3390 0187 00       		.byte	0x0
 3391 0188 00       		.byte	0x0
 3392 0189 1E       		.uleb128 0x1e
 3393 018a 05       		.uleb128 0x5
 3394 018b 00       		.byte	0x0
 3395 018c 03       		.uleb128 0x3
 3396 018d 0E       		.uleb128 0xe
 3397 018e 3A       		.uleb128 0x3a
 3398 018f 0B       		.uleb128 0xb
 3399 0190 3B       		.uleb128 0x3b
 3400 0191 0B       		.uleb128 0xb
 3401 0192 49       		.uleb128 0x49
 3402 0193 13       		.uleb128 0x13
 3403 0194 02       		.uleb128 0x2
 3404 0195 0A       		.uleb128 0xa
 3405 0196 00       		.byte	0x0
 3406 0197 00       		.byte	0x0
 3407 0198 1F       		.uleb128 0x1f
 3408 0199 1D       		.uleb128 0x1d
 3409 019a 01       		.byte	0x1
 3410 019b 31       		.uleb128 0x31
ARM GAS  /tmp/cchRNrHQ.s 			page 61


 3411 019c 13       		.uleb128 0x13
 3412 019d 11       		.uleb128 0x11
 3413 019e 01       		.uleb128 0x1
 3414 019f 12       		.uleb128 0x12
 3415 01a0 01       		.uleb128 0x1
 3416 01a1 58       		.uleb128 0x58
 3417 01a2 0B       		.uleb128 0xb
 3418 01a3 59       		.uleb128 0x59
 3419 01a4 0B       		.uleb128 0xb
 3420 01a5 00       		.byte	0x0
 3421 01a6 00       		.byte	0x0
 3422 01a7 20       		.uleb128 0x20
 3423 01a8 0B       		.uleb128 0xb
 3424 01a9 01       		.byte	0x1
 3425 01aa 11       		.uleb128 0x11
 3426 01ab 01       		.uleb128 0x1
 3427 01ac 12       		.uleb128 0x12
 3428 01ad 01       		.uleb128 0x1
 3429 01ae 00       		.byte	0x0
 3430 01af 00       		.byte	0x0
 3431 01b0 21       		.uleb128 0x21
 3432 01b1 34       		.uleb128 0x34
 3433 01b2 00       		.byte	0x0
 3434 01b3 31       		.uleb128 0x31
 3435 01b4 13       		.uleb128 0x13
 3436 01b5 02       		.uleb128 0x2
 3437 01b6 06       		.uleb128 0x6
 3438 01b7 00       		.byte	0x0
 3439 01b8 00       		.byte	0x0
 3440 01b9 22       		.uleb128 0x22
 3441 01ba 2E       		.uleb128 0x2e
 3442 01bb 01       		.byte	0x1
 3443 01bc 3F       		.uleb128 0x3f
 3444 01bd 0C       		.uleb128 0xc
 3445 01be 03       		.uleb128 0x3
 3446 01bf 0E       		.uleb128 0xe
 3447 01c0 3A       		.uleb128 0x3a
 3448 01c1 0B       		.uleb128 0xb
 3449 01c2 3B       		.uleb128 0x3b
 3450 01c3 0B       		.uleb128 0xb
 3451 01c4 27       		.uleb128 0x27
 3452 01c5 0C       		.uleb128 0xc
 3453 01c6 49       		.uleb128 0x49
 3454 01c7 13       		.uleb128 0x13
 3455 01c8 11       		.uleb128 0x11
 3456 01c9 01       		.uleb128 0x1
 3457 01ca 12       		.uleb128 0x12
 3458 01cb 01       		.uleb128 0x1
 3459 01cc 40       		.uleb128 0x40
 3460 01cd 06       		.uleb128 0x6
 3461 01ce 01       		.uleb128 0x1
 3462 01cf 13       		.uleb128 0x13
 3463 01d0 00       		.byte	0x0
 3464 01d1 00       		.byte	0x0
 3465 01d2 23       		.uleb128 0x23
 3466 01d3 34       		.uleb128 0x34
 3467 01d4 00       		.byte	0x0
ARM GAS  /tmp/cchRNrHQ.s 			page 62


 3468 01d5 03       		.uleb128 0x3
 3469 01d6 08       		.uleb128 0x8
 3470 01d7 3A       		.uleb128 0x3a
 3471 01d8 0B       		.uleb128 0xb
 3472 01d9 3B       		.uleb128 0x3b
 3473 01da 0B       		.uleb128 0xb
 3474 01db 49       		.uleb128 0x49
 3475 01dc 13       		.uleb128 0x13
 3476 01dd 02       		.uleb128 0x2
 3477 01de 0A       		.uleb128 0xa
 3478 01df 00       		.byte	0x0
 3479 01e0 00       		.byte	0x0
 3480 01e1 24       		.uleb128 0x24
 3481 01e2 0B       		.uleb128 0xb
 3482 01e3 01       		.byte	0x1
 3483 01e4 55       		.uleb128 0x55
 3484 01e5 06       		.uleb128 0x6
 3485 01e6 01       		.uleb128 0x1
 3486 01e7 13       		.uleb128 0x13
 3487 01e8 00       		.byte	0x0
 3488 01e9 00       		.byte	0x0
 3489 01ea 25       		.uleb128 0x25
 3490 01eb 34       		.uleb128 0x34
 3491 01ec 00       		.byte	0x0
 3492 01ed 03       		.uleb128 0x3
 3493 01ee 08       		.uleb128 0x8
 3494 01ef 3A       		.uleb128 0x3a
 3495 01f0 0B       		.uleb128 0xb
 3496 01f1 3B       		.uleb128 0x3b
 3497 01f2 0B       		.uleb128 0xb
 3498 01f3 49       		.uleb128 0x49
 3499 01f4 13       		.uleb128 0x13
 3500 01f5 02       		.uleb128 0x2
 3501 01f6 06       		.uleb128 0x6
 3502 01f7 00       		.byte	0x0
 3503 01f8 00       		.byte	0x0
 3504 01f9 26       		.uleb128 0x26
 3505 01fa 0B       		.uleb128 0xb
 3506 01fb 01       		.byte	0x1
 3507 01fc 11       		.uleb128 0x11
 3508 01fd 01       		.uleb128 0x1
 3509 01fe 12       		.uleb128 0x12
 3510 01ff 01       		.uleb128 0x1
 3511 0200 01       		.uleb128 0x1
 3512 0201 13       		.uleb128 0x13
 3513 0202 00       		.byte	0x0
 3514 0203 00       		.byte	0x0
 3515 0204 27       		.uleb128 0x27
 3516 0205 2E       		.uleb128 0x2e
 3517 0206 01       		.byte	0x1
 3518 0207 3F       		.uleb128 0x3f
 3519 0208 0C       		.uleb128 0xc
 3520 0209 03       		.uleb128 0x3
 3521 020a 0E       		.uleb128 0xe
 3522 020b 3A       		.uleb128 0x3a
 3523 020c 0B       		.uleb128 0xb
 3524 020d 3B       		.uleb128 0x3b
ARM GAS  /tmp/cchRNrHQ.s 			page 63


 3525 020e 05       		.uleb128 0x5
 3526 020f 27       		.uleb128 0x27
 3527 0210 0C       		.uleb128 0xc
 3528 0211 11       		.uleb128 0x11
 3529 0212 01       		.uleb128 0x1
 3530 0213 12       		.uleb128 0x12
 3531 0214 01       		.uleb128 0x1
 3532 0215 40       		.uleb128 0x40
 3533 0216 06       		.uleb128 0x6
 3534 0217 01       		.uleb128 0x1
 3535 0218 13       		.uleb128 0x13
 3536 0219 00       		.byte	0x0
 3537 021a 00       		.byte	0x0
 3538 021b 28       		.uleb128 0x28
 3539 021c 05       		.uleb128 0x5
 3540 021d 00       		.byte	0x0
 3541 021e 03       		.uleb128 0x3
 3542 021f 08       		.uleb128 0x8
 3543 0220 3A       		.uleb128 0x3a
 3544 0221 0B       		.uleb128 0xb
 3545 0222 3B       		.uleb128 0x3b
 3546 0223 05       		.uleb128 0x5
 3547 0224 49       		.uleb128 0x49
 3548 0225 13       		.uleb128 0x13
 3549 0226 02       		.uleb128 0x2
 3550 0227 0A       		.uleb128 0xa
 3551 0228 00       		.byte	0x0
 3552 0229 00       		.byte	0x0
 3553 022a 29       		.uleb128 0x29
 3554 022b 05       		.uleb128 0x5
 3555 022c 00       		.byte	0x0
 3556 022d 03       		.uleb128 0x3
 3557 022e 0E       		.uleb128 0xe
 3558 022f 3A       		.uleb128 0x3a
 3559 0230 0B       		.uleb128 0xb
 3560 0231 3B       		.uleb128 0x3b
 3561 0232 05       		.uleb128 0x5
 3562 0233 49       		.uleb128 0x49
 3563 0234 13       		.uleb128 0x13
 3564 0235 02       		.uleb128 0x2
 3565 0236 0A       		.uleb128 0xa
 3566 0237 00       		.byte	0x0
 3567 0238 00       		.byte	0x0
 3568 0239 2A       		.uleb128 0x2a
 3569 023a 05       		.uleb128 0x5
 3570 023b 00       		.byte	0x0
 3571 023c 03       		.uleb128 0x3
 3572 023d 08       		.uleb128 0x8
 3573 023e 3A       		.uleb128 0x3a
 3574 023f 0B       		.uleb128 0xb
 3575 0240 3B       		.uleb128 0x3b
 3576 0241 05       		.uleb128 0x5
 3577 0242 49       		.uleb128 0x49
 3578 0243 13       		.uleb128 0x13
 3579 0244 02       		.uleb128 0x2
 3580 0245 06       		.uleb128 0x6
 3581 0246 00       		.byte	0x0
ARM GAS  /tmp/cchRNrHQ.s 			page 64


 3582 0247 00       		.byte	0x0
 3583 0248 2B       		.uleb128 0x2b
 3584 0249 1D       		.uleb128 0x1d
 3585 024a 01       		.byte	0x1
 3586 024b 31       		.uleb128 0x31
 3587 024c 13       		.uleb128 0x13
 3588 024d 11       		.uleb128 0x11
 3589 024e 01       		.uleb128 0x1
 3590 024f 12       		.uleb128 0x12
 3591 0250 01       		.uleb128 0x1
 3592 0251 58       		.uleb128 0x58
 3593 0252 0B       		.uleb128 0xb
 3594 0253 59       		.uleb128 0x59
 3595 0254 05       		.uleb128 0x5
 3596 0255 00       		.byte	0x0
 3597 0256 00       		.byte	0x0
 3598 0257 2C       		.uleb128 0x2c
 3599 0258 2E       		.uleb128 0x2e
 3600 0259 01       		.byte	0x1
 3601 025a 3F       		.uleb128 0x3f
 3602 025b 0C       		.uleb128 0xc
 3603 025c 03       		.uleb128 0x3
 3604 025d 0E       		.uleb128 0xe
 3605 025e 3A       		.uleb128 0x3a
 3606 025f 0B       		.uleb128 0xb
 3607 0260 3B       		.uleb128 0x3b
 3608 0261 05       		.uleb128 0x5
 3609 0262 27       		.uleb128 0x27
 3610 0263 0C       		.uleb128 0xc
 3611 0264 49       		.uleb128 0x49
 3612 0265 13       		.uleb128 0x13
 3613 0266 11       		.uleb128 0x11
 3614 0267 01       		.uleb128 0x1
 3615 0268 12       		.uleb128 0x12
 3616 0269 01       		.uleb128 0x1
 3617 026a 40       		.uleb128 0x40
 3618 026b 06       		.uleb128 0x6
 3619 026c 01       		.uleb128 0x1
 3620 026d 13       		.uleb128 0x13
 3621 026e 00       		.byte	0x0
 3622 026f 00       		.byte	0x0
 3623 0270 2D       		.uleb128 0x2d
 3624 0271 05       		.uleb128 0x5
 3625 0272 00       		.byte	0x0
 3626 0273 03       		.uleb128 0x3
 3627 0274 0E       		.uleb128 0xe
 3628 0275 3A       		.uleb128 0x3a
 3629 0276 0B       		.uleb128 0xb
 3630 0277 3B       		.uleb128 0x3b
 3631 0278 05       		.uleb128 0x5
 3632 0279 49       		.uleb128 0x49
 3633 027a 13       		.uleb128 0x13
 3634 027b 02       		.uleb128 0x2
 3635 027c 06       		.uleb128 0x6
 3636 027d 00       		.byte	0x0
 3637 027e 00       		.byte	0x0
 3638 027f 2E       		.uleb128 0x2e
ARM GAS  /tmp/cchRNrHQ.s 			page 65


 3639 0280 34       		.uleb128 0x34
 3640 0281 00       		.byte	0x0
 3641 0282 03       		.uleb128 0x3
 3642 0283 08       		.uleb128 0x8
 3643 0284 3A       		.uleb128 0x3a
 3644 0285 0B       		.uleb128 0xb
 3645 0286 3B       		.uleb128 0x3b
 3646 0287 05       		.uleb128 0x5
 3647 0288 49       		.uleb128 0x49
 3648 0289 13       		.uleb128 0x13
 3649 028a 02       		.uleb128 0x2
 3650 028b 06       		.uleb128 0x6
 3651 028c 00       		.byte	0x0
 3652 028d 00       		.byte	0x0
 3653 028e 2F       		.uleb128 0x2f
 3654 028f 34       		.uleb128 0x34
 3655 0290 00       		.byte	0x0
 3656 0291 03       		.uleb128 0x3
 3657 0292 0E       		.uleb128 0xe
 3658 0293 3A       		.uleb128 0x3a
 3659 0294 0B       		.uleb128 0xb
 3660 0295 3B       		.uleb128 0x3b
 3661 0296 0B       		.uleb128 0xb
 3662 0297 49       		.uleb128 0x49
 3663 0298 13       		.uleb128 0x13
 3664 0299 3F       		.uleb128 0x3f
 3665 029a 0C       		.uleb128 0xc
 3666 029b 3C       		.uleb128 0x3c
 3667 029c 0C       		.uleb128 0xc
 3668 029d 00       		.byte	0x0
 3669 029e 00       		.byte	0x0
 3670 029f 00       		.byte	0x0
 3671              		.section	.debug_pubnames,"",%progbits
 3672 0000 AF000000 		.4byte	0xaf
 3673 0004 0200     		.2byte	0x2
 3674 0006 00000000 		.4byte	.Ldebug_info0
 3675 000a 370B0000 		.4byte	0xb37
 3676 000e B5050000 		.4byte	0x5b5
 3677 0012 63684951 		.ascii	"chIQInit\000"
 3677      496E6974 
 3677      00
 3678 001b 0A060000 		.4byte	0x60a
 3679 001f 63684951 		.ascii	"chIQResetI\000"
 3679      52657365 
 3679      744900
 3680 002a 5F060000 		.4byte	0x65f
 3681 002e 63684951 		.ascii	"chIQPutI\000"
 3681      50757449 
 3681      00
 3682 0037 C5060000 		.4byte	0x6c5
 3683 003b 63684951 		.ascii	"chIQGetTimeout\000"
 3683      47657454 
 3683      696D656F 
 3683      757400
 3684 004a 74070000 		.4byte	0x774
 3685 004e 63684951 		.ascii	"chIQReadTimeout\000"
 3685      52656164 
ARM GAS  /tmp/cchRNrHQ.s 			page 66


 3685      54696D65 
 3685      6F757400 
 3686 005e 57080000 		.4byte	0x857
 3687 0062 63684F51 		.ascii	"chOQInit\000"
 3687      496E6974 
 3687      00
 3688 006b AF080000 		.4byte	0x8af
 3689 006f 63684F51 		.ascii	"chOQResetI\000"
 3689      52657365 
 3689      744900
 3690 007a 07090000 		.4byte	0x907
 3691 007e 63684F51 		.ascii	"chOQPutTimeout\000"
 3691      50757454 
 3691      696D656F 
 3691      757400
 3692 008d C4090000 		.4byte	0x9c4
 3693 0091 63684F51 		.ascii	"chOQGetI\000"
 3693      47657449 
 3693      00
 3694 009a 2E0A0000 		.4byte	0xa2e
 3695 009e 63684F51 		.ascii	"chOQWriteTimeout\000"
 3695      57726974 
 3695      6554696D 
 3695      656F7574 
 3695      00
 3696 00af 00000000 		.4byte	0x0
 3697              		.section	.debug_pubtypes,"",%progbits
 3698 0000 78010000 		.4byte	0x178
 3699 0004 0200     		.2byte	0x2
 3700 0006 00000000 		.4byte	.Ldebug_info0
 3701 000a 370B0000 		.4byte	0xb37
 3702 000e 30000000 		.4byte	0x30
 3703 0012 73697A65 		.ascii	"size_t\000"
 3703      5F7400
 3704 0019 49000000 		.4byte	0x49
 3705 001d 75696E74 		.ascii	"uint8_t\000"
 3705      385F7400 
 3706 0025 69000000 		.4byte	0x69
 3707 0029 696E7433 		.ascii	"int32_t\000"
 3707      325F7400 
 3708 0031 7B000000 		.4byte	0x7b
 3709 0035 75696E74 		.ascii	"uint32_t\000"
 3709      33325F74 
 3709      00
 3710 003e 9B000000 		.4byte	0x9b
 3711 0042 626F6F6C 		.ascii	"bool_t\000"
 3711      5F7400
 3712 0049 A6000000 		.4byte	0xa6
 3713 004d 746D6F64 		.ascii	"tmode_t\000"
 3713      655F7400 
 3714 0055 B1000000 		.4byte	0xb1
 3715 0059 74737461 		.ascii	"tstate_t\000"
 3715      74655F74 
 3715      00
 3716 0062 BC000000 		.4byte	0xbc
 3717 0066 74726566 		.ascii	"trefs_t\000"
 3717      735F7400 
ARM GAS  /tmp/cchRNrHQ.s 			page 67


 3718 006e C7000000 		.4byte	0xc7
 3719 0072 74707269 		.ascii	"tprio_t\000"
 3719      6F5F7400 
 3720 007a D2000000 		.4byte	0xd2
 3721 007e 6D73675F 		.ascii	"msg_t\000"
 3721      7400
 3722 0084 DD000000 		.4byte	0xdd
 3723 0088 6576656E 		.ascii	"eventmask_t\000"
 3723      746D6173 
 3723      6B5F7400 
 3724 0094 E8000000 		.4byte	0xe8
 3725 0098 73797374 		.ascii	"systime_t\000"
 3725      696D655F 
 3725      7400
 3726 00a2 F3000000 		.4byte	0xf3
 3727 00a6 636E745F 		.ascii	"cnt_t\000"
 3727      7400
 3728 00ac FE000000 		.4byte	0xfe
 3729 00b0 54687265 		.ascii	"Thread\000"
 3729      616400
 3730 00b7 4B020000 		.4byte	0x24b
 3731 00bb 54687265 		.ascii	"ThreadsQueue\000"
 3731      61647351 
 3731      75657565 
 3731      00
 3732 00c8 6D020000 		.4byte	0x26d
 3733 00cc 54687265 		.ascii	"ThreadsList\000"
 3733      6164734C 
 3733      69737400 
 3734 00d8 78020000 		.4byte	0x278
 3735 00dc 72656761 		.ascii	"regarm_t\000"
 3735      726D5F74 
 3735      00
 3736 00e5 85020000 		.4byte	0x285
 3737 00e9 696E7463 		.ascii	"intctx\000"
 3737      747800
 3738 00f0 12030000 		.4byte	0x312
 3739 00f4 636F6E74 		.ascii	"context\000"
 3739      65787400 
 3740 00fc A5030000 		.4byte	0x3a5
 3741 0100 52656164 		.ascii	"ReadyList\000"
 3741      794C6973 
 3741      7400
 3742 010a B0030000 		.4byte	0x3b0
 3743 010e 4D757465 		.ascii	"Mutex\000"
 3743      7800
 3744 0114 ED030000 		.4byte	0x3ed
 3745 0118 4D757465 		.ascii	"Mutex\000"
 3745      7800
 3746 011e 09010000 		.4byte	0x109
 3747 0122 54687265 		.ascii	"Thread\000"
 3747      616400
 3748 0129 45040000 		.4byte	0x445
 3749 012d 47656E65 		.ascii	"GenericQueue\000"
 3749      72696351 
 3749      75657565 
 3749      00
ARM GAS  /tmp/cchRNrHQ.s 			page 68


 3750 013a BF040000 		.4byte	0x4bf
 3751 013e 716E6F74 		.ascii	"qnotify_t\000"
 3751      6966795F 
 3751      7400
 3752 0148 50040000 		.4byte	0x450
 3753 014c 47656E65 		.ascii	"GenericQueue\000"
 3753      72696351 
 3753      75657565 
 3753      00
 3754 0159 E8040000 		.4byte	0x4e8
 3755 015d 496E7075 		.ascii	"InputQueue\000"
 3755      74517565 
 3755      756500
 3756 0168 F3040000 		.4byte	0x4f3
 3757 016c 4F757470 		.ascii	"OutputQueue\000"
 3757      75745175 
 3757      65756500 
 3758 0178 00000000 		.4byte	0x0
 3759              		.section	.debug_aranges,"",%progbits
 3760 0000 6C000000 		.4byte	0x6c
 3761 0004 0200     		.2byte	0x2
 3762 0006 00000000 		.4byte	.Ldebug_info0
 3763 000a 04       		.byte	0x4
 3764 000b 00       		.byte	0x0
 3765 000c 0000     		.2byte	0x0
 3766 000e 0000     		.2byte	0x0
 3767 0010 00000000 		.4byte	.LFB7
 3768 0014 2C000000 		.4byte	.LFE7-.LFB7
 3769 0018 00000000 		.4byte	.LFB8
 3770 001c 1A000000 		.4byte	.LFE8-.LFB8
 3771 0020 00000000 		.4byte	.LFB9
 3772 0024 2C000000 		.4byte	.LFE9-.LFB9
 3773 0028 00000000 		.4byte	.LFB10
 3774 002c 4C000000 		.4byte	.LFE10-.LFB10
 3775 0030 00000000 		.4byte	.LFB11
 3776 0034 48000000 		.4byte	.LFE11-.LFB11
 3777 0038 00000000 		.4byte	.LFB12
 3778 003c 72000000 		.4byte	.LFE12-.LFB12
 3779 0040 00000000 		.4byte	.LFB13
 3780 0044 18000000 		.4byte	.LFE13-.LFB13
 3781 0048 00000000 		.4byte	.LFB14
 3782 004c 2E000000 		.4byte	.LFE14-.LFB14
 3783 0050 00000000 		.4byte	.LFB15
 3784 0054 4E000000 		.4byte	.LFE15-.LFB15
 3785 0058 00000000 		.4byte	.LFB16
 3786 005c 48000000 		.4byte	.LFE16-.LFB16
 3787 0060 00000000 		.4byte	.LFB17
 3788 0064 80000000 		.4byte	.LFE17-.LFB17
 3789 0068 00000000 		.4byte	0x0
 3790 006c 00000000 		.4byte	0x0
 3791              		.section	.debug_ranges,"",%progbits
 3792              	.Ldebug_ranges0:
 3793 0000 14000000 		.4byte	.LBB12
 3794 0004 18000000 		.4byte	.LBE12
 3795 0008 1A000000 		.4byte	.LBB15
 3796 000c 20000000 		.4byte	.LBE15
 3797 0010 00000000 		.4byte	0x0
ARM GAS  /tmp/cchRNrHQ.s 			page 69


 3798 0014 00000000 		.4byte	0x0
 3799 0018 02000000 		.4byte	.LBB20
 3800 001c 04000000 		.4byte	.LBE20
 3801 0020 08000000 		.4byte	.LBB21
 3802 0024 0C000000 		.4byte	.LBE21
 3803 0028 00000000 		.4byte	0x0
 3804 002c 00000000 		.4byte	0x0
 3805 0030 00000000 		.4byte	.LFB7
 3806 0034 2C000000 		.4byte	.LFE7
 3807 0038 00000000 		.4byte	.LFB8
 3808 003c 1A000000 		.4byte	.LFE8
 3809 0040 00000000 		.4byte	.LFB9
 3810 0044 2C000000 		.4byte	.LFE9
 3811 0048 00000000 		.4byte	.LFB10
 3812 004c 4C000000 		.4byte	.LFE10
 3813 0050 00000000 		.4byte	.LFB11
 3814 0054 48000000 		.4byte	.LFE11
 3815 0058 00000000 		.4byte	.LFB12
 3816 005c 72000000 		.4byte	.LFE12
 3817 0060 00000000 		.4byte	.LFB13
 3818 0064 18000000 		.4byte	.LFE13
 3819 0068 00000000 		.4byte	.LFB14
 3820 006c 2E000000 		.4byte	.LFE14
 3821 0070 00000000 		.4byte	.LFB15
 3822 0074 4E000000 		.4byte	.LFE15
 3823 0078 00000000 		.4byte	.LFB16
 3824 007c 48000000 		.4byte	.LFE16
 3825 0080 00000000 		.4byte	.LFB17
 3826 0084 80000000 		.4byte	.LFE17
 3827 0088 00000000 		.4byte	0x0
 3828 008c 00000000 		.4byte	0x0
 3829              		.section	.debug_str,"MS",%progbits,1
 3830              	.LASF82:
 3831 0000 63684F51 		.ascii	"chOQInit\000"
 3831      496E6974 
 3831      00
 3832              	.LASF36:
 3833 0009 705F6D73 		.ascii	"p_msg\000"
 3833      6700
 3834              	.LASF92:
 3835 000f 71756575 		.ascii	"queue_insert\000"
 3835      655F696E 
 3835      73657274 
 3835      00
 3836              	.LASF83:
 3837 001c 6F6E6679 		.ascii	"onfy\000"
 3837      00
 3838              	.LASF2:
 3839 0021 73697A65 		.ascii	"size_t\000"
 3839      5F7400
 3840              	.LASF58:
 3841 0028 7264796D 		.ascii	"rdymsg\000"
 3841      736700
 3842              	.LASF77:
 3843 002f 63684951 		.ascii	"chIQInit\000"
 3843      496E6974 
 3843      00
ARM GAS  /tmp/cchRNrHQ.s 			page 70


 3844              	.LASF73:
 3845 0038 4F757470 		.ascii	"OutputQueue\000"
 3845      75745175 
 3845      65756500 
 3846              	.LASF81:
 3847 0044 63684951 		.ascii	"chIQReadTimeout\000"
 3847      52656164 
 3847      54696D65 
 3847      6F757400 
 3848              	.LASF12:
 3849 0054 6C6F6E67 		.ascii	"long long unsigned int\000"
 3849      206C6F6E 
 3849      6720756E 
 3849      7369676E 
 3849      65642069 
 3850              	.LASF59:
 3851 006b 65786974 		.ascii	"exitcode\000"
 3851      636F6465 
 3851      00
 3852              	.LASF25:
 3853 0074 705F7072 		.ascii	"p_prio\000"
 3853      696F00
 3854              	.LASF90:
 3855 007b 2E2E2F6C 		.ascii	"../libs/ChibiOS_2.4.0/os/kernel/src/chqueues.c\000"
 3855      6962732F 
 3855      43686962 
 3855      694F535F 
 3855      322E342E 
 3856              	.LASF64:
 3857 00aa 715F7761 		.ascii	"q_waiting\000"
 3857      6974696E 
 3857      6700
 3858              	.LASF11:
 3859 00b4 6C6F6E67 		.ascii	"long long int\000"
 3859      206C6F6E 
 3859      6720696E 
 3859      7400
 3860              	.LASF1:
 3861 00c2 7369676E 		.ascii	"signed char\000"
 3861      65642063 
 3861      68617200 
 3862              	.LASF40:
 3863 00ce 705F6D70 		.ascii	"p_mpool\000"
 3863      6F6F6C00 
 3864              	.LASF13:
 3865 00d6 626F6F6C 		.ascii	"bool_t\000"
 3865      5F7400
 3866              	.LASF55:
 3867 00dd 6D5F7175 		.ascii	"m_queue\000"
 3867      65756500 
 3868              	.LASF94:
 3869 00e5 71776169 		.ascii	"qwait\000"
 3869      7400
 3870              	.LASF8:
 3871 00eb 6C6F6E67 		.ascii	"long int\000"
 3871      20696E74 
 3871      00
ARM GAS  /tmp/cchRNrHQ.s 			page 71


 3872              	.LASF15:
 3873 00f4 74737461 		.ascii	"tstate_t\000"
 3873      74655F74 
 3873      00
 3874              	.LASF86:
 3875 00fd 63684F51 		.ascii	"chOQGetI\000"
 3875      47657449 
 3875      00
 3876              	.LASF66:
 3877 0106 715F6275 		.ascii	"q_buffer\000"
 3877      66666572 
 3877      00
 3878              	.LASF68:
 3879 010f 715F7772 		.ascii	"q_wrptr\000"
 3879      70747200 
 3880              	.LASF27:
 3881 0117 705F6E65 		.ascii	"p_newer\000"
 3881      77657200 
 3882              	.LASF49:
 3883 011f 725F6E65 		.ascii	"r_newer\000"
 3883      77657200 
 3884              	.LASF43:
 3885 0127 72656761 		.ascii	"regarm_t\000"
 3885      726D5F74 
 3885      00
 3886              	.LASF85:
 3887 0130 63684F51 		.ascii	"chOQPutTimeout\000"
 3887      50757454 
 3887      696D656F 
 3887      757400
 3888              	.LASF79:
 3889 013f 63684951 		.ascii	"chIQPutI\000"
 3889      50757449 
 3889      00
 3890              	.LASF21:
 3891 0148 636E745F 		.ascii	"cnt_t\000"
 3891      7400
 3892              	.LASF0:
 3893 014e 756E7369 		.ascii	"unsigned int\000"
 3893      676E6564 
 3893      20696E74 
 3893      00
 3894              	.LASF78:
 3895 015b 63684951 		.ascii	"chIQResetI\000"
 3895      52657365 
 3895      744900
 3896              	.LASF10:
 3897 0166 6C6F6E67 		.ascii	"long unsigned int\000"
 3897      20756E73 
 3897      69676E65 
 3897      6420696E 
 3897      7400
 3898              	.LASF45:
 3899 0178 636F6E74 		.ascii	"context\000"
 3899      65787400 
 3900              	.LASF75:
 3901 0180 73697A65 		.ascii	"size\000"
ARM GAS  /tmp/cchRNrHQ.s 			page 72


 3901      00
 3902              	.LASF6:
 3903 0185 73686F72 		.ascii	"short unsigned int\000"
 3903      7420756E 
 3903      7369676E 
 3903      65642069 
 3903      6E7400
 3904              	.LASF18:
 3905 0198 6D73675F 		.ascii	"msg_t\000"
 3905      7400
 3906              	.LASF14:
 3907 019e 746D6F64 		.ascii	"tmode_t\000"
 3907      655F7400 
 3908              	.LASF42:
 3909 01a6 54687265 		.ascii	"ThreadsList\000"
 3909      6164734C 
 3909      69737400 
 3910              	.LASF19:
 3911 01b2 6576656E 		.ascii	"eventmask_t\000"
 3911      746D6173 
 3911      6B5F7400 
 3912              	.LASF72:
 3913 01be 496E7075 		.ascii	"InputQueue\000"
 3913      74517565 
 3913      756500
 3914              	.LASF54:
 3915 01c9 4D757465 		.ascii	"Mutex\000"
 3915      7800
 3916              	.LASF63:
 3917 01cf 47656E65 		.ascii	"GenericQueue\000"
 3917      72696351 
 3917      75657565 
 3917      00
 3918              	.LASF87:
 3919 01dc 63684F51 		.ascii	"chOQWriteTimeout\000"
 3919      57726974 
 3919      6554696D 
 3919      656F7574 
 3919      00
 3920              	.LASF65:
 3921 01ed 715F636F 		.ascii	"q_counter\000"
 3921      756E7465 
 3921      7200
 3922              	.LASF28:
 3923 01f7 705F6F6C 		.ascii	"p_older\000"
 3923      64657200 
 3924              	.LASF48:
 3925 01ff 725F6374 		.ascii	"r_ctx\000"
 3925      7800
 3926              	.LASF41:
 3927 0205 54687265 		.ascii	"ThreadsQueue\000"
 3927      61647351 
 3927      75657565 
 3927      00
 3928              	.LASF74:
 3929 0212 74696D65 		.ascii	"time\000"
 3929      00
ARM GAS  /tmp/cchRNrHQ.s 			page 73


 3930              	.LASF52:
 3931 0217 725F6375 		.ascii	"r_current\000"
 3931      7272656E 
 3931      7400
 3932              	.LASF50:
 3933 0221 725F6F6C 		.ascii	"r_older\000"
 3933      64657200 
 3934              	.LASF16:
 3935 0229 74726566 		.ascii	"trefs_t\000"
 3935      735F7400 
 3936              	.LASF71:
 3937 0231 716E6F74 		.ascii	"qnotify_t\000"
 3937      6966795F 
 3937      7400
 3938              	.LASF24:
 3939 023b 705F7072 		.ascii	"p_prev\000"
 3939      657600
 3940              	.LASF17:
 3941 0242 74707269 		.ascii	"tprio_t\000"
 3941      6F5F7400 
 3942              	.LASF69:
 3943 024a 715F7264 		.ascii	"q_rdptr\000"
 3943      70747200 
 3944              	.LASF7:
 3945 0252 696E7433 		.ascii	"int32_t\000"
 3945      325F7400 
 3946              	.LASF4:
 3947 025a 756E7369 		.ascii	"unsigned char\000"
 3947      676E6564 
 3947      20636861 
 3947      7200
 3948              	.LASF38:
 3949 0268 705F6D74 		.ascii	"p_mtxlist\000"
 3949      786C6973 
 3949      7400
 3950              	.LASF5:
 3951 0272 73686F72 		.ascii	"short int\000"
 3951      7420696E 
 3951      7400
 3952              	.LASF30:
 3953 027c 705F7374 		.ascii	"p_state\000"
 3953      61746500 
 3954              	.LASF47:
 3955 0284 725F7072 		.ascii	"r_prio\000"
 3955      696F00
 3956              	.LASF61:
 3957 028b 65776D61 		.ascii	"ewmask\000"
 3957      736B00
 3958              	.LASF23:
 3959 0292 705F6E65 		.ascii	"p_next\000"
 3959      787400
 3960              	.LASF76:
 3961 0299 696E6679 		.ascii	"infy\000"
 3961      00
 3962              	.LASF31:
 3963 029e 705F666C 		.ascii	"p_flags\000"
 3963      61677300 
ARM GAS  /tmp/cchRNrHQ.s 			page 74


 3964              	.LASF22:
 3965 02a6 54687265 		.ascii	"Thread\000"
 3965      616400
 3966              	.LASF37:
 3967 02ad 705F6570 		.ascii	"p_epending\000"
 3967      656E6469 
 3967      6E6700
 3968              	.LASF9:
 3969 02b8 75696E74 		.ascii	"uint32_t\000"
 3969      33325F74 
 3969      00
 3970              	.LASF46:
 3971 02c1 725F7175 		.ascii	"r_queue\000"
 3971      65756500 
 3972              	.LASF62:
 3973 02c9 63686172 		.ascii	"char\000"
 3973      00
 3974              	.LASF93:
 3975 02ce 6669666F 		.ascii	"fifo_remove\000"
 3975      5F72656D 
 3975      6F766500 
 3976              	.LASF57:
 3977 02da 6D5F6E65 		.ascii	"m_next\000"
 3977      787400
 3978              	.LASF20:
 3979 02e1 73797374 		.ascii	"systime_t\000"
 3979      696D655F 
 3979      7400
 3980              	.LASF39:
 3981 02eb 705F7265 		.ascii	"p_realprio\000"
 3981      616C7072 
 3981      696F00
 3982              	.LASF84:
 3983 02f6 63684F51 		.ascii	"chOQResetI\000"
 3983      52657365 
 3983      744900
 3984              	.LASF33:
 3985 0301 705F7469 		.ascii	"p_time\000"
 3985      6D6500
 3986              	.LASF44:
 3987 0308 696E7463 		.ascii	"intctx\000"
 3987      747800
 3988              	.LASF35:
 3989 030f 705F6D73 		.ascii	"p_msgqueue\000"
 3989      67717565 
 3989      756500
 3990              	.LASF67:
 3991 031a 715F746F 		.ascii	"q_top\000"
 3991      7000
 3992              	.LASF32:
 3993 0320 705F7265 		.ascii	"p_refs\000"
 3993      667300
 3994              	.LASF53:
 3995 0327 52656164 		.ascii	"ReadyList\000"
 3995      794C6973 
 3995      7400
 3996              	.LASF70:
ARM GAS  /tmp/cchRNrHQ.s 			page 75


 3997 0331 715F6E6F 		.ascii	"q_notify\000"
 3997      74696679 
 3997      00
 3998              	.LASF88:
 3999 033a 726C6973 		.ascii	"rlist\000"
 3999      7400
 4000              	.LASF3:
 4001 0340 75696E74 		.ascii	"uint8_t\000"
 4001      385F7400 
 4002              	.LASF60:
 4003 0348 77746F62 		.ascii	"wtobjp\000"
 4003      6A7000
 4004              	.LASF89:
 4005 034f 474E5520 		.ascii	"GNU C 4.5.2\000"
 4005      4320342E 
 4005      352E3200 
 4006              	.LASF29:
 4007 035b 705F6E61 		.ascii	"p_name\000"
 4007      6D6500
 4008              	.LASF51:
 4009 0362 725F7072 		.ascii	"r_preempt\000"
 4009      65656D70 
 4009      7400
 4010              	.LASF56:
 4011 036c 6D5F6F77 		.ascii	"m_owner\000"
 4011      6E657200 
 4012              	.LASF26:
 4013 0374 705F6374 		.ascii	"p_ctx\000"
 4013      7800
 4014              	.LASF34:
 4015 037a 705F7761 		.ascii	"p_waiting\000"
 4015      6974696E 
 4015      6700
 4016              	.LASF80:
 4017 0384 63684951 		.ascii	"chIQGetTimeout\000"
 4017      47657454 
 4017      696D656F 
 4017      757400
 4018              	.LASF91:
 4019 0393 2F686F6D 		.ascii	"/home/stm32/Workspace/FirmwareSpykee\000"
 4019      652F7374 
 4019      6D33322F 
 4019      576F726B 
 4019      73706163 
 4020              		.ident	"GCC: (Sourcery G++ Lite 2011.03-42) 4.5.2"
ARM GAS  /tmp/cchRNrHQ.s 			page 76


DEFINED SYMBOLS
                            *ABS*:00000000 chqueues.c
     /tmp/cchRNrHQ.s:26     .text.qwait:00000000 $t
     /tmp/cchRNrHQ.s:31     .text.qwait:00000000 qwait
     /tmp/cchRNrHQ.s:88     .text.qwait:00000028 $d
     /tmp/cchRNrHQ.s:93     .text.chIQInit:00000000 $t
     /tmp/cchRNrHQ.s:99     .text.chIQInit:00000000 chIQInit
     /tmp/cchRNrHQ.s:136    .text.chIQResetI:00000000 $t
     /tmp/cchRNrHQ.s:142    .text.chIQResetI:00000000 chIQResetI
     /tmp/cchRNrHQ.s:202    .text.chIQPutI:00000000 $t
     /tmp/cchRNrHQ.s:208    .text.chIQPutI:00000000 chIQPutI
     /tmp/cchRNrHQ.s:290    .text.chIQGetTimeout:00000000 $t
     /tmp/cchRNrHQ.s:296    .text.chIQGetTimeout:00000000 chIQGetTimeout
     /tmp/cchRNrHQ.s:394    .text.chIQReadTimeout:00000000 $t
     /tmp/cchRNrHQ.s:400    .text.chIQReadTimeout:00000000 chIQReadTimeout
     /tmp/cchRNrHQ.s:525    .text.chOQInit:00000000 $t
     /tmp/cchRNrHQ.s:531    .text.chOQInit:00000000 chOQInit
     /tmp/cchRNrHQ.s:565    .text.chOQResetI:00000000 $t
     /tmp/cchRNrHQ.s:571    .text.chOQResetI:00000000 chOQResetI
     /tmp/cchRNrHQ.s:633    .text.chOQPutTimeout:00000000 $t
     /tmp/cchRNrHQ.s:639    .text.chOQPutTimeout:00000000 chOQPutTimeout
     /tmp/cchRNrHQ.s:739    .text.chOQGetI:00000000 $t
     /tmp/cchRNrHQ.s:745    .text.chOQGetI:00000000 chOQGetI
     /tmp/cchRNrHQ.s:825    .text.chOQWriteTimeout:00000000 $t
     /tmp/cchRNrHQ.s:831    .text.chOQWriteTimeout:00000000 chOQWriteTimeout
                     .debug_frame:00000010 $d
     /tmp/cchRNrHQ.s:92     .text.qwait:0000002c $t

UNDEFINED SYMBOLS
chSchGoSleepTimeoutS
rlist
chSchReadyI
