ARM GAS  /tmp/cchRNrHQ.s 			page 1


   1              		.syntax unified
   2              		.cpu cortex-m4
   3              		.eabi_attribute 27, 3
   4              		.eabi_attribute 28, 1
   5              		.fpu fpv4-sp-d16
   6              		.eabi_attribute 20, 1
   7              		.eabi_attribute 21, 1
   8              		.eabi_attribute 23, 3
   9              		.eabi_attribute 24, 1
  10              		.eabi_attribute 25, 1
  11              		.eabi_attribute 26, 1
  12              		.eabi_attribute 30, 2
  13              		.eabi_attribute 18, 4
  14              		.thumb
  15              		.file	"chqueues.c"
  22 0000 8F030000 		.text
  22      0200CD01 
  22      00000201 
  22      FB0E0D00 
  22      01010101 
  23              	.Ltext0:
  24              		.cfi_sections	.debug_frame
  25              		.section	.text.qwait,"ax",%progbits
  26              		.align	2
  27              		.p2align 4,,15
  28              		.thumb
  29              		.thumb_func
  30              		.type	qwait, %function
  31              	qwait:
  32              	.LFB7:
  33              		.file 1 "../libs/ChibiOS_2.4.0/os/kernel/src/chqueues.c"
  34              		.loc 1 72 0
  35              		.cfi_startproc
  36              		@ args = 0, pretend = 0, frame = 0
  37              		@ frame_needed = 0, uses_anonymous_args = 0
  38              		@ link register save eliminated.
  39              	.LVL0:
  40 0000 10B4     		push	{r4}
  41              	.LCFI0:
  42              		.cfi_def_cfa_offset 4
  43              		.loc 1 72 0
  44 0002 0346     		mov	r3, r0
  45              		.loc 1 74 0
  46 0004 19B9     		cbnz	r1, .L4
  47              		.cfi_offset 4, -4
  48              		.loc 1 79 0
  49 0006 4FF0FF30 		mov	r0, #-1
  50              	.LVL1:
  51 000a 10BC     		pop	{r4}
  52 000c 7047     		bx	lr
  53              	.L4:
ARM GAS  /tmp/cchRNrHQ.s 			page 2


  54              		.loc 1 76 0
  55 000e 064C     		ldr	r4, .L5
  56 0010 E269     		ldr	r2, [r4, #28]
  57 0012 5062     		str	r0, [r2, #36]
  58              	.LVL2:
  59              	.LBB12:
  60              	.LBB13:
  61              		.file 2 "../libs/ChibiOS_2.4.0/os/kernel/include/chinline.h"
  62              		.loc 2 55 0
  63 0014 4468     		ldr	r4, [r0, #4]
  64              	.LVL3:
  65              		.loc 2 54 0
  66 0016 1060     		str	r0, [r2, #0]
  67              	.LBE13:
  68              	.LBE12:
  69              		.loc 1 78 0
  70 0018 0D20     		movs	r0, #13
  71              	.LBB15:
  72              	.LBB14:
  73              		.loc 2 55 0
  74 001a 5460     		str	r4, [r2, #4]
  75              		.loc 2 56 0
  76 001c 5A60     		str	r2, [r3, #4]
  77 001e 2260     		str	r2, [r4, #0]
  78              	.LBE14:
  79              	.LBE15:
  80              		.loc 1 79 0
  81 0020 10BC     		pop	{r4}
  82              		.loc 1 78 0
  83 0022 FFF7FEBF 		b	chSchGoSleepTimeoutS
  84              	.LVL4:
  85              	.L6:
  86 0026 00BF     		.align	2
  87              	.L5:
  88 0028 00000000 		.word	rlist
  89              		.cfi_endproc
  90              	.LFE7:
  91              		.size	qwait, .-qwait
  92 002c AFF30080 		.section	.text.chIQInit,"ax",%progbits
  93              		.align	2
  94              		.p2align 4,,15
  95              		.global	chIQInit
  96              		.thumb
  97              		.thumb_func
  98              		.type	chIQInit, %function
  99              	chIQInit:
 100              	.LFB8:
 101              		.loc 1 96 0
 102              		.cfi_startproc
 103              		@ args = 0, pretend = 0, frame = 0
 104              		@ frame_needed = 0, uses_anonymous_args = 0
 105              		@ link register save eliminated.
 106              	.LVL5:
 107 0000 10B4     		push	{r4}
 108              	.LCFI1:
 109              		.cfi_def_cfa_offset 4
 110              		.loc 1 101 0
ARM GAS  /tmp/cchRNrHQ.s 			page 3


 111 0002 8A18     		adds	r2, r1, r2
 112              	.LVL6:
 113              		.loc 1 99 0
 114 0004 0024     		movs	r4, #0
 115              		.cfi_offset 4, -4
 116              		.loc 1 98 0
 117 0006 4060     		str	r0, [r0, #4]
 118 0008 0060     		str	r0, [r0, #0]
 119              		.loc 1 99 0
 120 000a 8460     		str	r4, [r0, #8]
 121              		.loc 1 100 0
 122 000c 4161     		str	r1, [r0, #20]
 123 000e 8161     		str	r1, [r0, #24]
 124 0010 C160     		str	r1, [r0, #12]
 125              		.loc 1 101 0
 126 0012 0261     		str	r2, [r0, #16]
 127              		.loc 1 102 0
 128 0014 C361     		str	r3, [r0, #28]
 129              		.loc 1 103 0
 130 0016 10BC     		pop	{r4}
 131 0018 7047     		bx	lr
 132              		.cfi_endproc
 133              	.LFE8:
 134              		.size	chIQInit, .-chIQInit
 135              		.section	.text.chIQResetI,"ax",%progbits
 136              		.align	2
 137              		.p2align 4,,15
 138              		.global	chIQResetI
 139              		.thumb
 140              		.thumb_func
 141              		.type	chIQResetI, %function
 142              	chIQResetI:
 143              	.LFB9:
 144              		.loc 1 116 0
 145              		.cfi_startproc
 146              		@ args = 0, pretend = 0, frame = 0
 147              		@ frame_needed = 0, uses_anonymous_args = 0
 148              	.LVL7:
 149 0000 38B5     		push	{r3, r4, r5, lr}
 150              	.LCFI2:
 151              		.cfi_def_cfa_offset 16
 152              		.loc 1 120 0
 153 0002 C168     		ldr	r1, [r0, #12]
 154              		.loc 1 116 0
 155 0004 0446     		mov	r4, r0
 156              		.cfi_offset 14, -4
 157              		.cfi_offset 5, -8
 158              		.cfi_offset 4, -12
 159              		.cfi_offset 3, -16
 160              		.loc 1 122 0
 161 0006 0068     		ldr	r0, [r0, #0]
 162              	.LVL8:
 163              		.loc 1 120 0
 164 0008 6161     		str	r1, [r4, #20]
 165              		.loc 1 121 0
 166 000a 0023     		movs	r3, #0
 167              		.loc 1 122 0
ARM GAS  /tmp/cchRNrHQ.s 			page 4


 168 000c A042     		cmp	r0, r4
 169              		.loc 1 120 0
 170 000e A161     		str	r1, [r4, #24]
 171              		.loc 1 121 0
 172 0010 A360     		str	r3, [r4, #8]
 173              		.loc 1 122 0
 174 0012 0AD0     		beq	.L8
 175              		.loc 1 123 0
 176 0014 6FF00105 		mvn	r5, #1
 177              	.L11:
 178              	.LVL9:
 179              	.LBB16:
 180              	.LBB17:
 181              		.loc 2 62 0
 182 0018 0268     		ldr	r2, [r0, #0]
 183 001a 2260     		str	r2, [r4, #0]
 184 001c 5460     		str	r4, [r2, #4]
 185              	.LBE17:
 186              	.LBE16:
 187              		.loc 1 123 0
 188 001e FFF7FEFF 		bl	chSchReadyI
 189              	.LVL10:
 190 0022 4562     		str	r5, [r0, #36]
 191              		.loc 1 122 0
 192 0024 2068     		ldr	r0, [r4, #0]
 193 0026 A042     		cmp	r0, r4
 194 0028 F6D1     		bne	.L11
 195              	.LVL11:
 196              	.L8:
 197 002a 38BD     		pop	{r3, r4, r5, pc}
 198              		.cfi_endproc
 199              	.LFE9:
 200              		.size	chIQResetI, .-chIQResetI
 201 002c AFF30080 		.section	.text.chIQPutI,"ax",%progbits
 202              		.align	2
 203              		.p2align 4,,15
 204              		.global	chIQPutI
 205              		.thumb
 206              		.thumb_func
 207              		.type	chIQPutI, %function
 208              	chIQPutI:
 209              	.LFB10:
 210              		.loc 1 139 0
 211              		.cfi_startproc
 212              		@ args = 0, pretend = 0, frame = 0
 213              		@ frame_needed = 0, uses_anonymous_args = 0
 214              	.LVL12:
 215              		.loc 1 143 0
 216 0000 4269     		ldr	r2, [r0, #20]
 217              		.loc 1 139 0
 218 0002 08B5     		push	{r3, lr}
 219              	.LCFI3:
 220              		.cfi_def_cfa_offset 8
 221              		.loc 1 139 0
 222 0004 0346     		mov	r3, r0
 223              		.cfi_offset 14, -4
 224              		.cfi_offset 3, -8
ARM GAS  /tmp/cchRNrHQ.s 			page 5


 225              		.loc 1 143 0
 226 0006 8069     		ldr	r0, [r0, #24]
 227              	.LVL13:
 228 0008 8242     		cmp	r2, r0
 229 000a 19D0     		beq	.L14
 230 000c 9868     		ldr	r0, [r3, #8]
 231              	.L15:
 232              		.loc 1 146 0
 233 000e 0130     		adds	r0, r0, #1
 234 0010 9860     		str	r0, [r3, #8]
 235              		.loc 1 147 0
 236 0012 02F8011B 		strb	r1, [r2], #1
 237              		.loc 1 148 0
 238 0016 1969     		ldr	r1, [r3, #16]
 239              	.LVL14:
 240              		.loc 1 147 0
 241 0018 5A61     		str	r2, [r3, #20]
 242              		.loc 1 148 0
 243 001a 8A42     		cmp	r2, r1
 244              		.loc 1 149 0
 245 001c 28BF     		it	cs
 246 001e DA68     		ldrcs	r2, [r3, #12]
 247              		.loc 1 151 0
 248 0020 1868     		ldr	r0, [r3, #0]
 249              		.loc 1 149 0
 250 0022 28BF     		it	cs
 251 0024 5A61     		strcs	r2, [r3, #20]
 252              		.loc 1 151 0
 253 0026 9842     		cmp	r0, r3
 254 0028 08D0     		beq	.L19
 255              	.LVL15:
 256              	.LBB18:
 257              	.LBB19:
 258              		.loc 2 62 0
 259 002a 0268     		ldr	r2, [r0, #0]
 260 002c 1A60     		str	r2, [r3, #0]
 261 002e 5360     		str	r3, [r2, #4]
 262              	.LBE19:
 263              	.LBE18:
 264              		.loc 1 152 0
 265 0030 FFF7FEFF 		bl	chSchReadyI
 266              	.LVL16:
 267 0034 0023     		movs	r3, #0
 268 0036 4362     		str	r3, [r0, #36]
 269              		.loc 1 154 0
 270 0038 1846     		mov	r0, r3
 271 003a 08BD     		pop	{r3, pc}
 272              	.LVL17:
 273              	.L19:
 274 003c 0020     		movs	r0, #0
 275              		.loc 1 155 0
 276 003e 08BD     		pop	{r3, pc}
 277              	.LVL18:
 278              	.L14:
 279              		.loc 1 143 0 discriminator 1
 280 0040 9868     		ldr	r0, [r3, #8]
 281 0042 0028     		cmp	r0, #0
ARM GAS  /tmp/cchRNrHQ.s 			page 6


 282 0044 E3D0     		beq	.L15
 283              		.loc 1 144 0
 284 0046 6FF00300 		mvn	r0, #3
 285 004a 08BD     		pop	{r3, pc}
 286              		.cfi_endproc
 287              	.LFE10:
 288              		.size	chIQPutI, .-chIQPutI
 289 004c AFF30080 		.section	.text.chIQGetTimeout,"ax",%progbits
 290              		.align	2
 291              		.p2align 4,,15
 292              		.global	chIQGetTimeout
 293              		.thumb
 294              		.thumb_func
 295              		.type	chIQGetTimeout, %function
 296              	chIQGetTimeout:
 297              	.LFB11:
 298              		.loc 1 177 0
 299              		.cfi_startproc
 300              		@ args = 0, pretend = 0, frame = 0
 301              		@ frame_needed = 0, uses_anonymous_args = 0
 302              	.LVL19:
 303 0000 70B5     		push	{r4, r5, r6, lr}
 304              	.LCFI4:
 305              		.cfi_def_cfa_offset 16
 306              	.LBB20:
 307              		.loc 1 180 0
 308 0002 2023     		movs	r3, #32
 309              	.LVL20:
 310              	.LBE20:
 311              		.loc 1 177 0
 312 0004 0446     		mov	r4, r0
 313              		.cfi_offset 14, -4
 314              		.cfi_offset 6, -8
 315              		.cfi_offset 5, -12
 316              		.cfi_offset 4, -16
 317 0006 0D46     		mov	r5, r1
 318              	.LBB21:
 319              		.loc 1 180 0
 320              	@ 180 "../libs/ChibiOS_2.4.0/os/kernel/src/chqueues.c" 1
 321 0008 83F31188 		msr     BASEPRI, r3
 322              	@ 0 "" 2
 323              	.LVL21:
 324              		.thumb
 325              	.LBE21:
 326              		.loc 1 181 0
 327 000c C369     		ldr	r3, [r0, #28]
 328              	.LVL22:
 329 000e 03B1     		cbz	r3, .L26
 330              		.loc 1 182 0
 331 0010 9847     		blx	r3
 332              	.LVL23:
 333              	.L26:
 334              		.loc 1 184 0 discriminator 1
 335 0012 A668     		ldr	r6, [r4, #8]
 336 0014 4EB9     		cbnz	r6, .L28
 337              	.LBB22:
 338              		.loc 1 186 0
ARM GAS  /tmp/cchRNrHQ.s 			page 7


 339 0016 2046     		mov	r0, r4
 340 0018 2946     		mov	r1, r5
 341 001a FFF7FEFF 		bl	qwait
 342              	.LVL24:
 343 001e 0028     		cmp	r0, #0
 344 0020 F7DA     		bge	.L26
 345              	.LBB23:
 346              		.loc 1 187 0
 347 0022 3346     		mov	r3, r6
 348              	.LVL25:
 349              	@ 187 "../libs/ChibiOS_2.4.0/os/kernel/src/chqueues.c" 1
 350 0024 83F31188 		msr     BASEPRI, r3
 351              	@ 0 "" 2
 352              	.LVL26:
 353              		.thumb
 354              	.LBE23:
 355              		.loc 1 188 0
 356 0028 70BD     		pop	{r4, r5, r6, pc}
 357              	.LVL27:
 358              	.L28:
 359              	.LBE22:
 360              		.loc 1 193 0
 361 002a A369     		ldr	r3, [r4, #24]
 362              		.loc 1 194 0
 363 002c 2269     		ldr	r2, [r4, #16]
 364              		.loc 1 192 0
 365 002e 013E     		subs	r6, r6, #1
 366 0030 A660     		str	r6, [r4, #8]
 367              		.loc 1 193 0
 368 0032 13F8010B 		ldrb	r0, [r3], #1	@ zero_extendqisi2
 369              	.LVL28:
 370              		.loc 1 194 0
 371 0036 9342     		cmp	r3, r2
 372              		.loc 1 193 0
 373 0038 A361     		str	r3, [r4, #24]
 374              		.loc 1 195 0
 375 003a 24BF     		itt	cs
 376 003c E368     		ldrcs	r3, [r4, #12]
 377 003e A361     		strcs	r3, [r4, #24]
 378              	.LBB24:
 379              		.loc 1 197 0
 380 0040 0023     		movs	r3, #0
 381              	.LVL29:
 382              	@ 197 "../libs/ChibiOS_2.4.0/os/kernel/src/chqueues.c" 1
 383 0042 83F31188 		msr     BASEPRI, r3
 384              	@ 0 "" 2
 385              	.LVL30:
 386              		.thumb
 387              	.LBE24:
 388              		.loc 1 199 0
 389 0046 70BD     		pop	{r4, r5, r6, pc}
 390              		.cfi_endproc
 391              	.LFE11:
 392              		.size	chIQGetTimeout, .-chIQGetTimeout
 393 0048 AFF30080 		.section	.text.chIQReadTimeout,"ax",%progbits
 393      AFF30080 
 394              		.align	2
ARM GAS  /tmp/cchRNrHQ.s 			page 8


 395              		.p2align 4,,15
 396              		.global	chIQReadTimeout
 397              		.thumb
 398              		.thumb_func
 399              		.type	chIQReadTimeout, %function
 400              	chIQReadTimeout:
 401              	.LFB12:
 402              		.loc 1 226 0
 403              		.cfi_startproc
 404              		@ args = 0, pretend = 0, frame = 0
 405              		@ frame_needed = 0, uses_anonymous_args = 0
 406              	.LVL31:
 407 0000 2DE9F047 		push	{r4, r5, r6, r7, r8, r9, sl, lr}
 408              	.LCFI5:
 409              		.cfi_def_cfa_offset 32
 410              		.loc 1 226 0
 411 0004 1D46     		mov	r5, r3
 412              		.cfi_offset 14, -4
 413              		.cfi_offset 10, -8
 414              		.cfi_offset 9, -12
 415              		.cfi_offset 8, -16
 416              		.cfi_offset 7, -20
 417              		.cfi_offset 6, -24
 418              		.cfi_offset 5, -28
 419              		.cfi_offset 4, -32
 420 0006 0446     		mov	r4, r0
 421 0008 0E46     		mov	r6, r1
 422 000a 9146     		mov	r9, r2
 423              		.loc 1 227 0
 424 000c D0F81C80 		ldr	r8, [r0, #28]
 425              	.LVL32:
 426              	.LBB25:
 427              		.loc 1 232 0
 428 0010 2023     		movs	r3, #32
 429              	.LVL33:
 430              	@ 232 "../libs/ChibiOS_2.4.0/os/kernel/src/chqueues.c" 1
 431 0012 83F31188 		msr     BASEPRI, r3
 432              	@ 0 "" 2
 433              	.LVL34:
 434              		.loc 1 228 0
 435              		.thumb
 436 0016 0027     		movs	r7, #0
 437              	.LVL35:
 438              	.L35:
 439              	.LBE25:
 440              		.loc 1 234 0
 441 0018 B8F1000F 		cmp	r8, #0
 442 001c 01D0     		beq	.L36
 443              		.loc 1 235 0
 444 001e 2046     		mov	r0, r4
 445 0020 C047     		blx	r8
 446              	.LVL36:
 447              	.L36:
 448              		.loc 1 237 0 discriminator 1
 449 0022 D4F808A0 		ldr	sl, [r4, #8]
 450 0026 BAF1000F 		cmp	sl, #0
 451 002a 0BD1     		bne	.L38
ARM GAS  /tmp/cchRNrHQ.s 			page 9


 452              		.loc 1 238 0
 453 002c 2046     		mov	r0, r4
 454 002e 2946     		mov	r1, r5
 455 0030 FFF7FEFF 		bl	qwait
 456              	.LVL37:
 457 0034 0028     		cmp	r0, #0
 458 0036 F4D0     		beq	.L36
 459              	.LBB26:
 460              		.loc 1 239 0
 461 0038 5346     		mov	r3, sl
 462              	.LVL38:
 463              	@ 239 "../libs/ChibiOS_2.4.0/os/kernel/src/chqueues.c" 1
 464 003a 83F31188 		msr     BASEPRI, r3
 465              	@ 0 "" 2
 466              	.LVL39:
 467              		.thumb
 468              	.L32:
 469              	.LBE26:
 470              		.loc 1 256 0
 471 003e 3846     		mov	r0, r7
 472 0040 BDE8F087 		pop	{r4, r5, r6, r7, r8, r9, sl, pc}
 473              	.LVL40:
 474              	.L38:
 475              		.loc 1 245 0
 476 0044 A369     		ldr	r3, [r4, #24]
 477              	.LVL41:
 478              		.loc 1 244 0
 479 0046 0AF1FF31 		add	r1, sl, #-1
 480 004a A160     		str	r1, [r4, #8]
 481              		.loc 1 245 0
 482 004c 13F8010B 		ldrb	r0, [r3], #1	@ zero_extendqisi2
 483 0050 F055     		strb	r0, [r6, r7]
 484              		.loc 1 246 0
 485 0052 2269     		ldr	r2, [r4, #16]
 486              		.loc 1 245 0
 487 0054 A361     		str	r3, [r4, #24]
 488              		.loc 1 246 0
 489 0056 9342     		cmp	r3, r2
 490              		.loc 1 247 0
 491 0058 24BF     		itt	cs
 492 005a E368     		ldrcs	r3, [r4, #12]
 493 005c A361     		strcs	r3, [r4, #24]
 494              	.LBB27:
 495              		.loc 1 249 0
 496 005e 0023     		movs	r3, #0
 497              	@ 249 "../libs/ChibiOS_2.4.0/os/kernel/src/chqueues.c" 1
 498 0060 83F31188 		msr     BASEPRI, r3
 499              	@ 0 "" 2
 500              	.LVL42:
 501              		.thumb
 502              	.LBE27:
 503              		.loc 1 250 0
 504 0064 0137     		adds	r7, r7, #1
 505              	.LVL43:
 506              		.loc 1 251 0
 507 0066 4F45     		cmp	r7, r9
 508 0068 E9D0     		beq	.L32
ARM GAS  /tmp/cchRNrHQ.s 			page 10


 509              	.LBB28:
 510              		.loc 1 254 0
 511 006a 2023     		movs	r3, #32
 512              	.LVL44:
 513              	@ 254 "../libs/ChibiOS_2.4.0/os/kernel/src/chqueues.c" 1
 514 006c 83F31188 		msr     BASEPRI, r3
 515              	@ 0 "" 2
 516              	.LVL45:
 517              		.thumb
 518              	.LBE28:
 519              		.loc 1 255 0
 520 0070 D2E7     		b	.L35
 521              		.cfi_endproc
 522              	.LFE12:
 523              		.size	chIQReadTimeout, .-chIQReadTimeout
 524 0072 00BFAFF3 		.section	.text.chOQInit,"ax",%progbits
 524      0080AFF3 
 524      0080AFF3 
 524      0080
 525              		.align	2
 526              		.p2align 4,,15
 527              		.global	chOQInit
 528              		.thumb
 529              		.thumb_func
 530              		.type	chOQInit, %function
 531              	chOQInit:
 532              	.LFB13:
 533              		.loc 1 273 0
 534              		.cfi_startproc
 535              		@ args = 0, pretend = 0, frame = 0
 536              		@ frame_needed = 0, uses_anonymous_args = 0
 537              		@ link register save eliminated.
 538              	.LVL46:
 539 0000 10B4     		push	{r4}
 540              	.LCFI6:
 541              		.cfi_def_cfa_offset 4
 542              		.loc 1 278 0
 543 0002 8C18     		adds	r4, r1, r2
 544              		.cfi_offset 4, -4
 545              		.loc 1 275 0
 546 0004 4060     		str	r0, [r0, #4]
 547 0006 0060     		str	r0, [r0, #0]
 548              		.loc 1 276 0
 549 0008 8260     		str	r2, [r0, #8]
 550              		.loc 1 277 0
 551 000a 4161     		str	r1, [r0, #20]
 552 000c 8161     		str	r1, [r0, #24]
 553 000e C160     		str	r1, [r0, #12]
 554              		.loc 1 278 0
 555 0010 0461     		str	r4, [r0, #16]
 556              		.loc 1 279 0
 557 0012 C361     		str	r3, [r0, #28]
 558              		.loc 1 280 0
 559 0014 10BC     		pop	{r4}
 560 0016 7047     		bx	lr
 561              		.cfi_endproc
 562              	.LFE13:
ARM GAS  /tmp/cchRNrHQ.s 			page 11


 563              		.size	chOQInit, .-chOQInit
 564 0018 AFF30080 		.section	.text.chOQResetI,"ax",%progbits
 564      AFF30080 
 565              		.align	2
 566              		.p2align 4,,15
 567              		.global	chOQResetI
 568              		.thumb
 569              		.thumb_func
 570              		.type	chOQResetI, %function
 571              	chOQResetI:
 572              	.LFB14:
 573              		.loc 1 293 0
 574              		.cfi_startproc
 575              		@ args = 0, pretend = 0, frame = 0
 576              		@ frame_needed = 0, uses_anonymous_args = 0
 577              	.LVL47:
 578 0000 38B5     		push	{r3, r4, r5, lr}
 579              	.LCFI7:
 580              		.cfi_def_cfa_offset 16
 581              		.loc 1 298 0
 582 0002 0169     		ldr	r1, [r0, #16]
 583              		.loc 1 297 0
 584 0004 C368     		ldr	r3, [r0, #12]
 585              		.cfi_offset 14, -4
 586              		.cfi_offset 5, -8
 587              		.cfi_offset 4, -12
 588              		.cfi_offset 3, -16
 589              		.loc 1 293 0
 590 0006 0446     		mov	r4, r0
 591              		.loc 1 299 0
 592 0008 0068     		ldr	r0, [r0, #0]
 593              	.LVL48:
 594              		.loc 1 297 0
 595 000a 6361     		str	r3, [r4, #20]
 596              		.loc 1 298 0
 597 000c CA1A     		subs	r2, r1, r3
 598              		.loc 1 299 0
 599 000e A042     		cmp	r0, r4
 600              		.loc 1 297 0
 601 0010 A361     		str	r3, [r4, #24]
 602              		.loc 1 298 0
 603 0012 A260     		str	r2, [r4, #8]
 604              		.loc 1 299 0
 605 0014 0AD0     		beq	.L40
 606              		.loc 1 300 0
 607 0016 6FF00105 		mvn	r5, #1
 608              	.L43:
 609              	.LVL49:
 610              	.LBB29:
 611              	.LBB30:
 612              		.loc 2 62 0
 613 001a 0268     		ldr	r2, [r0, #0]
 614 001c 2260     		str	r2, [r4, #0]
 615 001e 5460     		str	r4, [r2, #4]
 616              	.LBE30:
 617              	.LBE29:
 618              		.loc 1 300 0
ARM GAS  /tmp/cchRNrHQ.s 			page 12


 619 0020 FFF7FEFF 		bl	chSchReadyI
 620              	.LVL50:
 621 0024 4562     		str	r5, [r0, #36]
 622              		.loc 1 299 0
 623 0026 2068     		ldr	r0, [r4, #0]
 624 0028 A042     		cmp	r0, r4
 625 002a F6D1     		bne	.L43
 626              	.LVL51:
 627              	.L40:
 628 002c 38BD     		pop	{r3, r4, r5, pc}
 629              		.cfi_endproc
 630              	.LFE14:
 631              		.size	chOQResetI, .-chOQResetI
 632 002e 00BF     		.section	.text.chOQPutTimeout,"ax",%progbits
 633              		.align	2
 634              		.p2align 4,,15
 635              		.global	chOQPutTimeout
 636              		.thumb
 637              		.thumb_func
 638              		.type	chOQPutTimeout, %function
 639              	chOQPutTimeout:
 640              	.LFB15:
 641              		.loc 1 325 0
 642              		.cfi_startproc
 643              		@ args = 0, pretend = 0, frame = 0
 644              		@ frame_needed = 0, uses_anonymous_args = 0
 645              	.LVL52:
 646 0000 F8B5     		push	{r3, r4, r5, r6, r7, lr}
 647              	.LCFI8:
 648              		.cfi_def_cfa_offset 24
 649              		.loc 1 325 0
 650 0002 0446     		mov	r4, r0
 651              		.cfi_offset 14, -4
 652              		.cfi_offset 7, -8
 653              		.cfi_offset 6, -12
 654              		.cfi_offset 5, -16
 655              		.cfi_offset 4, -20
 656              		.cfi_offset 3, -24
 657 0004 0D46     		mov	r5, r1
 658 0006 1646     		mov	r6, r2
 659              	.LBB31:
 660              		.loc 1 327 0
 661 0008 2023     		movs	r3, #32
 662              	.LVL53:
 663              	@ 327 "../libs/ChibiOS_2.4.0/os/kernel/src/chqueues.c" 1
 664 000a 83F31188 		msr     BASEPRI, r3
 665              	@ 0 "" 2
 666              	.LVL54:
 667              		.thumb
 668              	.L46:
 669              	.LBE31:
 670              		.loc 1 328 0 discriminator 1
 671 000e A768     		ldr	r7, [r4, #8]
 672 0010 4FB9     		cbnz	r7, .L52
 673              	.LBB32:
 674              		.loc 1 331 0
 675 0012 2046     		mov	r0, r4
ARM GAS  /tmp/cchRNrHQ.s 			page 13


 676 0014 3146     		mov	r1, r6
 677 0016 FFF7FEFF 		bl	qwait
 678              	.LVL55:
 679 001a 0028     		cmp	r0, #0
 680 001c F7DA     		bge	.L46
 681              	.LBB33:
 682              		.loc 1 332 0
 683 001e 3B46     		mov	r3, r7
 684              	.LVL56:
 685              	@ 332 "../libs/ChibiOS_2.4.0/os/kernel/src/chqueues.c" 1
 686 0020 83F31188 		msr     BASEPRI, r3
 687              	@ 0 "" 2
 688              	.LVL57:
 689              		.thumb
 690              	.LBE33:
 691              		.loc 1 333 0
 692 0024 F8BD     		pop	{r3, r4, r5, r6, r7, pc}
 693              	.LVL58:
 694              	.L52:
 695              	.LBE32:
 696              		.loc 1 338 0
 697 0026 6369     		ldr	r3, [r4, #20]
 698              	.LVL59:
 699              		.loc 1 337 0
 700 0028 013F     		subs	r7, r7, #1
 701 002a A760     		str	r7, [r4, #8]
 702              		.loc 1 338 0
 703 002c 03F8015B 		strb	r5, [r3], #1
 704              		.loc 1 339 0
 705 0030 2269     		ldr	r2, [r4, #16]
 706              		.loc 1 338 0
 707 0032 6361     		str	r3, [r4, #20]
 708              		.loc 1 339 0
 709 0034 9342     		cmp	r3, r2
 710              		.loc 1 340 0
 711 0036 24BF     		itt	cs
 712 0038 E368     		ldrcs	r3, [r4, #12]
 713 003a 6361     		strcs	r3, [r4, #20]
 714              		.loc 1 342 0
 715 003c E369     		ldr	r3, [r4, #28]
 716 003e 0BB1     		cbz	r3, .L50
 717              		.loc 1 343 0
 718 0040 2046     		mov	r0, r4
 719 0042 9847     		blx	r3
 720              	.L50:
 721              	.LBB34:
 722              		.loc 1 345 0
 723 0044 0023     		movs	r3, #0
 724              	.LVL60:
 725              	@ 345 "../libs/ChibiOS_2.4.0/os/kernel/src/chqueues.c" 1
 726 0046 83F31188 		msr     BASEPRI, r3
 727              	@ 0 "" 2
 728              	.LVL61:
 729              		.thumb
 730              	.LBE34:
 731              		.loc 1 346 0
 732 004a 1846     		mov	r0, r3
ARM GAS  /tmp/cchRNrHQ.s 			page 14


 733              		.loc 1 347 0
 734 004c F8BD     		pop	{r3, r4, r5, r6, r7, pc}
 735              		.cfi_endproc
 736              	.LFE15:
 737              		.size	chOQPutTimeout, .-chOQPutTimeout
 738 004e 00BF     		.section	.text.chOQGetI,"ax",%progbits
 739              		.align	2
 740              		.p2align 4,,15
 741              		.global	chOQGetI
 742              		.thumb
 743              		.thumb_func
 744              		.type	chOQGetI, %function
 745              	chOQGetI:
 746              	.LFB16:
 747              		.loc 1 359 0
 748              		.cfi_startproc
 749              		@ args = 0, pretend = 0, frame = 0
 750              		@ frame_needed = 0, uses_anonymous_args = 0
 751              	.LVL62:
 752              		.loc 1 364 0
 753 0000 8269     		ldr	r2, [r0, #24]
 754 0002 4169     		ldr	r1, [r0, #20]
 755 0004 9142     		cmp	r1, r2
 756              		.loc 1 359 0
 757 0006 10B5     		push	{r4, lr}
 758              	.LCFI9:
 759              		.cfi_def_cfa_offset 8
 760              		.loc 1 359 0
 761 0008 0346     		mov	r3, r0
 762              		.loc 1 364 0
 763 000a 17D0     		beq	.L54
 764              		.cfi_offset 14, -4
 765              		.cfi_offset 4, -8
 766 000c 8168     		ldr	r1, [r0, #8]
 767              	.L55:
 768              		.loc 1 367 0
 769 000e 4C1C     		adds	r4, r1, #1
 770 0010 9C60     		str	r4, [r3, #8]
 771              		.loc 1 368 0
 772 0012 12F8014B 		ldrb	r4, [r2], #1	@ zero_extendqisi2
 773              	.LVL63:
 774              		.loc 1 369 0
 775 0016 1869     		ldr	r0, [r3, #16]
 776              	.LVL64:
 777              		.loc 1 368 0
 778 0018 9A61     		str	r2, [r3, #24]
 779              		.loc 1 369 0
 780 001a 8242     		cmp	r2, r0
 781              		.loc 1 370 0
 782 001c 28BF     		it	cs
 783 001e DA68     		ldrcs	r2, [r3, #12]
 784              		.loc 1 372 0
 785 0020 1868     		ldr	r0, [r3, #0]
 786              		.loc 1 370 0
 787 0022 28BF     		it	cs
 788 0024 9A61     		strcs	r2, [r3, #24]
 789              		.loc 1 372 0
ARM GAS  /tmp/cchRNrHQ.s 			page 15


 790 0026 9842     		cmp	r0, r3
 791 0028 06D0     		beq	.L58
 792              	.LVL65:
 793              	.LBB35:
 794              	.LBB36:
 795              		.loc 2 62 0
 796 002a 0268     		ldr	r2, [r0, #0]
 797 002c 1A60     		str	r2, [r3, #0]
 798 002e 5360     		str	r3, [r2, #4]
 799              	.LBE36:
 800              	.LBE35:
 801              		.loc 1 373 0
 802 0030 FFF7FEFF 		bl	chSchReadyI
 803              	.LVL66:
 804 0034 0023     		movs	r3, #0
 805 0036 4362     		str	r3, [r0, #36]
 806              	.L58:
 807              		.loc 1 375 0
 808 0038 2046     		mov	r0, r4
 809 003a 10BD     		pop	{r4, pc}
 810              	.LVL67:
 811              	.L54:
 812              		.loc 1 364 0 discriminator 1
 813 003c 8168     		ldr	r1, [r0, #8]
 814 003e 0029     		cmp	r1, #0
 815 0040 E5D0     		beq	.L55
 816              		.loc 1 365 0
 817 0042 6FF00200 		mvn	r0, #2
 818              	.LVL68:
 819              		.loc 1 376 0
 820 0046 10BD     		pop	{r4, pc}
 821              		.cfi_endproc
 822              	.LFE16:
 823              		.size	chOQGetI, .-chOQGetI
 824 0048 AFF30080 		.section	.text.chOQWriteTimeout,"ax",%progbits
 824      AFF30080 
 825              		.align	2
 826              		.p2align 4,,15
 827              		.global	chOQWriteTimeout
 828              		.thumb
 829              		.thumb_func
 830              		.type	chOQWriteTimeout, %function
 831              	chOQWriteTimeout:
 832              	.LFB17:
 833              		.loc 1 403 0
 834              		.cfi_startproc
 835              		@ args = 0, pretend = 0, frame = 0
 836              		@ frame_needed = 0, uses_anonymous_args = 0
 837              	.LVL69:
 838 0000 2DE9F047 		push	{r4, r5, r6, r7, r8, r9, sl, lr}
 839              	.LCFI10:
 840              		.cfi_def_cfa_offset 32
 841              		.loc 1 403 0
 842 0004 1E46     		mov	r6, r3
 843              		.cfi_offset 14, -4
 844              		.cfi_offset 10, -8
 845              		.cfi_offset 9, -12
ARM GAS  /tmp/cchRNrHQ.s 			page 16


 846              		.cfi_offset 8, -16
 847              		.cfi_offset 7, -20
 848              		.cfi_offset 6, -24
 849              		.cfi_offset 5, -28
 850              		.cfi_offset 4, -32
 851 0006 0446     		mov	r4, r0
 852 0008 0D46     		mov	r5, r1
 853 000a 1746     		mov	r7, r2
 854              		.loc 1 404 0
 855 000c D0F81C90 		ldr	r9, [r0, #28]
 856              	.LVL70:
 857              	.LBB37:
 858              		.loc 1 409 0
 859 0010 2023     		movs	r3, #32
 860              	.LVL71:
 861              	@ 409 "../libs/ChibiOS_2.4.0/os/kernel/src/chqueues.c" 1
 862 0012 83F31188 		msr     BASEPRI, r3
 863              	@ 0 "" 2
 864              	.LVL72:
 865              		.loc 1 405 0
 866              		.thumb
 867 0016 4FF00008 		mov	r8, #0
 868              	.LVL73:
 869              	.L69:
 870              	.LBE37:
 871              		.loc 1 411 0 discriminator 1
 872 001a D4F808A0 		ldr	sl, [r4, #8]
 873 001e BAF1000F 		cmp	sl, #0
 874 0022 21D0     		beq	.L64
 875              	.LVL74:
 876              	.L70:
 877              		.loc 1 417 0
 878 0024 0AF1FF31 		add	r1, sl, #-1
 879 0028 A160     		str	r1, [r4, #8]
 880              		.loc 1 418 0
 881 002a 6369     		ldr	r3, [r4, #20]
 882              	.LVL75:
 883 002c 2878     		ldrb	r0, [r5, #0]	@ zero_extendqisi2
 884 002e 03F8010B 		strb	r0, [r3], #1
 885              		.loc 1 419 0
 886 0032 2269     		ldr	r2, [r4, #16]
 887              		.loc 1 418 0
 888 0034 6361     		str	r3, [r4, #20]
 889              	.LVL76:
 890              		.loc 1 419 0
 891 0036 9342     		cmp	r3, r2
 892              		.loc 1 420 0
 893 0038 24BF     		itt	cs
 894 003a E368     		ldrcs	r3, [r4, #12]
 895 003c 6361     		strcs	r3, [r4, #20]
 896              		.loc 1 422 0
 897 003e B9F1000F 		cmp	r9, #0
 898 0042 01D0     		beq	.L66
 899              		.loc 1 423 0
 900 0044 2046     		mov	r0, r4
 901 0046 C847     		blx	r9
 902              	.L66:
ARM GAS  /tmp/cchRNrHQ.s 			page 17


 903              	.LBB38:
 904              		.loc 1 425 0
 905 0048 0023     		movs	r3, #0
 906              	.LVL77:
 907              	@ 425 "../libs/ChibiOS_2.4.0/os/kernel/src/chqueues.c" 1
 908 004a 83F31188 		msr     BASEPRI, r3
 909              	@ 0 "" 2
 910              	.LVL78:
 911              		.thumb
 912              	.LBE38:
 913              		.loc 1 427 0
 914 004e 013F     		subs	r7, r7, #1
 915              	.LVL79:
 916              		.loc 1 426 0
 917 0050 08F10108 		add	r8, r8, #1
 918              	.LVL80:
 919              		.loc 1 427 0
 920 0054 11D0     		beq	.L63
 921              		.loc 1 418 0
 922 0056 0135     		adds	r5, r5, #1
 923              	.LVL81:
 924              	.LBB39:
 925              		.loc 1 429 0
 926 0058 2023     		movs	r3, #32
 927              	.LVL82:
 928              	@ 429 "../libs/ChibiOS_2.4.0/os/kernel/src/chqueues.c" 1
 929 005a 83F31188 		msr     BASEPRI, r3
 930              	@ 0 "" 2
 931              	.LVL83:
 932              		.thumb
 933              	.LBE39:
 934              		.loc 1 411 0
 935 005e D4F808A0 		ldr	sl, [r4, #8]
 936 0062 BAF1000F 		cmp	sl, #0
 937 0066 DDD1     		bne	.L70
 938              	.LVL84:
 939              	.L64:
 940              		.loc 1 412 0
 941 0068 2046     		mov	r0, r4
 942 006a 3146     		mov	r1, r6
 943 006c FFF7FEFF 		bl	qwait
 944              	.LVL85:
 945 0070 0028     		cmp	r0, #0
 946 0072 D2D0     		beq	.L69
 947              	.LBB40:
 948              		.loc 1 413 0
 949 0074 5346     		mov	r3, sl
 950              	.LVL86:
 951              	@ 413 "../libs/ChibiOS_2.4.0/os/kernel/src/chqueues.c" 1
 952 0076 83F31188 		msr     BASEPRI, r3
 953              	@ 0 "" 2
 954              	.LVL87:
 955              		.thumb
 956              	.L63:
 957              	.LBE40:
 958              		.loc 1 431 0
 959 007a 4046     		mov	r0, r8
ARM GAS  /tmp/cchRNrHQ.s 			page 18


 960 007c BDE8F087 		pop	{r4, r5, r6, r7, r8, r9, sl, pc}
 961              		.cfi_endproc
 962              	.LFE17:
 963              		.size	chOQWriteTimeout, .-chOQWriteTimeout
 964              		.text
 965              	.Letext0: