ARM GAS  /tmp/ccIuN4ur.s 			page 1


   1              		.syntax unified
   2              		.cpu cortex-m4
   3              		.eabi_attribute 27, 3
   4              		.eabi_attribute 28, 1
   5              		.fpu fpv4-sp-d16
   6              		.eabi_attribute 20, 1
   7              		.eabi_attribute 21, 1
   8              		.eabi_attribute 23, 3
   9              		.eabi_attribute 24, 1
  10              		.eabi_attribute 25, 1
  11              		.eabi_attribute 26, 1
  12              		.eabi_attribute 30, 2
  13              		.eabi_attribute 18, 4
  14              		.thumb
  15              		.file	"chsem.c"
  22 0000 96030000 		.text
  22      02006F01 
  22      00000201 
  22      FB0E0D00 
  22      01010101 
  23              	.Ltext0:
  24              		.cfi_sections	.debug_frame
  25              		.section	.text.chSemInit,"ax",%progbits
  26              		.align	2
  27              		.p2align 4,,15
  28              		.global	chSemInit
  29              		.thumb
  30              		.thumb_func
  31              		.type	chSemInit, %function
  32              	chSemInit:
  33              	.LFB7:
  34              		.file 1 "../libs/ChibiOS_2.4.0/os/kernel/src/chsem.c"
  35              		.loc 1 86 0
  36              		.cfi_startproc
  37              		@ args = 0, pretend = 0, frame = 0
  38              		@ frame_needed = 0, uses_anonymous_args = 0
  39              		@ link register save eliminated.
  40              	.LVL0:
  41              		.loc 1 90 0
  42 0000 4060     		str	r0, [r0, #4]
  43 0002 0060     		str	r0, [r0, #0]
  44              		.loc 1 91 0
  45 0004 8160     		str	r1, [r0, #8]
  46              		.loc 1 92 0
  47 0006 7047     		bx	lr
  48              		.cfi_endproc
  49              	.LFE7:
  50              		.size	chSemInit, .-chSemInit
  51 0008 AFF30080 		.section	.text.chSemResetI,"ax",%progbits
  51      AFF30080 
  52              		.align	2
ARM GAS  /tmp/ccIuN4ur.s 			page 2


  53              		.p2align 4,,15
  54              		.global	chSemResetI
  55              		.thumb
  56              		.thumb_func
  57              		.type	chSemResetI, %function
  58              	chSemResetI:
  59              	.LFB9:
  60              		.loc 1 136 0
  61              		.cfi_startproc
  62              		@ args = 0, pretend = 0, frame = 0
  63              		@ frame_needed = 0, uses_anonymous_args = 0
  64              	.LVL1:
  65 0000 F8B5     		push	{r3, r4, r5, r6, r7, lr}
  66              	.LCFI0:
  67              		.cfi_def_cfa_offset 24
  68              		.loc 1 146 0
  69 0002 8768     		ldr	r7, [r0, #8]
  70              		.cfi_offset 14, -4
  71              		.cfi_offset 7, -8
  72              		.cfi_offset 6, -12
  73              		.cfi_offset 5, -16
  74              		.cfi_offset 4, -20
  75              		.cfi_offset 3, -24
  76              	.LVL2:
  77              		.loc 1 147 0
  78 0004 8160     		str	r1, [r0, #8]
  79              		.loc 1 148 0
  80 0006 0137     		adds	r7, r7, #1
  81              	.LVL3:
  82 0008 002F     		cmp	r7, #0
  83              		.loc 1 136 0
  84 000a 0446     		mov	r4, r0
  85              		.loc 1 148 0
  86 000c 29DC     		bgt	.L2
  87              	.LBB24:
  88              	.LBB26:
  89              		.file 2 "../libs/ChibiOS_2.4.0/os/kernel/include/chinline.h"
  90              		.loc 2 67 0
  91 000e 4068     		ldr	r0, [r0, #4]
  92              	.LVL4:
  93              		.loc 2 69 0
  94 0010 4368     		ldr	r3, [r0, #4]
  95 0012 6360     		str	r3, [r4, #4]
  96 0014 1C60     		str	r4, [r3, #0]
  97              	.LBE26:
  98              	.LBE24:
  99              		.loc 1 149 0
 100 0016 FFF7FEFF 		bl	chSchReadyI
 101              	.LVL5:
 102 001a 6FF00106 		mvn	r6, #1
 103 001e 07F00103 		and	r3, r7, #1
 104              	.LVL6:
 105 0022 4662     		str	r6, [r0, #36]
 106              	.LVL7:
 107              		.loc 1 148 0
 108 0024 7D1C     		adds	r5, r7, #1
 109 0026 EFB1     		cbz	r7, .L13
ARM GAS  /tmp/ccIuN4ur.s 			page 3


 110 0028 4BB1     		cbz	r3, .L5
 111              	.LBB29:
 112              	.LBB27:
 113              		.loc 2 67 0
 114 002a 6068     		ldr	r0, [r4, #4]
 115              		.loc 2 69 0
 116 002c 4168     		ldr	r1, [r0, #4]
 117 002e 6160     		str	r1, [r4, #4]
 118 0030 0C60     		str	r4, [r1, #0]
 119              	.LBE27:
 120              	.LBE29:
 121              		.loc 1 149 0
 122 0032 FFF7FEFF 		bl	chSchReadyI
 123              		.loc 1 148 0
 124 0036 0135     		adds	r5, r5, #1
 125 0038 012D     		cmp	r5, #1
 126              		.loc 1 149 0
 127 003a 4662     		str	r6, [r0, #36]
 128              		.loc 1 148 0
 129 003c 13D0     		beq	.L14
 130              	.L5:
 131              	.LBB30:
 132              	.LBB25:
 133              		.loc 2 67 0
 134 003e 6068     		ldr	r0, [r4, #4]
 135              		.loc 2 69 0
 136 0040 4368     		ldr	r3, [r0, #4]
 137 0042 6360     		str	r3, [r4, #4]
 138 0044 1C60     		str	r4, [r3, #0]
 139              	.LBE25:
 140              	.LBE30:
 141              		.loc 1 149 0
 142 0046 FFF7FEFF 		bl	chSchReadyI
 143 004a 4662     		str	r6, [r0, #36]
 144              	.LBB31:
 145              	.LBB28:
 146              		.loc 2 67 0
 147 004c 6068     		ldr	r0, [r4, #4]
 148              		.loc 2 69 0
 149 004e 4268     		ldr	r2, [r0, #4]
 150 0050 6260     		str	r2, [r4, #4]
 151 0052 1460     		str	r4, [r2, #0]
 152              	.LBE28:
 153              	.LBE31:
 154              		.loc 1 149 0
 155 0054 FFF7FEFF 		bl	chSchReadyI
 156              		.loc 1 148 0
 157 0058 691C     		adds	r1, r5, #1
 158              		.loc 1 149 0
 159 005a 4662     		str	r6, [r0, #36]
 160              		.loc 1 148 0
 161 005c 0235     		adds	r5, r5, #2
 162 005e 0029     		cmp	r1, #0
 163 0060 EDD1     		bne	.L5
 164              	.LVL8:
 165              	.L2:
 166 0062 F8BD     		pop	{r3, r4, r5, r6, r7, pc}
ARM GAS  /tmp/ccIuN4ur.s 			page 4


 167              	.LVL9:
 168              	.L13:
 169 0064 F8BD     		pop	{r3, r4, r5, r6, r7, pc}
 170              	.L14:
 171 0066 F8BD     		pop	{r3, r4, r5, r6, r7, pc}
 172              		.cfi_endproc
 173              	.LFE9:
 174              		.size	chSemResetI, .-chSemResetI
 175 0068 AFF30080 		.section	.text.chSemReset,"ax",%progbits
 175      AFF30080 
 176              		.align	2
 177              		.p2align 4,,15
 178              		.global	chSemReset
 179              		.thumb
 180              		.thumb_func
 181              		.type	chSemReset, %function
 182              	chSemReset:
 183              	.LFB8:
 184              		.loc 1 109 0
 185              		.cfi_startproc
 186              		@ args = 0, pretend = 0, frame = 0
 187              		@ frame_needed = 0, uses_anonymous_args = 0
 188              	.LVL10:
 189 0000 08B5     		push	{r3, lr}
 190              	.LCFI1:
 191              		.cfi_def_cfa_offset 8
 192              	.LBB32:
 193              		.loc 1 111 0
 194 0002 2023     		movs	r3, #32
 195              		.cfi_offset 14, -4
 196              		.cfi_offset 3, -8
 197              	.LVL11:
 198              	@ 111 "../libs/ChibiOS_2.4.0/os/kernel/src/chsem.c" 1
 199 0004 83F31188 		msr     BASEPRI, r3
 200              	@ 0 "" 2
 201              	.LVL12:
 202              		.thumb
 203              	.LBE32:
 204              		.loc 1 112 0
 205 0008 FFF7FEFF 		bl	chSemResetI
 206              	.LVL13:
 207              		.loc 1 113 0
 208 000c FFF7FEFF 		bl	chSchRescheduleS
 209              	.LBB33:
 210              		.loc 1 114 0
 211 0010 0023     		movs	r3, #0
 212              	.LVL14:
 213              	@ 114 "../libs/ChibiOS_2.4.0/os/kernel/src/chsem.c" 1
 214 0012 83F31188 		msr     BASEPRI, r3
 215              	@ 0 "" 2
 216              	.LVL15:
 217              		.thumb
 218              	.LBE33:
 219              		.loc 1 115 0
 220 0016 08BD     		pop	{r3, pc}
 221              		.cfi_endproc
 222              	.LFE8:
ARM GAS  /tmp/ccIuN4ur.s 			page 5


 223              		.size	chSemReset, .-chSemReset
 224 0018 AFF30080 		.section	.text.chSemWaitS,"ax",%progbits
 224      AFF30080 
 225              		.align	2
 226              		.p2align 4,,15
 227              		.global	chSemWaitS
 228              		.thumb
 229              		.thumb_func
 230              		.type	chSemWaitS, %function
 231              	chSemWaitS:
 232              	.LFB11:
 233              		.loc 1 185 0
 234              		.cfi_startproc
 235              		@ args = 0, pretend = 0, frame = 0
 236              		@ frame_needed = 0, uses_anonymous_args = 0
 237              	.LVL16:
 238              		.loc 1 194 0
 239 0000 8168     		ldr	r1, [r0, #8]
 240 0002 4A1E     		subs	r2, r1, #1
 241 0004 002A     		cmp	r2, #0
 242              		.loc 1 185 0
 243 0006 10B5     		push	{r4, lr}
 244              	.LCFI2:
 245              		.cfi_def_cfa_offset 8
 246              		.loc 1 185 0
 247 0008 0346     		mov	r3, r0
 248              		.loc 1 194 0
 249 000a 8260     		str	r2, [r0, #8]
 250 000c 01DB     		blt	.L19
 251              		.cfi_offset 14, -4
 252              		.cfi_offset 4, -8
 253              		.loc 1 200 0
 254 000e 0020     		movs	r0, #0
 255              	.LVL17:
 256              		.loc 1 201 0
 257 0010 10BD     		pop	{r4, pc}
 258              	.L19:
 259              		.loc 1 195 0
 260 0012 074C     		ldr	r4, .L20
 261 0014 E269     		ldr	r2, [r4, #28]
 262 0016 5062     		str	r0, [r2, #36]
 263              	.LVL18:
 264              	.LBB34:
 265              	.LBB35:
 266              		.loc 2 55 0
 267 0018 4168     		ldr	r1, [r0, #4]
 268              		.loc 2 54 0
 269 001a 1060     		str	r0, [r2, #0]
 270              		.loc 2 55 0
 271 001c 5160     		str	r1, [r2, #4]
 272              	.LBE35:
 273              	.LBE34:
 274              		.loc 1 197 0
 275 001e 0320     		movs	r0, #3
 276              	.LBB37:
 277              	.LBB36:
 278              		.loc 2 56 0
ARM GAS  /tmp/ccIuN4ur.s 			page 6


 279 0020 5A60     		str	r2, [r3, #4]
 280 0022 0A60     		str	r2, [r1, #0]
 281              	.LBE36:
 282              	.LBE37:
 283              		.loc 1 197 0
 284 0024 FFF7FEFF 		bl	chSchGoSleepS
 285              	.LVL19:
 286              		.loc 1 198 0
 287 0028 E369     		ldr	r3, [r4, #28]
 288 002a 586A     		ldr	r0, [r3, #36]
 289 002c 10BD     		pop	{r4, pc}
 290              	.L21:
 291 002e 00BF     		.align	2
 292              	.L20:
 293 0030 00000000 		.word	rlist
 294              		.cfi_endproc
 295              	.LFE11:
 296              		.size	chSemWaitS, .-chSemWaitS
 297 0034 AFF30080 		.section	.text.chSemWait,"ax",%progbits
 297      AFF30080 
 297      AFF30080 
 298              		.align	2
 299              		.p2align 4,,15
 300              		.global	chSemWait
 301              		.thumb
 302              		.thumb_func
 303              		.type	chSemWait, %function
 304              	chSemWait:
 305              	.LFB10:
 306              		.loc 1 164 0
 307              		.cfi_startproc
 308              		@ args = 0, pretend = 0, frame = 0
 309              		@ frame_needed = 0, uses_anonymous_args = 0
 310              	.LVL20:
 311 0000 08B5     		push	{r3, lr}
 312              	.LCFI3:
 313              		.cfi_def_cfa_offset 8
 314              	.LBB38:
 315              		.loc 1 167 0
 316 0002 2023     		movs	r3, #32
 317              		.cfi_offset 14, -4
 318              		.cfi_offset 3, -8
 319              	.LVL21:
 320              	@ 167 "../libs/ChibiOS_2.4.0/os/kernel/src/chsem.c" 1
 321 0004 83F31188 		msr     BASEPRI, r3
 322              	@ 0 "" 2
 323              	.LVL22:
 324              		.thumb
 325              	.LBE38:
 326              		.loc 1 168 0
 327 0008 FFF7FEFF 		bl	chSemWaitS
 328              	.LVL23:
 329              	.LBB39:
 330              		.loc 1 169 0
 331 000c 0023     		movs	r3, #0
 332              	.LVL24:
 333              	@ 169 "../libs/ChibiOS_2.4.0/os/kernel/src/chsem.c" 1
ARM GAS  /tmp/ccIuN4ur.s 			page 7


 334 000e 83F31188 		msr     BASEPRI, r3
 335              	@ 0 "" 2
 336              	.LVL25:
 337              		.thumb
 338              	.LBE39:
 339              		.loc 1 171 0
 340 0012 08BD     		pop	{r3, pc}
 341              		.cfi_endproc
 342              	.LFE10:
 343              		.size	chSemWait, .-chSemWait
 344 0014 AFF30080 		.section	.text.chSemWaitTimeoutS,"ax",%progbits
 344      AFF30080 
 344      AFF30080 
 345              		.align	2
 346              		.p2align 4,,15
 347              		.global	chSemWaitTimeoutS
 348              		.thumb
 349              		.thumb_func
 350              		.type	chSemWaitTimeoutS, %function
 351              	chSemWaitTimeoutS:
 352              	.LFB13:
 353              		.loc 1 250 0
 354              		.cfi_startproc
 355              		@ args = 0, pretend = 0, frame = 0
 356              		@ frame_needed = 0, uses_anonymous_args = 0
 357              		@ link register save eliminated.
 358              	.LVL26:
 359 0000 0346     		mov	r3, r0
 360              		.loc 1 259 0
 361 0002 8068     		ldr	r0, [r0, #8]
 362              	.LVL27:
 363 0004 421E     		subs	r2, r0, #1
 364 0006 002A     		cmp	r2, #0
 365              		.loc 1 250 0
 366 0008 10B4     		push	{r4}
 367              	.LCFI4:
 368              		.cfi_def_cfa_offset 4
 369              		.loc 1 259 0
 370 000a 9A60     		str	r2, [r3, #8]
 371 000c 02DB     		blt	.L27
 372              		.cfi_offset 4, -4
 373              		.loc 1 268 0
 374 000e 0020     		movs	r0, #0
 375              	.L24:
 376              		.loc 1 269 0
 377 0010 10BC     		pop	{r4}
 378 0012 7047     		bx	lr
 379              	.L27:
 380              		.loc 1 260 0
 381 0014 59B1     		cbz	r1, .L28
 382              		.loc 1 264 0
 383 0016 0848     		ldr	r0, .L29
 384 0018 C269     		ldr	r2, [r0, #28]
 385 001a 5362     		str	r3, [r2, #36]
 386              	.LVL28:
 387              	.LBB40:
 388              	.LBB41:
ARM GAS  /tmp/ccIuN4ur.s 			page 8


 389              		.loc 2 55 0
 390 001c 5C68     		ldr	r4, [r3, #4]
 391              		.loc 2 54 0
 392 001e 1360     		str	r3, [r2, #0]
 393              	.LBE41:
 394              	.LBE40:
 395              		.loc 1 266 0
 396 0020 0320     		movs	r0, #3
 397              	.LVL29:
 398              	.LBB43:
 399              	.LBB42:
 400              		.loc 2 55 0
 401 0022 5460     		str	r4, [r2, #4]
 402              		.loc 2 56 0
 403 0024 5A60     		str	r2, [r3, #4]
 404 0026 2260     		str	r2, [r4, #0]
 405              	.LBE42:
 406              	.LBE43:
 407              		.loc 1 269 0
 408 0028 10BC     		pop	{r4}
 409              		.loc 1 266 0
 410 002a FFF7FEBF 		b	chSchGoSleepTimeoutS
 411              	.LVL30:
 412              	.L28:
 413              		.loc 1 261 0
 414 002e 9860     		str	r0, [r3, #8]
 415              		.loc 1 262 0
 416 0030 4FF0FF30 		mov	r0, #-1
 417 0034 ECE7     		b	.L24
 418              	.L30:
 419 0036 00BF     		.align	2
 420              	.L29:
 421 0038 00000000 		.word	rlist
 422              		.cfi_endproc
 423              	.LFE13:
 424              		.size	chSemWaitTimeoutS, .-chSemWaitTimeoutS
 425 003c AFF30080 		.section	.text.chSemWaitTimeout,"ax",%progbits
 426              		.align	2
 427              		.p2align 4,,15
 428              		.global	chSemWaitTimeout
 429              		.thumb
 430              		.thumb_func
 431              		.type	chSemWaitTimeout, %function
 432              	chSemWaitTimeout:
 433              	.LFB12:
 434              		.loc 1 222 0
 435              		.cfi_startproc
 436              		@ args = 0, pretend = 0, frame = 0
 437              		@ frame_needed = 0, uses_anonymous_args = 0
 438              	.LVL31:
 439 0000 08B5     		push	{r3, lr}
 440              	.LCFI5:
 441              		.cfi_def_cfa_offset 8
 442              	.LBB44:
 443              		.loc 1 225 0
 444 0002 2023     		movs	r3, #32
 445              		.cfi_offset 14, -4
ARM GAS  /tmp/ccIuN4ur.s 			page 9


 446              		.cfi_offset 3, -8
 447              	.LVL32:
 448              	@ 225 "../libs/ChibiOS_2.4.0/os/kernel/src/chsem.c" 1
 449 0004 83F31188 		msr     BASEPRI, r3
 450              	@ 0 "" 2
 451              	.LVL33:
 452              		.thumb
 453              	.LBE44:
 454              		.loc 1 226 0
 455 0008 FFF7FEFF 		bl	chSemWaitTimeoutS
 456              	.LVL34:
 457              	.LBB45:
 458              		.loc 1 227 0
 459 000c 0023     		movs	r3, #0
 460              	.LVL35:
 461              	@ 227 "../libs/ChibiOS_2.4.0/os/kernel/src/chsem.c" 1
 462 000e 83F31188 		msr     BASEPRI, r3
 463              	@ 0 "" 2
 464              	.LVL36:
 465              		.thumb
 466              	.LBE45:
 467              		.loc 1 229 0
 468 0012 08BD     		pop	{r3, pc}
 469              		.cfi_endproc
 470              	.LFE12:
 471              		.size	chSemWaitTimeout, .-chSemWaitTimeout
 472 0014 AFF30080 		.section	.text.chSemSignal,"ax",%progbits
 472      AFF30080 
 472      AFF30080 
 473              		.align	2
 474              		.p2align 4,,15
 475              		.global	chSemSignal
 476              		.thumb
 477              		.thumb_func
 478              		.type	chSemSignal, %function
 479              	chSemSignal:
 480              	.LFB14:
 481              		.loc 1 278 0
 482              		.cfi_startproc
 483              		@ args = 0, pretend = 0, frame = 0
 484              		@ frame_needed = 0, uses_anonymous_args = 0
 485              	.LVL37:
 486 0000 08B5     		push	{r3, lr}
 487              	.LCFI6:
 488              		.cfi_def_cfa_offset 8
 489              		.loc 1 278 0
 490 0002 0246     		mov	r2, r0
 491              	.LBB46:
 492              		.loc 1 286 0
 493 0004 2023     		movs	r3, #32
 494              		.cfi_offset 14, -4
 495              		.cfi_offset 3, -8
 496              	.LVL38:
 497              	@ 286 "../libs/ChibiOS_2.4.0/os/kernel/src/chsem.c" 1
 498 0006 83F31188 		msr     BASEPRI, r3
 499              	@ 0 "" 2
 500              	.LVL39:
ARM GAS  /tmp/ccIuN4ur.s 			page 10


 501              		.thumb
 502              	.LBE46:
 503              		.loc 1 287 0
 504 000a 8168     		ldr	r1, [r0, #8]
 505 000c 4B1C     		adds	r3, r1, #1
 506              	.LVL40:
 507 000e 002B     		cmp	r3, #0
 508 0010 8360     		str	r3, [r0, #8]
 509 0012 03DD     		ble	.L34
 510              	.LBB47:
 511              		.loc 1 289 0
 512 0014 0023     		movs	r3, #0
 513              	.LVL41:
 514              	@ 289 "../libs/ChibiOS_2.4.0/os/kernel/src/chsem.c" 1
 515 0016 83F31188 		msr     BASEPRI, r3
 516              	@ 0 "" 2
 517              	.LVL42:
 518              		.thumb
 519              	.LBE47:
 520              		.loc 1 290 0
 521 001a 08BD     		pop	{r3, pc}
 522              	.LVL43:
 523              	.L34:
 524              	.LBB48:
 525              	.LBB49:
 526              		.loc 2 60 0
 527 001c 0068     		ldr	r0, [r0, #0]
 528              	.LVL44:
 529              		.loc 2 62 0
 530 001e 0368     		ldr	r3, [r0, #0]
 531              	.LBE49:
 532              	.LBE48:
 533              		.loc 1 288 0
 534 0020 0021     		movs	r1, #0
 535              	.LBB51:
 536              	.LBB50:
 537              		.loc 2 62 0
 538 0022 1360     		str	r3, [r2, #0]
 539 0024 5A60     		str	r2, [r3, #4]
 540              	.LBE50:
 541              	.LBE51:
 542              		.loc 1 288 0
 543 0026 FFF7FEFF 		bl	chSchWakeupS
 544              	.LVL45:
 545              	.LBB52:
 546              		.loc 1 289 0
 547 002a 0023     		movs	r3, #0
 548              	@ 289 "../libs/ChibiOS_2.4.0/os/kernel/src/chsem.c" 1
 549 002c 83F31188 		msr     BASEPRI, r3
 550              	@ 0 "" 2
 551              	.LVL46:
 552              		.thumb
 553              	.LBE52:
 554              		.loc 1 290 0
 555 0030 08BD     		pop	{r3, pc}
 556              		.cfi_endproc
 557              	.LFE14:
ARM GAS  /tmp/ccIuN4ur.s 			page 11


 558              		.size	chSemSignal, .-chSemSignal
 559 0032 00BFAFF3 		.section	.text.chSemSignalI,"ax",%progbits
 559      0080AFF3 
 559      0080AFF3 
 559      0080
 560              		.align	2
 561              		.p2align 4,,15
 562              		.global	chSemSignalI
 563              		.thumb
 564              		.thumb_func
 565              		.type	chSemSignalI, %function
 566              	chSemSignalI:
 567              	.LFB15:
 568              		.loc 1 303 0
 569              		.cfi_startproc
 570              		@ args = 0, pretend = 0, frame = 0
 571              		@ frame_needed = 0, uses_anonymous_args = 0
 572              		@ link register save eliminated.
 573              	.LVL47:
 574              		.loc 1 303 0
 575 0000 0346     		mov	r3, r0
 576              		.loc 1 312 0
 577 0002 8068     		ldr	r0, [r0, #8]
 578              	.LVL48:
 579 0004 421C     		adds	r2, r0, #1
 580 0006 002A     		cmp	r2, #0
 581 0008 9A60     		str	r2, [r3, #8]
 582 000a 00DD     		ble	.L37
 583 000c 7047     		bx	lr
 584              	.L37:
 585              	.LVL49:
 586              	.LBB53:
 587              	.LBB55:
 588              	.LBB56:
 589              		.loc 2 60 0
 590 000e 1A68     		ldr	r2, [r3, #0]
 591              	.LVL50:
 592              		.loc 2 62 0
 593 0010 1168     		ldr	r1, [r2, #0]
 594              	.LBE56:
 595              	.LBE55:
 596              		.loc 1 317 0
 597 0012 1046     		mov	r0, r2
 598              	.LBB54:
 599              	.LBB57:
 600              		.loc 2 62 0
 601 0014 1960     		str	r1, [r3, #0]
 602 0016 4B60     		str	r3, [r1, #4]
 603              	.LBE57:
 604              	.LBE54:
 605              		.loc 1 316 0
 606 0018 0023     		movs	r3, #0
 607              	.LVL51:
 608 001a 5362     		str	r3, [r2, #36]
 609              	.LBE53:
 610              		.loc 1 319 0
 611              	.LBB58:
ARM GAS  /tmp/ccIuN4ur.s 			page 12


 612              		.loc 1 317 0
 613 001c FFF7FEBF 		b	chSchReadyI
 614              	.LBE58:
 615              		.cfi_endproc
 616              	.LFE15:
 617              		.size	chSemSignalI, .-chSemSignalI
 618              		.section	.text.chSemAddCounterI,"ax",%progbits
 619              		.align	2
 620              		.p2align 4,,15
 621              		.global	chSemAddCounterI
 622              		.thumb
 623              		.thumb_func
 624              		.type	chSemAddCounterI, %function
 625              	chSemAddCounterI:
 626              	.LFB16:
 627              		.loc 1 334 0
 628              		.cfi_startproc
 629              		@ args = 0, pretend = 0, frame = 0
 630              		@ frame_needed = 0, uses_anonymous_args = 0
 631              	.LVL52:
 632 0000 F8B5     		push	{r3, r4, r5, r6, r7, lr}
 633              	.LCFI7:
 634              		.cfi_def_cfa_offset 24
 635              		.loc 1 343 0
 636 0002 0D1E     		subs	r5, r1, #0
 637              		.cfi_offset 14, -4
 638              		.cfi_offset 7, -8
 639              		.cfi_offset 6, -12
 640              		.cfi_offset 5, -16
 641              		.cfi_offset 4, -20
 642              		.cfi_offset 3, -24
 643              		.loc 1 334 0
 644 0004 0446     		mov	r4, r0
 645              		.loc 1 343 0
 646 0006 37DD     		ble	.L38
 647              		.loc 1 344 0
 648 0008 8168     		ldr	r1, [r0, #8]
 649              	.LVL53:
 650              		.loc 1 345 0
 651 000a 0026     		movs	r6, #0
 652              		.loc 1 344 0
 653 000c 4B1C     		adds	r3, r1, #1
 654 000e 6F1E     		subs	r7, r5, #1
 655 0010 B342     		cmp	r3, r6
 656 0012 8360     		str	r3, [r0, #8]
 657 0014 07F00107 		and	r7, r7, #1
 658 0018 2FDD     		ble	.L54
 659              	.LVL54:
 660              	.L44:
 661              		.loc 1 343 0
 662 001a 013D     		subs	r5, r5, #1
 663 001c 2CD0     		beq	.L38
 664 001e 7FB1     		cbz	r7, .L42
 665              		.loc 1 344 0
 666 0020 A168     		ldr	r1, [r4, #8]
 667 0022 4B1C     		adds	r3, r1, #1
 668 0024 002B     		cmp	r3, #0
ARM GAS  /tmp/ccIuN4ur.s 			page 13


 669 0026 A360     		str	r3, [r4, #8]
 670 0028 2FDD     		ble	.L55
 671              	.L46:
 672              		.loc 1 343 0
 673 002a 013D     		subs	r5, r5, #1
 674 002c 08D1     		bne	.L42
 675 002e 34E0     		b	.L59
 676              	.L40:
 677              		.loc 1 344 0
 678 0030 A068     		ldr	r0, [r4, #8]
 679 0032 411C     		adds	r1, r0, #1
 680              		.loc 1 346 0
 681 0034 013D     		subs	r5, r5, #1
 682              		.loc 1 344 0
 683 0036 0029     		cmp	r1, #0
 684 0038 A160     		str	r1, [r4, #8]
 685 003a 13DD     		ble	.L57
 686              	.L49:
 687              		.loc 1 343 0
 688 003c 013D     		subs	r5, r5, #1
 689 003e 1AD0     		beq	.L58
 690              	.L42:
 691              		.loc 1 344 0
 692 0040 A268     		ldr	r2, [r4, #8]
 693 0042 501C     		adds	r0, r2, #1
 694 0044 0028     		cmp	r0, #0
 695 0046 A060     		str	r0, [r4, #8]
 696 0048 F2DC     		bgt	.L40
 697              	.LVL55:
 698              	.LBB59:
 699              	.LBB61:
 700              		.loc 2 60 0
 701 004a 2068     		ldr	r0, [r4, #0]
 702              	.LVL56:
 703              		.loc 2 62 0
 704 004c 0368     		ldr	r3, [r0, #0]
 705 004e 2360     		str	r3, [r4, #0]
 706 0050 5C60     		str	r4, [r3, #4]
 707              	.LBE61:
 708              	.LBE59:
 709              		.loc 1 345 0
 710 0052 FFF7FEFF 		bl	chSchReadyI
 711              	.LVL57:
 712 0056 4662     		str	r6, [r0, #36]
 713              		.loc 1 344 0
 714 0058 A068     		ldr	r0, [r4, #8]
 715 005a 411C     		adds	r1, r0, #1
 716              		.loc 1 346 0
 717 005c 013D     		subs	r5, r5, #1
 718              		.loc 1 344 0
 719 005e 0029     		cmp	r1, #0
 720 0060 A160     		str	r1, [r4, #8]
 721 0062 EBDC     		bgt	.L49
 722              	.LVL58:
 723              	.L57:
 724              	.LBB64:
 725              	.LBB62:
ARM GAS  /tmp/ccIuN4ur.s 			page 14


 726              		.loc 2 60 0
 727 0064 2068     		ldr	r0, [r4, #0]
 728              		.loc 2 62 0
 729 0066 0368     		ldr	r3, [r0, #0]
 730 0068 2360     		str	r3, [r4, #0]
 731 006a 5C60     		str	r4, [r3, #4]
 732              	.LBE62:
 733              	.LBE64:
 734              		.loc 1 345 0
 735 006c FFF7FEFF 		bl	chSchReadyI
 736              		.loc 1 343 0
 737 0070 013D     		subs	r5, r5, #1
 738              		.loc 1 345 0
 739 0072 4662     		str	r6, [r0, #36]
 740              		.loc 1 343 0
 741 0074 E4D1     		bne	.L42
 742              	.LVL59:
 743              	.L58:
 744 0076 F8BD     		pop	{r3, r4, r5, r6, r7, pc}
 745              	.L38:
 746 0078 F8BD     		pop	{r3, r4, r5, r6, r7, pc}
 747              	.LVL60:
 748              	.L54:
 749              	.LBB65:
 750              	.LBB60:
 751              		.loc 2 60 0
 752 007a 0068     		ldr	r0, [r0, #0]
 753              		.loc 2 62 0
 754 007c 0268     		ldr	r2, [r0, #0]
 755 007e 2260     		str	r2, [r4, #0]
 756 0080 5460     		str	r4, [r2, #4]
 757              	.LBE60:
 758              	.LBE65:
 759              		.loc 1 345 0
 760 0082 FFF7FEFF 		bl	chSchReadyI
 761 0086 4662     		str	r6, [r0, #36]
 762 0088 C7E7     		b	.L44
 763              	.LVL61:
 764              	.L55:
 765              	.LBB66:
 766              	.LBB63:
 767              		.loc 2 60 0
 768 008a 2068     		ldr	r0, [r4, #0]
 769              		.loc 2 62 0
 770 008c 0268     		ldr	r2, [r0, #0]
 771 008e 2260     		str	r2, [r4, #0]
 772 0090 5460     		str	r4, [r2, #4]
 773              	.LBE63:
 774              	.LBE66:
 775              		.loc 1 345 0
 776 0092 FFF7FEFF 		bl	chSchReadyI
 777 0096 4662     		str	r6, [r0, #36]
 778 0098 C7E7     		b	.L46
 779              	.LVL62:
 780              	.L59:
 781 009a F8BD     		pop	{r3, r4, r5, r6, r7, pc}
 782              		.cfi_endproc
ARM GAS  /tmp/ccIuN4ur.s 			page 15


 783              	.LFE16:
 784              		.size	chSemAddCounterI, .-chSemAddCounterI
 785 009c AFF30080 		.section	.text.chSemSignalWait,"ax",%progbits
 786              		.align	2
 787              		.p2align 4,,15
 788              		.global	chSemSignalWait
 789              		.thumb
 790              		.thumb_func
 791              		.type	chSemSignalWait, %function
 792              	chSemSignalWait:
 793              	.LFB17:
 794              		.loc 1 366 0
 795              		.cfi_startproc
 796              		@ args = 0, pretend = 0, frame = 8
 797              		@ frame_needed = 0, uses_anonymous_args = 0
 798              	.LVL63:
 799 0000 10B5     		push	{r4, lr}
 800              	.LCFI8:
 801              		.cfi_def_cfa_offset 8
 802 0002 0246     		mov	r2, r0
 803 0004 82B0     		sub	sp, sp, #8
 804              	.LCFI9:
 805              		.cfi_def_cfa_offset 16
 806              	.LBB67:
 807              		.loc 1 379 0
 808 0006 2023     		movs	r3, #32
 809              	.LVL64:
 810              	@ 379 "../libs/ChibiOS_2.4.0/os/kernel/src/chsem.c" 1
 811 0008 83F31188 		msr     BASEPRI, r3
 812              	@ 0 "" 2
 813              	.LVL65:
 814              		.thumb
 815              	.LBE67:
 816              		.loc 1 380 0
 817 000c 8368     		ldr	r3, [r0, #8]
 818              	.LVL66:
 819 000e 0133     		adds	r3, r3, #1
 820 0010 002B     		cmp	r3, #0
 821 0012 8360     		str	r3, [r0, #8]
 822 0014 19DD     		ble	.L64
 823              		.cfi_offset 14, -4
 824              		.cfi_offset 4, -8
 825              	.LVL67:
 826              	.L61:
 827              		.loc 1 382 0
 828 0016 8A68     		ldr	r2, [r1, #8]
 829 0018 501E     		subs	r0, r2, #1
 830 001a 0028     		cmp	r0, #0
 831 001c 8860     		str	r0, [r1, #8]
 832 001e 07DB     		blt	.L65
 833              		.loc 1 390 0
 834 0020 FFF7FEFF 		bl	chSchRescheduleS
 835              	.LVL68:
 836              		.loc 1 391 0
 837 0024 0020     		movs	r0, #0
 838              	.LVL69:
 839              	.L63:
ARM GAS  /tmp/ccIuN4ur.s 			page 16


 840              	.LBB68:
 841              		.loc 1 393 0
 842 0026 0023     		movs	r3, #0
 843              	.LVL70:
 844              	@ 393 "../libs/ChibiOS_2.4.0/os/kernel/src/chsem.c" 1
 845 0028 83F31188 		msr     BASEPRI, r3
 846              	@ 0 "" 2
 847              	.LVL71:
 848              		.thumb
 849              	.LBE68:
 850              		.loc 1 395 0
 851 002c 02B0     		add	sp, sp, #8
 852 002e 10BD     		pop	{r4, pc}
 853              	.LVL72:
 854              	.L65:
 855              	.LBB69:
 856              		.loc 1 383 0
 857 0030 0B4C     		ldr	r4, .L66
 858              	.LBB70:
 859              	.LBB71:
 860              		.loc 2 55 0
 861 0032 4B68     		ldr	r3, [r1, #4]
 862              	.LBE71:
 863              	.LBE70:
 864              		.loc 1 383 0
 865 0034 E469     		ldr	r4, [r4, #28]
 866              	.LVL73:
 867              		.loc 1 386 0
 868 0036 0320     		movs	r0, #3
 869              	.LBB73:
 870              	.LBB72:
 871              		.loc 2 54 0
 872 0038 2160     		str	r1, [r4, #0]
 873              		.loc 2 55 0
 874 003a 6360     		str	r3, [r4, #4]
 875              		.loc 2 56 0
 876 003c 4C60     		str	r4, [r1, #4]
 877 003e 1C60     		str	r4, [r3, #0]
 878              	.LBE72:
 879              	.LBE73:
 880              		.loc 1 385 0
 881 0040 6162     		str	r1, [r4, #36]
 882              		.loc 1 386 0
 883 0042 FFF7FEFF 		bl	chSchGoSleepS
 884              	.LVL74:
 885              		.loc 1 387 0
 886 0046 606A     		ldr	r0, [r4, #36]
 887              	.LVL75:
 888 0048 EDE7     		b	.L63
 889              	.LVL76:
 890              	.L64:
 891              	.LBE69:
 892              	.LBB74:
 893              	.LBB75:
 894              		.loc 2 60 0
 895 004a 0068     		ldr	r0, [r0, #0]
 896              	.LVL77:
ARM GAS  /tmp/ccIuN4ur.s 			page 17


 897              		.loc 2 62 0
 898 004c 0368     		ldr	r3, [r0, #0]
 899 004e 1360     		str	r3, [r2, #0]
 900 0050 5A60     		str	r2, [r3, #4]
 901              	.LBE75:
 902              	.LBE74:
 903              		.loc 1 381 0
 904 0052 0191     		str	r1, [sp, #4]
 905 0054 FFF7FEFF 		bl	chSchReadyI
 906              	.LVL78:
 907 0058 0021     		movs	r1, #0
 908 005a 4162     		str	r1, [r0, #36]
 909 005c 0199     		ldr	r1, [sp, #4]
 910 005e DAE7     		b	.L61
 911              	.L67:
 912              		.align	2
 913              	.L66:
 914 0060 00000000 		.word	rlist
 915              		.cfi_endproc
 916              	.LFE17:
 917              		.size	chSemSignalWait, .-chSemSignalWait
 918 0064 AFF30080 		.text
 918      AFF30080 
 918      AFF30080 
 919              	.Letext0: