ARM GAS  /tmp/ccIuN4ur.s 			page 1


   1              		.syntax unified
   2              		.cpu cortex-m4
   3              		.eabi_attribute 27, 3
   4              		.eabi_attribute 28, 1
   5              		.fpu fpv4-sp-d16
   6              		.eabi_attribute 20, 1
   7              		.eabi_attribute 21, 1
   8              		.eabi_attribute 23, 3
   9              		.eabi_attribute 24, 1
  10              		.eabi_attribute 25, 1
  11              		.eabi_attribute 26, 1
  12              		.eabi_attribute 30, 2
  13              		.eabi_attribute 18, 4
  14              		.thumb
  15              		.file	"chsem.c"
  16              		.section	.debug_abbrev,"",%progbits
  17              	.Ldebug_abbrev0:
  18              		.section	.debug_info,"",%progbits
  19              	.Ldebug_info0:
  20              		.section	.debug_line,"",%progbits
  21              	.Ldebug_line0:
  22 0000 96030000 		.text
  22      02006F01 
  22      00000201 
  22      FB0E0D00 
  22      01010101 
  23              	.Ltext0:
  24              		.cfi_sections	.debug_frame
  25              		.section	.text.chSemInit,"ax",%progbits
  26              		.align	2
  27              		.p2align 4,,15
  28              		.global	chSemInit
  29              		.thumb
  30              		.thumb_func
  31              		.type	chSemInit, %function
  32              	chSemInit:
  33              	.LFB7:
  34              		.file 1 "../libs/ChibiOS_2.4.0/os/kernel/src/chsem.c"
  35              		.loc 1 86 0
  36              		.cfi_startproc
  37              		@ args = 0, pretend = 0, frame = 0
  38              		@ frame_needed = 0, uses_anonymous_args = 0
  39              		@ link register save eliminated.
  40              	.LVL0:
  41              		.loc 1 90 0
  42 0000 4060     		str	r0, [r0, #4]
  43 0002 0060     		str	r0, [r0, #0]
  44              		.loc 1 91 0
  45 0004 8160     		str	r1, [r0, #8]
  46              		.loc 1 92 0
  47 0006 7047     		bx	lr
  48              		.cfi_endproc
  49              	.LFE7:
  50              		.size	chSemInit, .-chSemInit
  51 0008 AFF30080 		.section	.text.chSemResetI,"ax",%progbits
  51      AFF30080 
  52              		.align	2
ARM GAS  /tmp/ccIuN4ur.s 			page 2


  53              		.p2align 4,,15
  54              		.global	chSemResetI
  55              		.thumb
  56              		.thumb_func
  57              		.type	chSemResetI, %function
  58              	chSemResetI:
  59              	.LFB9:
  60              		.loc 1 136 0
  61              		.cfi_startproc
  62              		@ args = 0, pretend = 0, frame = 0
  63              		@ frame_needed = 0, uses_anonymous_args = 0
  64              	.LVL1:
  65 0000 F8B5     		push	{r3, r4, r5, r6, r7, lr}
  66              	.LCFI0:
  67              		.cfi_def_cfa_offset 24
  68              		.loc 1 146 0
  69 0002 8768     		ldr	r7, [r0, #8]
  70              		.cfi_offset 14, -4
  71              		.cfi_offset 7, -8
  72              		.cfi_offset 6, -12
  73              		.cfi_offset 5, -16
  74              		.cfi_offset 4, -20
  75              		.cfi_offset 3, -24
  76              	.LVL2:
  77              		.loc 1 147 0
  78 0004 8160     		str	r1, [r0, #8]
  79              		.loc 1 148 0
  80 0006 0137     		adds	r7, r7, #1
  81              	.LVL3:
  82 0008 002F     		cmp	r7, #0
  83              		.loc 1 136 0
  84 000a 0446     		mov	r4, r0
  85              		.loc 1 148 0
  86 000c 29DC     		bgt	.L2
  87              	.LBB24:
  88              	.LBB26:
  89              		.file 2 "../libs/ChibiOS_2.4.0/os/kernel/include/chinline.h"
  90              		.loc 2 67 0
  91 000e 4068     		ldr	r0, [r0, #4]
  92              	.LVL4:
  93              		.loc 2 69 0
  94 0010 4368     		ldr	r3, [r0, #4]
  95 0012 6360     		str	r3, [r4, #4]
  96 0014 1C60     		str	r4, [r3, #0]
  97              	.LBE26:
  98              	.LBE24:
  99              		.loc 1 149 0
 100 0016 FFF7FEFF 		bl	chSchReadyI
 101              	.LVL5:
 102 001a 6FF00106 		mvn	r6, #1
 103 001e 07F00103 		and	r3, r7, #1
 104              	.LVL6:
 105 0022 4662     		str	r6, [r0, #36]
 106              	.LVL7:
 107              		.loc 1 148 0
 108 0024 7D1C     		adds	r5, r7, #1
 109 0026 EFB1     		cbz	r7, .L13
ARM GAS  /tmp/ccIuN4ur.s 			page 3


 110 0028 4BB1     		cbz	r3, .L5
 111              	.LBB29:
 112              	.LBB27:
 113              		.loc 2 67 0
 114 002a 6068     		ldr	r0, [r4, #4]
 115              		.loc 2 69 0
 116 002c 4168     		ldr	r1, [r0, #4]
 117 002e 6160     		str	r1, [r4, #4]
 118 0030 0C60     		str	r4, [r1, #0]
 119              	.LBE27:
 120              	.LBE29:
 121              		.loc 1 149 0
 122 0032 FFF7FEFF 		bl	chSchReadyI
 123              		.loc 1 148 0
 124 0036 0135     		adds	r5, r5, #1
 125 0038 012D     		cmp	r5, #1
 126              		.loc 1 149 0
 127 003a 4662     		str	r6, [r0, #36]
 128              		.loc 1 148 0
 129 003c 13D0     		beq	.L14
 130              	.L5:
 131              	.LBB30:
 132              	.LBB25:
 133              		.loc 2 67 0
 134 003e 6068     		ldr	r0, [r4, #4]
 135              		.loc 2 69 0
 136 0040 4368     		ldr	r3, [r0, #4]
 137 0042 6360     		str	r3, [r4, #4]
 138 0044 1C60     		str	r4, [r3, #0]
 139              	.LBE25:
 140              	.LBE30:
 141              		.loc 1 149 0
 142 0046 FFF7FEFF 		bl	chSchReadyI
 143 004a 4662     		str	r6, [r0, #36]
 144              	.LBB31:
 145              	.LBB28:
 146              		.loc 2 67 0
 147 004c 6068     		ldr	r0, [r4, #4]
 148              		.loc 2 69 0
 149 004e 4268     		ldr	r2, [r0, #4]
 150 0050 6260     		str	r2, [r4, #4]
 151 0052 1460     		str	r4, [r2, #0]
 152              	.LBE28:
 153              	.LBE31:
 154              		.loc 1 149 0
 155 0054 FFF7FEFF 		bl	chSchReadyI
 156              		.loc 1 148 0
 157 0058 691C     		adds	r1, r5, #1
 158              		.loc 1 149 0
 159 005a 4662     		str	r6, [r0, #36]
 160              		.loc 1 148 0
 161 005c 0235     		adds	r5, r5, #2
 162 005e 0029     		cmp	r1, #0
 163 0060 EDD1     		bne	.L5
 164              	.LVL8:
 165              	.L2:
 166 0062 F8BD     		pop	{r3, r4, r5, r6, r7, pc}
ARM GAS  /tmp/ccIuN4ur.s 			page 4


 167              	.LVL9:
 168              	.L13:
 169 0064 F8BD     		pop	{r3, r4, r5, r6, r7, pc}
 170              	.L14:
 171 0066 F8BD     		pop	{r3, r4, r5, r6, r7, pc}
 172              		.cfi_endproc
 173              	.LFE9:
 174              		.size	chSemResetI, .-chSemResetI
 175 0068 AFF30080 		.section	.text.chSemReset,"ax",%progbits
 175      AFF30080 
 176              		.align	2
 177              		.p2align 4,,15
 178              		.global	chSemReset
 179              		.thumb
 180              		.thumb_func
 181              		.type	chSemReset, %function
 182              	chSemReset:
 183              	.LFB8:
 184              		.loc 1 109 0
 185              		.cfi_startproc
 186              		@ args = 0, pretend = 0, frame = 0
 187              		@ frame_needed = 0, uses_anonymous_args = 0
 188              	.LVL10:
 189 0000 08B5     		push	{r3, lr}
 190              	.LCFI1:
 191              		.cfi_def_cfa_offset 8
 192              	.LBB32:
 193              		.loc 1 111 0
 194 0002 2023     		movs	r3, #32
 195              		.cfi_offset 14, -4
 196              		.cfi_offset 3, -8
 197              	.LVL11:
 198              	@ 111 "../libs/ChibiOS_2.4.0/os/kernel/src/chsem.c" 1
 199 0004 83F31188 		msr     BASEPRI, r3
 200              	@ 0 "" 2
 201              	.LVL12:
 202              		.thumb
 203              	.LBE32:
 204              		.loc 1 112 0
 205 0008 FFF7FEFF 		bl	chSemResetI
 206              	.LVL13:
 207              		.loc 1 113 0
 208 000c FFF7FEFF 		bl	chSchRescheduleS
 209              	.LBB33:
 210              		.loc 1 114 0
 211 0010 0023     		movs	r3, #0
 212              	.LVL14:
 213              	@ 114 "../libs/ChibiOS_2.4.0/os/kernel/src/chsem.c" 1
 214 0012 83F31188 		msr     BASEPRI, r3
 215              	@ 0 "" 2
 216              	.LVL15:
 217              		.thumb
 218              	.LBE33:
 219              		.loc 1 115 0
 220 0016 08BD     		pop	{r3, pc}
 221              		.cfi_endproc
 222              	.LFE8:
ARM GAS  /tmp/ccIuN4ur.s 			page 5


 223              		.size	chSemReset, .-chSemReset
 224 0018 AFF30080 		.section	.text.chSemWaitS,"ax",%progbits
 224      AFF30080 
 225              		.align	2
 226              		.p2align 4,,15
 227              		.global	chSemWaitS
 228              		.thumb
 229              		.thumb_func
 230              		.type	chSemWaitS, %function
 231              	chSemWaitS:
 232              	.LFB11:
 233              		.loc 1 185 0
 234              		.cfi_startproc
 235              		@ args = 0, pretend = 0, frame = 0
 236              		@ frame_needed = 0, uses_anonymous_args = 0
 237              	.LVL16:
 238              		.loc 1 194 0
 239 0000 8168     		ldr	r1, [r0, #8]
 240 0002 4A1E     		subs	r2, r1, #1
 241 0004 002A     		cmp	r2, #0
 242              		.loc 1 185 0
 243 0006 10B5     		push	{r4, lr}
 244              	.LCFI2:
 245              		.cfi_def_cfa_offset 8
 246              		.loc 1 185 0
 247 0008 0346     		mov	r3, r0
 248              		.loc 1 194 0
 249 000a 8260     		str	r2, [r0, #8]
 250 000c 01DB     		blt	.L19
 251              		.cfi_offset 14, -4
 252              		.cfi_offset 4, -8
 253              		.loc 1 200 0
 254 000e 0020     		movs	r0, #0
 255              	.LVL17:
 256              		.loc 1 201 0
 257 0010 10BD     		pop	{r4, pc}
 258              	.L19:
 259              		.loc 1 195 0
 260 0012 074C     		ldr	r4, .L20
 261 0014 E269     		ldr	r2, [r4, #28]
 262 0016 5062     		str	r0, [r2, #36]
 263              	.LVL18:
 264              	.LBB34:
 265              	.LBB35:
 266              		.loc 2 55 0
 267 0018 4168     		ldr	r1, [r0, #4]
 268              		.loc 2 54 0
 269 001a 1060     		str	r0, [r2, #0]
 270              		.loc 2 55 0
 271 001c 5160     		str	r1, [r2, #4]
 272              	.LBE35:
 273              	.LBE34:
 274              		.loc 1 197 0
 275 001e 0320     		movs	r0, #3
 276              	.LBB37:
 277              	.LBB36:
 278              		.loc 2 56 0
ARM GAS  /tmp/ccIuN4ur.s 			page 6


 279 0020 5A60     		str	r2, [r3, #4]
 280 0022 0A60     		str	r2, [r1, #0]
 281              	.LBE36:
 282              	.LBE37:
 283              		.loc 1 197 0
 284 0024 FFF7FEFF 		bl	chSchGoSleepS
 285              	.LVL19:
 286              		.loc 1 198 0
 287 0028 E369     		ldr	r3, [r4, #28]
 288 002a 586A     		ldr	r0, [r3, #36]
 289 002c 10BD     		pop	{r4, pc}
 290              	.L21:
 291 002e 00BF     		.align	2
 292              	.L20:
 293 0030 00000000 		.word	rlist
 294              		.cfi_endproc
 295              	.LFE11:
 296              		.size	chSemWaitS, .-chSemWaitS
 297 0034 AFF30080 		.section	.text.chSemWait,"ax",%progbits
 297      AFF30080 
 297      AFF30080 
 298              		.align	2
 299              		.p2align 4,,15
 300              		.global	chSemWait
 301              		.thumb
 302              		.thumb_func
 303              		.type	chSemWait, %function
 304              	chSemWait:
 305              	.LFB10:
 306              		.loc 1 164 0
 307              		.cfi_startproc
 308              		@ args = 0, pretend = 0, frame = 0
 309              		@ frame_needed = 0, uses_anonymous_args = 0
 310              	.LVL20:
 311 0000 08B5     		push	{r3, lr}
 312              	.LCFI3:
 313              		.cfi_def_cfa_offset 8
 314              	.LBB38:
 315              		.loc 1 167 0
 316 0002 2023     		movs	r3, #32
 317              		.cfi_offset 14, -4
 318              		.cfi_offset 3, -8
 319              	.LVL21:
 320              	@ 167 "../libs/ChibiOS_2.4.0/os/kernel/src/chsem.c" 1
 321 0004 83F31188 		msr     BASEPRI, r3
 322              	@ 0 "" 2
 323              	.LVL22:
 324              		.thumb
 325              	.LBE38:
 326              		.loc 1 168 0
 327 0008 FFF7FEFF 		bl	chSemWaitS
 328              	.LVL23:
 329              	.LBB39:
 330              		.loc 1 169 0
 331 000c 0023     		movs	r3, #0
 332              	.LVL24:
 333              	@ 169 "../libs/ChibiOS_2.4.0/os/kernel/src/chsem.c" 1
ARM GAS  /tmp/ccIuN4ur.s 			page 7


 334 000e 83F31188 		msr     BASEPRI, r3
 335              	@ 0 "" 2
 336              	.LVL25:
 337              		.thumb
 338              	.LBE39:
 339              		.loc 1 171 0
 340 0012 08BD     		pop	{r3, pc}
 341              		.cfi_endproc
 342              	.LFE10:
 343              		.size	chSemWait, .-chSemWait
 344 0014 AFF30080 		.section	.text.chSemWaitTimeoutS,"ax",%progbits
 344      AFF30080 
 344      AFF30080 
 345              		.align	2
 346              		.p2align 4,,15
 347              		.global	chSemWaitTimeoutS
 348              		.thumb
 349              		.thumb_func
 350              		.type	chSemWaitTimeoutS, %function
 351              	chSemWaitTimeoutS:
 352              	.LFB13:
 353              		.loc 1 250 0
 354              		.cfi_startproc
 355              		@ args = 0, pretend = 0, frame = 0
 356              		@ frame_needed = 0, uses_anonymous_args = 0
 357              		@ link register save eliminated.
 358              	.LVL26:
 359 0000 0346     		mov	r3, r0
 360              		.loc 1 259 0
 361 0002 8068     		ldr	r0, [r0, #8]
 362              	.LVL27:
 363 0004 421E     		subs	r2, r0, #1
 364 0006 002A     		cmp	r2, #0
 365              		.loc 1 250 0
 366 0008 10B4     		push	{r4}
 367              	.LCFI4:
 368              		.cfi_def_cfa_offset 4
 369              		.loc 1 259 0
 370 000a 9A60     		str	r2, [r3, #8]
 371 000c 02DB     		blt	.L27
 372              		.cfi_offset 4, -4
 373              		.loc 1 268 0
 374 000e 0020     		movs	r0, #0
 375              	.L24:
 376              		.loc 1 269 0
 377 0010 10BC     		pop	{r4}
 378 0012 7047     		bx	lr
 379              	.L27:
 380              		.loc 1 260 0
 381 0014 59B1     		cbz	r1, .L28
 382              		.loc 1 264 0
 383 0016 0848     		ldr	r0, .L29
 384 0018 C269     		ldr	r2, [r0, #28]
 385 001a 5362     		str	r3, [r2, #36]
 386              	.LVL28:
 387              	.LBB40:
 388              	.LBB41:
ARM GAS  /tmp/ccIuN4ur.s 			page 8


 389              		.loc 2 55 0
 390 001c 5C68     		ldr	r4, [r3, #4]
 391              		.loc 2 54 0
 392 001e 1360     		str	r3, [r2, #0]
 393              	.LBE41:
 394              	.LBE40:
 395              		.loc 1 266 0
 396 0020 0320     		movs	r0, #3
 397              	.LVL29:
 398              	.LBB43:
 399              	.LBB42:
 400              		.loc 2 55 0
 401 0022 5460     		str	r4, [r2, #4]
 402              		.loc 2 56 0
 403 0024 5A60     		str	r2, [r3, #4]
 404 0026 2260     		str	r2, [r4, #0]
 405              	.LBE42:
 406              	.LBE43:
 407              		.loc 1 269 0
 408 0028 10BC     		pop	{r4}
 409              		.loc 1 266 0
 410 002a FFF7FEBF 		b	chSchGoSleepTimeoutS
 411              	.LVL30:
 412              	.L28:
 413              		.loc 1 261 0
 414 002e 9860     		str	r0, [r3, #8]
 415              		.loc 1 262 0
 416 0030 4FF0FF30 		mov	r0, #-1
 417 0034 ECE7     		b	.L24
 418              	.L30:
 419 0036 00BF     		.align	2
 420              	.L29:
 421 0038 00000000 		.word	rlist
 422              		.cfi_endproc
 423              	.LFE13:
 424              		.size	chSemWaitTimeoutS, .-chSemWaitTimeoutS
 425 003c AFF30080 		.section	.text.chSemWaitTimeout,"ax",%progbits
 426              		.align	2
 427              		.p2align 4,,15
 428              		.global	chSemWaitTimeout
 429              		.thumb
 430              		.thumb_func
 431              		.type	chSemWaitTimeout, %function
 432              	chSemWaitTimeout:
 433              	.LFB12:
 434              		.loc 1 222 0
 435              		.cfi_startproc
 436              		@ args = 0, pretend = 0, frame = 0
 437              		@ frame_needed = 0, uses_anonymous_args = 0
 438              	.LVL31:
 439 0000 08B5     		push	{r3, lr}
 440              	.LCFI5:
 441              		.cfi_def_cfa_offset 8
 442              	.LBB44:
 443              		.loc 1 225 0
 444 0002 2023     		movs	r3, #32
 445              		.cfi_offset 14, -4
ARM GAS  /tmp/ccIuN4ur.s 			page 9


 446              		.cfi_offset 3, -8
 447              	.LVL32:
 448              	@ 225 "../libs/ChibiOS_2.4.0/os/kernel/src/chsem.c" 1
 449 0004 83F31188 		msr     BASEPRI, r3
 450              	@ 0 "" 2
 451              	.LVL33:
 452              		.thumb
 453              	.LBE44:
 454              		.loc 1 226 0
 455 0008 FFF7FEFF 		bl	chSemWaitTimeoutS
 456              	.LVL34:
 457              	.LBB45:
 458              		.loc 1 227 0
 459 000c 0023     		movs	r3, #0
 460              	.LVL35:
 461              	@ 227 "../libs/ChibiOS_2.4.0/os/kernel/src/chsem.c" 1
 462 000e 83F31188 		msr     BASEPRI, r3
 463              	@ 0 "" 2
 464              	.LVL36:
 465              		.thumb
 466              	.LBE45:
 467              		.loc 1 229 0
 468 0012 08BD     		pop	{r3, pc}
 469              		.cfi_endproc
 470              	.LFE12:
 471              		.size	chSemWaitTimeout, .-chSemWaitTimeout
 472 0014 AFF30080 		.section	.text.chSemSignal,"ax",%progbits
 472      AFF30080 
 472      AFF30080 
 473              		.align	2
 474              		.p2align 4,,15
 475              		.global	chSemSignal
 476              		.thumb
 477              		.thumb_func
 478              		.type	chSemSignal, %function
 479              	chSemSignal:
 480              	.LFB14:
 481              		.loc 1 278 0
 482              		.cfi_startproc
 483              		@ args = 0, pretend = 0, frame = 0
 484              		@ frame_needed = 0, uses_anonymous_args = 0
 485              	.LVL37:
 486 0000 08B5     		push	{r3, lr}
 487              	.LCFI6:
 488              		.cfi_def_cfa_offset 8
 489              		.loc 1 278 0
 490 0002 0246     		mov	r2, r0
 491              	.LBB46:
 492              		.loc 1 286 0
 493 0004 2023     		movs	r3, #32
 494              		.cfi_offset 14, -4
 495              		.cfi_offset 3, -8
 496              	.LVL38:
 497              	@ 286 "../libs/ChibiOS_2.4.0/os/kernel/src/chsem.c" 1
 498 0006 83F31188 		msr     BASEPRI, r3
 499              	@ 0 "" 2
 500              	.LVL39:
ARM GAS  /tmp/ccIuN4ur.s 			page 10


 501              		.thumb
 502              	.LBE46:
 503              		.loc 1 287 0
 504 000a 8168     		ldr	r1, [r0, #8]
 505 000c 4B1C     		adds	r3, r1, #1
 506              	.LVL40:
 507 000e 002B     		cmp	r3, #0
 508 0010 8360     		str	r3, [r0, #8]
 509 0012 03DD     		ble	.L34
 510              	.LBB47:
 511              		.loc 1 289 0
 512 0014 0023     		movs	r3, #0
 513              	.LVL41:
 514              	@ 289 "../libs/ChibiOS_2.4.0/os/kernel/src/chsem.c" 1
 515 0016 83F31188 		msr     BASEPRI, r3
 516              	@ 0 "" 2
 517              	.LVL42:
 518              		.thumb
 519              	.LBE47:
 520              		.loc 1 290 0
 521 001a 08BD     		pop	{r3, pc}
 522              	.LVL43:
 523              	.L34:
 524              	.LBB48:
 525              	.LBB49:
 526              		.loc 2 60 0
 527 001c 0068     		ldr	r0, [r0, #0]
 528              	.LVL44:
 529              		.loc 2 62 0
 530 001e 0368     		ldr	r3, [r0, #0]
 531              	.LBE49:
 532              	.LBE48:
 533              		.loc 1 288 0
 534 0020 0021     		movs	r1, #0
 535              	.LBB51:
 536              	.LBB50:
 537              		.loc 2 62 0
 538 0022 1360     		str	r3, [r2, #0]
 539 0024 5A60     		str	r2, [r3, #4]
 540              	.LBE50:
 541              	.LBE51:
 542              		.loc 1 288 0
 543 0026 FFF7FEFF 		bl	chSchWakeupS
 544              	.LVL45:
 545              	.LBB52:
 546              		.loc 1 289 0
 547 002a 0023     		movs	r3, #0
 548              	@ 289 "../libs/ChibiOS_2.4.0/os/kernel/src/chsem.c" 1
 549 002c 83F31188 		msr     BASEPRI, r3
 550              	@ 0 "" 2
 551              	.LVL46:
 552              		.thumb
 553              	.LBE52:
 554              		.loc 1 290 0
 555 0030 08BD     		pop	{r3, pc}
 556              		.cfi_endproc
 557              	.LFE14:
ARM GAS  /tmp/ccIuN4ur.s 			page 11


 558              		.size	chSemSignal, .-chSemSignal
 559 0032 00BFAFF3 		.section	.text.chSemSignalI,"ax",%progbits
 559      0080AFF3 
 559      0080AFF3 
 559      0080
 560              		.align	2
 561              		.p2align 4,,15
 562              		.global	chSemSignalI
 563              		.thumb
 564              		.thumb_func
 565              		.type	chSemSignalI, %function
 566              	chSemSignalI:
 567              	.LFB15:
 568              		.loc 1 303 0
 569              		.cfi_startproc
 570              		@ args = 0, pretend = 0, frame = 0
 571              		@ frame_needed = 0, uses_anonymous_args = 0
 572              		@ link register save eliminated.
 573              	.LVL47:
 574              		.loc 1 303 0
 575 0000 0346     		mov	r3, r0
 576              		.loc 1 312 0
 577 0002 8068     		ldr	r0, [r0, #8]
 578              	.LVL48:
 579 0004 421C     		adds	r2, r0, #1
 580 0006 002A     		cmp	r2, #0
 581 0008 9A60     		str	r2, [r3, #8]
 582 000a 00DD     		ble	.L37
 583 000c 7047     		bx	lr
 584              	.L37:
 585              	.LVL49:
 586              	.LBB53:
 587              	.LBB55:
 588              	.LBB56:
 589              		.loc 2 60 0
 590 000e 1A68     		ldr	r2, [r3, #0]
 591              	.LVL50:
 592              		.loc 2 62 0
 593 0010 1168     		ldr	r1, [r2, #0]
 594              	.LBE56:
 595              	.LBE55:
 596              		.loc 1 317 0
 597 0012 1046     		mov	r0, r2
 598              	.LBB54:
 599              	.LBB57:
 600              		.loc 2 62 0
 601 0014 1960     		str	r1, [r3, #0]
 602 0016 4B60     		str	r3, [r1, #4]
 603              	.LBE57:
 604              	.LBE54:
 605              		.loc 1 316 0
 606 0018 0023     		movs	r3, #0
 607              	.LVL51:
 608 001a 5362     		str	r3, [r2, #36]
 609              	.LBE53:
 610              		.loc 1 319 0
 611              	.LBB58:
ARM GAS  /tmp/ccIuN4ur.s 			page 12


 612              		.loc 1 317 0
 613 001c FFF7FEBF 		b	chSchReadyI
 614              	.LBE58:
 615              		.cfi_endproc
 616              	.LFE15:
 617              		.size	chSemSignalI, .-chSemSignalI
 618              		.section	.text.chSemAddCounterI,"ax",%progbits
 619              		.align	2
 620              		.p2align 4,,15
 621              		.global	chSemAddCounterI
 622              		.thumb
 623              		.thumb_func
 624              		.type	chSemAddCounterI, %function
 625              	chSemAddCounterI:
 626              	.LFB16:
 627              		.loc 1 334 0
 628              		.cfi_startproc
 629              		@ args = 0, pretend = 0, frame = 0
 630              		@ frame_needed = 0, uses_anonymous_args = 0
 631              	.LVL52:
 632 0000 F8B5     		push	{r3, r4, r5, r6, r7, lr}
 633              	.LCFI7:
 634              		.cfi_def_cfa_offset 24
 635              		.loc 1 343 0
 636 0002 0D1E     		subs	r5, r1, #0
 637              		.cfi_offset 14, -4
 638              		.cfi_offset 7, -8
 639              		.cfi_offset 6, -12
 640              		.cfi_offset 5, -16
 641              		.cfi_offset 4, -20
 642              		.cfi_offset 3, -24
 643              		.loc 1 334 0
 644 0004 0446     		mov	r4, r0
 645              		.loc 1 343 0
 646 0006 37DD     		ble	.L38
 647              		.loc 1 344 0
 648 0008 8168     		ldr	r1, [r0, #8]
 649              	.LVL53:
 650              		.loc 1 345 0
 651 000a 0026     		movs	r6, #0
 652              		.loc 1 344 0
 653 000c 4B1C     		adds	r3, r1, #1
 654 000e 6F1E     		subs	r7, r5, #1
 655 0010 B342     		cmp	r3, r6
 656 0012 8360     		str	r3, [r0, #8]
 657 0014 07F00107 		and	r7, r7, #1
 658 0018 2FDD     		ble	.L54
 659              	.LVL54:
 660              	.L44:
 661              		.loc 1 343 0
 662 001a 013D     		subs	r5, r5, #1
 663 001c 2CD0     		beq	.L38
 664 001e 7FB1     		cbz	r7, .L42
 665              		.loc 1 344 0
 666 0020 A168     		ldr	r1, [r4, #8]
 667 0022 4B1C     		adds	r3, r1, #1
 668 0024 002B     		cmp	r3, #0
ARM GAS  /tmp/ccIuN4ur.s 			page 13


 669 0026 A360     		str	r3, [r4, #8]
 670 0028 2FDD     		ble	.L55
 671              	.L46:
 672              		.loc 1 343 0
 673 002a 013D     		subs	r5, r5, #1
 674 002c 08D1     		bne	.L42
 675 002e 34E0     		b	.L59
 676              	.L40:
 677              		.loc 1 344 0
 678 0030 A068     		ldr	r0, [r4, #8]
 679 0032 411C     		adds	r1, r0, #1
 680              		.loc 1 346 0
 681 0034 013D     		subs	r5, r5, #1
 682              		.loc 1 344 0
 683 0036 0029     		cmp	r1, #0
 684 0038 A160     		str	r1, [r4, #8]
 685 003a 13DD     		ble	.L57
 686              	.L49:
 687              		.loc 1 343 0
 688 003c 013D     		subs	r5, r5, #1
 689 003e 1AD0     		beq	.L58
 690              	.L42:
 691              		.loc 1 344 0
 692 0040 A268     		ldr	r2, [r4, #8]
 693 0042 501C     		adds	r0, r2, #1
 694 0044 0028     		cmp	r0, #0
 695 0046 A060     		str	r0, [r4, #8]
 696 0048 F2DC     		bgt	.L40
 697              	.LVL55:
 698              	.LBB59:
 699              	.LBB61:
 700              		.loc 2 60 0
 701 004a 2068     		ldr	r0, [r4, #0]
 702              	.LVL56:
 703              		.loc 2 62 0
 704 004c 0368     		ldr	r3, [r0, #0]
 705 004e 2360     		str	r3, [r4, #0]
 706 0050 5C60     		str	r4, [r3, #4]
 707              	.LBE61:
 708              	.LBE59:
 709              		.loc 1 345 0
 710 0052 FFF7FEFF 		bl	chSchReadyI
 711              	.LVL57:
 712 0056 4662     		str	r6, [r0, #36]
 713              		.loc 1 344 0
 714 0058 A068     		ldr	r0, [r4, #8]
 715 005a 411C     		adds	r1, r0, #1
 716              		.loc 1 346 0
 717 005c 013D     		subs	r5, r5, #1
 718              		.loc 1 344 0
 719 005e 0029     		cmp	r1, #0
 720 0060 A160     		str	r1, [r4, #8]
 721 0062 EBDC     		bgt	.L49
 722              	.LVL58:
 723              	.L57:
 724              	.LBB64:
 725              	.LBB62:
ARM GAS  /tmp/ccIuN4ur.s 			page 14


 726              		.loc 2 60 0
 727 0064 2068     		ldr	r0, [r4, #0]
 728              		.loc 2 62 0
 729 0066 0368     		ldr	r3, [r0, #0]
 730 0068 2360     		str	r3, [r4, #0]
 731 006a 5C60     		str	r4, [r3, #4]
 732              	.LBE62:
 733              	.LBE64:
 734              		.loc 1 345 0
 735 006c FFF7FEFF 		bl	chSchReadyI
 736              		.loc 1 343 0
 737 0070 013D     		subs	r5, r5, #1
 738              		.loc 1 345 0
 739 0072 4662     		str	r6, [r0, #36]
 740              		.loc 1 343 0
 741 0074 E4D1     		bne	.L42
 742              	.LVL59:
 743              	.L58:
 744 0076 F8BD     		pop	{r3, r4, r5, r6, r7, pc}
 745              	.L38:
 746 0078 F8BD     		pop	{r3, r4, r5, r6, r7, pc}
 747              	.LVL60:
 748              	.L54:
 749              	.LBB65:
 750              	.LBB60:
 751              		.loc 2 60 0
 752 007a 0068     		ldr	r0, [r0, #0]
 753              		.loc 2 62 0
 754 007c 0268     		ldr	r2, [r0, #0]
 755 007e 2260     		str	r2, [r4, #0]
 756 0080 5460     		str	r4, [r2, #4]
 757              	.LBE60:
 758              	.LBE65:
 759              		.loc 1 345 0
 760 0082 FFF7FEFF 		bl	chSchReadyI
 761 0086 4662     		str	r6, [r0, #36]
 762 0088 C7E7     		b	.L44
 763              	.LVL61:
 764              	.L55:
 765              	.LBB66:
 766              	.LBB63:
 767              		.loc 2 60 0
 768 008a 2068     		ldr	r0, [r4, #0]
 769              		.loc 2 62 0
 770 008c 0268     		ldr	r2, [r0, #0]
 771 008e 2260     		str	r2, [r4, #0]
 772 0090 5460     		str	r4, [r2, #4]
 773              	.LBE63:
 774              	.LBE66:
 775              		.loc 1 345 0
 776 0092 FFF7FEFF 		bl	chSchReadyI
 777 0096 4662     		str	r6, [r0, #36]
 778 0098 C7E7     		b	.L46
 779              	.LVL62:
 780              	.L59:
 781 009a F8BD     		pop	{r3, r4, r5, r6, r7, pc}
 782              		.cfi_endproc
ARM GAS  /tmp/ccIuN4ur.s 			page 15


 783              	.LFE16:
 784              		.size	chSemAddCounterI, .-chSemAddCounterI
 785 009c AFF30080 		.section	.text.chSemSignalWait,"ax",%progbits
 786              		.align	2
 787              		.p2align 4,,15
 788              		.global	chSemSignalWait
 789              		.thumb
 790              		.thumb_func
 791              		.type	chSemSignalWait, %function
 792              	chSemSignalWait:
 793              	.LFB17:
 794              		.loc 1 366 0
 795              		.cfi_startproc
 796              		@ args = 0, pretend = 0, frame = 8
 797              		@ frame_needed = 0, uses_anonymous_args = 0
 798              	.LVL63:
 799 0000 10B5     		push	{r4, lr}
 800              	.LCFI8:
 801              		.cfi_def_cfa_offset 8
 802 0002 0246     		mov	r2, r0
 803 0004 82B0     		sub	sp, sp, #8
 804              	.LCFI9:
 805              		.cfi_def_cfa_offset 16
 806              	.LBB67:
 807              		.loc 1 379 0
 808 0006 2023     		movs	r3, #32
 809              	.LVL64:
 810              	@ 379 "../libs/ChibiOS_2.4.0/os/kernel/src/chsem.c" 1
 811 0008 83F31188 		msr     BASEPRI, r3
 812              	@ 0 "" 2
 813              	.LVL65:
 814              		.thumb
 815              	.LBE67:
 816              		.loc 1 380 0
 817 000c 8368     		ldr	r3, [r0, #8]
 818              	.LVL66:
 819 000e 0133     		adds	r3, r3, #1
 820 0010 002B     		cmp	r3, #0
 821 0012 8360     		str	r3, [r0, #8]
 822 0014 19DD     		ble	.L64
 823              		.cfi_offset 14, -4
 824              		.cfi_offset 4, -8
 825              	.LVL67:
 826              	.L61:
 827              		.loc 1 382 0
 828 0016 8A68     		ldr	r2, [r1, #8]
 829 0018 501E     		subs	r0, r2, #1
 830 001a 0028     		cmp	r0, #0
 831 001c 8860     		str	r0, [r1, #8]
 832 001e 07DB     		blt	.L65
 833              		.loc 1 390 0
 834 0020 FFF7FEFF 		bl	chSchRescheduleS
 835              	.LVL68:
 836              		.loc 1 391 0
 837 0024 0020     		movs	r0, #0
 838              	.LVL69:
 839              	.L63:
ARM GAS  /tmp/ccIuN4ur.s 			page 16


 840              	.LBB68:
 841              		.loc 1 393 0
 842 0026 0023     		movs	r3, #0
 843              	.LVL70:
 844              	@ 393 "../libs/ChibiOS_2.4.0/os/kernel/src/chsem.c" 1
 845 0028 83F31188 		msr     BASEPRI, r3
 846              	@ 0 "" 2
 847              	.LVL71:
 848              		.thumb
 849              	.LBE68:
 850              		.loc 1 395 0
 851 002c 02B0     		add	sp, sp, #8
 852 002e 10BD     		pop	{r4, pc}
 853              	.LVL72:
 854              	.L65:
 855              	.LBB69:
 856              		.loc 1 383 0
 857 0030 0B4C     		ldr	r4, .L66
 858              	.LBB70:
 859              	.LBB71:
 860              		.loc 2 55 0
 861 0032 4B68     		ldr	r3, [r1, #4]
 862              	.LBE71:
 863              	.LBE70:
 864              		.loc 1 383 0
 865 0034 E469     		ldr	r4, [r4, #28]
 866              	.LVL73:
 867              		.loc 1 386 0
 868 0036 0320     		movs	r0, #3
 869              	.LBB73:
 870              	.LBB72:
 871              		.loc 2 54 0
 872 0038 2160     		str	r1, [r4, #0]
 873              		.loc 2 55 0
 874 003a 6360     		str	r3, [r4, #4]
 875              		.loc 2 56 0
 876 003c 4C60     		str	r4, [r1, #4]
 877 003e 1C60     		str	r4, [r3, #0]
 878              	.LBE72:
 879              	.LBE73:
 880              		.loc 1 385 0
 881 0040 6162     		str	r1, [r4, #36]
 882              		.loc 1 386 0
 883 0042 FFF7FEFF 		bl	chSchGoSleepS
 884              	.LVL74:
 885              		.loc 1 387 0
 886 0046 606A     		ldr	r0, [r4, #36]
 887              	.LVL75:
 888 0048 EDE7     		b	.L63
 889              	.LVL76:
 890              	.L64:
 891              	.LBE69:
 892              	.LBB74:
 893              	.LBB75:
 894              		.loc 2 60 0
 895 004a 0068     		ldr	r0, [r0, #0]
 896              	.LVL77:
ARM GAS  /tmp/ccIuN4ur.s 			page 17


 897              		.loc 2 62 0
 898 004c 0368     		ldr	r3, [r0, #0]
 899 004e 1360     		str	r3, [r2, #0]
 900 0050 5A60     		str	r2, [r3, #4]
 901              	.LBE75:
 902              	.LBE74:
 903              		.loc 1 381 0
 904 0052 0191     		str	r1, [sp, #4]
 905 0054 FFF7FEFF 		bl	chSchReadyI
 906              	.LVL78:
 907 0058 0021     		movs	r1, #0
 908 005a 4162     		str	r1, [r0, #36]
 909 005c 0199     		ldr	r1, [sp, #4]
 910 005e DAE7     		b	.L61
 911              	.L67:
 912              		.align	2
 913              	.L66:
 914 0060 00000000 		.word	rlist
 915              		.cfi_endproc
 916              	.LFE17:
 917              		.size	chSemSignalWait, .-chSemSignalWait
 918 0064 AFF30080 		.text
 918      AFF30080 
 918      AFF30080 
 919              	.Letext0:
 920              		.section	.debug_loc,"",%progbits
 921              	.Ldebug_loc0:
 922              	.LLST0:
 923 0000 00000000 		.4byte	.LFB9
 924 0004 02000000 		.4byte	.LCFI0
 925 0008 0200     		.2byte	0x2
 926 000a 7D       		.byte	0x7d
 927 000b 00       		.sleb128 0
 928 000c 02000000 		.4byte	.LCFI0
 929 0010 68000000 		.4byte	.LFE9
 930 0014 0200     		.2byte	0x2
 931 0016 7D       		.byte	0x7d
 932 0017 18       		.sleb128 24
 933 0018 00000000 		.4byte	0x0
 934 001c 00000000 		.4byte	0x0
 935              	.LLST1:
 936 0020 00000000 		.4byte	.LVL1
 937 0024 10000000 		.4byte	.LVL4
 938 0028 0100     		.2byte	0x1
 939 002a 50       		.byte	0x50
 940 002b 10000000 		.4byte	.LVL4
 941 002f 68000000 		.4byte	.LFE9
 942 0033 0100     		.2byte	0x1
 943 0035 54       		.byte	0x54
 944 0036 00000000 		.4byte	0x0
 945 003a 00000000 		.4byte	0x0
 946              	.LLST2:
 947 003e 00000000 		.4byte	.LVL1
 948 0042 19000000 		.4byte	.LVL5-1
 949 0046 0100     		.2byte	0x1
 950 0048 51       		.byte	0x51
 951 0049 00000000 		.4byte	0x0
ARM GAS  /tmp/ccIuN4ur.s 			page 18


 952 004d 00000000 		.4byte	0x0
 953              	.LLST3:
 954 0051 04000000 		.4byte	.LVL2
 955 0055 08000000 		.4byte	.LVL3
 956 0059 0200     		.2byte	0x2
 957 005b 70       		.byte	0x70
 958 005c 08       		.sleb128 8
 959 005d 08000000 		.4byte	.LVL3
 960 0061 24000000 		.4byte	.LVL7
 961 0065 0100     		.2byte	0x1
 962 0067 57       		.byte	0x57
 963 0068 00000000 		.4byte	0x0
 964 006c 00000000 		.4byte	0x0
 965              	.LLST4:
 966 0070 22000000 		.4byte	.LVL6
 967 0074 62000000 		.4byte	.LVL8
 968 0078 0100     		.2byte	0x1
 969 007a 54       		.byte	0x54
 970 007b 64000000 		.4byte	.LVL9
 971 007f 68000000 		.4byte	.LFE9
 972 0083 0100     		.2byte	0x1
 973 0085 54       		.byte	0x54
 974 0086 00000000 		.4byte	0x0
 975 008a 00000000 		.4byte	0x0
 976              	.LLST5:
 977 008e 00000000 		.4byte	.LFB8
 978 0092 02000000 		.4byte	.LCFI1
 979 0096 0200     		.2byte	0x2
 980 0098 7D       		.byte	0x7d
 981 0099 00       		.sleb128 0
 982 009a 02000000 		.4byte	.LCFI1
 983 009e 18000000 		.4byte	.LFE8
 984 00a2 0200     		.2byte	0x2
 985 00a4 7D       		.byte	0x7d
 986 00a5 08       		.sleb128 8
 987 00a6 00000000 		.4byte	0x0
 988 00aa 00000000 		.4byte	0x0
 989              	.LLST6:
 990 00ae 00000000 		.4byte	.LVL10
 991 00b2 0B000000 		.4byte	.LVL13-1
 992 00b6 0100     		.2byte	0x1
 993 00b8 50       		.byte	0x50
 994 00b9 00000000 		.4byte	0x0
 995 00bd 00000000 		.4byte	0x0
 996              	.LLST7:
 997 00c1 00000000 		.4byte	.LVL10
 998 00c5 0B000000 		.4byte	.LVL13-1
 999 00c9 0100     		.2byte	0x1
 1000 00cb 51       		.byte	0x51
 1001 00cc 00000000 		.4byte	0x0
 1002 00d0 00000000 		.4byte	0x0
 1003              	.LLST8:
 1004 00d4 08000000 		.4byte	.LVL12
 1005 00d8 0B000000 		.4byte	.LVL13-1
 1006 00dc 0100     		.2byte	0x1
 1007 00de 53       		.byte	0x53
 1008 00df 00000000 		.4byte	0x0
ARM GAS  /tmp/ccIuN4ur.s 			page 19


 1009 00e3 00000000 		.4byte	0x0
 1010              	.LLST9:
 1011 00e7 16000000 		.4byte	.LVL15
 1012 00eb 18000000 		.4byte	.LFE8
 1013 00ef 0100     		.2byte	0x1
 1014 00f1 53       		.byte	0x53
 1015 00f2 00000000 		.4byte	0x0
 1016 00f6 00000000 		.4byte	0x0
 1017              	.LLST10:
 1018 00fa 00000000 		.4byte	.LFB11
 1019 00fe 08000000 		.4byte	.LCFI2
 1020 0102 0200     		.2byte	0x2
 1021 0104 7D       		.byte	0x7d
 1022 0105 00       		.sleb128 0
 1023 0106 08000000 		.4byte	.LCFI2
 1024 010a 34000000 		.4byte	.LFE11
 1025 010e 0200     		.2byte	0x2
 1026 0110 7D       		.byte	0x7d
 1027 0111 08       		.sleb128 8
 1028 0112 00000000 		.4byte	0x0
 1029 0116 00000000 		.4byte	0x0
 1030              	.LLST11:
 1031 011a 00000000 		.4byte	.LVL16
 1032 011e 10000000 		.4byte	.LVL17
 1033 0122 0100     		.2byte	0x1
 1034 0124 50       		.byte	0x50
 1035 0125 10000000 		.4byte	.LVL17
 1036 0129 27000000 		.4byte	.LVL19-1
 1037 012d 0100     		.2byte	0x1
 1038 012f 53       		.byte	0x53
 1039 0130 00000000 		.4byte	0x0
 1040 0134 00000000 		.4byte	0x0
 1041              	.LLST12:
 1042 0138 18000000 		.4byte	.LVL18
 1043 013c 27000000 		.4byte	.LVL19-1
 1044 0140 0100     		.2byte	0x1
 1045 0142 53       		.byte	0x53
 1046 0143 00000000 		.4byte	0x0
 1047 0147 00000000 		.4byte	0x0
 1048              	.LLST13:
 1049 014b 18000000 		.4byte	.LVL18
 1050 014f 27000000 		.4byte	.LVL19-1
 1051 0153 0200     		.2byte	0x2
 1052 0155 74       		.byte	0x74
 1053 0156 1C       		.sleb128 28
 1054 0157 00000000 		.4byte	0x0
 1055 015b 00000000 		.4byte	0x0
 1056              	.LLST14:
 1057 015f 00000000 		.4byte	.LFB10
 1058 0163 02000000 		.4byte	.LCFI3
 1059 0167 0200     		.2byte	0x2
 1060 0169 7D       		.byte	0x7d
 1061 016a 00       		.sleb128 0
 1062 016b 02000000 		.4byte	.LCFI3
 1063 016f 14000000 		.4byte	.LFE10
 1064 0173 0200     		.2byte	0x2
 1065 0175 7D       		.byte	0x7d
ARM GAS  /tmp/ccIuN4ur.s 			page 20


 1066 0176 08       		.sleb128 8
 1067 0177 00000000 		.4byte	0x0
 1068 017b 00000000 		.4byte	0x0
 1069              	.LLST15:
 1070 017f 00000000 		.4byte	.LVL20
 1071 0183 0B000000 		.4byte	.LVL23-1
 1072 0187 0100     		.2byte	0x1
 1073 0189 50       		.byte	0x50
 1074 018a 00000000 		.4byte	0x0
 1075 018e 00000000 		.4byte	0x0
 1076              	.LLST16:
 1077 0192 08000000 		.4byte	.LVL22
 1078 0196 0B000000 		.4byte	.LVL23-1
 1079 019a 0100     		.2byte	0x1
 1080 019c 53       		.byte	0x53
 1081 019d 00000000 		.4byte	0x0
 1082 01a1 00000000 		.4byte	0x0
 1083              	.LLST17:
 1084 01a5 12000000 		.4byte	.LVL25
 1085 01a9 14000000 		.4byte	.LFE10
 1086 01ad 0100     		.2byte	0x1
 1087 01af 53       		.byte	0x53
 1088 01b0 00000000 		.4byte	0x0
 1089 01b4 00000000 		.4byte	0x0
 1090              	.LLST18:
 1091 01b8 00000000 		.4byte	.LFB13
 1092 01bc 0A000000 		.4byte	.LCFI4
 1093 01c0 0200     		.2byte	0x2
 1094 01c2 7D       		.byte	0x7d
 1095 01c3 00       		.sleb128 0
 1096 01c4 0A000000 		.4byte	.LCFI4
 1097 01c8 3C000000 		.4byte	.LFE13
 1098 01cc 0200     		.2byte	0x2
 1099 01ce 7D       		.byte	0x7d
 1100 01cf 04       		.sleb128 4
 1101 01d0 00000000 		.4byte	0x0
 1102 01d4 00000000 		.4byte	0x0
 1103              	.LLST19:
 1104 01d8 00000000 		.4byte	.LVL26
 1105 01dc 04000000 		.4byte	.LVL27
 1106 01e0 0100     		.2byte	0x1
 1107 01e2 50       		.byte	0x50
 1108 01e3 04000000 		.4byte	.LVL27
 1109 01e7 2D000000 		.4byte	.LVL30-1
 1110 01eb 0100     		.2byte	0x1
 1111 01ed 53       		.byte	0x53
 1112 01ee 2E000000 		.4byte	.LVL30
 1113 01f2 3C000000 		.4byte	.LFE13
 1114 01f6 0100     		.2byte	0x1
 1115 01f8 53       		.byte	0x53
 1116 01f9 00000000 		.4byte	0x0
 1117 01fd 00000000 		.4byte	0x0
 1118              	.LLST20:
 1119 0201 00000000 		.4byte	.LVL26
 1120 0205 2D000000 		.4byte	.LVL30-1
 1121 0209 0100     		.2byte	0x1
 1122 020b 51       		.byte	0x51
ARM GAS  /tmp/ccIuN4ur.s 			page 21


 1123 020c 2E000000 		.4byte	.LVL30
 1124 0210 3C000000 		.4byte	.LFE13
 1125 0214 0100     		.2byte	0x1
 1126 0216 51       		.byte	0x51
 1127 0217 00000000 		.4byte	0x0
 1128 021b 00000000 		.4byte	0x0
 1129              	.LLST21:
 1130 021f 1C000000 		.4byte	.LVL28
 1131 0223 2D000000 		.4byte	.LVL30-1
 1132 0227 0100     		.2byte	0x1
 1133 0229 53       		.byte	0x53
 1134 022a 00000000 		.4byte	0x0
 1135 022e 00000000 		.4byte	0x0
 1136              	.LLST22:
 1137 0232 1C000000 		.4byte	.LVL28
 1138 0236 22000000 		.4byte	.LVL29
 1139 023a 0200     		.2byte	0x2
 1140 023c 70       		.byte	0x70
 1141 023d 1C       		.sleb128 28
 1142 023e 00000000 		.4byte	0x0
 1143 0242 00000000 		.4byte	0x0
 1144              	.LLST23:
 1145 0246 00000000 		.4byte	.LFB12
 1146 024a 02000000 		.4byte	.LCFI5
 1147 024e 0200     		.2byte	0x2
 1148 0250 7D       		.byte	0x7d
 1149 0251 00       		.sleb128 0
 1150 0252 02000000 		.4byte	.LCFI5
 1151 0256 14000000 		.4byte	.LFE12
 1152 025a 0200     		.2byte	0x2
 1153 025c 7D       		.byte	0x7d
 1154 025d 08       		.sleb128 8
 1155 025e 00000000 		.4byte	0x0
 1156 0262 00000000 		.4byte	0x0
 1157              	.LLST24:
 1158 0266 00000000 		.4byte	.LVL31
 1159 026a 0B000000 		.4byte	.LVL34-1
 1160 026e 0100     		.2byte	0x1
 1161 0270 50       		.byte	0x50
 1162 0271 00000000 		.4byte	0x0
 1163 0275 00000000 		.4byte	0x0
 1164              	.LLST25:
 1165 0279 00000000 		.4byte	.LVL31
 1166 027d 0B000000 		.4byte	.LVL34-1
 1167 0281 0100     		.2byte	0x1
 1168 0283 51       		.byte	0x51
 1169 0284 00000000 		.4byte	0x0
 1170 0288 00000000 		.4byte	0x0
 1171              	.LLST26:
 1172 028c 08000000 		.4byte	.LVL33
 1173 0290 0B000000 		.4byte	.LVL34-1
 1174 0294 0100     		.2byte	0x1
 1175 0296 53       		.byte	0x53
 1176 0297 00000000 		.4byte	0x0
 1177 029b 00000000 		.4byte	0x0
 1178              	.LLST27:
 1179 029f 12000000 		.4byte	.LVL36
ARM GAS  /tmp/ccIuN4ur.s 			page 22


 1180 02a3 14000000 		.4byte	.LFE12
 1181 02a7 0100     		.2byte	0x1
 1182 02a9 53       		.byte	0x53
 1183 02aa 00000000 		.4byte	0x0
 1184 02ae 00000000 		.4byte	0x0
 1185              	.LLST28:
 1186 02b2 00000000 		.4byte	.LFB14
 1187 02b6 02000000 		.4byte	.LCFI6
 1188 02ba 0200     		.2byte	0x2
 1189 02bc 7D       		.byte	0x7d
 1190 02bd 00       		.sleb128 0
 1191 02be 02000000 		.4byte	.LCFI6
 1192 02c2 32000000 		.4byte	.LFE14
 1193 02c6 0200     		.2byte	0x2
 1194 02c8 7D       		.byte	0x7d
 1195 02c9 08       		.sleb128 8
 1196 02ca 00000000 		.4byte	0x0
 1197 02ce 00000000 		.4byte	0x0
 1198              	.LLST29:
 1199 02d2 00000000 		.4byte	.LVL37
 1200 02d6 1E000000 		.4byte	.LVL44
 1201 02da 0100     		.2byte	0x1
 1202 02dc 50       		.byte	0x50
 1203 02dd 1E000000 		.4byte	.LVL44
 1204 02e1 29000000 		.4byte	.LVL45-1
 1205 02e5 0100     		.2byte	0x1
 1206 02e7 52       		.byte	0x52
 1207 02e8 00000000 		.4byte	0x0
 1208 02ec 00000000 		.4byte	0x0
 1209              	.LLST30:
 1210 02f0 0A000000 		.4byte	.LVL39
 1211 02f4 0E000000 		.4byte	.LVL40
 1212 02f8 0100     		.2byte	0x1
 1213 02fa 53       		.byte	0x53
 1214 02fb 00000000 		.4byte	0x0
 1215 02ff 00000000 		.4byte	0x0
 1216              	.LLST31:
 1217 0303 1A000000 		.4byte	.LVL42
 1218 0307 1C000000 		.4byte	.LVL43
 1219 030b 0100     		.2byte	0x1
 1220 030d 53       		.byte	0x53
 1221 030e 30000000 		.4byte	.LVL46
 1222 0312 32000000 		.4byte	.LFE14
 1223 0316 0100     		.2byte	0x1
 1224 0318 53       		.byte	0x53
 1225 0319 00000000 		.4byte	0x0
 1226 031d 00000000 		.4byte	0x0
 1227              	.LLST32:
 1228 0321 1C000000 		.4byte	.LVL43
 1229 0325 1E000000 		.4byte	.LVL44
 1230 0329 0100     		.2byte	0x1
 1231 032b 50       		.byte	0x50
 1232 032c 1E000000 		.4byte	.LVL44
 1233 0330 29000000 		.4byte	.LVL45-1
 1234 0334 0100     		.2byte	0x1
 1235 0336 52       		.byte	0x52
 1236 0337 00000000 		.4byte	0x0
ARM GAS  /tmp/ccIuN4ur.s 			page 23


 1237 033b 00000000 		.4byte	0x0
 1238              	.LLST33:
 1239 033f 1E000000 		.4byte	.LVL44
 1240 0343 29000000 		.4byte	.LVL45-1
 1241 0347 0200     		.2byte	0x2
 1242 0349 72       		.byte	0x72
 1243 034a 00       		.sleb128 0
 1244 034b 00000000 		.4byte	0x0
 1245 034f 00000000 		.4byte	0x0
 1246              	.LLST34:
 1247 0353 00000000 		.4byte	.LVL47
 1248 0357 04000000 		.4byte	.LVL48
 1249 035b 0100     		.2byte	0x1
 1250 035d 50       		.byte	0x50
 1251 035e 04000000 		.4byte	.LVL48
 1252 0362 1A000000 		.4byte	.LVL51
 1253 0366 0100     		.2byte	0x1
 1254 0368 53       		.byte	0x53
 1255 0369 1A000000 		.4byte	.LVL51
 1256 036d 20000000 		.4byte	.LFE15
 1257 0371 0500     		.2byte	0x5
 1258 0373 70       		.byte	0x70
 1259 0374 00       		.sleb128 0
 1260 0375 06       		.byte	0x6
 1261 0376 23       		.byte	0x23
 1262 0377 04       		.uleb128 0x4
 1263 0378 00000000 		.4byte	0x0
 1264 037c 00000000 		.4byte	0x0
 1265              	.LLST35:
 1266 0380 0E000000 		.4byte	.LVL49
 1267 0384 1A000000 		.4byte	.LVL51
 1268 0388 0100     		.2byte	0x1
 1269 038a 53       		.byte	0x53
 1270 038b 1A000000 		.4byte	.LVL51
 1271 038f 20000000 		.4byte	.LFE15
 1272 0393 0500     		.2byte	0x5
 1273 0395 70       		.byte	0x70
 1274 0396 00       		.sleb128 0
 1275 0397 06       		.byte	0x6
 1276 0398 23       		.byte	0x23
 1277 0399 04       		.uleb128 0x4
 1278 039a 00000000 		.4byte	0x0
 1279 039e 00000000 		.4byte	0x0
 1280              	.LLST36:
 1281 03a2 10000000 		.4byte	.LVL50
 1282 03a6 1A000000 		.4byte	.LVL51
 1283 03aa 0200     		.2byte	0x2
 1284 03ac 73       		.byte	0x73
 1285 03ad 00       		.sleb128 0
 1286 03ae 1A000000 		.4byte	.LVL51
 1287 03b2 20000000 		.4byte	.LFE15
 1288 03b6 0100     		.2byte	0x1
 1289 03b8 50       		.byte	0x50
 1290 03b9 00000000 		.4byte	0x0
 1291 03bd 00000000 		.4byte	0x0
 1292              	.LLST37:
 1293 03c1 00000000 		.4byte	.LFB16
ARM GAS  /tmp/ccIuN4ur.s 			page 24


 1294 03c5 02000000 		.4byte	.LCFI7
 1295 03c9 0200     		.2byte	0x2
 1296 03cb 7D       		.byte	0x7d
 1297 03cc 00       		.sleb128 0
 1298 03cd 02000000 		.4byte	.LCFI7
 1299 03d1 9C000000 		.4byte	.LFE16
 1300 03d5 0200     		.2byte	0x2
 1301 03d7 7D       		.byte	0x7d
 1302 03d8 18       		.sleb128 24
 1303 03d9 00000000 		.4byte	0x0
 1304 03dd 00000000 		.4byte	0x0
 1305              	.LLST38:
 1306 03e1 00000000 		.4byte	.LVL52
 1307 03e5 1A000000 		.4byte	.LVL54
 1308 03e9 0100     		.2byte	0x1
 1309 03eb 50       		.byte	0x50
 1310 03ec 1A000000 		.4byte	.LVL54
 1311 03f0 9C000000 		.4byte	.LFE16
 1312 03f4 0100     		.2byte	0x1
 1313 03f6 54       		.byte	0x54
 1314 03f7 00000000 		.4byte	0x0
 1315 03fb 00000000 		.4byte	0x0
 1316              	.LLST39:
 1317 03ff 00000000 		.4byte	.LVL52
 1318 0403 0A000000 		.4byte	.LVL53
 1319 0407 0100     		.2byte	0x1
 1320 0409 51       		.byte	0x51
 1321 040a 0A000000 		.4byte	.LVL53
 1322 040e 1A000000 		.4byte	.LVL54
 1323 0412 0100     		.2byte	0x1
 1324 0414 55       		.byte	0x55
 1325 0415 7A000000 		.4byte	.LVL60
 1326 0419 8A000000 		.4byte	.LVL61
 1327 041d 0100     		.2byte	0x1
 1328 041f 55       		.byte	0x55
 1329 0420 00000000 		.4byte	0x0
 1330 0424 00000000 		.4byte	0x0
 1331              	.LLST40:
 1332 0428 4A000000 		.4byte	.LVL55
 1333 042c 64000000 		.4byte	.LVL58
 1334 0430 0100     		.2byte	0x1
 1335 0432 54       		.byte	0x54
 1336 0433 64000000 		.4byte	.LVL58
 1337 0437 76000000 		.4byte	.LVL59
 1338 043b 0100     		.2byte	0x1
 1339 043d 54       		.byte	0x54
 1340 043e 7A000000 		.4byte	.LVL60
 1341 0442 8A000000 		.4byte	.LVL61
 1342 0446 0100     		.2byte	0x1
 1343 0448 54       		.byte	0x54
 1344 0449 8A000000 		.4byte	.LVL61
 1345 044d 9A000000 		.4byte	.LVL62
 1346 0451 0100     		.2byte	0x1
 1347 0453 54       		.byte	0x54
 1348 0454 00000000 		.4byte	0x0
 1349 0458 00000000 		.4byte	0x0
 1350              	.LLST41:
ARM GAS  /tmp/ccIuN4ur.s 			page 25


 1351 045c 4C000000 		.4byte	.LVL56
 1352 0460 55000000 		.4byte	.LVL57-1
 1353 0464 0200     		.2byte	0x2
 1354 0466 74       		.byte	0x74
 1355 0467 00       		.sleb128 0
 1356 0468 00000000 		.4byte	0x0
 1357 046c 00000000 		.4byte	0x0
 1358              	.LLST42:
 1359 0470 00000000 		.4byte	.LFB17
 1360 0474 02000000 		.4byte	.LCFI8
 1361 0478 0200     		.2byte	0x2
 1362 047a 7D       		.byte	0x7d
 1363 047b 00       		.sleb128 0
 1364 047c 02000000 		.4byte	.LCFI8
 1365 0480 06000000 		.4byte	.LCFI9
 1366 0484 0200     		.2byte	0x2
 1367 0486 7D       		.byte	0x7d
 1368 0487 08       		.sleb128 8
 1369 0488 06000000 		.4byte	.LCFI9
 1370 048c 64000000 		.4byte	.LFE17
 1371 0490 0200     		.2byte	0x2
 1372 0492 7D       		.byte	0x7d
 1373 0493 10       		.sleb128 16
 1374 0494 00000000 		.4byte	0x0
 1375 0498 00000000 		.4byte	0x0
 1376              	.LLST43:
 1377 049c 00000000 		.4byte	.LVL63
 1378 04a0 16000000 		.4byte	.LVL67
 1379 04a4 0100     		.2byte	0x1
 1380 04a6 50       		.byte	0x50
 1381 04a7 4A000000 		.4byte	.LVL76
 1382 04ab 4C000000 		.4byte	.LVL77
 1383 04af 0100     		.2byte	0x1
 1384 04b1 50       		.byte	0x50
 1385 04b2 4C000000 		.4byte	.LVL77
 1386 04b6 57000000 		.4byte	.LVL78-1
 1387 04ba 0100     		.2byte	0x1
 1388 04bc 52       		.byte	0x52
 1389 04bd 00000000 		.4byte	0x0
 1390 04c1 00000000 		.4byte	0x0
 1391              	.LLST44:
 1392 04c5 00000000 		.4byte	.LVL63
 1393 04c9 16000000 		.4byte	.LVL67
 1394 04cd 0100     		.2byte	0x1
 1395 04cf 51       		.byte	0x51
 1396 04d0 4A000000 		.4byte	.LVL76
 1397 04d4 57000000 		.4byte	.LVL78-1
 1398 04d8 0100     		.2byte	0x1
 1399 04da 51       		.byte	0x51
 1400 04db 00000000 		.4byte	0x0
 1401 04df 00000000 		.4byte	0x0
 1402              	.LLST45:
 1403 04e3 24000000 		.4byte	.LVL68
 1404 04e7 26000000 		.4byte	.LVL69
 1405 04eb 0200     		.2byte	0x2
 1406 04ed 30       		.byte	0x30
 1407 04ee 9F       		.byte	0x9f
ARM GAS  /tmp/ccIuN4ur.s 			page 26


 1408 04ef 26000000 		.4byte	.LVL69
 1409 04f3 30000000 		.4byte	.LVL72
 1410 04f7 0100     		.2byte	0x1
 1411 04f9 50       		.byte	0x50
 1412 04fa 48000000 		.4byte	.LVL75
 1413 04fe 4A000000 		.4byte	.LVL76
 1414 0502 0200     		.2byte	0x2
 1415 0504 74       		.byte	0x74
 1416 0505 24       		.sleb128 36
 1417 0506 00000000 		.4byte	0x0
 1418 050a 00000000 		.4byte	0x0
 1419              	.LLST46:
 1420 050e 0C000000 		.4byte	.LVL65
 1421 0512 0E000000 		.4byte	.LVL66
 1422 0516 0100     		.2byte	0x1
 1423 0518 53       		.byte	0x53
 1424 0519 00000000 		.4byte	0x0
 1425 051d 00000000 		.4byte	0x0
 1426              	.LLST47:
 1427 0521 2C000000 		.4byte	.LVL71
 1428 0525 30000000 		.4byte	.LVL72
 1429 0529 0100     		.2byte	0x1
 1430 052b 53       		.byte	0x53
 1431 052c 00000000 		.4byte	0x0
 1432 0530 00000000 		.4byte	0x0
 1433              	.LLST48:
 1434 0534 45000000 		.4byte	.LVL74-1
 1435 0538 4A000000 		.4byte	.LVL76
 1436 053c 0100     		.2byte	0x1
 1437 053e 54       		.byte	0x54
 1438 053f 00000000 		.4byte	0x0
 1439 0543 00000000 		.4byte	0x0
 1440              	.LLST49:
 1441 0547 36000000 		.4byte	.LVL73
 1442 054b 45000000 		.4byte	.LVL74-1
 1443 054f 0100     		.2byte	0x1
 1444 0551 51       		.byte	0x51
 1445 0552 00000000 		.4byte	0x0
 1446 0556 00000000 		.4byte	0x0
 1447              	.LLST50:
 1448 055a 45000000 		.4byte	.LVL74-1
 1449 055e 4A000000 		.4byte	.LVL76
 1450 0562 0100     		.2byte	0x1
 1451 0564 54       		.byte	0x54
 1452 0565 00000000 		.4byte	0x0
 1453 0569 00000000 		.4byte	0x0
 1454              	.LLST51:
 1455 056d 4A000000 		.4byte	.LVL76
 1456 0571 4C000000 		.4byte	.LVL77
 1457 0575 0100     		.2byte	0x1
 1458 0577 50       		.byte	0x50
 1459 0578 4C000000 		.4byte	.LVL77
 1460 057c 57000000 		.4byte	.LVL78-1
 1461 0580 0100     		.2byte	0x1
 1462 0582 52       		.byte	0x52
 1463 0583 00000000 		.4byte	0x0
 1464 0587 00000000 		.4byte	0x0
ARM GAS  /tmp/ccIuN4ur.s 			page 27


 1465              	.LLST52:
 1466 058b 4C000000 		.4byte	.LVL77
 1467 058f 57000000 		.4byte	.LVL78-1
 1468 0593 0200     		.2byte	0x2
 1469 0595 72       		.byte	0x72
 1470 0596 00       		.sleb128 0
 1471 0597 00000000 		.4byte	0x0
 1472 059b 00000000 		.4byte	0x0
 1473              		.file 3 "/opt/stm32/arm-none-eabi-2011.03/bin/../lib/gcc/arm-none-eabi/4.5.2/../../../../arm-none-
 1474              		.file 4 "../libs/ChibiOS_2.4.0/os/ports/GCC/ARMCMx/chtypes.h"
 1475              		.file 5 "../libs/ChibiOS_2.4.0/os/kernel/include/chlists.h"
 1476              		.file 6 "../libs/ChibiOS_2.4.0/os/kernel/include/chthreads.h"
 1477              		.file 7 "../libs/ChibiOS_2.4.0/os/ports/GCC/ARMCMx/chcore_v7m.h"
 1478              		.file 8 "../libs/ChibiOS_2.4.0/os/kernel/include/chschd.h"
 1479              		.file 9 "../libs/ChibiOS_2.4.0/os/kernel/include/chsem.h"
 1480              		.file 10 "../libs/ChibiOS_2.4.0/os/kernel/include/chmtx.h"
 1481              		.section	.debug_info
 1482 0000 DB090000 		.4byte	0x9db
 1483 0004 0200     		.2byte	0x2
 1484 0006 00000000 		.4byte	.Ldebug_abbrev0
 1485 000a 04       		.byte	0x4
 1486 000b 01       		.uleb128 0x1
 1487 000c 20030000 		.4byte	.LASF79
 1488 0010 01       		.byte	0x1
 1489 0011 27000000 		.4byte	.LASF80
 1490 0015 A5000000 		.4byte	.LASF81
 1491 0019 00000000 		.4byte	0x0
 1492 001d 00000000 		.4byte	0x0
 1493 0021 78010000 		.4byte	.Ldebug_ranges0+0x178
 1494 0025 00000000 		.4byte	.Ldebug_line0
 1495 0029 02       		.uleb128 0x2
 1496 002a 04       		.byte	0x4
 1497 002b 05       		.byte	0x5
 1498 002c 696E7400 		.ascii	"int\000"
 1499 0030 03       		.uleb128 0x3
 1500 0031 04       		.byte	0x4
 1501 0032 07       		.byte	0x7
 1502 0033 28010000 		.4byte	.LASF0
 1503 0037 03       		.uleb128 0x3
 1504 0038 01       		.byte	0x1
 1505 0039 06       		.byte	0x6
 1506 003a 99000000 		.4byte	.LASF1
 1507 003e 04       		.uleb128 0x4
 1508 003f 11030000 		.4byte	.LASF5
 1509 0043 03       		.byte	0x3
 1510 0044 2A       		.byte	0x2a
 1511 0045 49000000 		.4byte	0x49
 1512 0049 03       		.uleb128 0x3
 1513 004a 01       		.byte	0x1
 1514 004b 08       		.byte	0x8
 1515 004c 01020000 		.4byte	.LASF2
 1516 0050 03       		.uleb128 0x3
 1517 0051 02       		.byte	0x2
 1518 0052 05       		.byte	0x5
 1519 0053 19020000 		.4byte	.LASF3
 1520 0057 03       		.uleb128 0x3
 1521 0058 02       		.byte	0x2
ARM GAS  /tmp/ccIuN4ur.s 			page 28


 1522 0059 07       		.byte	0x7
 1523 005a 66010000 		.4byte	.LASF4
 1524 005e 04       		.uleb128 0x4
 1525 005f F9010000 		.4byte	.LASF6
 1526 0063 03       		.byte	0x3
 1527 0064 4F       		.byte	0x4f
 1528 0065 69000000 		.4byte	0x69
 1529 0069 03       		.uleb128 0x3
 1530 006a 04       		.byte	0x4
 1531 006b 05       		.byte	0x5
 1532 006c E3000000 		.4byte	.LASF7
 1533 0070 04       		.uleb128 0x4
 1534 0071 65020000 		.4byte	.LASF8
 1535 0075 03       		.byte	0x3
 1536 0076 50       		.byte	0x50
 1537 0077 7B000000 		.4byte	0x7b
 1538 007b 03       		.uleb128 0x3
 1539 007c 04       		.byte	0x4
 1540 007d 07       		.byte	0x7
 1541 007e 46010000 		.4byte	.LASF9
 1542 0082 03       		.uleb128 0x3
 1543 0083 08       		.byte	0x8
 1544 0084 05       		.byte	0x5
 1545 0085 8B000000 		.4byte	.LASF10
 1546 0089 03       		.uleb128 0x3
 1547 008a 08       		.byte	0x8
 1548 008b 07       		.byte	0x7
 1549 008c 53000000 		.4byte	.LASF11
 1550 0090 04       		.uleb128 0x4
 1551 0091 8A010000 		.4byte	.LASF12
 1552 0095 04       		.byte	0x4
 1553 0096 2F       		.byte	0x2f
 1554 0097 3E000000 		.4byte	0x3e
 1555 009b 04       		.uleb128 0x4
 1556 009c EC000000 		.4byte	.LASF13
 1557 00a0 04       		.byte	0x4
 1558 00a1 30       		.byte	0x30
 1559 00a2 3E000000 		.4byte	0x3e
 1560 00a6 04       		.uleb128 0x4
 1561 00a7 E2010000 		.4byte	.LASF14
 1562 00ab 04       		.byte	0x4
 1563 00ac 31       		.byte	0x31
 1564 00ad 3E000000 		.4byte	0x3e
 1565 00b1 04       		.uleb128 0x4
 1566 00b2 F1010000 		.4byte	.LASF15
 1567 00b6 04       		.byte	0x4
 1568 00b7 32       		.byte	0x32
 1569 00b8 70000000 		.4byte	0x70
 1570 00bc 04       		.uleb128 0x4
 1571 00bd 84010000 		.4byte	.LASF16
 1572 00c1 04       		.byte	0x4
 1573 00c2 33       		.byte	0x33
 1574 00c3 5E000000 		.4byte	0x5e
 1575 00c7 04       		.uleb128 0x4
 1576 00c8 9E010000 		.4byte	.LASF17
 1577 00cc 04       		.byte	0x4
 1578 00cd 35       		.byte	0x35
ARM GAS  /tmp/ccIuN4ur.s 			page 29


 1579 00ce 70000000 		.4byte	0x70
 1580 00d2 04       		.uleb128 0x4
 1581 00d3 A0020000 		.4byte	.LASF18
 1582 00d7 04       		.byte	0x4
 1583 00d8 36       		.byte	0x36
 1584 00d9 70000000 		.4byte	0x70
 1585 00dd 04       		.uleb128 0x4
 1586 00de 22010000 		.4byte	.LASF19
 1587 00e2 04       		.byte	0x4
 1588 00e3 37       		.byte	0x37
 1589 00e4 5E000000 		.4byte	0x5e
 1590 00e8 04       		.uleb128 0x4
 1591 00e9 53020000 		.4byte	.LASF20
 1592 00ed 05       		.byte	0x5
 1593 00ee 2A       		.byte	0x2a
 1594 00ef F3000000 		.4byte	0xf3
 1595 00f3 05       		.uleb128 0x5
 1596 00f4 53020000 		.4byte	.LASF20
 1597 00f8 48       		.byte	0x48
 1598 00f9 06       		.byte	0x6
 1599 00fa 5E       		.byte	0x5e
 1600 00fb 0A020000 		.4byte	0x20a
 1601 00ff 06       		.uleb128 0x6
 1602 0100 39020000 		.4byte	.LASF21
 1603 0104 06       		.byte	0x6
 1604 0105 5F       		.byte	0x5f
 1605 0106 2F020000 		.4byte	0x22f
 1606 010a 02       		.byte	0x2
 1607 010b 23       		.byte	0x23
 1608 010c 00       		.uleb128 0x0
 1609 010d 06       		.uleb128 0x6
 1610 010e EA010000 		.4byte	.LASF22
 1611 0112 06       		.byte	0x6
 1612 0113 61       		.byte	0x61
 1613 0114 2F020000 		.4byte	0x22f
 1614 0118 02       		.byte	0x2
 1615 0119 23       		.byte	0x23
 1616 011a 04       		.uleb128 0x4
 1617 011b 06       		.uleb128 0x6
 1618 011c 84000000 		.4byte	.LASF23
 1619 0120 06       		.byte	0x6
 1620 0121 63       		.byte	0x63
 1621 0122 B1000000 		.4byte	0xb1
 1622 0126 02       		.byte	0x2
 1623 0127 23       		.byte	0x23
 1624 0128 08       		.uleb128 0x8
 1625 0129 06       		.uleb128 0x6
 1626 012a 45030000 		.4byte	.LASF24
 1627 012e 06       		.byte	0x6
 1628 012f 64       		.byte	0x64
 1629 0130 FC020000 		.4byte	0x2fc
 1630 0134 02       		.byte	0x2
 1631 0135 23       		.byte	0x23
 1632 0136 0C       		.uleb128 0xc
 1633 0137 06       		.uleb128 0x6
 1634 0138 01010000 		.4byte	.LASF25
 1635 013c 06       		.byte	0x6
ARM GAS  /tmp/ccIuN4ur.s 			page 30


 1636 013d 66       		.byte	0x66
 1637 013e 2F020000 		.4byte	0x22f
 1638 0142 02       		.byte	0x2
 1639 0143 23       		.byte	0x23
 1640 0144 10       		.uleb128 0x10
 1641 0145 06       		.uleb128 0x6
 1642 0146 B0010000 		.4byte	.LASF26
 1643 014a 06       		.byte	0x6
 1644 014b 67       		.byte	0x67
 1645 014c 2F020000 		.4byte	0x22f
 1646 0150 02       		.byte	0x2
 1647 0151 23       		.byte	0x23
 1648 0152 14       		.uleb128 0x14
 1649 0153 06       		.uleb128 0x6
 1650 0154 2C030000 		.4byte	.LASF27
 1651 0158 06       		.byte	0x6
 1652 0159 6E       		.byte	0x6e
 1653 015a 4B040000 		.4byte	0x44b
 1654 015e 02       		.byte	0x2
 1655 015f 23       		.byte	0x23
 1656 0160 18       		.uleb128 0x18
 1657 0161 06       		.uleb128 0x6
 1658 0162 23020000 		.4byte	.LASF28
 1659 0166 06       		.byte	0x6
 1660 0167 79       		.byte	0x79
 1661 0168 9B000000 		.4byte	0x9b
 1662 016c 02       		.byte	0x2
 1663 016d 23       		.byte	0x23
 1664 016e 1C       		.uleb128 0x1c
 1665 016f 06       		.uleb128 0x6
 1666 0170 40020000 		.4byte	.LASF29
 1667 0174 06       		.byte	0x6
 1668 0175 7D       		.byte	0x7d
 1669 0176 90000000 		.4byte	0x90
 1670 017a 02       		.byte	0x2
 1671 017b 23       		.byte	0x23
 1672 017c 1D       		.uleb128 0x1d
 1673 017d 06       		.uleb128 0x6
 1674 017e EE020000 		.4byte	.LASF30
 1675 0182 06       		.byte	0x6
 1676 0183 82       		.byte	0x82
 1677 0184 A6000000 		.4byte	0xa6
 1678 0188 02       		.byte	0x2
 1679 0189 23       		.byte	0x23
 1680 018a 1E       		.uleb128 0x1e
 1681 018b 06       		.uleb128 0x6
 1682 018c BF020000 		.4byte	.LASF31
 1683 0190 06       		.byte	0x6
 1684 0191 89       		.byte	0x89
 1685 0192 1F030000 		.4byte	0x31f
 1686 0196 02       		.byte	0x2
 1687 0197 23       		.byte	0x23
 1688 0198 20       		.uleb128 0x20
 1689 0199 07       		.uleb128 0x7
 1690 019a 705F7500 		.ascii	"p_u\000"
 1691 019e 06       		.byte	0x6
 1692 019f AE       		.byte	0xae
ARM GAS  /tmp/ccIuN4ur.s 			page 31


 1693 01a0 16040000 		.4byte	0x416
 1694 01a4 02       		.byte	0x2
 1695 01a5 23       		.byte	0x23
 1696 01a6 24       		.uleb128 0x24
 1697 01a7 06       		.uleb128 0x6
 1698 01a8 4B030000 		.4byte	.LASF32
 1699 01ac 06       		.byte	0x6
 1700 01ad B3       		.byte	0xb3
 1701 01ae 57020000 		.4byte	0x257
 1702 01b2 02       		.byte	0x2
 1703 01b3 23       		.byte	0x23
 1704 01b4 28       		.uleb128 0x28
 1705 01b5 06       		.uleb128 0x6
 1706 01b6 D9020000 		.4byte	.LASF33
 1707 01ba 06       		.byte	0x6
 1708 01bb B9       		.byte	0xb9
 1709 01bc 35020000 		.4byte	0x235
 1710 01c0 02       		.byte	0x2
 1711 01c1 23       		.byte	0x23
 1712 01c2 2C       		.uleb128 0x2c
 1713 01c3 06       		.uleb128 0x6
 1714 01c4 00000000 		.4byte	.LASF34
 1715 01c8 06       		.byte	0x6
 1716 01c9 BD       		.byte	0xbd
 1717 01ca BC000000 		.4byte	0xbc
 1718 01ce 02       		.byte	0x2
 1719 01cf 23       		.byte	0x23
 1720 01d0 34       		.uleb128 0x34
 1721 01d1 06       		.uleb128 0x6
 1722 01d2 5A020000 		.4byte	.LASF35
 1723 01d6 06       		.byte	0x6
 1724 01d7 C3       		.byte	0xc3
 1725 01d8 C7000000 		.4byte	0xc7
 1726 01dc 02       		.byte	0x2
 1727 01dd 23       		.byte	0x23
 1728 01de 38       		.uleb128 0x38
 1729 01df 06       		.uleb128 0x6
 1730 01e0 0F020000 		.4byte	.LASF36
 1731 01e4 06       		.byte	0x6
 1732 01e5 CA       		.byte	0xca
 1733 01e6 5D040000 		.4byte	0x45d
 1734 01ea 02       		.byte	0x2
 1735 01eb 23       		.byte	0x23
 1736 01ec 3C       		.uleb128 0x3c
 1737 01ed 06       		.uleb128 0x6
 1738 01ee AA020000 		.4byte	.LASF37
 1739 01f2 06       		.byte	0x6
 1740 01f3 CE       		.byte	0xce
 1741 01f4 B1000000 		.4byte	0xb1
 1742 01f8 02       		.byte	0x2
 1743 01f9 23       		.byte	0x23
 1744 01fa 40       		.uleb128 0x40
 1745 01fb 06       		.uleb128 0x6
 1746 01fc D3000000 		.4byte	.LASF38
 1747 0200 06       		.byte	0x6
 1748 0201 D4       		.byte	0xd4
 1749 0202 6D020000 		.4byte	0x26d
ARM GAS  /tmp/ccIuN4ur.s 			page 32


 1750 0206 02       		.byte	0x2
 1751 0207 23       		.byte	0x23
 1752 0208 44       		.uleb128 0x44
 1753 0209 00       		.byte	0x0
 1754 020a 08       		.uleb128 0x8
 1755 020b 08       		.byte	0x8
 1756 020c 05       		.byte	0x5
 1757 020d 61       		.byte	0x61
 1758 020e 2F020000 		.4byte	0x22f
 1759 0212 06       		.uleb128 0x6
 1760 0213 39020000 		.4byte	.LASF21
 1761 0217 05       		.byte	0x5
 1762 0218 62       		.byte	0x62
 1763 0219 2F020000 		.4byte	0x22f
 1764 021d 02       		.byte	0x2
 1765 021e 23       		.byte	0x23
 1766 021f 00       		.uleb128 0x0
 1767 0220 06       		.uleb128 0x6
 1768 0221 EA010000 		.4byte	.LASF22
 1769 0225 05       		.byte	0x5
 1770 0226 64       		.byte	0x64
 1771 0227 2F020000 		.4byte	0x22f
 1772 022b 02       		.byte	0x2
 1773 022c 23       		.byte	0x23
 1774 022d 04       		.uleb128 0x4
 1775 022e 00       		.byte	0x0
 1776 022f 09       		.uleb128 0x9
 1777 0230 04       		.byte	0x4
 1778 0231 E8000000 		.4byte	0xe8
 1779 0235 04       		.uleb128 0x4
 1780 0236 BE010000 		.4byte	.LASF39
 1781 023a 05       		.byte	0x5
 1782 023b 66       		.byte	0x66
 1783 023c 0A020000 		.4byte	0x20a
 1784 0240 08       		.uleb128 0x8
 1785 0241 04       		.byte	0x4
 1786 0242 05       		.byte	0x5
 1787 0243 6B       		.byte	0x6b
 1788 0244 57020000 		.4byte	0x257
 1789 0248 06       		.uleb128 0x6
 1790 0249 39020000 		.4byte	.LASF21
 1791 024d 05       		.byte	0x5
 1792 024e 6D       		.byte	0x6d
 1793 024f 2F020000 		.4byte	0x22f
 1794 0253 02       		.byte	0x2
 1795 0254 23       		.byte	0x23
 1796 0255 00       		.uleb128 0x0
 1797 0256 00       		.byte	0x0
 1798 0257 04       		.uleb128 0x4
 1799 0258 92010000 		.4byte	.LASF40
 1800 025c 05       		.byte	0x5
 1801 025d 70       		.byte	0x70
 1802 025e 40020000 		.4byte	0x240
 1803 0262 04       		.uleb128 0x4
 1804 0263 19010000 		.4byte	.LASF41
 1805 0267 07       		.byte	0x7
 1806 0268 D7       		.byte	0xd7
ARM GAS  /tmp/ccIuN4ur.s 			page 33


 1807 0269 6D020000 		.4byte	0x26d
 1808 026d 0A       		.uleb128 0xa
 1809 026e 04       		.byte	0x4
 1810 026f 05       		.uleb128 0x5
 1811 0270 D2020000 		.4byte	.LASF42
 1812 0274 24       		.byte	0x24
 1813 0275 07       		.byte	0x7
 1814 0276 FE       		.byte	0xfe
 1815 0277 FC020000 		.4byte	0x2fc
 1816 027b 0B       		.uleb128 0xb
 1817 027c 723400   		.ascii	"r4\000"
 1818 027f 07       		.byte	0x7
 1819 0280 1101     		.2byte	0x111
 1820 0282 62020000 		.4byte	0x262
 1821 0286 02       		.byte	0x2
 1822 0287 23       		.byte	0x23
 1823 0288 00       		.uleb128 0x0
 1824 0289 0B       		.uleb128 0xb
 1825 028a 723500   		.ascii	"r5\000"
 1826 028d 07       		.byte	0x7
 1827 028e 1201     		.2byte	0x112
 1828 0290 62020000 		.4byte	0x262
 1829 0294 02       		.byte	0x2
 1830 0295 23       		.byte	0x23
 1831 0296 04       		.uleb128 0x4
 1832 0297 0B       		.uleb128 0xb
 1833 0298 723600   		.ascii	"r6\000"
 1834 029b 07       		.byte	0x7
 1835 029c 1301     		.2byte	0x113
 1836 029e 62020000 		.4byte	0x262
 1837 02a2 02       		.byte	0x2
 1838 02a3 23       		.byte	0x23
 1839 02a4 08       		.uleb128 0x8
 1840 02a5 0B       		.uleb128 0xb
 1841 02a6 723700   		.ascii	"r7\000"
 1842 02a9 07       		.byte	0x7
 1843 02aa 1401     		.2byte	0x114
 1844 02ac 62020000 		.4byte	0x262
 1845 02b0 02       		.byte	0x2
 1846 02b1 23       		.byte	0x23
 1847 02b2 0C       		.uleb128 0xc
 1848 02b3 0B       		.uleb128 0xb
 1849 02b4 723800   		.ascii	"r8\000"
 1850 02b7 07       		.byte	0x7
 1851 02b8 1501     		.2byte	0x115
 1852 02ba 62020000 		.4byte	0x262
 1853 02be 02       		.byte	0x2
 1854 02bf 23       		.byte	0x23
 1855 02c0 10       		.uleb128 0x10
 1856 02c1 0B       		.uleb128 0xb
 1857 02c2 723900   		.ascii	"r9\000"
 1858 02c5 07       		.byte	0x7
 1859 02c6 1601     		.2byte	0x116
 1860 02c8 62020000 		.4byte	0x262
 1861 02cc 02       		.byte	0x2
 1862 02cd 23       		.byte	0x23
 1863 02ce 14       		.uleb128 0x14
ARM GAS  /tmp/ccIuN4ur.s 			page 34


 1864 02cf 0B       		.uleb128 0xb
 1865 02d0 72313000 		.ascii	"r10\000"
 1866 02d4 07       		.byte	0x7
 1867 02d5 1701     		.2byte	0x117
 1868 02d7 62020000 		.4byte	0x262
 1869 02db 02       		.byte	0x2
 1870 02dc 23       		.byte	0x23
 1871 02dd 18       		.uleb128 0x18
 1872 02de 0B       		.uleb128 0xb
 1873 02df 72313100 		.ascii	"r11\000"
 1874 02e3 07       		.byte	0x7
 1875 02e4 1801     		.2byte	0x118
 1876 02e6 62020000 		.4byte	0x262
 1877 02ea 02       		.byte	0x2
 1878 02eb 23       		.byte	0x23
 1879 02ec 1C       		.uleb128 0x1c
 1880 02ed 0B       		.uleb128 0xb
 1881 02ee 6C7200   		.ascii	"lr\000"
 1882 02f1 07       		.byte	0x7
 1883 02f2 1901     		.2byte	0x119
 1884 02f4 62020000 		.4byte	0x262
 1885 02f8 02       		.byte	0x2
 1886 02f9 23       		.byte	0x23
 1887 02fa 20       		.uleb128 0x20
 1888 02fb 00       		.byte	0x0
 1889 02fc 0C       		.uleb128 0xc
 1890 02fd 5E010000 		.4byte	.LASF43
 1891 0301 04       		.byte	0x4
 1892 0302 07       		.byte	0x7
 1893 0303 2301     		.2byte	0x123
 1894 0305 19030000 		.4byte	0x319
 1895 0309 0B       		.uleb128 0xb
 1896 030a 72313300 		.ascii	"r13\000"
 1897 030e 07       		.byte	0x7
 1898 030f 2401     		.2byte	0x124
 1899 0311 19030000 		.4byte	0x319
 1900 0315 02       		.byte	0x2
 1901 0316 23       		.byte	0x23
 1902 0317 00       		.uleb128 0x0
 1903 0318 00       		.byte	0x0
 1904 0319 09       		.uleb128 0x9
 1905 031a 04       		.byte	0x4
 1906 031b 6F020000 		.4byte	0x26f
 1907 031f 0D       		.uleb128 0xd
 1908 0320 D2000000 		.4byte	0xd2
 1909 0324 08       		.uleb128 0x8
 1910 0325 20       		.byte	0x20
 1911 0326 08       		.byte	0x8
 1912 0327 5E       		.byte	0x5e
 1913 0328 8F030000 		.4byte	0x38f
 1914 032c 06       		.uleb128 0x6
 1915 032d 6E020000 		.4byte	.LASF44
 1916 0331 08       		.byte	0x8
 1917 0332 5F       		.byte	0x5f
 1918 0333 35020000 		.4byte	0x235
 1919 0337 02       		.byte	0x2
 1920 0338 23       		.byte	0x23
ARM GAS  /tmp/ccIuN4ur.s 			page 35


 1921 0339 00       		.uleb128 0x0
 1922 033a 06       		.uleb128 0x6
 1923 033b 2B020000 		.4byte	.LASF45
 1924 033f 08       		.byte	0x8
 1925 0340 60       		.byte	0x60
 1926 0341 B1000000 		.4byte	0xb1
 1927 0345 02       		.byte	0x2
 1928 0346 23       		.byte	0x23
 1929 0347 08       		.uleb128 0x8
 1930 0348 06       		.uleb128 0x6
 1931 0349 B8010000 		.4byte	.LASF46
 1932 034d 08       		.byte	0x8
 1933 034e 62       		.byte	0x62
 1934 034f FC020000 		.4byte	0x2fc
 1935 0353 02       		.byte	0x2
 1936 0354 23       		.byte	0x23
 1937 0355 0C       		.uleb128 0xc
 1938 0356 06       		.uleb128 0x6
 1939 0357 11010000 		.4byte	.LASF47
 1940 035b 08       		.byte	0x8
 1941 035c 65       		.byte	0x65
 1942 035d 2F020000 		.4byte	0x22f
 1943 0361 02       		.byte	0x2
 1944 0362 23       		.byte	0x23
 1945 0363 10       		.uleb128 0x10
 1946 0364 06       		.uleb128 0x6
 1947 0365 DA010000 		.4byte	.LASF48
 1948 0369 08       		.byte	0x8
 1949 036a 66       		.byte	0x66
 1950 036b 2F020000 		.4byte	0x22f
 1951 036f 02       		.byte	0x2
 1952 0370 23       		.byte	0x23
 1953 0371 14       		.uleb128 0x14
 1954 0372 06       		.uleb128 0x6
 1955 0373 33030000 		.4byte	.LASF49
 1956 0377 08       		.byte	0x8
 1957 0378 6A       		.byte	0x6a
 1958 0379 DD000000 		.4byte	0xdd
 1959 037d 02       		.byte	0x2
 1960 037e 23       		.byte	0x23
 1961 037f 18       		.uleb128 0x18
 1962 0380 06       		.uleb128 0x6
 1963 0381 D0010000 		.4byte	.LASF50
 1964 0385 08       		.byte	0x8
 1965 0386 6C       		.byte	0x6c
 1966 0387 2F020000 		.4byte	0x22f
 1967 038b 02       		.byte	0x2
 1968 038c 23       		.byte	0x23
 1969 038d 1C       		.uleb128 0x1c
 1970 038e 00       		.byte	0x0
 1971 038f 04       		.uleb128 0x4
 1972 0390 F5020000 		.4byte	.LASF51
 1973 0394 08       		.byte	0x8
 1974 0395 6E       		.byte	0x6e
 1975 0396 24030000 		.4byte	0x324
 1976 039a 05       		.uleb128 0x5
 1977 039b E4020000 		.4byte	.LASF52
ARM GAS  /tmp/ccIuN4ur.s 			page 36


 1978 039f 0C       		.byte	0xc
 1979 03a0 09       		.byte	0x9
 1980 03a1 2C       		.byte	0x2c
 1981 03a2 C3030000 		.4byte	0x3c3
 1982 03a6 06       		.uleb128 0x6
 1983 03a7 09010000 		.4byte	.LASF53
 1984 03ab 09       		.byte	0x9
 1985 03ac 2D       		.byte	0x2d
 1986 03ad 35020000 		.4byte	0x235
 1987 03b1 02       		.byte	0x2
 1988 03b2 23       		.byte	0x23
 1989 03b3 00       		.uleb128 0x0
 1990 03b4 06       		.uleb128 0x6
 1991 03b5 58010000 		.4byte	.LASF54
 1992 03b9 09       		.byte	0x9
 1993 03ba 2F       		.byte	0x2f
 1994 03bb DD000000 		.4byte	0xdd
 1995 03bf 02       		.byte	0x2
 1996 03c0 23       		.byte	0x23
 1997 03c1 08       		.uleb128 0x8
 1998 03c2 00       		.byte	0x0
 1999 03c3 04       		.uleb128 0x4
 2000 03c4 E4020000 		.4byte	.LASF52
 2001 03c8 09       		.byte	0x9
 2002 03c9 30       		.byte	0x30
 2003 03ca 9A030000 		.4byte	0x39a
 2004 03ce 05       		.uleb128 0x5
 2005 03cf AA010000 		.4byte	.LASF55
 2006 03d3 10       		.byte	0x10
 2007 03d4 0A       		.byte	0xa
 2008 03d5 2C       		.byte	0x2c
 2009 03d6 05040000 		.4byte	0x405
 2010 03da 06       		.uleb128 0x6
 2011 03db DB000000 		.4byte	.LASF56
 2012 03df 0A       		.byte	0xa
 2013 03e0 2D       		.byte	0x2d
 2014 03e1 35020000 		.4byte	0x235
 2015 03e5 02       		.byte	0x2
 2016 03e6 23       		.byte	0x23
 2017 03e7 00       		.uleb128 0x0
 2018 03e8 06       		.uleb128 0x6
 2019 03e9 3D030000 		.4byte	.LASF57
 2020 03ed 0A       		.byte	0xa
 2021 03ee 2F       		.byte	0x2f
 2022 03ef 2F020000 		.4byte	0x22f
 2023 03f3 02       		.byte	0x2
 2024 03f4 23       		.byte	0x23
 2025 03f5 08       		.uleb128 0x8
 2026 03f6 06       		.uleb128 0x6
 2027 03f7 99020000 		.4byte	.LASF58
 2028 03fb 0A       		.byte	0xa
 2029 03fc 31       		.byte	0x31
 2030 03fd 05040000 		.4byte	0x405
 2031 0401 02       		.byte	0x2
 2032 0402 23       		.byte	0x23
 2033 0403 0C       		.uleb128 0xc
 2034 0404 00       		.byte	0x0
ARM GAS  /tmp/ccIuN4ur.s 			page 37


 2035 0405 09       		.uleb128 0x9
 2036 0406 04       		.byte	0x4
 2037 0407 CE030000 		.4byte	0x3ce
 2038 040b 04       		.uleb128 0x4
 2039 040c AA010000 		.4byte	.LASF55
 2040 0410 0A       		.byte	0xa
 2041 0411 33       		.byte	0x33
 2042 0412 CE030000 		.4byte	0x3ce
 2043 0416 0E       		.uleb128 0xe
 2044 0417 04       		.byte	0x4
 2045 0418 06       		.byte	0x6
 2046 0419 90       		.byte	0x90
 2047 041a 4B040000 		.4byte	0x44b
 2048 041e 0F       		.uleb128 0xf
 2049 041f 20000000 		.4byte	.LASF59
 2050 0423 06       		.byte	0x6
 2051 0424 97       		.byte	0x97
 2052 0425 BC000000 		.4byte	0xbc
 2053 0429 0F       		.uleb128 0xf
 2054 042a 6A000000 		.4byte	.LASF60
 2055 042e 06       		.byte	0x6
 2056 042f 9E       		.byte	0x9e
 2057 0430 BC000000 		.4byte	0xbc
 2058 0434 0F       		.uleb128 0xf
 2059 0435 19030000 		.4byte	.LASF61
 2060 0439 06       		.byte	0x6
 2061 043a A5       		.byte	0xa5
 2062 043b 6D020000 		.4byte	0x26d
 2063 043f 0F       		.uleb128 0xf
 2064 0440 32020000 		.4byte	.LASF62
 2065 0444 06       		.byte	0x6
 2066 0445 AC       		.byte	0xac
 2067 0446 C7000000 		.4byte	0xc7
 2068 044a 00       		.byte	0x0
 2069 044b 09       		.uleb128 0x9
 2070 044c 04       		.byte	0x4
 2071 044d 51040000 		.4byte	0x451
 2072 0451 10       		.uleb128 0x10
 2073 0452 56040000 		.4byte	0x456
 2074 0456 03       		.uleb128 0x3
 2075 0457 01       		.byte	0x1
 2076 0458 08       		.byte	0x8
 2077 0459 76020000 		.4byte	.LASF63
 2078 045d 09       		.uleb128 0x9
 2079 045e 04       		.byte	0x4
 2080 045f 0B040000 		.4byte	0x40b
 2081 0463 11       		.uleb128 0x11
 2082 0464 C6020000 		.4byte	.LASF64
 2083 0468 02       		.byte	0x2
 2084 0469 42       		.byte	0x42
 2085 046a 01       		.byte	0x1
 2086 046b 2F020000 		.4byte	0x22f
 2087 046f 03       		.byte	0x3
 2088 0470 8A040000 		.4byte	0x48a
 2089 0474 12       		.uleb128 0x12
 2090 0475 74717000 		.ascii	"tqp\000"
 2091 0479 02       		.byte	0x2
ARM GAS  /tmp/ccIuN4ur.s 			page 38


 2092 047a 42       		.byte	0x42
 2093 047b 8A040000 		.4byte	0x48a
 2094 047f 13       		.uleb128 0x13
 2095 0480 747000   		.ascii	"tp\000"
 2096 0483 02       		.byte	0x2
 2097 0484 43       		.byte	0x43
 2098 0485 2F020000 		.4byte	0x22f
 2099 0489 00       		.byte	0x0
 2100 048a 09       		.uleb128 0x9
 2101 048b 04       		.byte	0x4
 2102 048c 35020000 		.4byte	0x235
 2103 0490 14       		.uleb128 0x14
 2104 0491 06000000 		.4byte	.LASF82
 2105 0495 02       		.byte	0x2
 2106 0496 34       		.byte	0x34
 2107 0497 01       		.byte	0x1
 2108 0498 03       		.byte	0x3
 2109 0499 B3040000 		.4byte	0x4b3
 2110 049d 12       		.uleb128 0x12
 2111 049e 747000   		.ascii	"tp\000"
 2112 04a1 02       		.byte	0x2
 2113 04a2 34       		.byte	0x34
 2114 04a3 2F020000 		.4byte	0x22f
 2115 04a7 12       		.uleb128 0x12
 2116 04a8 74717000 		.ascii	"tqp\000"
 2117 04ac 02       		.byte	0x2
 2118 04ad 34       		.byte	0x34
 2119 04ae 8A040000 		.4byte	0x48a
 2120 04b2 00       		.byte	0x0
 2121 04b3 11       		.uleb128 0x11
 2122 04b4 7B020000 		.4byte	.LASF65
 2123 04b8 02       		.byte	0x2
 2124 04b9 3B       		.byte	0x3b
 2125 04ba 01       		.byte	0x1
 2126 04bb 2F020000 		.4byte	0x22f
 2127 04bf 03       		.byte	0x3
 2128 04c0 DA040000 		.4byte	0x4da
 2129 04c4 12       		.uleb128 0x12
 2130 04c5 74717000 		.ascii	"tqp\000"
 2131 04c9 02       		.byte	0x2
 2132 04ca 3B       		.byte	0x3b
 2133 04cb 8A040000 		.4byte	0x48a
 2134 04cf 13       		.uleb128 0x13
 2135 04d0 747000   		.ascii	"tp\000"
 2136 04d3 02       		.byte	0x2
 2137 04d4 3C       		.byte	0x3c
 2138 04d5 2F020000 		.4byte	0x22f
 2139 04d9 00       		.byte	0x0
 2140 04da 15       		.uleb128 0x15
 2141 04db 01       		.byte	0x1
 2142 04dc 55030000 		.4byte	.LASF66
 2143 04e0 01       		.byte	0x1
 2144 04e1 56       		.byte	0x56
 2145 04e2 01       		.byte	0x1
 2146 04e3 00000000 		.4byte	.LFB7
 2147 04e7 08000000 		.4byte	.LFE7
 2148 04eb 02       		.byte	0x2
ARM GAS  /tmp/ccIuN4ur.s 			page 39


 2149 04ec 7D       		.byte	0x7d
 2150 04ed 00       		.sleb128 0
 2151 04ee 0A050000 		.4byte	0x50a
 2152 04f2 16       		.uleb128 0x16
 2153 04f3 737000   		.ascii	"sp\000"
 2154 04f6 01       		.byte	0x1
 2155 04f7 56       		.byte	0x56
 2156 04f8 0A050000 		.4byte	0x50a
 2157 04fc 01       		.byte	0x1
 2158 04fd 50       		.byte	0x50
 2159 04fe 16       		.uleb128 0x16
 2160 04ff 6E00     		.ascii	"n\000"
 2161 0501 01       		.byte	0x1
 2162 0502 56       		.byte	0x56
 2163 0503 DD000000 		.4byte	0xdd
 2164 0507 01       		.byte	0x1
 2165 0508 51       		.byte	0x51
 2166 0509 00       		.byte	0x0
 2167 050a 09       		.uleb128 0x9
 2168 050b 04       		.byte	0x4
 2169 050c C3030000 		.4byte	0x3c3
 2170 0510 17       		.uleb128 0x17
 2171 0511 01       		.byte	0x1
 2172 0512 FF020000 		.4byte	.LASF67
 2173 0516 01       		.byte	0x1
 2174 0517 88       		.byte	0x88
 2175 0518 01       		.byte	0x1
 2176 0519 00000000 		.4byte	.LFB9
 2177 051d 68000000 		.4byte	.LFE9
 2178 0521 00000000 		.4byte	.LLST0
 2179 0525 7A050000 		.4byte	0x57a
 2180 0529 18       		.uleb128 0x18
 2181 052a 737000   		.ascii	"sp\000"
 2182 052d 01       		.byte	0x1
 2183 052e 88       		.byte	0x88
 2184 052f 0A050000 		.4byte	0x50a
 2185 0533 20000000 		.4byte	.LLST1
 2186 0537 18       		.uleb128 0x18
 2187 0538 6E00     		.ascii	"n\000"
 2188 053a 01       		.byte	0x1
 2189 053b 88       		.byte	0x88
 2190 053c DD000000 		.4byte	0xdd
 2191 0540 3E000000 		.4byte	.LLST2
 2192 0544 19       		.uleb128 0x19
 2193 0545 636E7400 		.ascii	"cnt\000"
 2194 0549 01       		.byte	0x1
 2195 054a 89       		.byte	0x89
 2196 054b DD000000 		.4byte	0xdd
 2197 054f 51000000 		.4byte	.LLST3
 2198 0553 1A       		.uleb128 0x1a
 2199 0554 63040000 		.4byte	0x463
 2200 0558 0E000000 		.4byte	.LBB24
 2201 055c 00000000 		.4byte	.Ldebug_ranges0+0x0
 2202 0560 01       		.byte	0x1
 2203 0561 95       		.byte	0x95
 2204 0562 1B       		.uleb128 0x1b
 2205 0563 74040000 		.4byte	0x474
ARM GAS  /tmp/ccIuN4ur.s 			page 40


 2206 0567 70000000 		.4byte	.LLST4
 2207 056b 1C       		.uleb128 0x1c
 2208 056c 28000000 		.4byte	.Ldebug_ranges0+0x28
 2209 0570 1D       		.uleb128 0x1d
 2210 0571 7F040000 		.4byte	0x47f
 2211 0575 01       		.byte	0x1
 2212 0576 50       		.byte	0x50
 2213 0577 00       		.byte	0x0
 2214 0578 00       		.byte	0x0
 2215 0579 00       		.byte	0x0
 2216 057a 17       		.uleb128 0x17
 2217 057b 01       		.byte	0x1
 2218 057c 79010000 		.4byte	.LASF68
 2219 0580 01       		.byte	0x1
 2220 0581 6D       		.byte	0x6d
 2221 0582 01       		.byte	0x1
 2222 0583 00000000 		.4byte	.LFB8
 2223 0587 18000000 		.4byte	.LFE8
 2224 058b 8E000000 		.4byte	.LLST5
 2225 058f E5050000 		.4byte	0x5e5
 2226 0593 18       		.uleb128 0x18
 2227 0594 737000   		.ascii	"sp\000"
 2228 0597 01       		.byte	0x1
 2229 0598 6D       		.byte	0x6d
 2230 0599 0A050000 		.4byte	0x50a
 2231 059d AE000000 		.4byte	.LLST6
 2232 05a1 18       		.uleb128 0x18
 2233 05a2 6E00     		.ascii	"n\000"
 2234 05a4 01       		.byte	0x1
 2235 05a5 6D       		.byte	0x6d
 2236 05a6 DD000000 		.4byte	0xdd
 2237 05aa C1000000 		.4byte	.LLST7
 2238 05ae 1E       		.uleb128 0x1e
 2239 05af 02000000 		.4byte	.LBB32
 2240 05b3 08000000 		.4byte	.LBE32
 2241 05b7 CB050000 		.4byte	0x5cb
 2242 05bb 19       		.uleb128 0x19
 2243 05bc 746D7000 		.ascii	"tmp\000"
 2244 05c0 01       		.byte	0x1
 2245 05c1 6F       		.byte	0x6f
 2246 05c2 70000000 		.4byte	0x70
 2247 05c6 D4000000 		.4byte	.LLST8
 2248 05ca 00       		.byte	0x0
 2249 05cb 1F       		.uleb128 0x1f
 2250 05cc 10000000 		.4byte	.LBB33
 2251 05d0 16000000 		.4byte	.LBE33
 2252 05d4 19       		.uleb128 0x19
 2253 05d5 746D7000 		.ascii	"tmp\000"
 2254 05d9 01       		.byte	0x1
 2255 05da 72       		.byte	0x72
 2256 05db 70000000 		.4byte	0x70
 2257 05df E7000000 		.4byte	.LLST9
 2258 05e3 00       		.byte	0x0
 2259 05e4 00       		.byte	0x0
 2260 05e5 20       		.uleb128 0x20
 2261 05e6 01       		.byte	0x1
 2262 05e7 48020000 		.4byte	.LASF69
ARM GAS  /tmp/ccIuN4ur.s 			page 41


 2263 05eb 01       		.byte	0x1
 2264 05ec B9       		.byte	0xb9
 2265 05ed 01       		.byte	0x1
 2266 05ee BC000000 		.4byte	0xbc
 2267 05f2 00000000 		.4byte	.LFB11
 2268 05f6 34000000 		.4byte	.LFE11
 2269 05fa FA000000 		.4byte	.LLST10
 2270 05fe 33060000 		.4byte	0x633
 2271 0602 18       		.uleb128 0x18
 2272 0603 737000   		.ascii	"sp\000"
 2273 0606 01       		.byte	0x1
 2274 0607 B9       		.byte	0xb9
 2275 0608 0A050000 		.4byte	0x50a
 2276 060c 1A010000 		.4byte	.LLST11
 2277 0610 1A       		.uleb128 0x1a
 2278 0611 90040000 		.4byte	0x490
 2279 0615 18000000 		.4byte	.LBB34
 2280 0619 50000000 		.4byte	.Ldebug_ranges0+0x50
 2281 061d 01       		.byte	0x1
 2282 061e C4       		.byte	0xc4
 2283 061f 1B       		.uleb128 0x1b
 2284 0620 A7040000 		.4byte	0x4a7
 2285 0624 38010000 		.4byte	.LLST12
 2286 0628 1B       		.uleb128 0x1b
 2287 0629 9D040000 		.4byte	0x49d
 2288 062d 4B010000 		.4byte	.LLST13
 2289 0631 00       		.byte	0x0
 2290 0632 00       		.byte	0x0
 2291 0633 20       		.uleb128 0x20
 2292 0634 01       		.byte	0x1
 2293 0635 B5020000 		.4byte	.LASF70
 2294 0639 01       		.byte	0x1
 2295 063a A4       		.byte	0xa4
 2296 063b 01       		.byte	0x1
 2297 063c BC000000 		.4byte	0xbc
 2298 0640 00000000 		.4byte	.LFB10
 2299 0644 14000000 		.4byte	.LFE10
 2300 0648 5F010000 		.4byte	.LLST14
 2301 064c A0060000 		.4byte	0x6a0
 2302 0650 18       		.uleb128 0x18
 2303 0651 737000   		.ascii	"sp\000"
 2304 0654 01       		.byte	0x1
 2305 0655 A4       		.byte	0xa4
 2306 0656 0A050000 		.4byte	0x50a
 2307 065a 7F010000 		.4byte	.LLST15
 2308 065e 13       		.uleb128 0x13
 2309 065f 6D736700 		.ascii	"msg\000"
 2310 0663 01       		.byte	0x1
 2311 0664 A5       		.byte	0xa5
 2312 0665 BC000000 		.4byte	0xbc
 2313 0669 1E       		.uleb128 0x1e
 2314 066a 02000000 		.4byte	.LBB38
 2315 066e 08000000 		.4byte	.LBE38
 2316 0672 86060000 		.4byte	0x686
 2317 0676 19       		.uleb128 0x19
 2318 0677 746D7000 		.ascii	"tmp\000"
 2319 067b 01       		.byte	0x1
ARM GAS  /tmp/ccIuN4ur.s 			page 42


 2320 067c A7       		.byte	0xa7
 2321 067d 70000000 		.4byte	0x70
 2322 0681 92010000 		.4byte	.LLST16
 2323 0685 00       		.byte	0x0
 2324 0686 1F       		.uleb128 0x1f
 2325 0687 0C000000 		.4byte	.LBB39
 2326 068b 12000000 		.4byte	.LBE39
 2327 068f 19       		.uleb128 0x19
 2328 0690 746D7000 		.ascii	"tmp\000"
 2329 0694 01       		.byte	0x1
 2330 0695 A9       		.byte	0xa9
 2331 0696 70000000 		.4byte	0x70
 2332 069a A5010000 		.4byte	.LLST17
 2333 069e 00       		.byte	0x0
 2334 069f 00       		.byte	0x0
 2335 06a0 20       		.uleb128 0x20
 2336 06a1 01       		.byte	0x1
 2337 06a2 87020000 		.4byte	.LASF71
 2338 06a6 01       		.byte	0x1
 2339 06a7 FA       		.byte	0xfa
 2340 06a8 01       		.byte	0x1
 2341 06a9 BC000000 		.4byte	0xbc
 2342 06ad 00000000 		.4byte	.LFB13
 2343 06b1 3C000000 		.4byte	.LFE13
 2344 06b5 B8010000 		.4byte	.LLST18
 2345 06b9 FE060000 		.4byte	0x6fe
 2346 06bd 18       		.uleb128 0x18
 2347 06be 737000   		.ascii	"sp\000"
 2348 06c1 01       		.byte	0x1
 2349 06c2 FA       		.byte	0xfa
 2350 06c3 0A050000 		.4byte	0x50a
 2351 06c7 D8010000 		.4byte	.LLST19
 2352 06cb 21       		.uleb128 0x21
 2353 06cc CB010000 		.4byte	.LASF72
 2354 06d0 01       		.byte	0x1
 2355 06d1 FA       		.byte	0xfa
 2356 06d2 D2000000 		.4byte	0xd2
 2357 06d6 01020000 		.4byte	.LLST20
 2358 06da 22       		.uleb128 0x22
 2359 06db 90040000 		.4byte	0x490
 2360 06df 1C000000 		.4byte	.LBB40
 2361 06e3 68000000 		.4byte	.Ldebug_ranges0+0x68
 2362 06e7 01       		.byte	0x1
 2363 06e8 0901     		.2byte	0x109
 2364 06ea 1B       		.uleb128 0x1b
 2365 06eb A7040000 		.4byte	0x4a7
 2366 06ef 1F020000 		.4byte	.LLST21
 2367 06f3 1B       		.uleb128 0x1b
 2368 06f4 9D040000 		.4byte	0x49d
 2369 06f8 32020000 		.4byte	.LLST22
 2370 06fc 00       		.byte	0x0
 2371 06fd 00       		.byte	0x0
 2372 06fe 20       		.uleb128 0x20
 2373 06ff 01       		.byte	0x1
 2374 0700 35010000 		.4byte	.LASF73
 2375 0704 01       		.byte	0x1
 2376 0705 DE       		.byte	0xde
ARM GAS  /tmp/ccIuN4ur.s 			page 43


 2377 0706 01       		.byte	0x1
 2378 0707 BC000000 		.4byte	0xbc
 2379 070b 00000000 		.4byte	.LFB12
 2380 070f 14000000 		.4byte	.LFE12
 2381 0713 46020000 		.4byte	.LLST23
 2382 0717 7A070000 		.4byte	0x77a
 2383 071b 18       		.uleb128 0x18
 2384 071c 737000   		.ascii	"sp\000"
 2385 071f 01       		.byte	0x1
 2386 0720 DE       		.byte	0xde
 2387 0721 0A050000 		.4byte	0x50a
 2388 0725 66020000 		.4byte	.LLST24
 2389 0729 21       		.uleb128 0x21
 2390 072a CB010000 		.4byte	.LASF72
 2391 072e 01       		.byte	0x1
 2392 072f DE       		.byte	0xde
 2393 0730 D2000000 		.4byte	0xd2
 2394 0734 79020000 		.4byte	.LLST25
 2395 0738 13       		.uleb128 0x13
 2396 0739 6D736700 		.ascii	"msg\000"
 2397 073d 01       		.byte	0x1
 2398 073e DF       		.byte	0xdf
 2399 073f BC000000 		.4byte	0xbc
 2400 0743 1E       		.uleb128 0x1e
 2401 0744 02000000 		.4byte	.LBB44
 2402 0748 08000000 		.4byte	.LBE44
 2403 074c 60070000 		.4byte	0x760
 2404 0750 19       		.uleb128 0x19
 2405 0751 746D7000 		.ascii	"tmp\000"
 2406 0755 01       		.byte	0x1
 2407 0756 E1       		.byte	0xe1
 2408 0757 70000000 		.4byte	0x70
 2409 075b 8C020000 		.4byte	.LLST26
 2410 075f 00       		.byte	0x0
 2411 0760 1F       		.uleb128 0x1f
 2412 0761 0C000000 		.4byte	.LBB45
 2413 0765 12000000 		.4byte	.LBE45
 2414 0769 19       		.uleb128 0x19
 2415 076a 746D7000 		.ascii	"tmp\000"
 2416 076e 01       		.byte	0x1
 2417 076f E3       		.byte	0xe3
 2418 0770 70000000 		.4byte	0x70
 2419 0774 9F020000 		.4byte	.LLST27
 2420 0778 00       		.byte	0x0
 2421 0779 00       		.byte	0x0
 2422 077a 23       		.uleb128 0x23
 2423 077b 01       		.byte	0x1
 2424 077c F5000000 		.4byte	.LASF74
 2425 0780 01       		.byte	0x1
 2426 0781 1601     		.2byte	0x116
 2427 0783 01       		.byte	0x1
 2428 0784 00000000 		.4byte	.LFB14
 2429 0788 32000000 		.4byte	.LFE14
 2430 078c B2020000 		.4byte	.LLST28
 2431 0790 05080000 		.4byte	0x805
 2432 0794 24       		.uleb128 0x24
 2433 0795 737000   		.ascii	"sp\000"
ARM GAS  /tmp/ccIuN4ur.s 			page 44


 2434 0798 01       		.byte	0x1
 2435 0799 1601     		.2byte	0x116
 2436 079b 0A050000 		.4byte	0x50a
 2437 079f D2020000 		.4byte	.LLST29
 2438 07a3 1E       		.uleb128 0x1e
 2439 07a4 04000000 		.4byte	.LBB46
 2440 07a8 0A000000 		.4byte	.LBE46
 2441 07ac C1070000 		.4byte	0x7c1
 2442 07b0 25       		.uleb128 0x25
 2443 07b1 746D7000 		.ascii	"tmp\000"
 2444 07b5 01       		.byte	0x1
 2445 07b6 1E01     		.2byte	0x11e
 2446 07b8 70000000 		.4byte	0x70
 2447 07bc F0020000 		.4byte	.LLST30
 2448 07c0 00       		.byte	0x0
 2449 07c1 26       		.uleb128 0x26
 2450 07c2 80000000 		.4byte	.Ldebug_ranges0+0x80
 2451 07c6 DB070000 		.4byte	0x7db
 2452 07ca 25       		.uleb128 0x25
 2453 07cb 746D7000 		.ascii	"tmp\000"
 2454 07cf 01       		.byte	0x1
 2455 07d0 2101     		.2byte	0x121
 2456 07d2 70000000 		.4byte	0x70
 2457 07d6 03030000 		.4byte	.LLST31
 2458 07da 00       		.byte	0x0
 2459 07db 22       		.uleb128 0x22
 2460 07dc B3040000 		.4byte	0x4b3
 2461 07e0 1C000000 		.4byte	.LBB48
 2462 07e4 98000000 		.4byte	.Ldebug_ranges0+0x98
 2463 07e8 01       		.byte	0x1
 2464 07e9 2001     		.2byte	0x120
 2465 07eb 1B       		.uleb128 0x1b
 2466 07ec C4040000 		.4byte	0x4c4
 2467 07f0 21030000 		.4byte	.LLST32
 2468 07f4 1C       		.uleb128 0x1c
 2469 07f5 B0000000 		.4byte	.Ldebug_ranges0+0xb0
 2470 07f9 27       		.uleb128 0x27
 2471 07fa CF040000 		.4byte	0x4cf
 2472 07fe 3F030000 		.4byte	.LLST33
 2473 0802 00       		.byte	0x0
 2474 0803 00       		.byte	0x0
 2475 0804 00       		.byte	0x0
 2476 0805 28       		.uleb128 0x28
 2477 0806 01       		.byte	0x1
 2478 0807 13000000 		.4byte	.LASF75
 2479 080b 01       		.byte	0x1
 2480 080c 2F01     		.2byte	0x12f
 2481 080e 01       		.byte	0x1
 2482 080f 00000000 		.4byte	.LFB15
 2483 0813 20000000 		.4byte	.LFE15
 2484 0817 02       		.byte	0x2
 2485 0818 7D       		.byte	0x7d
 2486 0819 00       		.sleb128 0
 2487 081a 6A080000 		.4byte	0x86a
 2488 081e 24       		.uleb128 0x24
 2489 081f 737000   		.ascii	"sp\000"
 2490 0822 01       		.byte	0x1
ARM GAS  /tmp/ccIuN4ur.s 			page 45


 2491 0823 2F01     		.2byte	0x12f
 2492 0825 0A050000 		.4byte	0x50a
 2493 0829 53030000 		.4byte	.LLST34
 2494 082d 1C       		.uleb128 0x1c
 2495 082e C8000000 		.4byte	.Ldebug_ranges0+0xc8
 2496 0832 29       		.uleb128 0x29
 2497 0833 747000   		.ascii	"tp\000"
 2498 0836 01       		.byte	0x1
 2499 0837 3B01     		.2byte	0x13b
 2500 0839 2F020000 		.4byte	0x22f
 2501 083d 01       		.byte	0x1
 2502 083e 52       		.byte	0x52
 2503 083f 22       		.uleb128 0x22
 2504 0840 B3040000 		.4byte	0x4b3
 2505 0844 0E000000 		.4byte	.LBB55
 2506 0848 E0000000 		.4byte	.Ldebug_ranges0+0xe0
 2507 084c 01       		.byte	0x1
 2508 084d 3B01     		.2byte	0x13b
 2509 084f 1B       		.uleb128 0x1b
 2510 0850 C4040000 		.4byte	0x4c4
 2511 0854 80030000 		.4byte	.LLST35
 2512 0858 1C       		.uleb128 0x1c
 2513 0859 F8000000 		.4byte	.Ldebug_ranges0+0xf8
 2514 085d 27       		.uleb128 0x27
 2515 085e CF040000 		.4byte	0x4cf
 2516 0862 A2030000 		.4byte	.LLST36
 2517 0866 00       		.byte	0x0
 2518 0867 00       		.byte	0x0
 2519 0868 00       		.byte	0x0
 2520 0869 00       		.byte	0x0
 2521 086a 23       		.uleb128 0x23
 2522 086b 01       		.byte	0x1
 2523 086c 73000000 		.4byte	.LASF76
 2524 0870 01       		.byte	0x1
 2525 0871 4E01     		.2byte	0x14e
 2526 0873 01       		.byte	0x1
 2527 0874 00000000 		.4byte	.LFB16
 2528 0878 9C000000 		.4byte	.LFE16
 2529 087c C1030000 		.4byte	.LLST37
 2530 0880 CB080000 		.4byte	0x8cb
 2531 0884 24       		.uleb128 0x24
 2532 0885 737000   		.ascii	"sp\000"
 2533 0888 01       		.byte	0x1
 2534 0889 4E01     		.2byte	0x14e
 2535 088b 0A050000 		.4byte	0x50a
 2536 088f E1030000 		.4byte	.LLST38
 2537 0893 24       		.uleb128 0x24
 2538 0894 6E00     		.ascii	"n\000"
 2539 0896 01       		.byte	0x1
 2540 0897 4E01     		.2byte	0x14e
 2541 0899 DD000000 		.4byte	0xdd
 2542 089d FF030000 		.4byte	.LLST39
 2543 08a1 22       		.uleb128 0x22
 2544 08a2 B3040000 		.4byte	0x4b3
 2545 08a6 4A000000 		.4byte	.LBB59
 2546 08aa 10010000 		.4byte	.Ldebug_ranges0+0x110
 2547 08ae 01       		.byte	0x1
ARM GAS  /tmp/ccIuN4ur.s 			page 46


 2548 08af 5901     		.2byte	0x159
 2549 08b1 1B       		.uleb128 0x1b
 2550 08b2 C4040000 		.4byte	0x4c4
 2551 08b6 28040000 		.4byte	.LLST40
 2552 08ba 1C       		.uleb128 0x1c
 2553 08bb 38010000 		.4byte	.Ldebug_ranges0+0x138
 2554 08bf 27       		.uleb128 0x27
 2555 08c0 CF040000 		.4byte	0x4cf
 2556 08c4 5C040000 		.4byte	.LLST41
 2557 08c8 00       		.byte	0x0
 2558 08c9 00       		.byte	0x0
 2559 08ca 00       		.byte	0x0
 2560 08cb 2A       		.uleb128 0x2a
 2561 08cc 01       		.byte	0x1
 2562 08cd C3000000 		.4byte	.LASF77
 2563 08d1 01       		.byte	0x1
 2564 08d2 6E01     		.2byte	0x16e
 2565 08d4 01       		.byte	0x1
 2566 08d5 BC000000 		.4byte	0xbc
 2567 08d9 00000000 		.4byte	.LFB17
 2568 08dd 64000000 		.4byte	.LFE17
 2569 08e1 70040000 		.4byte	.LLST42
 2570 08e5 C4090000 		.4byte	0x9c4
 2571 08e9 24       		.uleb128 0x24
 2572 08ea 73707300 		.ascii	"sps\000"
 2573 08ee 01       		.byte	0x1
 2574 08ef 6E01     		.2byte	0x16e
 2575 08f1 0A050000 		.4byte	0x50a
 2576 08f5 9C040000 		.4byte	.LLST43
 2577 08f9 24       		.uleb128 0x24
 2578 08fa 73707700 		.ascii	"spw\000"
 2579 08fe 01       		.byte	0x1
 2580 08ff 6E01     		.2byte	0x16e
 2581 0901 0A050000 		.4byte	0x50a
 2582 0905 C5040000 		.4byte	.LLST44
 2583 0909 25       		.uleb128 0x25
 2584 090a 6D736700 		.ascii	"msg\000"
 2585 090e 01       		.byte	0x1
 2586 090f 6F01     		.2byte	0x16f
 2587 0911 BC000000 		.4byte	0xbc
 2588 0915 E3040000 		.4byte	.LLST45
 2589 0919 1E       		.uleb128 0x1e
 2590 091a 06000000 		.4byte	.LBB67
 2591 091e 0C000000 		.4byte	.LBE67
 2592 0922 37090000 		.4byte	0x937
 2593 0926 25       		.uleb128 0x25
 2594 0927 746D7000 		.ascii	"tmp\000"
 2595 092b 01       		.byte	0x1
 2596 092c 7B01     		.2byte	0x17b
 2597 092e 70000000 		.4byte	0x70
 2598 0932 0E050000 		.4byte	.LLST46
 2599 0936 00       		.byte	0x0
 2600 0937 1E       		.uleb128 0x1e
 2601 0938 26000000 		.4byte	.LBB68
 2602 093c 2C000000 		.4byte	.LBE68
 2603 0940 55090000 		.4byte	0x955
 2604 0944 25       		.uleb128 0x25
ARM GAS  /tmp/ccIuN4ur.s 			page 47


 2605 0945 746D7000 		.ascii	"tmp\000"
 2606 0949 01       		.byte	0x1
 2607 094a 8901     		.2byte	0x189
 2608 094c 70000000 		.4byte	0x70
 2609 0950 21050000 		.4byte	.LLST47
 2610 0954 00       		.byte	0x0
 2611 0955 1E       		.uleb128 0x1e
 2612 0956 30000000 		.4byte	.LBB69
 2613 095a 4A000000 		.4byte	.LBE69
 2614 095e 96090000 		.4byte	0x996
 2615 0962 25       		.uleb128 0x25
 2616 0963 63747000 		.ascii	"ctp\000"
 2617 0967 01       		.byte	0x1
 2618 0968 7F01     		.2byte	0x17f
 2619 096a 2F020000 		.4byte	0x22f
 2620 096e 34050000 		.4byte	.LLST48
 2621 0972 22       		.uleb128 0x22
 2622 0973 90040000 		.4byte	0x490
 2623 0977 32000000 		.4byte	.LBB70
 2624 097b 60010000 		.4byte	.Ldebug_ranges0+0x160
 2625 097f 01       		.byte	0x1
 2626 0980 8001     		.2byte	0x180
 2627 0982 1B       		.uleb128 0x1b
 2628 0983 A7040000 		.4byte	0x4a7
 2629 0987 47050000 		.4byte	.LLST49
 2630 098b 1B       		.uleb128 0x1b
 2631 098c 9D040000 		.4byte	0x49d
 2632 0990 5A050000 		.4byte	.LLST50
 2633 0994 00       		.byte	0x0
 2634 0995 00       		.byte	0x0
 2635 0996 2B       		.uleb128 0x2b
 2636 0997 B3040000 		.4byte	0x4b3
 2637 099b 4A000000 		.4byte	.LBB74
 2638 099f 52000000 		.4byte	.LBE74
 2639 09a3 01       		.byte	0x1
 2640 09a4 7D01     		.2byte	0x17d
 2641 09a6 1B       		.uleb128 0x1b
 2642 09a7 C4040000 		.4byte	0x4c4
 2643 09ab 6D050000 		.4byte	.LLST51
 2644 09af 1F       		.uleb128 0x1f
 2645 09b0 4A000000 		.4byte	.LBB75
 2646 09b4 52000000 		.4byte	.LBE75
 2647 09b8 27       		.uleb128 0x27
 2648 09b9 CF040000 		.4byte	0x4cf
 2649 09bd 8B050000 		.4byte	.LLST52
 2650 09c1 00       		.byte	0x0
 2651 09c2 00       		.byte	0x0
 2652 09c3 00       		.byte	0x0
 2653 09c4 2C       		.uleb128 0x2c
 2654 09c5 0B030000 		.4byte	.LASF78
 2655 09c9 08       		.byte	0x8
 2656 09ca 72       		.byte	0x72
 2657 09cb 8F030000 		.4byte	0x38f
 2658 09cf 01       		.byte	0x1
 2659 09d0 01       		.byte	0x1
 2660 09d1 2C       		.uleb128 0x2c
 2661 09d2 0B030000 		.4byte	.LASF78
ARM GAS  /tmp/ccIuN4ur.s 			page 48


 2662 09d6 08       		.byte	0x8
 2663 09d7 72       		.byte	0x72
 2664 09d8 8F030000 		.4byte	0x38f
 2665 09dc 01       		.byte	0x1
 2666 09dd 01       		.byte	0x1
 2667 09de 00       		.byte	0x0
 2668              		.section	.debug_abbrev
 2669 0000 01       		.uleb128 0x1
 2670 0001 11       		.uleb128 0x11
 2671 0002 01       		.byte	0x1
 2672 0003 25       		.uleb128 0x25
 2673 0004 0E       		.uleb128 0xe
 2674 0005 13       		.uleb128 0x13
 2675 0006 0B       		.uleb128 0xb
 2676 0007 03       		.uleb128 0x3
 2677 0008 0E       		.uleb128 0xe
 2678 0009 1B       		.uleb128 0x1b
 2679 000a 0E       		.uleb128 0xe
 2680 000b 11       		.uleb128 0x11
 2681 000c 01       		.uleb128 0x1
 2682 000d 52       		.uleb128 0x52
 2683 000e 01       		.uleb128 0x1
 2684 000f 55       		.uleb128 0x55
 2685 0010 06       		.uleb128 0x6
 2686 0011 10       		.uleb128 0x10
 2687 0012 06       		.uleb128 0x6
 2688 0013 00       		.byte	0x0
 2689 0014 00       		.byte	0x0
 2690 0015 02       		.uleb128 0x2
 2691 0016 24       		.uleb128 0x24
 2692 0017 00       		.byte	0x0
 2693 0018 0B       		.uleb128 0xb
 2694 0019 0B       		.uleb128 0xb
 2695 001a 3E       		.uleb128 0x3e
 2696 001b 0B       		.uleb128 0xb
 2697 001c 03       		.uleb128 0x3
 2698 001d 08       		.uleb128 0x8
 2699 001e 00       		.byte	0x0
 2700 001f 00       		.byte	0x0
 2701 0020 03       		.uleb128 0x3
 2702 0021 24       		.uleb128 0x24
 2703 0022 00       		.byte	0x0
 2704 0023 0B       		.uleb128 0xb
 2705 0024 0B       		.uleb128 0xb
 2706 0025 3E       		.uleb128 0x3e
 2707 0026 0B       		.uleb128 0xb
 2708 0027 03       		.uleb128 0x3
 2709 0028 0E       		.uleb128 0xe
 2710 0029 00       		.byte	0x0
 2711 002a 00       		.byte	0x0
 2712 002b 04       		.uleb128 0x4
 2713 002c 16       		.uleb128 0x16
 2714 002d 00       		.byte	0x0
 2715 002e 03       		.uleb128 0x3
 2716 002f 0E       		.uleb128 0xe
 2717 0030 3A       		.uleb128 0x3a
 2718 0031 0B       		.uleb128 0xb
ARM GAS  /tmp/ccIuN4ur.s 			page 49


 2719 0032 3B       		.uleb128 0x3b
 2720 0033 0B       		.uleb128 0xb
 2721 0034 49       		.uleb128 0x49
 2722 0035 13       		.uleb128 0x13
 2723 0036 00       		.byte	0x0
 2724 0037 00       		.byte	0x0
 2725 0038 05       		.uleb128 0x5
 2726 0039 13       		.uleb128 0x13
 2727 003a 01       		.byte	0x1
 2728 003b 03       		.uleb128 0x3
 2729 003c 0E       		.uleb128 0xe
 2730 003d 0B       		.uleb128 0xb
 2731 003e 0B       		.uleb128 0xb
 2732 003f 3A       		.uleb128 0x3a
 2733 0040 0B       		.uleb128 0xb
 2734 0041 3B       		.uleb128 0x3b
 2735 0042 0B       		.uleb128 0xb
 2736 0043 01       		.uleb128 0x1
 2737 0044 13       		.uleb128 0x13
 2738 0045 00       		.byte	0x0
 2739 0046 00       		.byte	0x0
 2740 0047 06       		.uleb128 0x6
 2741 0048 0D       		.uleb128 0xd
 2742 0049 00       		.byte	0x0
 2743 004a 03       		.uleb128 0x3
 2744 004b 0E       		.uleb128 0xe
 2745 004c 3A       		.uleb128 0x3a
 2746 004d 0B       		.uleb128 0xb
 2747 004e 3B       		.uleb128 0x3b
 2748 004f 0B       		.uleb128 0xb
 2749 0050 49       		.uleb128 0x49
 2750 0051 13       		.uleb128 0x13
 2751 0052 38       		.uleb128 0x38
 2752 0053 0A       		.uleb128 0xa
 2753 0054 00       		.byte	0x0
 2754 0055 00       		.byte	0x0
 2755 0056 07       		.uleb128 0x7
 2756 0057 0D       		.uleb128 0xd
 2757 0058 00       		.byte	0x0
 2758 0059 03       		.uleb128 0x3
 2759 005a 08       		.uleb128 0x8
 2760 005b 3A       		.uleb128 0x3a
 2761 005c 0B       		.uleb128 0xb
 2762 005d 3B       		.uleb128 0x3b
 2763 005e 0B       		.uleb128 0xb
 2764 005f 49       		.uleb128 0x49
 2765 0060 13       		.uleb128 0x13
 2766 0061 38       		.uleb128 0x38
 2767 0062 0A       		.uleb128 0xa
 2768 0063 00       		.byte	0x0
 2769 0064 00       		.byte	0x0
 2770 0065 08       		.uleb128 0x8
 2771 0066 13       		.uleb128 0x13
 2772 0067 01       		.byte	0x1
 2773 0068 0B       		.uleb128 0xb
 2774 0069 0B       		.uleb128 0xb
 2775 006a 3A       		.uleb128 0x3a
ARM GAS  /tmp/ccIuN4ur.s 			page 50


 2776 006b 0B       		.uleb128 0xb
 2777 006c 3B       		.uleb128 0x3b
 2778 006d 0B       		.uleb128 0xb
 2779 006e 01       		.uleb128 0x1
 2780 006f 13       		.uleb128 0x13
 2781 0070 00       		.byte	0x0
 2782 0071 00       		.byte	0x0
 2783 0072 09       		.uleb128 0x9
 2784 0073 0F       		.uleb128 0xf
 2785 0074 00       		.byte	0x0
 2786 0075 0B       		.uleb128 0xb
 2787 0076 0B       		.uleb128 0xb
 2788 0077 49       		.uleb128 0x49
 2789 0078 13       		.uleb128 0x13
 2790 0079 00       		.byte	0x0
 2791 007a 00       		.byte	0x0
 2792 007b 0A       		.uleb128 0xa
 2793 007c 0F       		.uleb128 0xf
 2794 007d 00       		.byte	0x0
 2795 007e 0B       		.uleb128 0xb
 2796 007f 0B       		.uleb128 0xb
 2797 0080 00       		.byte	0x0
 2798 0081 00       		.byte	0x0
 2799 0082 0B       		.uleb128 0xb
 2800 0083 0D       		.uleb128 0xd
 2801 0084 00       		.byte	0x0
 2802 0085 03       		.uleb128 0x3
 2803 0086 08       		.uleb128 0x8
 2804 0087 3A       		.uleb128 0x3a
 2805 0088 0B       		.uleb128 0xb
 2806 0089 3B       		.uleb128 0x3b
 2807 008a 05       		.uleb128 0x5
 2808 008b 49       		.uleb128 0x49
 2809 008c 13       		.uleb128 0x13
 2810 008d 38       		.uleb128 0x38
 2811 008e 0A       		.uleb128 0xa
 2812 008f 00       		.byte	0x0
 2813 0090 00       		.byte	0x0
 2814 0091 0C       		.uleb128 0xc
 2815 0092 13       		.uleb128 0x13
 2816 0093 01       		.byte	0x1
 2817 0094 03       		.uleb128 0x3
 2818 0095 0E       		.uleb128 0xe
 2819 0096 0B       		.uleb128 0xb
 2820 0097 0B       		.uleb128 0xb
 2821 0098 3A       		.uleb128 0x3a
 2822 0099 0B       		.uleb128 0xb
 2823 009a 3B       		.uleb128 0x3b
 2824 009b 05       		.uleb128 0x5
 2825 009c 01       		.uleb128 0x1
 2826 009d 13       		.uleb128 0x13
 2827 009e 00       		.byte	0x0
 2828 009f 00       		.byte	0x0
 2829 00a0 0D       		.uleb128 0xd
 2830 00a1 35       		.uleb128 0x35
 2831 00a2 00       		.byte	0x0
 2832 00a3 49       		.uleb128 0x49
ARM GAS  /tmp/ccIuN4ur.s 			page 51


 2833 00a4 13       		.uleb128 0x13
 2834 00a5 00       		.byte	0x0
 2835 00a6 00       		.byte	0x0
 2836 00a7 0E       		.uleb128 0xe
 2837 00a8 17       		.uleb128 0x17
 2838 00a9 01       		.byte	0x1
 2839 00aa 0B       		.uleb128 0xb
 2840 00ab 0B       		.uleb128 0xb
 2841 00ac 3A       		.uleb128 0x3a
 2842 00ad 0B       		.uleb128 0xb
 2843 00ae 3B       		.uleb128 0x3b
 2844 00af 0B       		.uleb128 0xb
 2845 00b0 01       		.uleb128 0x1
 2846 00b1 13       		.uleb128 0x13
 2847 00b2 00       		.byte	0x0
 2848 00b3 00       		.byte	0x0
 2849 00b4 0F       		.uleb128 0xf
 2850 00b5 0D       		.uleb128 0xd
 2851 00b6 00       		.byte	0x0
 2852 00b7 03       		.uleb128 0x3
 2853 00b8 0E       		.uleb128 0xe
 2854 00b9 3A       		.uleb128 0x3a
 2855 00ba 0B       		.uleb128 0xb
 2856 00bb 3B       		.uleb128 0x3b
 2857 00bc 0B       		.uleb128 0xb
 2858 00bd 49       		.uleb128 0x49
 2859 00be 13       		.uleb128 0x13
 2860 00bf 00       		.byte	0x0
 2861 00c0 00       		.byte	0x0
 2862 00c1 10       		.uleb128 0x10
 2863 00c2 26       		.uleb128 0x26
 2864 00c3 00       		.byte	0x0
 2865 00c4 49       		.uleb128 0x49
 2866 00c5 13       		.uleb128 0x13
 2867 00c6 00       		.byte	0x0
 2868 00c7 00       		.byte	0x0
 2869 00c8 11       		.uleb128 0x11
 2870 00c9 2E       		.uleb128 0x2e
 2871 00ca 01       		.byte	0x1
 2872 00cb 03       		.uleb128 0x3
 2873 00cc 0E       		.uleb128 0xe
 2874 00cd 3A       		.uleb128 0x3a
 2875 00ce 0B       		.uleb128 0xb
 2876 00cf 3B       		.uleb128 0x3b
 2877 00d0 0B       		.uleb128 0xb
 2878 00d1 27       		.uleb128 0x27
 2879 00d2 0C       		.uleb128 0xc
 2880 00d3 49       		.uleb128 0x49
 2881 00d4 13       		.uleb128 0x13
 2882 00d5 20       		.uleb128 0x20
 2883 00d6 0B       		.uleb128 0xb
 2884 00d7 01       		.uleb128 0x1
 2885 00d8 13       		.uleb128 0x13
 2886 00d9 00       		.byte	0x0
 2887 00da 00       		.byte	0x0
 2888 00db 12       		.uleb128 0x12
 2889 00dc 05       		.uleb128 0x5
ARM GAS  /tmp/ccIuN4ur.s 			page 52


 2890 00dd 00       		.byte	0x0
 2891 00de 03       		.uleb128 0x3
 2892 00df 08       		.uleb128 0x8
 2893 00e0 3A       		.uleb128 0x3a
 2894 00e1 0B       		.uleb128 0xb
 2895 00e2 3B       		.uleb128 0x3b
 2896 00e3 0B       		.uleb128 0xb
 2897 00e4 49       		.uleb128 0x49
 2898 00e5 13       		.uleb128 0x13
 2899 00e6 00       		.byte	0x0
 2900 00e7 00       		.byte	0x0
 2901 00e8 13       		.uleb128 0x13
 2902 00e9 34       		.uleb128 0x34
 2903 00ea 00       		.byte	0x0
 2904 00eb 03       		.uleb128 0x3
 2905 00ec 08       		.uleb128 0x8
 2906 00ed 3A       		.uleb128 0x3a
 2907 00ee 0B       		.uleb128 0xb
 2908 00ef 3B       		.uleb128 0x3b
 2909 00f0 0B       		.uleb128 0xb
 2910 00f1 49       		.uleb128 0x49
 2911 00f2 13       		.uleb128 0x13
 2912 00f3 00       		.byte	0x0
 2913 00f4 00       		.byte	0x0
 2914 00f5 14       		.uleb128 0x14
 2915 00f6 2E       		.uleb128 0x2e
 2916 00f7 01       		.byte	0x1
 2917 00f8 03       		.uleb128 0x3
 2918 00f9 0E       		.uleb128 0xe
 2919 00fa 3A       		.uleb128 0x3a
 2920 00fb 0B       		.uleb128 0xb
 2921 00fc 3B       		.uleb128 0x3b
 2922 00fd 0B       		.uleb128 0xb
 2923 00fe 27       		.uleb128 0x27
 2924 00ff 0C       		.uleb128 0xc
 2925 0100 20       		.uleb128 0x20
 2926 0101 0B       		.uleb128 0xb
 2927 0102 01       		.uleb128 0x1
 2928 0103 13       		.uleb128 0x13
 2929 0104 00       		.byte	0x0
 2930 0105 00       		.byte	0x0
 2931 0106 15       		.uleb128 0x15
 2932 0107 2E       		.uleb128 0x2e
 2933 0108 01       		.byte	0x1
 2934 0109 3F       		.uleb128 0x3f
 2935 010a 0C       		.uleb128 0xc
 2936 010b 03       		.uleb128 0x3
 2937 010c 0E       		.uleb128 0xe
 2938 010d 3A       		.uleb128 0x3a
 2939 010e 0B       		.uleb128 0xb
 2940 010f 3B       		.uleb128 0x3b
 2941 0110 0B       		.uleb128 0xb
 2942 0111 27       		.uleb128 0x27
 2943 0112 0C       		.uleb128 0xc
 2944 0113 11       		.uleb128 0x11
 2945 0114 01       		.uleb128 0x1
 2946 0115 12       		.uleb128 0x12
ARM GAS  /tmp/ccIuN4ur.s 			page 53


 2947 0116 01       		.uleb128 0x1
 2948 0117 40       		.uleb128 0x40
 2949 0118 0A       		.uleb128 0xa
 2950 0119 01       		.uleb128 0x1
 2951 011a 13       		.uleb128 0x13
 2952 011b 00       		.byte	0x0
 2953 011c 00       		.byte	0x0
 2954 011d 16       		.uleb128 0x16
 2955 011e 05       		.uleb128 0x5
 2956 011f 00       		.byte	0x0
 2957 0120 03       		.uleb128 0x3
 2958 0121 08       		.uleb128 0x8
 2959 0122 3A       		.uleb128 0x3a
 2960 0123 0B       		.uleb128 0xb
 2961 0124 3B       		.uleb128 0x3b
 2962 0125 0B       		.uleb128 0xb
 2963 0126 49       		.uleb128 0x49
 2964 0127 13       		.uleb128 0x13
 2965 0128 02       		.uleb128 0x2
 2966 0129 0A       		.uleb128 0xa
 2967 012a 00       		.byte	0x0
 2968 012b 00       		.byte	0x0
 2969 012c 17       		.uleb128 0x17
 2970 012d 2E       		.uleb128 0x2e
 2971 012e 01       		.byte	0x1
 2972 012f 3F       		.uleb128 0x3f
 2973 0130 0C       		.uleb128 0xc
 2974 0131 03       		.uleb128 0x3
 2975 0132 0E       		.uleb128 0xe
 2976 0133 3A       		.uleb128 0x3a
 2977 0134 0B       		.uleb128 0xb
 2978 0135 3B       		.uleb128 0x3b
 2979 0136 0B       		.uleb128 0xb
 2980 0137 27       		.uleb128 0x27
 2981 0138 0C       		.uleb128 0xc
 2982 0139 11       		.uleb128 0x11
 2983 013a 01       		.uleb128 0x1
 2984 013b 12       		.uleb128 0x12
 2985 013c 01       		.uleb128 0x1
 2986 013d 40       		.uleb128 0x40
 2987 013e 06       		.uleb128 0x6
 2988 013f 01       		.uleb128 0x1
 2989 0140 13       		.uleb128 0x13
 2990 0141 00       		.byte	0x0
 2991 0142 00       		.byte	0x0
 2992 0143 18       		.uleb128 0x18
 2993 0144 05       		.uleb128 0x5
 2994 0145 00       		.byte	0x0
 2995 0146 03       		.uleb128 0x3
 2996 0147 08       		.uleb128 0x8
 2997 0148 3A       		.uleb128 0x3a
 2998 0149 0B       		.uleb128 0xb
 2999 014a 3B       		.uleb128 0x3b
 3000 014b 0B       		.uleb128 0xb
 3001 014c 49       		.uleb128 0x49
 3002 014d 13       		.uleb128 0x13
 3003 014e 02       		.uleb128 0x2
ARM GAS  /tmp/ccIuN4ur.s 			page 54


 3004 014f 06       		.uleb128 0x6
 3005 0150 00       		.byte	0x0
 3006 0151 00       		.byte	0x0
 3007 0152 19       		.uleb128 0x19
 3008 0153 34       		.uleb128 0x34
 3009 0154 00       		.byte	0x0
 3010 0155 03       		.uleb128 0x3
 3011 0156 08       		.uleb128 0x8
 3012 0157 3A       		.uleb128 0x3a
 3013 0158 0B       		.uleb128 0xb
 3014 0159 3B       		.uleb128 0x3b
 3015 015a 0B       		.uleb128 0xb
 3016 015b 49       		.uleb128 0x49
 3017 015c 13       		.uleb128 0x13
 3018 015d 02       		.uleb128 0x2
 3019 015e 06       		.uleb128 0x6
 3020 015f 00       		.byte	0x0
 3021 0160 00       		.byte	0x0
 3022 0161 1A       		.uleb128 0x1a
 3023 0162 1D       		.uleb128 0x1d
 3024 0163 01       		.byte	0x1
 3025 0164 31       		.uleb128 0x31
 3026 0165 13       		.uleb128 0x13
 3027 0166 52       		.uleb128 0x52
 3028 0167 01       		.uleb128 0x1
 3029 0168 55       		.uleb128 0x55
 3030 0169 06       		.uleb128 0x6
 3031 016a 58       		.uleb128 0x58
 3032 016b 0B       		.uleb128 0xb
 3033 016c 59       		.uleb128 0x59
 3034 016d 0B       		.uleb128 0xb
 3035 016e 00       		.byte	0x0
 3036 016f 00       		.byte	0x0
 3037 0170 1B       		.uleb128 0x1b
 3038 0171 05       		.uleb128 0x5
 3039 0172 00       		.byte	0x0
 3040 0173 31       		.uleb128 0x31
 3041 0174 13       		.uleb128 0x13
 3042 0175 02       		.uleb128 0x2
 3043 0176 06       		.uleb128 0x6
 3044 0177 00       		.byte	0x0
 3045 0178 00       		.byte	0x0
 3046 0179 1C       		.uleb128 0x1c
 3047 017a 0B       		.uleb128 0xb
 3048 017b 01       		.byte	0x1
 3049 017c 55       		.uleb128 0x55
 3050 017d 06       		.uleb128 0x6
 3051 017e 00       		.byte	0x0
 3052 017f 00       		.byte	0x0
 3053 0180 1D       		.uleb128 0x1d
 3054 0181 34       		.uleb128 0x34
 3055 0182 00       		.byte	0x0
 3056 0183 31       		.uleb128 0x31
 3057 0184 13       		.uleb128 0x13
 3058 0185 02       		.uleb128 0x2
 3059 0186 0A       		.uleb128 0xa
 3060 0187 00       		.byte	0x0
ARM GAS  /tmp/ccIuN4ur.s 			page 55


 3061 0188 00       		.byte	0x0
 3062 0189 1E       		.uleb128 0x1e
 3063 018a 0B       		.uleb128 0xb
 3064 018b 01       		.byte	0x1
 3065 018c 11       		.uleb128 0x11
 3066 018d 01       		.uleb128 0x1
 3067 018e 12       		.uleb128 0x12
 3068 018f 01       		.uleb128 0x1
 3069 0190 01       		.uleb128 0x1
 3070 0191 13       		.uleb128 0x13
 3071 0192 00       		.byte	0x0
 3072 0193 00       		.byte	0x0
 3073 0194 1F       		.uleb128 0x1f
 3074 0195 0B       		.uleb128 0xb
 3075 0196 01       		.byte	0x1
 3076 0197 11       		.uleb128 0x11
 3077 0198 01       		.uleb128 0x1
 3078 0199 12       		.uleb128 0x12
 3079 019a 01       		.uleb128 0x1
 3080 019b 00       		.byte	0x0
 3081 019c 00       		.byte	0x0
 3082 019d 20       		.uleb128 0x20
 3083 019e 2E       		.uleb128 0x2e
 3084 019f 01       		.byte	0x1
 3085 01a0 3F       		.uleb128 0x3f
 3086 01a1 0C       		.uleb128 0xc
 3087 01a2 03       		.uleb128 0x3
 3088 01a3 0E       		.uleb128 0xe
 3089 01a4 3A       		.uleb128 0x3a
 3090 01a5 0B       		.uleb128 0xb
 3091 01a6 3B       		.uleb128 0x3b
 3092 01a7 0B       		.uleb128 0xb
 3093 01a8 27       		.uleb128 0x27
 3094 01a9 0C       		.uleb128 0xc
 3095 01aa 49       		.uleb128 0x49
 3096 01ab 13       		.uleb128 0x13
 3097 01ac 11       		.uleb128 0x11
 3098 01ad 01       		.uleb128 0x1
 3099 01ae 12       		.uleb128 0x12
 3100 01af 01       		.uleb128 0x1
 3101 01b0 40       		.uleb128 0x40
 3102 01b1 06       		.uleb128 0x6
 3103 01b2 01       		.uleb128 0x1
 3104 01b3 13       		.uleb128 0x13
 3105 01b4 00       		.byte	0x0
 3106 01b5 00       		.byte	0x0
 3107 01b6 21       		.uleb128 0x21
 3108 01b7 05       		.uleb128 0x5
 3109 01b8 00       		.byte	0x0
 3110 01b9 03       		.uleb128 0x3
 3111 01ba 0E       		.uleb128 0xe
 3112 01bb 3A       		.uleb128 0x3a
 3113 01bc 0B       		.uleb128 0xb
 3114 01bd 3B       		.uleb128 0x3b
 3115 01be 0B       		.uleb128 0xb
 3116 01bf 49       		.uleb128 0x49
 3117 01c0 13       		.uleb128 0x13
ARM GAS  /tmp/ccIuN4ur.s 			page 56


 3118 01c1 02       		.uleb128 0x2
 3119 01c2 06       		.uleb128 0x6
 3120 01c3 00       		.byte	0x0
 3121 01c4 00       		.byte	0x0
 3122 01c5 22       		.uleb128 0x22
 3123 01c6 1D       		.uleb128 0x1d
 3124 01c7 01       		.byte	0x1
 3125 01c8 31       		.uleb128 0x31
 3126 01c9 13       		.uleb128 0x13
 3127 01ca 52       		.uleb128 0x52
 3128 01cb 01       		.uleb128 0x1
 3129 01cc 55       		.uleb128 0x55
 3130 01cd 06       		.uleb128 0x6
 3131 01ce 58       		.uleb128 0x58
 3132 01cf 0B       		.uleb128 0xb
 3133 01d0 59       		.uleb128 0x59
 3134 01d1 05       		.uleb128 0x5
 3135 01d2 00       		.byte	0x0
 3136 01d3 00       		.byte	0x0
 3137 01d4 23       		.uleb128 0x23
 3138 01d5 2E       		.uleb128 0x2e
 3139 01d6 01       		.byte	0x1
 3140 01d7 3F       		.uleb128 0x3f
 3141 01d8 0C       		.uleb128 0xc
 3142 01d9 03       		.uleb128 0x3
 3143 01da 0E       		.uleb128 0xe
 3144 01db 3A       		.uleb128 0x3a
 3145 01dc 0B       		.uleb128 0xb
 3146 01dd 3B       		.uleb128 0x3b
 3147 01de 05       		.uleb128 0x5
 3148 01df 27       		.uleb128 0x27
 3149 01e0 0C       		.uleb128 0xc
 3150 01e1 11       		.uleb128 0x11
 3151 01e2 01       		.uleb128 0x1
 3152 01e3 12       		.uleb128 0x12
 3153 01e4 01       		.uleb128 0x1
 3154 01e5 40       		.uleb128 0x40
 3155 01e6 06       		.uleb128 0x6
 3156 01e7 01       		.uleb128 0x1
 3157 01e8 13       		.uleb128 0x13
 3158 01e9 00       		.byte	0x0
 3159 01ea 00       		.byte	0x0
 3160 01eb 24       		.uleb128 0x24
 3161 01ec 05       		.uleb128 0x5
 3162 01ed 00       		.byte	0x0
 3163 01ee 03       		.uleb128 0x3
 3164 01ef 08       		.uleb128 0x8
 3165 01f0 3A       		.uleb128 0x3a
 3166 01f1 0B       		.uleb128 0xb
 3167 01f2 3B       		.uleb128 0x3b
 3168 01f3 05       		.uleb128 0x5
 3169 01f4 49       		.uleb128 0x49
 3170 01f5 13       		.uleb128 0x13
 3171 01f6 02       		.uleb128 0x2
 3172 01f7 06       		.uleb128 0x6
 3173 01f8 00       		.byte	0x0
 3174 01f9 00       		.byte	0x0
ARM GAS  /tmp/ccIuN4ur.s 			page 57


 3175 01fa 25       		.uleb128 0x25
 3176 01fb 34       		.uleb128 0x34
 3177 01fc 00       		.byte	0x0
 3178 01fd 03       		.uleb128 0x3
 3179 01fe 08       		.uleb128 0x8
 3180 01ff 3A       		.uleb128 0x3a
 3181 0200 0B       		.uleb128 0xb
 3182 0201 3B       		.uleb128 0x3b
 3183 0202 05       		.uleb128 0x5
 3184 0203 49       		.uleb128 0x49
 3185 0204 13       		.uleb128 0x13
 3186 0205 02       		.uleb128 0x2
 3187 0206 06       		.uleb128 0x6
 3188 0207 00       		.byte	0x0
 3189 0208 00       		.byte	0x0
 3190 0209 26       		.uleb128 0x26
 3191 020a 0B       		.uleb128 0xb
 3192 020b 01       		.byte	0x1
 3193 020c 55       		.uleb128 0x55
 3194 020d 06       		.uleb128 0x6
 3195 020e 01       		.uleb128 0x1
 3196 020f 13       		.uleb128 0x13
 3197 0210 00       		.byte	0x0
 3198 0211 00       		.byte	0x0
 3199 0212 27       		.uleb128 0x27
 3200 0213 34       		.uleb128 0x34
 3201 0214 00       		.byte	0x0
 3202 0215 31       		.uleb128 0x31
 3203 0216 13       		.uleb128 0x13
 3204 0217 02       		.uleb128 0x2
 3205 0218 06       		.uleb128 0x6
 3206 0219 00       		.byte	0x0
 3207 021a 00       		.byte	0x0
 3208 021b 28       		.uleb128 0x28
 3209 021c 2E       		.uleb128 0x2e
 3210 021d 01       		.byte	0x1
 3211 021e 3F       		.uleb128 0x3f
 3212 021f 0C       		.uleb128 0xc
 3213 0220 03       		.uleb128 0x3
 3214 0221 0E       		.uleb128 0xe
 3215 0222 3A       		.uleb128 0x3a
 3216 0223 0B       		.uleb128 0xb
 3217 0224 3B       		.uleb128 0x3b
 3218 0225 05       		.uleb128 0x5
 3219 0226 27       		.uleb128 0x27
 3220 0227 0C       		.uleb128 0xc
 3221 0228 11       		.uleb128 0x11
 3222 0229 01       		.uleb128 0x1
 3223 022a 12       		.uleb128 0x12
 3224 022b 01       		.uleb128 0x1
 3225 022c 40       		.uleb128 0x40
 3226 022d 0A       		.uleb128 0xa
 3227 022e 01       		.uleb128 0x1
 3228 022f 13       		.uleb128 0x13
 3229 0230 00       		.byte	0x0
 3230 0231 00       		.byte	0x0
 3231 0232 29       		.uleb128 0x29
ARM GAS  /tmp/ccIuN4ur.s 			page 58


 3232 0233 34       		.uleb128 0x34
 3233 0234 00       		.byte	0x0
 3234 0235 03       		.uleb128 0x3
 3235 0236 08       		.uleb128 0x8
 3236 0237 3A       		.uleb128 0x3a
 3237 0238 0B       		.uleb128 0xb
 3238 0239 3B       		.uleb128 0x3b
 3239 023a 05       		.uleb128 0x5
 3240 023b 49       		.uleb128 0x49
 3241 023c 13       		.uleb128 0x13
 3242 023d 02       		.uleb128 0x2
 3243 023e 0A       		.uleb128 0xa
 3244 023f 00       		.byte	0x0
 3245 0240 00       		.byte	0x0
 3246 0241 2A       		.uleb128 0x2a
 3247 0242 2E       		.uleb128 0x2e
 3248 0243 01       		.byte	0x1
 3249 0244 3F       		.uleb128 0x3f
 3250 0245 0C       		.uleb128 0xc
 3251 0246 03       		.uleb128 0x3
 3252 0247 0E       		.uleb128 0xe
 3253 0248 3A       		.uleb128 0x3a
 3254 0249 0B       		.uleb128 0xb
 3255 024a 3B       		.uleb128 0x3b
 3256 024b 05       		.uleb128 0x5
 3257 024c 27       		.uleb128 0x27
 3258 024d 0C       		.uleb128 0xc
 3259 024e 49       		.uleb128 0x49
 3260 024f 13       		.uleb128 0x13
 3261 0250 11       		.uleb128 0x11
 3262 0251 01       		.uleb128 0x1
 3263 0252 12       		.uleb128 0x12
 3264 0253 01       		.uleb128 0x1
 3265 0254 40       		.uleb128 0x40
 3266 0255 06       		.uleb128 0x6
 3267 0256 01       		.uleb128 0x1
 3268 0257 13       		.uleb128 0x13
 3269 0258 00       		.byte	0x0
 3270 0259 00       		.byte	0x0
 3271 025a 2B       		.uleb128 0x2b
 3272 025b 1D       		.uleb128 0x1d
 3273 025c 01       		.byte	0x1
 3274 025d 31       		.uleb128 0x31
 3275 025e 13       		.uleb128 0x13
 3276 025f 11       		.uleb128 0x11
 3277 0260 01       		.uleb128 0x1
 3278 0261 12       		.uleb128 0x12
 3279 0262 01       		.uleb128 0x1
 3280 0263 58       		.uleb128 0x58
 3281 0264 0B       		.uleb128 0xb
 3282 0265 59       		.uleb128 0x59
 3283 0266 05       		.uleb128 0x5
 3284 0267 00       		.byte	0x0
 3285 0268 00       		.byte	0x0
 3286 0269 2C       		.uleb128 0x2c
 3287 026a 34       		.uleb128 0x34
 3288 026b 00       		.byte	0x0
ARM GAS  /tmp/ccIuN4ur.s 			page 59


 3289 026c 03       		.uleb128 0x3
 3290 026d 0E       		.uleb128 0xe
 3291 026e 3A       		.uleb128 0x3a
 3292 026f 0B       		.uleb128 0xb
 3293 0270 3B       		.uleb128 0x3b
 3294 0271 0B       		.uleb128 0xb
 3295 0272 49       		.uleb128 0x49
 3296 0273 13       		.uleb128 0x13
 3297 0274 3F       		.uleb128 0x3f
 3298 0275 0C       		.uleb128 0xc
 3299 0276 3C       		.uleb128 0x3c
 3300 0277 0C       		.uleb128 0xc
 3301 0278 00       		.byte	0x0
 3302 0279 00       		.byte	0x0
 3303 027a 00       		.byte	0x0
 3304              		.section	.debug_pubnames,"",%progbits
 3305 0000 CD000000 		.4byte	0xcd
 3306 0004 0200     		.2byte	0x2
 3307 0006 00000000 		.4byte	.Ldebug_info0
 3308 000a DF090000 		.4byte	0x9df
 3309 000e DA040000 		.4byte	0x4da
 3310 0012 63685365 		.ascii	"chSemInit\000"
 3310      6D496E69 
 3310      7400
 3311 001c 10050000 		.4byte	0x510
 3312 0020 63685365 		.ascii	"chSemResetI\000"
 3312      6D526573 
 3312      65744900 
 3313 002c 7A050000 		.4byte	0x57a
 3314 0030 63685365 		.ascii	"chSemReset\000"
 3314      6D526573 
 3314      657400
 3315 003b E5050000 		.4byte	0x5e5
 3316 003f 63685365 		.ascii	"chSemWaitS\000"
 3316      6D576169 
 3316      745300
 3317 004a 33060000 		.4byte	0x633
 3318 004e 63685365 		.ascii	"chSemWait\000"
 3318      6D576169 
 3318      7400
 3319 0058 A0060000 		.4byte	0x6a0
 3320 005c 63685365 		.ascii	"chSemWaitTimeoutS\000"
 3320      6D576169 
 3320      7454696D 
 3320      656F7574 
 3320      5300
 3321 006e FE060000 		.4byte	0x6fe
 3322 0072 63685365 		.ascii	"chSemWaitTimeout\000"
 3322      6D576169 
 3322      7454696D 
 3322      656F7574 
 3322      00
 3323 0083 7A070000 		.4byte	0x77a
 3324 0087 63685365 		.ascii	"chSemSignal\000"
 3324      6D536967 
 3324      6E616C00 
 3325 0093 05080000 		.4byte	0x805
ARM GAS  /tmp/ccIuN4ur.s 			page 60


 3326 0097 63685365 		.ascii	"chSemSignalI\000"
 3326      6D536967 
 3326      6E616C49 
 3326      00
 3327 00a4 6A080000 		.4byte	0x86a
 3328 00a8 63685365 		.ascii	"chSemAddCounterI\000"
 3328      6D416464 
 3328      436F756E 
 3328      74657249 
 3328      00
 3329 00b9 CB080000 		.4byte	0x8cb
 3330 00bd 63685365 		.ascii	"chSemSignalWait\000"
 3330      6D536967 
 3330      6E616C57 
 3330      61697400 
 3331 00cd 00000000 		.4byte	0x0
 3332              		.section	.debug_pubtypes,"",%progbits
 3333 0000 2F010000 		.4byte	0x12f
 3334 0004 0200     		.2byte	0x2
 3335 0006 00000000 		.4byte	.Ldebug_info0
 3336 000a DF090000 		.4byte	0x9df
 3337 000e 3E000000 		.4byte	0x3e
 3338 0012 75696E74 		.ascii	"uint8_t\000"
 3338      385F7400 
 3339 001a 5E000000 		.4byte	0x5e
 3340 001e 696E7433 		.ascii	"int32_t\000"
 3340      325F7400 
 3341 0026 70000000 		.4byte	0x70
 3342 002a 75696E74 		.ascii	"uint32_t\000"
 3342      33325F74 
 3342      00
 3343 0033 90000000 		.4byte	0x90
 3344 0037 746D6F64 		.ascii	"tmode_t\000"
 3344      655F7400 
 3345 003f 9B000000 		.4byte	0x9b
 3346 0043 74737461 		.ascii	"tstate_t\000"
 3346      74655F74 
 3346      00
 3347 004c A6000000 		.4byte	0xa6
 3348 0050 74726566 		.ascii	"trefs_t\000"
 3348      735F7400 
 3349 0058 B1000000 		.4byte	0xb1
 3350 005c 74707269 		.ascii	"tprio_t\000"
 3350      6F5F7400 
 3351 0064 BC000000 		.4byte	0xbc
 3352 0068 6D73675F 		.ascii	"msg_t\000"
 3352      7400
 3353 006e C7000000 		.4byte	0xc7
 3354 0072 6576656E 		.ascii	"eventmask_t\000"
 3354      746D6173 
 3354      6B5F7400 
 3355 007e D2000000 		.4byte	0xd2
 3356 0082 73797374 		.ascii	"systime_t\000"
 3356      696D655F 
 3356      7400
 3357 008c DD000000 		.4byte	0xdd
 3358 0090 636E745F 		.ascii	"cnt_t\000"
ARM GAS  /tmp/ccIuN4ur.s 			page 61


 3358      7400
 3359 0096 E8000000 		.4byte	0xe8
 3360 009a 54687265 		.ascii	"Thread\000"
 3360      616400
 3361 00a1 35020000 		.4byte	0x235
 3362 00a5 54687265 		.ascii	"ThreadsQueue\000"
 3362      61647351 
 3362      75657565 
 3362      00
 3363 00b2 57020000 		.4byte	0x257
 3364 00b6 54687265 		.ascii	"ThreadsList\000"
 3364      6164734C 
 3364      69737400 
 3365 00c2 62020000 		.4byte	0x262
 3366 00c6 72656761 		.ascii	"regarm_t\000"
 3366      726D5F74 
 3366      00
 3367 00cf 6F020000 		.4byte	0x26f
 3368 00d3 696E7463 		.ascii	"intctx\000"
 3368      747800
 3369 00da FC020000 		.4byte	0x2fc
 3370 00de 636F6E74 		.ascii	"context\000"
 3370      65787400 
 3371 00e6 8F030000 		.4byte	0x38f
 3372 00ea 52656164 		.ascii	"ReadyList\000"
 3372      794C6973 
 3372      7400
 3373 00f4 9A030000 		.4byte	0x39a
 3374 00f8 53656D61 		.ascii	"Semaphore\000"
 3374      70686F72 
 3374      6500
 3375 0102 C3030000 		.4byte	0x3c3
 3376 0106 53656D61 		.ascii	"Semaphore\000"
 3376      70686F72 
 3376      6500
 3377 0110 CE030000 		.4byte	0x3ce
 3378 0114 4D757465 		.ascii	"Mutex\000"
 3378      7800
 3379 011a 0B040000 		.4byte	0x40b
 3380 011e 4D757465 		.ascii	"Mutex\000"
 3380      7800
 3381 0124 F3000000 		.4byte	0xf3
 3382 0128 54687265 		.ascii	"Thread\000"
 3382      616400
 3383 012f 00000000 		.4byte	0x0
 3384              		.section	.debug_aranges,"",%progbits
 3385 0000 6C000000 		.4byte	0x6c
 3386 0004 0200     		.2byte	0x2
 3387 0006 00000000 		.4byte	.Ldebug_info0
 3388 000a 04       		.byte	0x4
 3389 000b 00       		.byte	0x0
 3390 000c 0000     		.2byte	0x0
 3391 000e 0000     		.2byte	0x0
 3392 0010 00000000 		.4byte	.LFB7
 3393 0014 08000000 		.4byte	.LFE7-.LFB7
 3394 0018 00000000 		.4byte	.LFB9
 3395 001c 68000000 		.4byte	.LFE9-.LFB9
ARM GAS  /tmp/ccIuN4ur.s 			page 62


 3396 0020 00000000 		.4byte	.LFB8
 3397 0024 18000000 		.4byte	.LFE8-.LFB8
 3398 0028 00000000 		.4byte	.LFB11
 3399 002c 34000000 		.4byte	.LFE11-.LFB11
 3400 0030 00000000 		.4byte	.LFB10
 3401 0034 14000000 		.4byte	.LFE10-.LFB10
 3402 0038 00000000 		.4byte	.LFB13
 3403 003c 3C000000 		.4byte	.LFE13-.LFB13
 3404 0040 00000000 		.4byte	.LFB12
 3405 0044 14000000 		.4byte	.LFE12-.LFB12
 3406 0048 00000000 		.4byte	.LFB14
 3407 004c 32000000 		.4byte	.LFE14-.LFB14
 3408 0050 00000000 		.4byte	.LFB15
 3409 0054 20000000 		.4byte	.LFE15-.LFB15
 3410 0058 00000000 		.4byte	.LFB16
 3411 005c 9C000000 		.4byte	.LFE16-.LFB16
 3412 0060 00000000 		.4byte	.LFB17
 3413 0064 64000000 		.4byte	.LFE17-.LFB17
 3414 0068 00000000 		.4byte	0x0
 3415 006c 00000000 		.4byte	0x0
 3416              		.section	.debug_ranges,"",%progbits
 3417              	.Ldebug_ranges0:
 3418 0000 0E000000 		.4byte	.LBB24
 3419 0004 16000000 		.4byte	.LBE24
 3420 0008 4C000000 		.4byte	.LBB31
 3421 000c 54000000 		.4byte	.LBE31
 3422 0010 3E000000 		.4byte	.LBB30
 3423 0014 46000000 		.4byte	.LBE30
 3424 0018 2A000000 		.4byte	.LBB29
 3425 001c 32000000 		.4byte	.LBE29
 3426 0020 00000000 		.4byte	0x0
 3427 0024 00000000 		.4byte	0x0
 3428 0028 0E000000 		.4byte	.LBB26
 3429 002c 16000000 		.4byte	.LBE26
 3430 0030 4C000000 		.4byte	.LBB28
 3431 0034 54000000 		.4byte	.LBE28
 3432 0038 3E000000 		.4byte	.LBB25
 3433 003c 46000000 		.4byte	.LBE25
 3434 0040 2A000000 		.4byte	.LBB27
 3435 0044 32000000 		.4byte	.LBE27
 3436 0048 00000000 		.4byte	0x0
 3437 004c 00000000 		.4byte	0x0
 3438 0050 18000000 		.4byte	.LBB34
 3439 0054 1E000000 		.4byte	.LBE34
 3440 0058 20000000 		.4byte	.LBB37
 3441 005c 24000000 		.4byte	.LBE37
 3442 0060 00000000 		.4byte	0x0
 3443 0064 00000000 		.4byte	0x0
 3444 0068 1C000000 		.4byte	.LBB40
 3445 006c 20000000 		.4byte	.LBE40
 3446 0070 22000000 		.4byte	.LBB43
 3447 0074 28000000 		.4byte	.LBE43
 3448 0078 00000000 		.4byte	0x0
 3449 007c 00000000 		.4byte	0x0
 3450 0080 14000000 		.4byte	.LBB47
 3451 0084 1A000000 		.4byte	.LBE47
 3452 0088 2A000000 		.4byte	.LBB52
ARM GAS  /tmp/ccIuN4ur.s 			page 63


 3453 008c 30000000 		.4byte	.LBE52
 3454 0090 00000000 		.4byte	0x0
 3455 0094 00000000 		.4byte	0x0
 3456 0098 1C000000 		.4byte	.LBB48
 3457 009c 20000000 		.4byte	.LBE48
 3458 00a0 22000000 		.4byte	.LBB51
 3459 00a4 26000000 		.4byte	.LBE51
 3460 00a8 00000000 		.4byte	0x0
 3461 00ac 00000000 		.4byte	0x0
 3462 00b0 1C000000 		.4byte	.LBB49
 3463 00b4 20000000 		.4byte	.LBE49
 3464 00b8 22000000 		.4byte	.LBB50
 3465 00bc 26000000 		.4byte	.LBE50
 3466 00c0 00000000 		.4byte	0x0
 3467 00c4 00000000 		.4byte	0x0
 3468 00c8 0E000000 		.4byte	.LBB53
 3469 00cc 1C000000 		.4byte	.LBE53
 3470 00d0 1C000000 		.4byte	.LBB58
 3471 00d4 20000000 		.4byte	.LBE58
 3472 00d8 00000000 		.4byte	0x0
 3473 00dc 00000000 		.4byte	0x0
 3474 00e0 0E000000 		.4byte	.LBB55
 3475 00e4 12000000 		.4byte	.LBE55
 3476 00e8 14000000 		.4byte	.LBB54
 3477 00ec 18000000 		.4byte	.LBE54
 3478 00f0 00000000 		.4byte	0x0
 3479 00f4 00000000 		.4byte	0x0
 3480 00f8 0E000000 		.4byte	.LBB56
 3481 00fc 12000000 		.4byte	.LBE56
 3482 0100 14000000 		.4byte	.LBB57
 3483 0104 18000000 		.4byte	.LBE57
 3484 0108 00000000 		.4byte	0x0
 3485 010c 00000000 		.4byte	0x0
 3486 0110 4A000000 		.4byte	.LBB59
 3487 0114 52000000 		.4byte	.LBE59
 3488 0118 8A000000 		.4byte	.LBB66
 3489 011c 92000000 		.4byte	.LBE66
 3490 0120 7A000000 		.4byte	.LBB65
 3491 0124 82000000 		.4byte	.LBE65
 3492 0128 64000000 		.4byte	.LBB64
 3493 012c 6C000000 		.4byte	.LBE64
 3494 0130 00000000 		.4byte	0x0
 3495 0134 00000000 		.4byte	0x0
 3496 0138 4A000000 		.4byte	.LBB61
 3497 013c 52000000 		.4byte	.LBE61
 3498 0140 8A000000 		.4byte	.LBB63
 3499 0144 92000000 		.4byte	.LBE63
 3500 0148 7A000000 		.4byte	.LBB60
 3501 014c 82000000 		.4byte	.LBE60
 3502 0150 64000000 		.4byte	.LBB62
 3503 0154 6C000000 		.4byte	.LBE62
 3504 0158 00000000 		.4byte	0x0
 3505 015c 00000000 		.4byte	0x0
 3506 0160 32000000 		.4byte	.LBB70
 3507 0164 34000000 		.4byte	.LBE70
 3508 0168 38000000 		.4byte	.LBB73
 3509 016c 40000000 		.4byte	.LBE73
ARM GAS  /tmp/ccIuN4ur.s 			page 64


 3510 0170 00000000 		.4byte	0x0
 3511 0174 00000000 		.4byte	0x0
 3512 0178 00000000 		.4byte	.LFB7
 3513 017c 08000000 		.4byte	.LFE7
 3514 0180 00000000 		.4byte	.LFB9
 3515 0184 68000000 		.4byte	.LFE9
 3516 0188 00000000 		.4byte	.LFB8
 3517 018c 18000000 		.4byte	.LFE8
 3518 0190 00000000 		.4byte	.LFB11
 3519 0194 34000000 		.4byte	.LFE11
 3520 0198 00000000 		.4byte	.LFB10
 3521 019c 14000000 		.4byte	.LFE10
 3522 01a0 00000000 		.4byte	.LFB13
 3523 01a4 3C000000 		.4byte	.LFE13
 3524 01a8 00000000 		.4byte	.LFB12
 3525 01ac 14000000 		.4byte	.LFE12
 3526 01b0 00000000 		.4byte	.LFB14
 3527 01b4 32000000 		.4byte	.LFE14
 3528 01b8 00000000 		.4byte	.LFB15
 3529 01bc 20000000 		.4byte	.LFE15
 3530 01c0 00000000 		.4byte	.LFB16
 3531 01c4 9C000000 		.4byte	.LFE16
 3532 01c8 00000000 		.4byte	.LFB17
 3533 01cc 64000000 		.4byte	.LFE17
 3534 01d0 00000000 		.4byte	0x0
 3535 01d4 00000000 		.4byte	0x0
 3536              		.section	.debug_str,"MS",%progbits,1
 3537              	.LASF34:
 3538 0000 705F6D73 		.ascii	"p_msg\000"
 3538      6700
 3539              	.LASF82:
 3540 0006 71756575 		.ascii	"queue_insert\000"
 3540      655F696E 
 3540      73657274 
 3540      00
 3541              	.LASF75:
 3542 0013 63685365 		.ascii	"chSemSignalI\000"
 3542      6D536967 
 3542      6E616C49 
 3542      00
 3543              	.LASF59:
 3544 0020 7264796D 		.ascii	"rdymsg\000"
 3544      736700
 3545              	.LASF80:
 3546 0027 2E2E2F6C 		.ascii	"../libs/ChibiOS_2.4.0/os/kernel/src/chsem.c\000"
 3546      6962732F 
 3546      43686962 
 3546      694F535F 
 3546      322E342E 
 3547              	.LASF11:
 3548 0053 6C6F6E67 		.ascii	"long long unsigned int\000"
 3548      206C6F6E 
 3548      6720756E 
 3548      7369676E 
 3548      65642069 
 3549              	.LASF60:
 3550 006a 65786974 		.ascii	"exitcode\000"
ARM GAS  /tmp/ccIuN4ur.s 			page 65


 3550      636F6465 
 3550      00
 3551              	.LASF76:
 3552 0073 63685365 		.ascii	"chSemAddCounterI\000"
 3552      6D416464 
 3552      436F756E 
 3552      74657249 
 3552      00
 3553              	.LASF23:
 3554 0084 705F7072 		.ascii	"p_prio\000"
 3554      696F00
 3555              	.LASF10:
 3556 008b 6C6F6E67 		.ascii	"long long int\000"
 3556      206C6F6E 
 3556      6720696E 
 3556      7400
 3557              	.LASF1:
 3558 0099 7369676E 		.ascii	"signed char\000"
 3558      65642063 
 3558      68617200 
 3559              	.LASF81:
 3560 00a5 2F686F6D 		.ascii	"/home/stm32/Workspace/demoarm\000"
 3560      652F7374 
 3560      6D33322F 
 3560      576F726B 
 3560      73706163 
 3561              	.LASF77:
 3562 00c3 63685365 		.ascii	"chSemSignalWait\000"
 3562      6D536967 
 3562      6E616C57 
 3562      61697400 
 3563              	.LASF38:
 3564 00d3 705F6D70 		.ascii	"p_mpool\000"
 3564      6F6F6C00 
 3565              	.LASF56:
 3566 00db 6D5F7175 		.ascii	"m_queue\000"
 3566      65756500 
 3567              	.LASF7:
 3568 00e3 6C6F6E67 		.ascii	"long int\000"
 3568      20696E74 
 3568      00
 3569              	.LASF13:
 3570 00ec 74737461 		.ascii	"tstate_t\000"
 3570      74655F74 
 3570      00
 3571              	.LASF74:
 3572 00f5 63685365 		.ascii	"chSemSignal\000"
 3572      6D536967 
 3572      6E616C00 
 3573              	.LASF25:
 3574 0101 705F6E65 		.ascii	"p_newer\000"
 3574      77657200 
 3575              	.LASF53:
 3576 0109 735F7175 		.ascii	"s_queue\000"
 3576      65756500 
 3577              	.LASF47:
 3578 0111 725F6E65 		.ascii	"r_newer\000"
ARM GAS  /tmp/ccIuN4ur.s 			page 66


 3578      77657200 
 3579              	.LASF41:
 3580 0119 72656761 		.ascii	"regarm_t\000"
 3580      726D5F74 
 3580      00
 3581              	.LASF19:
 3582 0122 636E745F 		.ascii	"cnt_t\000"
 3582      7400
 3583              	.LASF0:
 3584 0128 756E7369 		.ascii	"unsigned int\000"
 3584      676E6564 
 3584      20696E74 
 3584      00
 3585              	.LASF73:
 3586 0135 63685365 		.ascii	"chSemWaitTimeout\000"
 3586      6D576169 
 3586      7454696D 
 3586      656F7574 
 3586      00
 3587              	.LASF9:
 3588 0146 6C6F6E67 		.ascii	"long unsigned int\000"
 3588      20756E73 
 3588      69676E65 
 3588      6420696E 
 3588      7400
 3589              	.LASF54:
 3590 0158 735F636E 		.ascii	"s_cnt\000"
 3590      7400
 3591              	.LASF43:
 3592 015e 636F6E74 		.ascii	"context\000"
 3592      65787400 
 3593              	.LASF4:
 3594 0166 73686F72 		.ascii	"short unsigned int\000"
 3594      7420756E 
 3594      7369676E 
 3594      65642069 
 3594      6E7400
 3595              	.LASF68:
 3596 0179 63685365 		.ascii	"chSemReset\000"
 3596      6D526573 
 3596      657400
 3597              	.LASF16:
 3598 0184 6D73675F 		.ascii	"msg_t\000"
 3598      7400
 3599              	.LASF12:
 3600 018a 746D6F64 		.ascii	"tmode_t\000"
 3600      655F7400 
 3601              	.LASF40:
 3602 0192 54687265 		.ascii	"ThreadsList\000"
 3602      6164734C 
 3602      69737400 
 3603              	.LASF17:
 3604 019e 6576656E 		.ascii	"eventmask_t\000"
 3604      746D6173 
 3604      6B5F7400 
 3605              	.LASF55:
 3606 01aa 4D757465 		.ascii	"Mutex\000"
ARM GAS  /tmp/ccIuN4ur.s 			page 67


 3606      7800
 3607              	.LASF26:
 3608 01b0 705F6F6C 		.ascii	"p_older\000"
 3608      64657200 
 3609              	.LASF46:
 3610 01b8 725F6374 		.ascii	"r_ctx\000"
 3610      7800
 3611              	.LASF39:
 3612 01be 54687265 		.ascii	"ThreadsQueue\000"
 3612      61647351 
 3612      75657565 
 3612      00
 3613              	.LASF72:
 3614 01cb 74696D65 		.ascii	"time\000"
 3614      00
 3615              	.LASF50:
 3616 01d0 725F6375 		.ascii	"r_current\000"
 3616      7272656E 
 3616      7400
 3617              	.LASF48:
 3618 01da 725F6F6C 		.ascii	"r_older\000"
 3618      64657200 
 3619              	.LASF14:
 3620 01e2 74726566 		.ascii	"trefs_t\000"
 3620      735F7400 
 3621              	.LASF22:
 3622 01ea 705F7072 		.ascii	"p_prev\000"
 3622      657600
 3623              	.LASF15:
 3624 01f1 74707269 		.ascii	"tprio_t\000"
 3624      6F5F7400 
 3625              	.LASF6:
 3626 01f9 696E7433 		.ascii	"int32_t\000"
 3626      325F7400 
 3627              	.LASF2:
 3628 0201 756E7369 		.ascii	"unsigned char\000"
 3628      676E6564 
 3628      20636861 
 3628      7200
 3629              	.LASF36:
 3630 020f 705F6D74 		.ascii	"p_mtxlist\000"
 3630      786C6973 
 3630      7400
 3631              	.LASF3:
 3632 0219 73686F72 		.ascii	"short int\000"
 3632      7420696E 
 3632      7400
 3633              	.LASF28:
 3634 0223 705F7374 		.ascii	"p_state\000"
 3634      61746500 
 3635              	.LASF45:
 3636 022b 725F7072 		.ascii	"r_prio\000"
 3636      696F00
 3637              	.LASF62:
 3638 0232 65776D61 		.ascii	"ewmask\000"
 3638      736B00
 3639              	.LASF21:
ARM GAS  /tmp/ccIuN4ur.s 			page 68


 3640 0239 705F6E65 		.ascii	"p_next\000"
 3640      787400
 3641              	.LASF29:
 3642 0240 705F666C 		.ascii	"p_flags\000"
 3642      61677300 
 3643              	.LASF69:
 3644 0248 63685365 		.ascii	"chSemWaitS\000"
 3644      6D576169 
 3644      745300
 3645              	.LASF20:
 3646 0253 54687265 		.ascii	"Thread\000"
 3646      616400
 3647              	.LASF35:
 3648 025a 705F6570 		.ascii	"p_epending\000"
 3648      656E6469 
 3648      6E6700
 3649              	.LASF8:
 3650 0265 75696E74 		.ascii	"uint32_t\000"
 3650      33325F74 
 3650      00
 3651              	.LASF44:
 3652 026e 725F7175 		.ascii	"r_queue\000"
 3652      65756500 
 3653              	.LASF63:
 3654 0276 63686172 		.ascii	"char\000"
 3654      00
 3655              	.LASF65:
 3656 027b 6669666F 		.ascii	"fifo_remove\000"
 3656      5F72656D 
 3656      6F766500 
 3657              	.LASF71:
 3658 0287 63685365 		.ascii	"chSemWaitTimeoutS\000"
 3658      6D576169 
 3658      7454696D 
 3658      656F7574 
 3658      5300
 3659              	.LASF58:
 3660 0299 6D5F6E65 		.ascii	"m_next\000"
 3660      787400
 3661              	.LASF18:
 3662 02a0 73797374 		.ascii	"systime_t\000"
 3662      696D655F 
 3662      7400
 3663              	.LASF37:
 3664 02aa 705F7265 		.ascii	"p_realprio\000"
 3664      616C7072 
 3664      696F00
 3665              	.LASF70:
 3666 02b5 63685365 		.ascii	"chSemWait\000"
 3666      6D576169 
 3666      7400
 3667              	.LASF31:
 3668 02bf 705F7469 		.ascii	"p_time\000"
 3668      6D6500
 3669              	.LASF64:
 3670 02c6 6C69666F 		.ascii	"lifo_remove\000"
 3670      5F72656D 
ARM GAS  /tmp/ccIuN4ur.s 			page 69


 3670      6F766500 
 3671              	.LASF42:
 3672 02d2 696E7463 		.ascii	"intctx\000"
 3672      747800
 3673              	.LASF33:
 3674 02d9 705F6D73 		.ascii	"p_msgqueue\000"
 3674      67717565 
 3674      756500
 3675              	.LASF52:
 3676 02e4 53656D61 		.ascii	"Semaphore\000"
 3676      70686F72 
 3676      6500
 3677              	.LASF30:
 3678 02ee 705F7265 		.ascii	"p_refs\000"
 3678      667300
 3679              	.LASF51:
 3680 02f5 52656164 		.ascii	"ReadyList\000"
 3680      794C6973 
 3680      7400
 3681              	.LASF67:
 3682 02ff 63685365 		.ascii	"chSemResetI\000"
 3682      6D526573 
 3682      65744900 
 3683              	.LASF78:
 3684 030b 726C6973 		.ascii	"rlist\000"
 3684      7400
 3685              	.LASF5:
 3686 0311 75696E74 		.ascii	"uint8_t\000"
 3686      385F7400 
 3687              	.LASF61:
 3688 0319 77746F62 		.ascii	"wtobjp\000"
 3688      6A7000
 3689              	.LASF79:
 3690 0320 474E5520 		.ascii	"GNU C 4.5.2\000"
 3690      4320342E 
 3690      352E3200 
 3691              	.LASF27:
 3692 032c 705F6E61 		.ascii	"p_name\000"
 3692      6D6500
 3693              	.LASF49:
 3694 0333 725F7072 		.ascii	"r_preempt\000"
 3694      65656D70 
 3694      7400
 3695              	.LASF57:
 3696 033d 6D5F6F77 		.ascii	"m_owner\000"
 3696      6E657200 
 3697              	.LASF24:
 3698 0345 705F6374 		.ascii	"p_ctx\000"
 3698      7800
 3699              	.LASF32:
 3700 034b 705F7761 		.ascii	"p_waiting\000"
 3700      6974696E 
 3700      6700
 3701              	.LASF66:
 3702 0355 63685365 		.ascii	"chSemInit\000"
 3702      6D496E69 
 3702      7400
ARM GAS  /tmp/ccIuN4ur.s 			page 70


 3703              		.ident	"GCC: (Sourcery G++ Lite 2011.03-42) 4.5.2"
ARM GAS  /tmp/ccIuN4ur.s 			page 71


DEFINED SYMBOLS
                            *ABS*:00000000 chsem.c
     /tmp/ccIuN4ur.s:26     .text.chSemInit:00000000 $t
     /tmp/ccIuN4ur.s:32     .text.chSemInit:00000000 chSemInit
     /tmp/ccIuN4ur.s:52     .text.chSemResetI:00000000 $t
     /tmp/ccIuN4ur.s:58     .text.chSemResetI:00000000 chSemResetI
     /tmp/ccIuN4ur.s:176    .text.chSemReset:00000000 $t
     /tmp/ccIuN4ur.s:182    .text.chSemReset:00000000 chSemReset
     /tmp/ccIuN4ur.s:225    .text.chSemWaitS:00000000 $t
     /tmp/ccIuN4ur.s:231    .text.chSemWaitS:00000000 chSemWaitS
     /tmp/ccIuN4ur.s:293    .text.chSemWaitS:00000030 $d
     /tmp/ccIuN4ur.s:298    .text.chSemWait:00000000 $t
     /tmp/ccIuN4ur.s:304    .text.chSemWait:00000000 chSemWait
     /tmp/ccIuN4ur.s:345    .text.chSemWaitTimeoutS:00000000 $t
     /tmp/ccIuN4ur.s:351    .text.chSemWaitTimeoutS:00000000 chSemWaitTimeoutS
     /tmp/ccIuN4ur.s:421    .text.chSemWaitTimeoutS:00000038 $d
     /tmp/ccIuN4ur.s:426    .text.chSemWaitTimeout:00000000 $t
     /tmp/ccIuN4ur.s:432    .text.chSemWaitTimeout:00000000 chSemWaitTimeout
     /tmp/ccIuN4ur.s:473    .text.chSemSignal:00000000 $t
     /tmp/ccIuN4ur.s:479    .text.chSemSignal:00000000 chSemSignal
     /tmp/ccIuN4ur.s:560    .text.chSemSignalI:00000000 $t
     /tmp/ccIuN4ur.s:566    .text.chSemSignalI:00000000 chSemSignalI
     /tmp/ccIuN4ur.s:619    .text.chSemAddCounterI:00000000 $t
     /tmp/ccIuN4ur.s:625    .text.chSemAddCounterI:00000000 chSemAddCounterI
     /tmp/ccIuN4ur.s:786    .text.chSemSignalWait:00000000 $t
     /tmp/ccIuN4ur.s:792    .text.chSemSignalWait:00000000 chSemSignalWait
     /tmp/ccIuN4ur.s:914    .text.chSemSignalWait:00000060 $d
                     .debug_frame:00000010 $d
     /tmp/ccIuN4ur.s:297    .text.chSemWaitS:00000034 $t
     /tmp/ccIuN4ur.s:425    .text.chSemWaitTimeoutS:0000003c $t
     /tmp/ccIuN4ur.s:918    .text.chSemSignalWait:00000064 $t

UNDEFINED SYMBOLS
chSchReadyI
chSchRescheduleS
chSchGoSleepS
rlist
chSchGoSleepTimeoutS
chSchWakeupS
