ARM GAS  /tmp/ccVbFWdL.s 			page 1


   1              		.syntax unified
   2              		.cpu cortex-m4
   3              		.eabi_attribute 27, 3
   4              		.eabi_attribute 28, 1
   5              		.fpu fpv4-sp-d16
   6              		.eabi_attribute 20, 1
   7              		.eabi_attribute 21, 1
   8              		.eabi_attribute 23, 3
   9              		.eabi_attribute 24, 1
  10              		.eabi_attribute 25, 1
  11              		.eabi_attribute 26, 1
  12              		.eabi_attribute 30, 2
  13              		.eabi_attribute 18, 4
  14              		.thumb
  15              		.file	"chthreads.c"
  16              		.section	.debug_abbrev,"",%progbits
  17              	.Ldebug_abbrev0:
  18              		.section	.debug_info,"",%progbits
  19              	.Ldebug_info0:
  20              		.section	.debug_line,"",%progbits
  21              	.Ldebug_line0:
  22 0000 6E030000 		.text
  22      0200CA01 
  22      00000201 
  22      FB0E0D00 
  22      01010101 
  23              	.Ltext0:
  24              		.cfi_sections	.debug_frame
  25              		.section	.text._thread_init,"ax",%progbits
  26              		.align	2
  27              		.p2align 4,,15
  28              		.global	_thread_init
  29              		.thumb
  30              		.thumb_func
  31              		.type	_thread_init, %function
  32              	_thread_init:
  33              	.LFB7:
  34              		.file 1 "../libs/ChibiOS_2.4.0/os/kernel/src/chthreads.c"
  35              		.loc 1 76 0
  36              		.cfi_startproc
  37              		@ args = 0, pretend = 0, frame = 0
  38              		@ frame_needed = 0, uses_anonymous_args = 0
  39              		@ link register save eliminated.
  40              	.LVL0:
  41 0000 F0B4     		push	{r4, r5, r6, r7}
  42              	.LCFI0:
  43              		.cfi_def_cfa_offset 16
  44              		.loc 1 80 0
  45 0002 0022     		movs	r2, #0
  46              		.loc 1 96 0
  47 0004 0C4C     		ldr	r4, .L2
  48              		.cfi_offset 7, -4
  49              		.cfi_offset 6, -8
  50              		.cfi_offset 5, -12
  51              		.cfi_offset 4, -16
  52              		.loc 1 80 0
  53 0006 4277     		strb	r2, [r0, #29]
ARM GAS  /tmp/ccVbFWdL.s 			page 2


  54              		.loc 1 92 0
  55 0008 0125     		movs	r5, #1
  56              		.loc 1 79 0
  57 000a 0223     		movs	r3, #2
  58 000c 0377     		strb	r3, [r0, #28]
  59              		.loc 1 92 0
  60 000e 8577     		strb	r5, [r0, #30]
  61              		.loc 1 96 0
  62 0010 6569     		ldr	r5, [r4, #20]
  63              		.loc 1 82 0
  64 0012 0164     		str	r1, [r0, #64]
  65              		.loc 1 102 0
  66 0014 00F12C06 		add	r6, r0, #44
  67              		.loc 1 99 0
  68 0018 00F12807 		add	r7, r0, #40
  69              		.loc 1 96 0
  70 001c 0461     		str	r4, [r0, #16]
  71              		.loc 1 78 0
  72 001e 8160     		str	r1, [r0, #8]
  73              		.loc 1 96 0
  74 0020 4561     		str	r5, [r0, #20]
  75              		.loc 1 83 0
  76 0022 C263     		str	r2, [r0, #60]
  77              		.loc 1 96 0
  78 0024 6061     		str	r0, [r4, #20]
  79              		.loc 1 86 0
  80 0026 8263     		str	r2, [r0, #56]
  81              		.loc 1 89 0
  82 0028 0262     		str	r2, [r0, #32]
  83              		.loc 1 95 0
  84 002a 8261     		str	r2, [r0, #24]
  85              		.loc 1 96 0
  86 002c 2861     		str	r0, [r5, #16]
  87              		.loc 1 99 0
  88 002e 8762     		str	r7, [r0, #40]
  89              		.loc 1 102 0
  90 0030 0663     		str	r6, [r0, #48]
  91 0032 C662     		str	r6, [r0, #44]
  92              		.loc 1 111 0
  93 0034 F0BC     		pop	{r4, r5, r6, r7}
  94 0036 7047     		bx	lr
  95              	.L3:
  96              		.align	2
  97              	.L2:
  98 0038 00000000 		.word	rlist
  99              		.cfi_endproc
 100              	.LFE7:
 101              		.size	_thread_init, .-_thread_init
 102 003c AFF30080 		.section	.text.chThdCreateI,"ax",%progbits
 103              		.align	2
 104              		.p2align 4,,15
 105              		.global	chThdCreateI
 106              		.thumb
 107              		.thumb_func
 108              		.type	chThdCreateI, %function
 109              	chThdCreateI:
 110              	.LFB8:
ARM GAS  /tmp/ccVbFWdL.s 			page 3


 111              		.loc 1 155 0
 112              		.cfi_startproc
 113              		@ args = 4, pretend = 0, frame = 0
 114              		@ frame_needed = 0, uses_anonymous_args = 0
 115              		@ link register save eliminated.
 116              	.LVL1:
 117              		.loc 1 164 0
 118 0000 2439     		subs	r1, r1, #36
 119              	.LVL2:
 120              		.loc 1 155 0
 121 0002 F0B4     		push	{r4, r5, r6, r7}
 122              	.LCFI1:
 123              		.cfi_def_cfa_offset 16
 124              		.loc 1 164 0
 125 0004 4718     		adds	r7, r0, r1
 126              		.cfi_offset 7, -4
 127              		.cfi_offset 6, -8
 128              		.cfi_offset 5, -12
 129              		.cfi_offset 4, -16
 130 0006 C760     		str	r7, [r0, #12]
 131 0008 4350     		str	r3, [r0, r1]
 132 000a 0499     		ldr	r1, [sp, #16]
 133              	.LVL3:
 134 000c 0E4B     		ldr	r3, .L5
 135              	.LVL4:
 136 000e 7960     		str	r1, [r7, #4]
 137 0010 3B62     		str	r3, [r7, #32]
 138              	.LVL5:
 139              	.LBB10:
 140              	.LBB11:
 141              		.loc 1 80 0
 142 0012 0025     		movs	r5, #0
 143              		.loc 1 96 0
 144 0014 0D4E     		ldr	r6, .L5+4
 145              		.loc 1 80 0
 146 0016 4577     		strb	r5, [r0, #29]
 147              		.loc 1 79 0
 148 0018 0221     		movs	r1, #2
 149              		.loc 1 92 0
 150 001a 0127     		movs	r7, #1
 151              	.LVL6:
 152              		.loc 1 79 0
 153 001c 0177     		strb	r1, [r0, #28]
 154              		.loc 1 92 0
 155 001e 8777     		strb	r7, [r0, #30]
 156              		.loc 1 96 0
 157 0020 7369     		ldr	r3, [r6, #20]
 158              		.loc 1 82 0
 159 0022 0264     		str	r2, [r0, #64]
 160              		.loc 1 102 0
 161 0024 00F12C01 		add	r1, r0, #44
 162              		.loc 1 99 0
 163 0028 00F12807 		add	r7, r0, #40
 164              		.loc 1 96 0
 165 002c 0661     		str	r6, [r0, #16]
 166              	.LVL7:
 167              		.loc 1 78 0
ARM GAS  /tmp/ccVbFWdL.s 			page 4


 168 002e 8260     		str	r2, [r0, #8]
 169              		.loc 1 96 0
 170 0030 4361     		str	r3, [r0, #20]
 171              		.loc 1 83 0
 172 0032 C563     		str	r5, [r0, #60]
 173              		.loc 1 96 0
 174 0034 7061     		str	r0, [r6, #20]
 175              		.loc 1 86 0
 176 0036 8563     		str	r5, [r0, #56]
 177              		.loc 1 89 0
 178 0038 0562     		str	r5, [r0, #32]
 179              		.loc 1 95 0
 180 003a 8561     		str	r5, [r0, #24]
 181              		.loc 1 96 0
 182 003c 1861     		str	r0, [r3, #16]
 183              		.loc 1 99 0
 184 003e 8762     		str	r7, [r0, #40]
 185              		.loc 1 102 0
 186 0040 0163     		str	r1, [r0, #48]
 187 0042 C162     		str	r1, [r0, #44]
 188              	.LBE11:
 189              	.LBE10:
 190              		.loc 1 166 0
 191 0044 F0BC     		pop	{r4, r5, r6, r7}
 192 0046 7047     		bx	lr
 193              	.L6:
 194              		.align	2
 195              	.L5:
 196 0048 00000000 		.word	_port_thread_start
 197 004c 00000000 		.word	rlist
 198              		.cfi_endproc
 199              	.LFE8:
 200              		.size	chThdCreateI, .-chThdCreateI
 201              		.section	.text.chThdCreateStatic,"ax",%progbits
 202              		.align	2
 203              		.p2align 4,,15
 204              		.global	chThdCreateStatic
 205              		.thumb
 206              		.thumb_func
 207              		.type	chThdCreateStatic, %function
 208              	chThdCreateStatic:
 209              	.LFB9:
 210              		.loc 1 185 0
 211              		.cfi_startproc
 212              		@ args = 4, pretend = 0, frame = 0
 213              		@ frame_needed = 0, uses_anonymous_args = 0
 214              	.LVL8:
 215 0000 10B5     		push	{r4, lr}
 216              	.LCFI2:
 217              		.cfi_def_cfa_offset 8
 218 0002 9C46     		mov	ip, r3
 219 0004 82B0     		sub	sp, sp, #8
 220              	.LCFI3:
 221              		.cfi_def_cfa_offset 16
 222              	.LBB12:
 223              		.loc 1 196 0
 224 0006 2023     		movs	r3, #32
ARM GAS  /tmp/ccVbFWdL.s 			page 5


 225              	.LVL9:
 226              	@ 196 "../libs/ChibiOS_2.4.0/os/kernel/src/chthreads.c" 1
 227 0008 83F31188 		msr     BASEPRI, r3
 228              	@ 0 "" 2
 229              	.LVL10:
 230              		.thumb
 231              	.LBE12:
 232              		.loc 1 197 0
 233 000c 049C     		ldr	r4, [sp, #16]
 234              		.cfi_offset 14, -4
 235              		.cfi_offset 4, -8
 236 000e 6346     		mov	r3, ip
 237              	.LVL11:
 238 0010 0094     		str	r4, [sp, #0]
 239 0012 FFF7FEFF 		bl	chThdCreateI
 240              	.LVL12:
 241 0016 0021     		movs	r1, #0
 242 0018 0446     		mov	r4, r0
 243              	.LVL13:
 244 001a FFF7FEFF 		bl	chSchWakeupS
 245              	.LVL14:
 246              	.LBB13:
 247              		.loc 1 198 0
 248 001e 0023     		movs	r3, #0
 249              	.LVL15:
 250              	@ 198 "../libs/ChibiOS_2.4.0/os/kernel/src/chthreads.c" 1
 251 0020 83F31188 		msr     BASEPRI, r3
 252              	@ 0 "" 2
 253              	.LVL16:
 254              		.thumb
 255              	.LBE13:
 256              		.loc 1 200 0
 257 0024 2046     		mov	r0, r4
 258 0026 02B0     		add	sp, sp, #8
 259 0028 10BD     		pop	{r4, pc}
 260              		.cfi_endproc
 261              	.LFE9:
 262              		.size	chThdCreateStatic, .-chThdCreateStatic
 263 002a 00BFAFF3 		.section	.text.chThdSetPriority,"ax",%progbits
 263      0080
 264              		.align	2
 265              		.p2align 4,,15
 266              		.global	chThdSetPriority
 267              		.thumb
 268              		.thumb_func
 269              		.type	chThdSetPriority, %function
 270              	chThdSetPriority:
 271              	.LFB10:
 272              		.loc 1 214 0
 273              		.cfi_startproc
 274              		@ args = 0, pretend = 0, frame = 0
 275              		@ frame_needed = 0, uses_anonymous_args = 0
 276              	.LVL17:
 277 0000 10B5     		push	{r4, lr}
 278              	.LCFI4:
 279              		.cfi_def_cfa_offset 8
 280              	.LBB14:
ARM GAS  /tmp/ccVbFWdL.s 			page 6


 281              		.loc 1 219 0
 282 0002 2023     		movs	r3, #32
 283              	.LVL18:
 284              	@ 219 "../libs/ChibiOS_2.4.0/os/kernel/src/chthreads.c" 1
 285 0004 83F31188 		msr     BASEPRI, r3
 286              	@ 0 "" 2
 287              	.LVL19:
 288              		.thumb
 289              	.LBE14:
 290              		.loc 1 221 0
 291 0008 084B     		ldr	r3, .L12
 292              	.LVL20:
 293 000a DB69     		ldr	r3, [r3, #28]
 294 000c 1C6C     		ldr	r4, [r3, #64]
 295              		.cfi_offset 14, -4
 296              		.cfi_offset 4, -8
 297              	.LVL21:
 298              		.loc 1 222 0
 299 000e 9A68     		ldr	r2, [r3, #8]
 300 0010 9442     		cmp	r4, r2
 301 0012 01D0     		beq	.L9
 302              		.loc 1 222 0 is_stmt 0 discriminator 1
 303 0014 8242     		cmp	r2, r0
 304 0016 00D2     		bcs	.L10
 305              	.L9:
 306              		.loc 1 223 0 is_stmt 1
 307 0018 9860     		str	r0, [r3, #8]
 308              	.L10:
 309              		.loc 1 224 0
 310 001a 1864     		str	r0, [r3, #64]
 311              		.loc 1 229 0
 312 001c FFF7FEFF 		bl	chSchRescheduleS
 313              	.LVL22:
 314              	.LBB15:
 315              		.loc 1 230 0
 316 0020 0023     		movs	r3, #0
 317              	.LVL23:
 318              	@ 230 "../libs/ChibiOS_2.4.0/os/kernel/src/chthreads.c" 1
 319 0022 83F31188 		msr     BASEPRI, r3
 320              	@ 0 "" 2
 321              	.LVL24:
 322              		.thumb
 323              	.LBE15:
 324              		.loc 1 232 0
 325 0026 2046     		mov	r0, r4
 326 0028 10BD     		pop	{r4, pc}
 327              	.L13:
 328 002a 00BF     		.align	2
 329              	.L12:
 330 002c 00000000 		.word	rlist
 331              		.cfi_endproc
 332              	.LFE10:
 333              		.size	chThdSetPriority, .-chThdSetPriority
 334              		.section	.text.chThdResume,"ax",%progbits
 335              		.align	2
 336              		.p2align 4,,15
 337              		.global	chThdResume
ARM GAS  /tmp/ccVbFWdL.s 			page 7


 338              		.thumb
 339              		.thumb_func
 340              		.type	chThdResume, %function
 341              	chThdResume:
 342              	.LFB11:
 343              		.loc 1 247 0
 344              		.cfi_startproc
 345              		@ args = 0, pretend = 0, frame = 0
 346              		@ frame_needed = 0, uses_anonymous_args = 0
 347              	.LVL25:
 348 0000 10B5     		push	{r4, lr}
 349              	.LCFI5:
 350              		.cfi_def_cfa_offset 8
 351              	.LBB16:
 352              		.loc 1 249 0
 353 0002 2023     		movs	r3, #32
 354              	.LVL26:
 355              	.LBE16:
 356              		.loc 1 247 0
 357 0004 0446     		mov	r4, r0
 358              		.cfi_offset 14, -4
 359              		.cfi_offset 4, -8
 360              	.LBB17:
 361              		.loc 1 249 0
 362              	@ 249 "../libs/ChibiOS_2.4.0/os/kernel/src/chthreads.c" 1
 363 0006 83F31188 		msr     BASEPRI, r3
 364              	@ 0 "" 2
 365              	.LVL27:
 366              		.thumb
 367              	.LBE17:
 368              		.loc 1 253 0
 369 000a 0021     		movs	r1, #0
 370 000c FFF7FEFF 		bl	chSchWakeupS
 371              	.LVL28:
 372              	.LBB18:
 373              		.loc 1 254 0
 374 0010 0023     		movs	r3, #0
 375              	.LVL29:
 376              	@ 254 "../libs/ChibiOS_2.4.0/os/kernel/src/chthreads.c" 1
 377 0012 83F31188 		msr     BASEPRI, r3
 378              	@ 0 "" 2
 379              	.LVL30:
 380              		.thumb
 381              	.LBE18:
 382              		.loc 1 256 0
 383 0016 2046     		mov	r0, r4
 384 0018 10BD     		pop	{r4, pc}
 385              		.cfi_endproc
 386              	.LFE11:
 387              		.size	chThdResume, .-chThdResume
 388 001a 00BFAFF3 		.section	.text.chThdTerminate,"ax",%progbits
 388      0080
 389              		.align	2
 390              		.p2align 4,,15
 391              		.global	chThdTerminate
 392              		.thumb
 393              		.thumb_func
ARM GAS  /tmp/ccVbFWdL.s 			page 8


 394              		.type	chThdTerminate, %function
 395              	chThdTerminate:
 396              	.LFB12:
 397              		.loc 1 270 0
 398              		.cfi_startproc
 399              		@ args = 0, pretend = 0, frame = 0
 400              		@ frame_needed = 0, uses_anonymous_args = 0
 401              		@ link register save eliminated.
 402              	.LVL31:
 403              	.LBB19:
 404              		.loc 1 272 0
 405 0000 2023     		movs	r3, #32
 406              	.LVL32:
 407              	@ 272 "../libs/ChibiOS_2.4.0/os/kernel/src/chthreads.c" 1
 408 0002 83F31188 		msr     BASEPRI, r3
 409              	@ 0 "" 2
 410              	.LVL33:
 411              		.thumb
 412              	.LBE19:
 413              		.loc 1 273 0
 414 0006 417F     		ldrb	r1, [r0, #29]	@ zero_extendqisi2
 415 0008 41F00403 		orr	r3, r1, #4
 416              	.LVL34:
 417 000c 4377     		strb	r3, [r0, #29]
 418              	.LBB20:
 419              		.loc 1 274 0
 420 000e 0023     		movs	r3, #0
 421              	.LVL35:
 422              	@ 274 "../libs/ChibiOS_2.4.0/os/kernel/src/chthreads.c" 1
 423 0010 83F31188 		msr     BASEPRI, r3
 424              	@ 0 "" 2
 425              	.LVL36:
 426              		.thumb
 427              	.LBE20:
 428              		.loc 1 275 0
 429 0014 7047     		bx	lr
 430              		.cfi_endproc
 431              	.LFE12:
 432              		.size	chThdTerminate, .-chThdTerminate
 433 0016 00BFAFF3 		.section	.text.chThdSleep,"ax",%progbits
 433      0080AFF3 
 433      0080
 434              		.align	2
 435              		.p2align 4,,15
 436              		.global	chThdSleep
 437              		.thumb
 438              		.thumb_func
 439              		.type	chThdSleep, %function
 440              	chThdSleep:
 441              	.LFB13:
 442              		.loc 1 289 0
 443              		.cfi_startproc
 444              		@ args = 0, pretend = 0, frame = 0
 445              		@ frame_needed = 0, uses_anonymous_args = 0
 446              	.LVL37:
 447 0000 08B5     		push	{r3, lr}
 448              	.LCFI6:
ARM GAS  /tmp/ccVbFWdL.s 			page 9


 449              		.cfi_def_cfa_offset 8
 450              		.loc 1 289 0
 451 0002 0146     		mov	r1, r0
 452              	.LBB21:
 453              		.loc 1 293 0
 454 0004 2023     		movs	r3, #32
 455              		.cfi_offset 14, -4
 456              		.cfi_offset 3, -8
 457              	.LVL38:
 458              	@ 293 "../libs/ChibiOS_2.4.0/os/kernel/src/chthreads.c" 1
 459 0006 83F31188 		msr     BASEPRI, r3
 460              	@ 0 "" 2
 461              	.LVL39:
 462              		.thumb
 463              	.LBE21:
 464              		.loc 1 294 0
 465 000a 0620     		movs	r0, #6
 466              	.LVL40:
 467 000c FFF7FEFF 		bl	chSchGoSleepTimeoutS
 468              	.LVL41:
 469              	.LBB22:
 470              		.loc 1 295 0
 471 0010 0023     		movs	r3, #0
 472              	.LVL42:
 473              	@ 295 "../libs/ChibiOS_2.4.0/os/kernel/src/chthreads.c" 1
 474 0012 83F31188 		msr     BASEPRI, r3
 475              	@ 0 "" 2
 476              	.LVL43:
 477              		.thumb
 478              	.LBE22:
 479              		.loc 1 296 0
 480 0016 08BD     		pop	{r3, pc}
 481              		.cfi_endproc
 482              	.LFE13:
 483              		.size	chThdSleep, .-chThdSleep
 484 0018 AFF30080 		.section	.text.chThdSleepUntil,"ax",%progbits
 484      AFF30080 
 485              		.align	2
 486              		.p2align 4,,15
 487              		.global	chThdSleepUntil
 488              		.thumb
 489              		.thumb_func
 490              		.type	chThdSleepUntil, %function
 491              	chThdSleepUntil:
 492              	.LFB14:
 493              		.loc 1 306 0
 494              		.cfi_startproc
 495              		@ args = 0, pretend = 0, frame = 0
 496              		@ frame_needed = 0, uses_anonymous_args = 0
 497              	.LVL44:
 498 0000 08B5     		push	{r3, lr}
 499              	.LCFI7:
 500              		.cfi_def_cfa_offset 8
 501              	.LBB23:
 502              		.loc 1 308 0
 503 0002 2023     		movs	r3, #32
 504              		.cfi_offset 14, -4
ARM GAS  /tmp/ccVbFWdL.s 			page 10


 505              		.cfi_offset 3, -8
 506              	.LVL45:
 507              	@ 308 "../libs/ChibiOS_2.4.0/os/kernel/src/chthreads.c" 1
 508 0004 83F31188 		msr     BASEPRI, r3
 509              	@ 0 "" 2
 510              	.LVL46:
 511              		.thumb
 512              	.LBE23:
 513              		.loc 1 309 0
 514 0008 054B     		ldr	r3, .L19
 515              	.LVL47:
 516 000a D968     		ldr	r1, [r3, #12]
 517              	.LVL48:
 518 000c 411A     		subs	r1, r0, r1
 519              	.LVL49:
 520 000e 02D0     		beq	.L18
 521              		.loc 1 310 0
 522 0010 0620     		movs	r0, #6
 523 0012 FFF7FEFF 		bl	chSchGoSleepTimeoutS
 524              	.LVL50:
 525              	.L18:
 526              	.LBB24:
 527              		.loc 1 311 0
 528 0016 0023     		movs	r3, #0
 529              	.LVL51:
 530              	@ 311 "../libs/ChibiOS_2.4.0/os/kernel/src/chthreads.c" 1
 531 0018 83F31188 		msr     BASEPRI, r3
 532              	@ 0 "" 2
 533              	.LVL52:
 534              		.thumb
 535              	.LBE24:
 536              		.loc 1 312 0
 537 001c 08BD     		pop	{r3, pc}
 538              	.L20:
 539 001e 00BF     		.align	2
 540              	.L19:
 541 0020 00000000 		.word	vtlist
 542              		.cfi_endproc
 543              	.LFE14:
 544              		.size	chThdSleepUntil, .-chThdSleepUntil
 545 0024 AFF30080 		.section	.text.chThdYield,"ax",%progbits
 545      AFF30080 
 545      AFF30080 
 546              		.align	2
 547              		.p2align 4,,15
 548              		.global	chThdYield
 549              		.thumb
 550              		.thumb_func
 551              		.type	chThdYield, %function
 552              	chThdYield:
 553              	.LFB15:
 554              		.loc 1 321 0
 555              		.cfi_startproc
 556              		@ args = 0, pretend = 0, frame = 0
 557              		@ frame_needed = 0, uses_anonymous_args = 0
 558 0000 08B5     		push	{r3, lr}
 559              	.LCFI8:
ARM GAS  /tmp/ccVbFWdL.s 			page 11


 560              		.cfi_def_cfa_offset 8
 561              	.LBB25:
 562              		.loc 1 323 0
 563 0002 2023     		movs	r3, #32
 564              		.cfi_offset 14, -4
 565              		.cfi_offset 3, -8
 566              	.LVL53:
 567              	@ 323 "../libs/ChibiOS_2.4.0/os/kernel/src/chthreads.c" 1
 568 0004 83F31188 		msr     BASEPRI, r3
 569              	@ 0 "" 2
 570              	.LVL54:
 571              		.thumb
 572              	.LBE25:
 573              		.loc 1 324 0
 574 0008 064A     		ldr	r2, .L23
 575 000a D069     		ldr	r0, [r2, #28]
 576 000c 1168     		ldr	r1, [r2, #0]
 577 000e 8368     		ldr	r3, [r0, #8]
 578              	.LVL55:
 579 0010 8A68     		ldr	r2, [r1, #8]
 580 0012 9A42     		cmp	r2, r3
 581 0014 01D3     		bcc	.L22
 582              		.loc 1 324 0 is_stmt 0 discriminator 1
 583 0016 FFF7FEFF 		bl	chSchDoReschedule
 584              	.L22:
 585              	.LBB26:
 586              		.loc 1 325 0 is_stmt 1
 587 001a 0023     		movs	r3, #0
 588              	.LVL56:
 589              	@ 325 "../libs/ChibiOS_2.4.0/os/kernel/src/chthreads.c" 1
 590 001c 83F31188 		msr     BASEPRI, r3
 591              	@ 0 "" 2
 592              	.LVL57:
 593              		.thumb
 594              	.LBE26:
 595              		.loc 1 326 0
 596 0020 08BD     		pop	{r3, pc}
 597              	.L24:
 598 0022 00BF     		.align	2
 599              	.L23:
 600 0024 00000000 		.word	rlist
 601              		.cfi_endproc
 602              	.LFE15:
 603              		.size	chThdYield, .-chThdYield
 604 0028 AFF30080 		.section	.text.chThdExitS,"ax",%progbits
 604      AFF30080 
 605              		.align	2
 606              		.p2align 4,,15
 607              		.global	chThdExitS
 608              		.thumb
 609              		.thumb_func
 610              		.type	chThdExitS, %function
 611              	chThdExitS:
 612              	.LFB17:
 613              		.loc 1 363 0
 614              		.cfi_startproc
 615              		@ args = 0, pretend = 0, frame = 0
ARM GAS  /tmp/ccVbFWdL.s 			page 12


 616              		@ frame_needed = 0, uses_anonymous_args = 0
 617              	.LVL58:
 618              		.loc 1 364 0
 619 0000 0E4B     		ldr	r3, .L31
 620              		.loc 1 363 0
 621 0002 70B5     		push	{r4, r5, r6, lr}
 622              	.LCFI9:
 623              		.cfi_def_cfa_offset 16
 624              		.loc 1 364 0
 625 0004 DC69     		ldr	r4, [r3, #28]
 626              		.cfi_offset 14, -4
 627              		.cfi_offset 6, -8
 628              		.cfi_offset 5, -12
 629              		.cfi_offset 4, -16
 630              	.LVL59:
 631              		.loc 1 371 0
 632 0006 2546     		mov	r5, r4
 633              		.loc 1 366 0
 634 0008 6062     		str	r0, [r4, #36]
 635              		.loc 1 371 0
 636 000a 55F8280F 		ldr	r0, [r5, #40]!
 637              	.LVL60:
 638 000e A842     		cmp	r0, r5
 639 0010 06D0     		beq	.L26
 640              	.LVL61:
 641              	.L29:
 642              	.LBB27:
 643              	.LBB28:
 644              		.file 2 "../libs/ChibiOS_2.4.0/os/kernel/include/chinline.h"
 645              		.loc 2 89 0
 646 0012 0168     		ldr	r1, [r0, #0]
 647 0014 A162     		str	r1, [r4, #40]
 648              	.LBE28:
 649              	.LBE27:
 650              		.loc 1 372 0
 651 0016 FFF7FEFF 		bl	chSchReadyI
 652              	.LVL62:
 653              		.loc 1 371 0
 654 001a A06A     		ldr	r0, [r4, #40]
 655 001c A842     		cmp	r0, r5
 656 001e F8D1     		bne	.L29
 657              	.LVL63:
 658              	.L26:
 659              		.loc 1 377 0
 660 0020 607F     		ldrb	r0, [r4, #29]	@ zero_extendqisi2
 661 0022 10F0030F 		tst	r0, #3
 662 0026 04D1     		bne	.L28
 663              		.loc 1 378 0
 664 0028 6369     		ldr	r3, [r4, #20]
 665 002a 2169     		ldr	r1, [r4, #16]
 666 002c 1961     		str	r1, [r3, #16]
 667 002e 2269     		ldr	r2, [r4, #16]
 668 0030 5361     		str	r3, [r2, #20]
 669              	.L28:
 670              		.loc 1 380 0
 671 0032 0E20     		movs	r0, #14
 672              		.loc 1 383 0
ARM GAS  /tmp/ccVbFWdL.s 			page 13


 673 0034 BDE87040 		pop	{r4, r5, r6, lr}
 674              		.loc 1 380 0
 675 0038 FFF7FEBF 		b	chSchGoSleepS
 676              	.L32:
 677              		.align	2
 678              	.L31:
 679 003c 00000000 		.word	rlist
 680              		.cfi_endproc
 681              	.LFE17:
 682              		.size	chThdExitS, .-chThdExitS
 683              		.section	.text.chThdExit,"ax",%progbits
 684              		.align	2
 685              		.p2align 4,,15
 686              		.global	chThdExit
 687              		.thumb
 688              		.thumb_func
 689              		.type	chThdExit, %function
 690              	chThdExit:
 691              	.LFB16:
 692              		.loc 1 342 0
 693              		.cfi_startproc
 694              		@ args = 0, pretend = 0, frame = 0
 695              		@ frame_needed = 0, uses_anonymous_args = 0
 696              		@ link register save eliminated.
 697              	.LVL64:
 698              	.LBB29:
 699              		.loc 1 344 0
 700 0000 2023     		movs	r3, #32
 701              	.LVL65:
 702              	@ 344 "../libs/ChibiOS_2.4.0/os/kernel/src/chthreads.c" 1
 703 0002 83F31188 		msr     BASEPRI, r3
 704              	@ 0 "" 2
 705              	.LVL66:
 706              		.thumb
 707              	.LBE29:
 708              		.loc 1 347 0
 709              		.loc 1 345 0
 710 0006 FFF7FEBF 		b	chThdExitS
 711              		.cfi_endproc
 712              	.LFE16:
 713              		.size	chThdExit, .-chThdExit
 714 000a 00BFAFF3 		.section	.text.chThdWait,"ax",%progbits
 714      0080
 715              		.align	2
 716              		.p2align 4,,15
 717              		.global	chThdWait
 718              		.thumb
 719              		.thumb_func
 720              		.type	chThdWait, %function
 721              	chThdWait:
 722              	.LFB18:
 723              		.loc 1 417 0
 724              		.cfi_startproc
 725              		@ args = 0, pretend = 0, frame = 0
 726              		@ frame_needed = 0, uses_anonymous_args = 0
 727              	.LVL67:
 728 0000 38B5     		push	{r3, r4, r5, lr}
ARM GAS  /tmp/ccVbFWdL.s 			page 14


 729              	.LCFI10:
 730              		.cfi_def_cfa_offset 16
 731              		.loc 1 417 0
 732 0002 0446     		mov	r4, r0
 733              		.cfi_offset 14, -4
 734              		.cfi_offset 5, -8
 735              		.cfi_offset 4, -12
 736              		.cfi_offset 3, -16
 737              	.LBB30:
 738              		.loc 1 422 0
 739 0004 2023     		movs	r3, #32
 740              	.LVL68:
 741              	@ 422 "../libs/ChibiOS_2.4.0/os/kernel/src/chthreads.c" 1
 742 0006 83F31188 		msr     BASEPRI, r3
 743              	@ 0 "" 2
 744              	.LVL69:
 745              		.thumb
 746              	.LBE30:
 747              		.loc 1 427 0
 748 000a 037F     		ldrb	r3, [r0, #28]	@ zero_extendqisi2
 749              	.LVL70:
 750 000c 0E2B     		cmp	r3, #14
 751 000e 07D0     		beq	.L35
 752              	.LBB31:
 753              	.LBB32:
 754              		.loc 2 82 0
 755 0010 826A     		ldr	r2, [r0, #40]
 756              	.LBE32:
 757              	.LBE31:
 758              		.loc 1 428 0
 759 0012 0848     		ldr	r0, .L36
 760              	.LVL71:
 761 0014 C169     		ldr	r1, [r0, #28]
 762              	.LVL72:
 763              		.loc 1 429 0
 764 0016 0720     		movs	r0, #7
 765              	.LVL73:
 766              	.LBB34:
 767              	.LBB33:
 768              		.loc 2 82 0
 769 0018 0A60     		str	r2, [r1, #0]
 770              		.loc 2 83 0
 771 001a A162     		str	r1, [r4, #40]
 772              	.LBE33:
 773              	.LBE34:
 774              		.loc 1 429 0
 775 001c FFF7FEFF 		bl	chSchGoSleepS
 776              	.LVL74:
 777              	.L35:
 778              		.loc 1 431 0
 779 0020 656A     		ldr	r5, [r4, #36]
 780              	.LVL75:
 781              	.LBB35:
 782              		.loc 1 432 0
 783 0022 0023     		movs	r3, #0
 784              	.LVL76:
 785              	@ 432 "../libs/ChibiOS_2.4.0/os/kernel/src/chthreads.c" 1
ARM GAS  /tmp/ccVbFWdL.s 			page 15


 786 0024 83F31188 		msr     BASEPRI, r3
 787              	@ 0 "" 2
 788              	.LVL77:
 789              		.thumb
 790              	.LBE35:
 791              		.loc 1 434 0
 792 0028 2046     		mov	r0, r4
 793 002a FFF7FEFF 		bl	chThdRelease
 794              	.LVL78:
 795              		.loc 1 437 0
 796 002e 2846     		mov	r0, r5
 797 0030 38BD     		pop	{r3, r4, r5, pc}
 798              	.L37:
 799 0032 00BF     		.align	2
 800              	.L36:
 801 0034 00000000 		.word	rlist
 802              		.cfi_endproc
 803              	.LFE18:
 804              		.size	chThdWait, .-chThdWait
 805 0038 AFF30080 		.text
 805      AFF30080 
 806              	.Letext0:
 807              		.section	.debug_loc,"",%progbits
 808              	.Ldebug_loc0:
 809              	.LLST0:
 810 0000 00000000 		.4byte	.LFB7
 811 0004 02000000 		.4byte	.LCFI0
 812 0008 0200     		.2byte	0x2
 813 000a 7D       		.byte	0x7d
 814 000b 00       		.sleb128 0
 815 000c 02000000 		.4byte	.LCFI0
 816 0010 3C000000 		.4byte	.LFE7
 817 0014 0200     		.2byte	0x2
 818 0016 7D       		.byte	0x7d
 819 0017 10       		.sleb128 16
 820 0018 00000000 		.4byte	0x0
 821 001c 00000000 		.4byte	0x0
 822              	.LLST1:
 823 0020 00000000 		.4byte	.LFB8
 824 0024 04000000 		.4byte	.LCFI1
 825 0028 0200     		.2byte	0x2
 826 002a 7D       		.byte	0x7d
 827 002b 00       		.sleb128 0
 828 002c 04000000 		.4byte	.LCFI1
 829 0030 50000000 		.4byte	.LFE8
 830 0034 0200     		.2byte	0x2
 831 0036 7D       		.byte	0x7d
 832 0037 10       		.sleb128 16
 833 0038 00000000 		.4byte	0x0
 834 003c 00000000 		.4byte	0x0
 835              	.LLST2:
 836 0040 00000000 		.4byte	.LVL1
 837 0044 02000000 		.4byte	.LVL2
 838 0048 0100     		.2byte	0x1
 839 004a 51       		.byte	0x51
 840 004b 02000000 		.4byte	.LVL2
 841 004f 0C000000 		.4byte	.LVL3
ARM GAS  /tmp/ccVbFWdL.s 			page 16


 842 0053 0300     		.2byte	0x3
 843 0055 71       		.byte	0x71
 844 0056 24       		.sleb128 36
 845 0057 9F       		.byte	0x9f
 846 0058 00000000 		.4byte	0x0
 847 005c 00000000 		.4byte	0x0
 848              	.LLST3:
 849 0060 00000000 		.4byte	.LVL1
 850 0064 0E000000 		.4byte	.LVL4
 851 0068 0100     		.2byte	0x1
 852 006a 53       		.byte	0x53
 853 006b 0E000000 		.4byte	.LVL4
 854 006f 1C000000 		.4byte	.LVL6
 855 0073 0200     		.2byte	0x2
 856 0075 77       		.byte	0x77
 857 0076 00       		.sleb128 0
 858 0077 1C000000 		.4byte	.LVL6
 859 007b 50000000 		.4byte	.LFE8
 860 007f 0300     		.2byte	0x3
 861 0081 70       		.byte	0x70
 862 0082 0C       		.sleb128 12
 863 0083 06       		.byte	0x6
 864 0084 00000000 		.4byte	0x0
 865 0088 00000000 		.4byte	0x0
 866              	.LLST4:
 867 008c 00000000 		.4byte	.LFB9
 868 0090 02000000 		.4byte	.LCFI2
 869 0094 0200     		.2byte	0x2
 870 0096 7D       		.byte	0x7d
 871 0097 00       		.sleb128 0
 872 0098 02000000 		.4byte	.LCFI2
 873 009c 06000000 		.4byte	.LCFI3
 874 00a0 0200     		.2byte	0x2
 875 00a2 7D       		.byte	0x7d
 876 00a3 08       		.sleb128 8
 877 00a4 06000000 		.4byte	.LCFI3
 878 00a8 2A000000 		.4byte	.LFE9
 879 00ac 0200     		.2byte	0x2
 880 00ae 7D       		.byte	0x7d
 881 00af 10       		.sleb128 16
 882 00b0 00000000 		.4byte	0x0
 883 00b4 00000000 		.4byte	0x0
 884              	.LLST5:
 885 00b8 00000000 		.4byte	.LVL8
 886 00bc 15000000 		.4byte	.LVL12-1
 887 00c0 0100     		.2byte	0x1
 888 00c2 50       		.byte	0x50
 889 00c3 00000000 		.4byte	0x0
 890 00c7 00000000 		.4byte	0x0
 891              	.LLST6:
 892 00cb 00000000 		.4byte	.LVL8
 893 00cf 15000000 		.4byte	.LVL12-1
 894 00d3 0100     		.2byte	0x1
 895 00d5 51       		.byte	0x51
 896 00d6 00000000 		.4byte	0x0
 897 00da 00000000 		.4byte	0x0
 898              	.LLST7:
ARM GAS  /tmp/ccVbFWdL.s 			page 17


 899 00de 00000000 		.4byte	.LVL8
 900 00e2 15000000 		.4byte	.LVL12-1
 901 00e6 0100     		.2byte	0x1
 902 00e8 52       		.byte	0x52
 903 00e9 00000000 		.4byte	0x0
 904 00ed 00000000 		.4byte	0x0
 905              	.LLST8:
 906 00f1 00000000 		.4byte	.LVL8
 907 00f5 08000000 		.4byte	.LVL9
 908 00f9 0100     		.2byte	0x1
 909 00fb 53       		.byte	0x53
 910 00fc 08000000 		.4byte	.LVL9
 911 0100 15000000 		.4byte	.LVL12-1
 912 0104 0100     		.2byte	0x1
 913 0106 5C       		.byte	0x5c
 914 0107 00000000 		.4byte	0x0
 915 010b 00000000 		.4byte	0x0
 916              	.LLST9:
 917 010f 1A000000 		.4byte	.LVL13
 918 0113 1D000000 		.4byte	.LVL14-1
 919 0117 0100     		.2byte	0x1
 920 0119 50       		.byte	0x50
 921 011a 1D000000 		.4byte	.LVL14-1
 922 011e 2A000000 		.4byte	.LFE9
 923 0122 0100     		.2byte	0x1
 924 0124 54       		.byte	0x54
 925 0125 00000000 		.4byte	0x0
 926 0129 00000000 		.4byte	0x0
 927              	.LLST10:
 928 012d 0C000000 		.4byte	.LVL10
 929 0131 10000000 		.4byte	.LVL11
 930 0135 0100     		.2byte	0x1
 931 0137 53       		.byte	0x53
 932 0138 00000000 		.4byte	0x0
 933 013c 00000000 		.4byte	0x0
 934              	.LLST11:
 935 0140 24000000 		.4byte	.LVL16
 936 0144 2A000000 		.4byte	.LFE9
 937 0148 0100     		.2byte	0x1
 938 014a 53       		.byte	0x53
 939 014b 00000000 		.4byte	0x0
 940 014f 00000000 		.4byte	0x0
 941              	.LLST12:
 942 0153 00000000 		.4byte	.LFB10
 943 0157 02000000 		.4byte	.LCFI4
 944 015b 0200     		.2byte	0x2
 945 015d 7D       		.byte	0x7d
 946 015e 00       		.sleb128 0
 947 015f 02000000 		.4byte	.LCFI4
 948 0163 30000000 		.4byte	.LFE10
 949 0167 0200     		.2byte	0x2
 950 0169 7D       		.byte	0x7d
 951 016a 08       		.sleb128 8
 952 016b 00000000 		.4byte	0x0
 953 016f 00000000 		.4byte	0x0
 954              	.LLST13:
 955 0173 00000000 		.4byte	.LVL17
ARM GAS  /tmp/ccVbFWdL.s 			page 18


 956 0177 1F000000 		.4byte	.LVL22-1
 957 017b 0100     		.2byte	0x1
 958 017d 50       		.byte	0x50
 959 017e 00000000 		.4byte	0x0
 960 0182 00000000 		.4byte	0x0
 961              	.LLST14:
 962 0186 08000000 		.4byte	.LVL19
 963 018a 0A000000 		.4byte	.LVL20
 964 018e 0100     		.2byte	0x1
 965 0190 53       		.byte	0x53
 966 0191 00000000 		.4byte	0x0
 967 0195 00000000 		.4byte	0x0
 968              	.LLST15:
 969 0199 26000000 		.4byte	.LVL24
 970 019d 30000000 		.4byte	.LFE10
 971 01a1 0100     		.2byte	0x1
 972 01a3 53       		.byte	0x53
 973 01a4 00000000 		.4byte	0x0
 974 01a8 00000000 		.4byte	0x0
 975              	.LLST16:
 976 01ac 00000000 		.4byte	.LFB11
 977 01b0 02000000 		.4byte	.LCFI5
 978 01b4 0200     		.2byte	0x2
 979 01b6 7D       		.byte	0x7d
 980 01b7 00       		.sleb128 0
 981 01b8 02000000 		.4byte	.LCFI5
 982 01bc 1A000000 		.4byte	.LFE11
 983 01c0 0200     		.2byte	0x2
 984 01c2 7D       		.byte	0x7d
 985 01c3 08       		.sleb128 8
 986 01c4 00000000 		.4byte	0x0
 987 01c8 00000000 		.4byte	0x0
 988              	.LLST17:
 989 01cc 00000000 		.4byte	.LVL25
 990 01d0 0F000000 		.4byte	.LVL28-1
 991 01d4 0100     		.2byte	0x1
 992 01d6 50       		.byte	0x50
 993 01d7 0F000000 		.4byte	.LVL28-1
 994 01db 1A000000 		.4byte	.LFE11
 995 01df 0100     		.2byte	0x1
 996 01e1 54       		.byte	0x54
 997 01e2 00000000 		.4byte	0x0
 998 01e6 00000000 		.4byte	0x0
 999              	.LLST18:
 1000 01ea 0A000000 		.4byte	.LVL27
 1001 01ee 0F000000 		.4byte	.LVL28-1
 1002 01f2 0100     		.2byte	0x1
 1003 01f4 53       		.byte	0x53
 1004 01f5 00000000 		.4byte	0x0
 1005 01f9 00000000 		.4byte	0x0
 1006              	.LLST19:
 1007 01fd 16000000 		.4byte	.LVL30
 1008 0201 1A000000 		.4byte	.LFE11
 1009 0205 0100     		.2byte	0x1
 1010 0207 53       		.byte	0x53
 1011 0208 00000000 		.4byte	0x0
 1012 020c 00000000 		.4byte	0x0
ARM GAS  /tmp/ccVbFWdL.s 			page 19


 1013              	.LLST20:
 1014 0210 06000000 		.4byte	.LVL33
 1015 0214 0C000000 		.4byte	.LVL34
 1016 0218 0100     		.2byte	0x1
 1017 021a 53       		.byte	0x53
 1018 021b 00000000 		.4byte	0x0
 1019 021f 00000000 		.4byte	0x0
 1020              	.LLST21:
 1021 0223 14000000 		.4byte	.LVL36
 1022 0227 16000000 		.4byte	.LFE12
 1023 022b 0100     		.2byte	0x1
 1024 022d 53       		.byte	0x53
 1025 022e 00000000 		.4byte	0x0
 1026 0232 00000000 		.4byte	0x0
 1027              	.LLST22:
 1028 0236 00000000 		.4byte	.LFB13
 1029 023a 02000000 		.4byte	.LCFI6
 1030 023e 0200     		.2byte	0x2
 1031 0240 7D       		.byte	0x7d
 1032 0241 00       		.sleb128 0
 1033 0242 02000000 		.4byte	.LCFI6
 1034 0246 18000000 		.4byte	.LFE13
 1035 024a 0200     		.2byte	0x2
 1036 024c 7D       		.byte	0x7d
 1037 024d 08       		.sleb128 8
 1038 024e 00000000 		.4byte	0x0
 1039 0252 00000000 		.4byte	0x0
 1040              	.LLST23:
 1041 0256 00000000 		.4byte	.LVL37
 1042 025a 0C000000 		.4byte	.LVL40
 1043 025e 0100     		.2byte	0x1
 1044 0260 50       		.byte	0x50
 1045 0261 0C000000 		.4byte	.LVL40
 1046 0265 0F000000 		.4byte	.LVL41-1
 1047 0269 0100     		.2byte	0x1
 1048 026b 51       		.byte	0x51
 1049 026c 00000000 		.4byte	0x0
 1050 0270 00000000 		.4byte	0x0
 1051              	.LLST24:
 1052 0274 0A000000 		.4byte	.LVL39
 1053 0278 0F000000 		.4byte	.LVL41-1
 1054 027c 0100     		.2byte	0x1
 1055 027e 53       		.byte	0x53
 1056 027f 00000000 		.4byte	0x0
 1057 0283 00000000 		.4byte	0x0
 1058              	.LLST25:
 1059 0287 16000000 		.4byte	.LVL43
 1060 028b 18000000 		.4byte	.LFE13
 1061 028f 0100     		.2byte	0x1
 1062 0291 53       		.byte	0x53
 1063 0292 00000000 		.4byte	0x0
 1064 0296 00000000 		.4byte	0x0
 1065              	.LLST26:
 1066 029a 00000000 		.4byte	.LFB14
 1067 029e 02000000 		.4byte	.LCFI7
 1068 02a2 0200     		.2byte	0x2
 1069 02a4 7D       		.byte	0x7d
ARM GAS  /tmp/ccVbFWdL.s 			page 20


 1070 02a5 00       		.sleb128 0
 1071 02a6 02000000 		.4byte	.LCFI7
 1072 02aa 24000000 		.4byte	.LFE14
 1073 02ae 0200     		.2byte	0x2
 1074 02b0 7D       		.byte	0x7d
 1075 02b1 08       		.sleb128 8
 1076 02b2 00000000 		.4byte	0x0
 1077 02b6 00000000 		.4byte	0x0
 1078              	.LLST27:
 1079 02ba 00000000 		.4byte	.LVL44
 1080 02be 0C000000 		.4byte	.LVL48
 1081 02c2 0100     		.2byte	0x1
 1082 02c4 50       		.byte	0x50
 1083 02c5 0C000000 		.4byte	.LVL48
 1084 02c9 0E000000 		.4byte	.LVL49
 1085 02cd 0600     		.2byte	0x6
 1086 02cf 70       		.byte	0x70
 1087 02d0 00       		.sleb128 0
 1088 02d1 71       		.byte	0x71
 1089 02d2 00       		.sleb128 0
 1090 02d3 1C       		.byte	0x1c
 1091 02d4 9F       		.byte	0x9f
 1092 02d5 0E000000 		.4byte	.LVL49
 1093 02d9 15000000 		.4byte	.LVL50-1
 1094 02dd 0100     		.2byte	0x1
 1095 02df 51       		.byte	0x51
 1096 02e0 00000000 		.4byte	0x0
 1097 02e4 00000000 		.4byte	0x0
 1098              	.LLST28:
 1099 02e8 08000000 		.4byte	.LVL46
 1100 02ec 0A000000 		.4byte	.LVL47
 1101 02f0 0100     		.2byte	0x1
 1102 02f2 53       		.byte	0x53
 1103 02f3 00000000 		.4byte	0x0
 1104 02f7 00000000 		.4byte	0x0
 1105              	.LLST29:
 1106 02fb 1C000000 		.4byte	.LVL52
 1107 02ff 24000000 		.4byte	.LFE14
 1108 0303 0100     		.2byte	0x1
 1109 0305 53       		.byte	0x53
 1110 0306 00000000 		.4byte	0x0
 1111 030a 00000000 		.4byte	0x0
 1112              	.LLST30:
 1113 030e 00000000 		.4byte	.LFB15
 1114 0312 02000000 		.4byte	.LCFI8
 1115 0316 0200     		.2byte	0x2
 1116 0318 7D       		.byte	0x7d
 1117 0319 00       		.sleb128 0
 1118 031a 02000000 		.4byte	.LCFI8
 1119 031e 28000000 		.4byte	.LFE15
 1120 0322 0200     		.2byte	0x2
 1121 0324 7D       		.byte	0x7d
 1122 0325 08       		.sleb128 8
 1123 0326 00000000 		.4byte	0x0
 1124 032a 00000000 		.4byte	0x0
 1125              	.LLST31:
 1126 032e 08000000 		.4byte	.LVL54
ARM GAS  /tmp/ccVbFWdL.s 			page 21


 1127 0332 10000000 		.4byte	.LVL55
 1128 0336 0100     		.2byte	0x1
 1129 0338 53       		.byte	0x53
 1130 0339 00000000 		.4byte	0x0
 1131 033d 00000000 		.4byte	0x0
 1132              	.LLST32:
 1133 0341 20000000 		.4byte	.LVL57
 1134 0345 28000000 		.4byte	.LFE15
 1135 0349 0100     		.2byte	0x1
 1136 034b 53       		.byte	0x53
 1137 034c 00000000 		.4byte	0x0
 1138 0350 00000000 		.4byte	0x0
 1139              	.LLST33:
 1140 0354 00000000 		.4byte	.LFB17
 1141 0358 04000000 		.4byte	.LCFI9
 1142 035c 0200     		.2byte	0x2
 1143 035e 7D       		.byte	0x7d
 1144 035f 00       		.sleb128 0
 1145 0360 04000000 		.4byte	.LCFI9
 1146 0364 40000000 		.4byte	.LFE17
 1147 0368 0200     		.2byte	0x2
 1148 036a 7D       		.byte	0x7d
 1149 036b 10       		.sleb128 16
 1150 036c 00000000 		.4byte	0x0
 1151 0370 00000000 		.4byte	0x0
 1152              	.LLST34:
 1153 0374 00000000 		.4byte	.LVL58
 1154 0378 0E000000 		.4byte	.LVL60
 1155 037c 0100     		.2byte	0x1
 1156 037e 50       		.byte	0x50
 1157 037f 0E000000 		.4byte	.LVL60
 1158 0383 12000000 		.4byte	.LVL61
 1159 0387 0500     		.2byte	0x5
 1160 0389 73       		.byte	0x73
 1161 038a 1C       		.sleb128 28
 1162 038b 06       		.byte	0x6
 1163 038c 23       		.byte	0x23
 1164 038d 24       		.uleb128 0x24
 1165 038e 00000000 		.4byte	0x0
 1166 0392 00000000 		.4byte	0x0
 1167              	.LLST35:
 1168 0396 06000000 		.4byte	.LVL59
 1169 039a 12000000 		.4byte	.LVL61
 1170 039e 0200     		.2byte	0x2
 1171 03a0 73       		.byte	0x73
 1172 03a1 1C       		.sleb128 28
 1173 03a2 12000000 		.4byte	.LVL61
 1174 03a6 40000000 		.4byte	.LFE17
 1175 03aa 0100     		.2byte	0x1
 1176 03ac 54       		.byte	0x54
 1177 03ad 00000000 		.4byte	0x0
 1178 03b1 00000000 		.4byte	0x0
 1179              	.LLST36:
 1180 03b5 12000000 		.4byte	.LVL61
 1181 03b9 20000000 		.4byte	.LVL63
 1182 03bd 0300     		.2byte	0x3
 1183 03bf 74       		.byte	0x74
ARM GAS  /tmp/ccVbFWdL.s 			page 22


 1184 03c0 28       		.sleb128 40
 1185 03c1 9F       		.byte	0x9f
 1186 03c2 00000000 		.4byte	0x0
 1187 03c6 00000000 		.4byte	0x0
 1188              	.LLST37:
 1189 03ca 12000000 		.4byte	.LVL61
 1190 03ce 19000000 		.4byte	.LVL62-1
 1191 03d2 0100     		.2byte	0x1
 1192 03d4 50       		.byte	0x50
 1193 03d5 00000000 		.4byte	0x0
 1194 03d9 00000000 		.4byte	0x0
 1195              	.LLST38:
 1196 03dd 06000000 		.4byte	.LVL66
 1197 03e1 0A000000 		.4byte	.LFE16
 1198 03e5 0100     		.2byte	0x1
 1199 03e7 53       		.byte	0x53
 1200 03e8 00000000 		.4byte	0x0
 1201 03ec 00000000 		.4byte	0x0
 1202              	.LLST39:
 1203 03f0 00000000 		.4byte	.LFB18
 1204 03f4 02000000 		.4byte	.LCFI10
 1205 03f8 0200     		.2byte	0x2
 1206 03fa 7D       		.byte	0x7d
 1207 03fb 00       		.sleb128 0
 1208 03fc 02000000 		.4byte	.LCFI10
 1209 0400 38000000 		.4byte	.LFE18
 1210 0404 0200     		.2byte	0x2
 1211 0406 7D       		.byte	0x7d
 1212 0407 10       		.sleb128 16
 1213 0408 00000000 		.4byte	0x0
 1214 040c 00000000 		.4byte	0x0
 1215              	.LLST40:
 1216 0410 00000000 		.4byte	.LVL67
 1217 0414 14000000 		.4byte	.LVL71
 1218 0418 0100     		.2byte	0x1
 1219 041a 50       		.byte	0x50
 1220 041b 14000000 		.4byte	.LVL71
 1221 041f 38000000 		.4byte	.LFE18
 1222 0423 0100     		.2byte	0x1
 1223 0425 54       		.byte	0x54
 1224 0426 00000000 		.4byte	0x0
 1225 042a 00000000 		.4byte	0x0
 1226              	.LLST41:
 1227 042e 22000000 		.4byte	.LVL75
 1228 0432 2D000000 		.4byte	.LVL78-1
 1229 0436 0200     		.2byte	0x2
 1230 0438 74       		.byte	0x74
 1231 0439 24       		.sleb128 36
 1232 043a 2D000000 		.4byte	.LVL78-1
 1233 043e 38000000 		.4byte	.LFE18
 1234 0442 0100     		.2byte	0x1
 1235 0444 55       		.byte	0x55
 1236 0445 00000000 		.4byte	0x0
 1237 0449 00000000 		.4byte	0x0
 1238              	.LLST42:
 1239 044d 0A000000 		.4byte	.LVL69
 1240 0451 0C000000 		.4byte	.LVL70
ARM GAS  /tmp/ccVbFWdL.s 			page 23


 1241 0455 0100     		.2byte	0x1
 1242 0457 53       		.byte	0x53
 1243 0458 00000000 		.4byte	0x0
 1244 045c 00000000 		.4byte	0x0
 1245              	.LLST43:
 1246 0460 16000000 		.4byte	.LVL72
 1247 0464 20000000 		.4byte	.LVL74
 1248 0468 0300     		.2byte	0x3
 1249 046a 74       		.byte	0x74
 1250 046b 28       		.sleb128 40
 1251 046c 9F       		.byte	0x9f
 1252 046d 00000000 		.4byte	0x0
 1253 0471 00000000 		.4byte	0x0
 1254              	.LLST44:
 1255 0475 16000000 		.4byte	.LVL72
 1256 0479 18000000 		.4byte	.LVL73
 1257 047d 0200     		.2byte	0x2
 1258 047f 70       		.byte	0x70
 1259 0480 1C       		.sleb128 28
 1260 0481 00000000 		.4byte	0x0
 1261 0485 00000000 		.4byte	0x0
 1262              	.LLST45:
 1263 0489 28000000 		.4byte	.LVL77
 1264 048d 2D000000 		.4byte	.LVL78-1
 1265 0491 0100     		.2byte	0x1
 1266 0493 53       		.byte	0x53
 1267 0494 00000000 		.4byte	0x0
 1268 0498 00000000 		.4byte	0x0
 1269              		.file 3 "/opt/stm32/arm-none-eabi-2011.03/bin/../lib/gcc/arm-none-eabi/4.5.2/include/stddef.h"
 1270              		.file 4 "/opt/stm32/arm-none-eabi-2011.03/bin/../lib/gcc/arm-none-eabi/4.5.2/../../../../arm-none-
 1271              		.file 5 "../libs/ChibiOS_2.4.0/os/ports/GCC/ARMCMx/chtypes.h"
 1272              		.file 6 "../libs/ChibiOS_2.4.0/os/kernel/include/chlists.h"
 1273              		.file 7 "../libs/ChibiOS_2.4.0/os/kernel/include/chthreads.h"
 1274              		.file 8 "../libs/ChibiOS_2.4.0/os/ports/GCC/ARMCMx/chcore_v7m.h"
 1275              		.file 9 "../libs/ChibiOS_2.4.0/os/kernel/include/chvt.h"
 1276              		.file 10 "../libs/ChibiOS_2.4.0/os/kernel/include/chschd.h"
 1277              		.file 11 "../libs/ChibiOS_2.4.0/os/kernel/include/chmtx.h"
 1278              		.section	.debug_info
 1279 0000 B90A0000 		.4byte	0xab9
 1280 0004 0200     		.2byte	0x2
 1281 0006 00000000 		.4byte	.Ldebug_abbrev0
 1282 000a 04       		.byte	0x4
 1283 000b 01       		.uleb128 0x1
 1284 000c 80030000 		.4byte	.LASF90
 1285 0010 01       		.byte	0x1
 1286 0011 0E000000 		.4byte	.LASF91
 1287 0015 A4000000 		.4byte	.LASF92
 1288 0019 00000000 		.4byte	0x0
 1289 001d 00000000 		.4byte	0x0
 1290 0021 30000000 		.4byte	.Ldebug_ranges0+0x30
 1291 0025 00000000 		.4byte	.Ldebug_line0
 1292 0029 02       		.uleb128 0x2
 1293 002a 04       		.byte	0x4
 1294 002b 05       		.byte	0x5
 1295 002c 696E7400 		.ascii	"int\000"
 1296 0030 03       		.uleb128 0x3
 1297 0031 3E000000 		.4byte	.LASF2
ARM GAS  /tmp/ccVbFWdL.s 			page 24


 1298 0035 03       		.byte	0x3
 1299 0036 D3       		.byte	0xd3
 1300 0037 3B000000 		.4byte	0x3b
 1301 003b 04       		.uleb128 0x4
 1302 003c 04       		.byte	0x4
 1303 003d 07       		.byte	0x7
 1304 003e 3F010000 		.4byte	.LASF0
 1305 0042 04       		.uleb128 0x4
 1306 0043 01       		.byte	0x1
 1307 0044 06       		.byte	0x6
 1308 0045 98000000 		.4byte	.LASF1
 1309 0049 03       		.uleb128 0x3
 1310 004a 66030000 		.4byte	.LASF3
 1311 004e 04       		.byte	0x4
 1312 004f 2A       		.byte	0x2a
 1313 0050 54000000 		.4byte	0x54
 1314 0054 04       		.uleb128 0x4
 1315 0055 01       		.byte	0x1
 1316 0056 08       		.byte	0x8
 1317 0057 6C020000 		.4byte	.LASF4
 1318 005b 04       		.uleb128 0x4
 1319 005c 02       		.byte	0x2
 1320 005d 05       		.byte	0x5
 1321 005e 84020000 		.4byte	.LASF5
 1322 0062 04       		.uleb128 0x4
 1323 0063 02       		.byte	0x2
 1324 0064 07       		.byte	0x7
 1325 0065 73010000 		.4byte	.LASF6
 1326 0069 03       		.uleb128 0x3
 1327 006a 64020000 		.4byte	.LASF7
 1328 006e 04       		.byte	0x4
 1329 006f 4F       		.byte	0x4f
 1330 0070 74000000 		.4byte	0x74
 1331 0074 04       		.uleb128 0x4
 1332 0075 04       		.byte	0x4
 1333 0076 05       		.byte	0x5
 1334 0077 E9000000 		.4byte	.LASF8
 1335 007b 03       		.uleb128 0x3
 1336 007c C5020000 		.4byte	.LASF9
 1337 0080 04       		.byte	0x4
 1338 0081 50       		.byte	0x50
 1339 0082 86000000 		.4byte	0x86
 1340 0086 04       		.uleb128 0x4
 1341 0087 04       		.byte	0x4
 1342 0088 07       		.byte	0x7
 1343 0089 54010000 		.4byte	.LASF10
 1344 008d 04       		.uleb128 0x4
 1345 008e 08       		.byte	0x8
 1346 008f 05       		.byte	0x5
 1347 0090 8A000000 		.4byte	.LASF11
 1348 0094 04       		.uleb128 0x4
 1349 0095 08       		.byte	0x8
 1350 0096 07       		.byte	0x7
 1351 0097 63000000 		.4byte	.LASF12
 1352 009b 03       		.uleb128 0x3
 1353 009c 94010000 		.4byte	.LASF13
 1354 00a0 05       		.byte	0x5
ARM GAS  /tmp/ccVbFWdL.s 			page 25


 1355 00a1 2F       		.byte	0x2f
 1356 00a2 49000000 		.4byte	0x49
 1357 00a6 03       		.uleb128 0x3
 1358 00a7 F2000000 		.4byte	.LASF14
 1359 00ab 05       		.byte	0x5
 1360 00ac 30       		.byte	0x30
 1361 00ad 49000000 		.4byte	0x49
 1362 00b1 03       		.uleb128 0x3
 1363 00b2 4D020000 		.4byte	.LASF15
 1364 00b6 05       		.byte	0x5
 1365 00b7 31       		.byte	0x31
 1366 00b8 49000000 		.4byte	0x49
 1367 00bc 03       		.uleb128 0x3
 1368 00bd 5C020000 		.4byte	.LASF16
 1369 00c1 05       		.byte	0x5
 1370 00c2 32       		.byte	0x32
 1371 00c3 7B000000 		.4byte	0x7b
 1372 00c7 03       		.uleb128 0x3
 1373 00c8 86010000 		.4byte	.LASF17
 1374 00cc 05       		.byte	0x5
 1375 00cd 33       		.byte	0x33
 1376 00ce 69000000 		.4byte	0x69
 1377 00d2 03       		.uleb128 0x3
 1378 00d3 B7010000 		.4byte	.LASF18
 1379 00d7 05       		.byte	0x5
 1380 00d8 35       		.byte	0x35
 1381 00d9 7B000000 		.4byte	0x7b
 1382 00dd 03       		.uleb128 0x3
 1383 00de FC020000 		.4byte	.LASF19
 1384 00e2 05       		.byte	0x5
 1385 00e3 36       		.byte	0x36
 1386 00e4 7B000000 		.4byte	0x7b
 1387 00e8 03       		.uleb128 0x3
 1388 00e9 39010000 		.4byte	.LASF20
 1389 00ed 05       		.byte	0x5
 1390 00ee 37       		.byte	0x37
 1391 00ef 69000000 		.4byte	0x69
 1392 00f3 03       		.uleb128 0x3
 1393 00f4 B3020000 		.4byte	.LASF21
 1394 00f8 06       		.byte	0x6
 1395 00f9 2A       		.byte	0x2a
 1396 00fa FE000000 		.4byte	0xfe
 1397 00fe 05       		.uleb128 0x5
 1398 00ff B3020000 		.4byte	.LASF21
 1399 0103 48       		.byte	0x48
 1400 0104 07       		.byte	0x7
 1401 0105 5E       		.byte	0x5e
 1402 0106 15020000 		.4byte	0x215
 1403 010a 06       		.uleb128 0x6
 1404 010b A4020000 		.4byte	.LASF22
 1405 010f 07       		.byte	0x7
 1406 0110 5F       		.byte	0x5f
 1407 0111 3A020000 		.4byte	0x23a
 1408 0115 02       		.byte	0x2
 1409 0116 23       		.byte	0x23
 1410 0117 00       		.uleb128 0x0
 1411 0118 06       		.uleb128 0x6
ARM GAS  /tmp/ccVbFWdL.s 			page 26


 1412 0119 55020000 		.4byte	.LASF23
 1413 011d 07       		.byte	0x7
 1414 011e 61       		.byte	0x61
 1415 011f 3A020000 		.4byte	0x23a
 1416 0123 02       		.byte	0x2
 1417 0124 23       		.byte	0x23
 1418 0125 04       		.uleb128 0x4
 1419 0126 06       		.uleb128 0x6
 1420 0127 83000000 		.4byte	.LASF24
 1421 012b 07       		.byte	0x7
 1422 012c 63       		.byte	0x63
 1423 012d BC000000 		.4byte	0xbc
 1424 0131 02       		.byte	0x2
 1425 0132 23       		.byte	0x23
 1426 0133 08       		.uleb128 0x8
 1427 0134 06       		.uleb128 0x6
 1428 0135 B7030000 		.4byte	.LASF25
 1429 0139 07       		.byte	0x7
 1430 013a 64       		.byte	0x64
 1431 013b 07030000 		.4byte	0x307
 1432 013f 02       		.byte	0x2
 1433 0140 23       		.byte	0x23
 1434 0141 0C       		.uleb128 0xc
 1435 0142 06       		.uleb128 0x6
 1436 0143 FB000000 		.4byte	.LASF26
 1437 0147 07       		.byte	0x7
 1438 0148 66       		.byte	0x66
 1439 0149 3A020000 		.4byte	0x23a
 1440 014d 02       		.byte	0x2
 1441 014e 23       		.byte	0x23
 1442 014f 10       		.uleb128 0x10
 1443 0150 06       		.uleb128 0x6
 1444 0151 FF010000 		.4byte	.LASF27
 1445 0155 07       		.byte	0x7
 1446 0156 67       		.byte	0x67
 1447 0157 3A020000 		.4byte	0x23a
 1448 015b 02       		.byte	0x2
 1449 015c 23       		.byte	0x23
 1450 015d 14       		.uleb128 0x14
 1451 015e 06       		.uleb128 0x6
 1452 015f 8C030000 		.4byte	.LASF28
 1453 0163 07       		.byte	0x7
 1454 0164 6E       		.byte	0x6e
 1455 0165 EF040000 		.4byte	0x4ef
 1456 0169 02       		.byte	0x2
 1457 016a 23       		.byte	0x23
 1458 016b 18       		.uleb128 0x18
 1459 016c 06       		.uleb128 0x6
 1460 016d 8E020000 		.4byte	.LASF29
 1461 0171 07       		.byte	0x7
 1462 0172 79       		.byte	0x79
 1463 0173 A6000000 		.4byte	0xa6
 1464 0177 02       		.byte	0x2
 1465 0178 23       		.byte	0x23
 1466 0179 1C       		.uleb128 0x1c
 1467 017a 06       		.uleb128 0x6
 1468 017b AB020000 		.4byte	.LASF30
ARM GAS  /tmp/ccVbFWdL.s 			page 27


 1469 017f 07       		.byte	0x7
 1470 0180 7D       		.byte	0x7d
 1471 0181 9B000000 		.4byte	0x9b
 1472 0185 02       		.byte	0x2
 1473 0186 23       		.byte	0x23
 1474 0187 1D       		.uleb128 0x1d
 1475 0188 06       		.uleb128 0x6
 1476 0189 4F030000 		.4byte	.LASF31
 1477 018d 07       		.byte	0x7
 1478 018e 82       		.byte	0x82
 1479 018f B1000000 		.4byte	0xb1
 1480 0193 02       		.byte	0x2
 1481 0194 23       		.byte	0x23
 1482 0195 1E       		.uleb128 0x1e
 1483 0196 06       		.uleb128 0x6
 1484 0197 1A030000 		.4byte	.LASF32
 1485 019b 07       		.byte	0x7
 1486 019c 89       		.byte	0x89
 1487 019d EC030000 		.4byte	0x3ec
 1488 01a1 02       		.byte	0x2
 1489 01a2 23       		.byte	0x23
 1490 01a3 20       		.uleb128 0x20
 1491 01a4 07       		.uleb128 0x7
 1492 01a5 705F7500 		.ascii	"p_u\000"
 1493 01a9 07       		.byte	0x7
 1494 01aa AE       		.byte	0xae
 1495 01ab BA040000 		.4byte	0x4ba
 1496 01af 02       		.byte	0x2
 1497 01b0 23       		.byte	0x23
 1498 01b1 24       		.uleb128 0x24
 1499 01b2 06       		.uleb128 0x6
 1500 01b3 BD030000 		.4byte	.LASF33
 1501 01b7 07       		.byte	0x7
 1502 01b8 B3       		.byte	0xb3
 1503 01b9 62020000 		.4byte	0x262
 1504 01bd 02       		.byte	0x2
 1505 01be 23       		.byte	0x23
 1506 01bf 28       		.uleb128 0x28
 1507 01c0 06       		.uleb128 0x6
 1508 01c1 28030000 		.4byte	.LASF34
 1509 01c5 07       		.byte	0x7
 1510 01c6 B9       		.byte	0xb9
 1511 01c7 40020000 		.4byte	0x240
 1512 01cb 02       		.byte	0x2
 1513 01cc 23       		.byte	0x23
 1514 01cd 2C       		.uleb128 0x2c
 1515 01ce 06       		.uleb128 0x6
 1516 01cf 08000000 		.4byte	.LASF35
 1517 01d3 07       		.byte	0x7
 1518 01d4 BD       		.byte	0xbd
 1519 01d5 C7000000 		.4byte	0xc7
 1520 01d9 02       		.byte	0x2
 1521 01da 23       		.byte	0x23
 1522 01db 34       		.uleb128 0x34
 1523 01dc 06       		.uleb128 0x6
 1524 01dd BA020000 		.4byte	.LASF36
 1525 01e1 07       		.byte	0x7
ARM GAS  /tmp/ccVbFWdL.s 			page 28


 1526 01e2 C3       		.byte	0xc3
 1527 01e3 D2000000 		.4byte	0xd2
 1528 01e7 02       		.byte	0x2
 1529 01e8 23       		.byte	0x23
 1530 01e9 38       		.uleb128 0x38
 1531 01ea 06       		.uleb128 0x6
 1532 01eb 7A020000 		.4byte	.LASF37
 1533 01ef 07       		.byte	0x7
 1534 01f0 CA       		.byte	0xca
 1535 01f1 01050000 		.4byte	0x501
 1536 01f5 02       		.byte	0x2
 1537 01f6 23       		.byte	0x23
 1538 01f7 3C       		.uleb128 0x3c
 1539 01f8 06       		.uleb128 0x6
 1540 01f9 06030000 		.4byte	.LASF38
 1541 01fd 07       		.byte	0x7
 1542 01fe CE       		.byte	0xce
 1543 01ff BC000000 		.4byte	0xbc
 1544 0203 02       		.byte	0x2
 1545 0204 23       		.byte	0x23
 1546 0205 40       		.uleb128 0x40
 1547 0206 06       		.uleb128 0x6
 1548 0207 CC000000 		.4byte	.LASF39
 1549 020b 07       		.byte	0x7
 1550 020c D4       		.byte	0xd4
 1551 020d 78020000 		.4byte	0x278
 1552 0211 02       		.byte	0x2
 1553 0212 23       		.byte	0x23
 1554 0213 44       		.uleb128 0x44
 1555 0214 00       		.byte	0x0
 1556 0215 08       		.uleb128 0x8
 1557 0216 08       		.byte	0x8
 1558 0217 06       		.byte	0x6
 1559 0218 61       		.byte	0x61
 1560 0219 3A020000 		.4byte	0x23a
 1561 021d 06       		.uleb128 0x6
 1562 021e A4020000 		.4byte	.LASF22
 1563 0222 06       		.byte	0x6
 1564 0223 62       		.byte	0x62
 1565 0224 3A020000 		.4byte	0x23a
 1566 0228 02       		.byte	0x2
 1567 0229 23       		.byte	0x23
 1568 022a 00       		.uleb128 0x0
 1569 022b 06       		.uleb128 0x6
 1570 022c 55020000 		.4byte	.LASF23
 1571 0230 06       		.byte	0x6
 1572 0231 64       		.byte	0x64
 1573 0232 3A020000 		.4byte	0x23a
 1574 0236 02       		.byte	0x2
 1575 0237 23       		.byte	0x23
 1576 0238 04       		.uleb128 0x4
 1577 0239 00       		.byte	0x0
 1578 023a 09       		.uleb128 0x9
 1579 023b 04       		.byte	0x4
 1580 023c F3000000 		.4byte	0xf3
 1581 0240 03       		.uleb128 0x3
 1582 0241 0D020000 		.4byte	.LASF40
ARM GAS  /tmp/ccVbFWdL.s 			page 29


 1583 0245 06       		.byte	0x6
 1584 0246 66       		.byte	0x66
 1585 0247 15020000 		.4byte	0x215
 1586 024b 08       		.uleb128 0x8
 1587 024c 04       		.byte	0x4
 1588 024d 06       		.byte	0x6
 1589 024e 6B       		.byte	0x6b
 1590 024f 62020000 		.4byte	0x262
 1591 0253 06       		.uleb128 0x6
 1592 0254 A4020000 		.4byte	.LASF22
 1593 0258 06       		.byte	0x6
 1594 0259 6D       		.byte	0x6d
 1595 025a 3A020000 		.4byte	0x23a
 1596 025e 02       		.byte	0x2
 1597 025f 23       		.byte	0x23
 1598 0260 00       		.uleb128 0x0
 1599 0261 00       		.byte	0x0
 1600 0262 03       		.uleb128 0x3
 1601 0263 AB010000 		.4byte	.LASF41
 1602 0267 06       		.byte	0x6
 1603 0268 70       		.byte	0x70
 1604 0269 4B020000 		.4byte	0x24b
 1605 026d 03       		.uleb128 0x3
 1606 026e 17010000 		.4byte	.LASF42
 1607 0272 08       		.byte	0x8
 1608 0273 D7       		.byte	0xd7
 1609 0274 78020000 		.4byte	0x278
 1610 0278 0A       		.uleb128 0xa
 1611 0279 04       		.byte	0x4
 1612 027a 05       		.uleb128 0x5
 1613 027b 21030000 		.4byte	.LASF43
 1614 027f 24       		.byte	0x24
 1615 0280 08       		.byte	0x8
 1616 0281 FE       		.byte	0xfe
 1617 0282 07030000 		.4byte	0x307
 1618 0286 0B       		.uleb128 0xb
 1619 0287 723400   		.ascii	"r4\000"
 1620 028a 08       		.byte	0x8
 1621 028b 1101     		.2byte	0x111
 1622 028d 6D020000 		.4byte	0x26d
 1623 0291 02       		.byte	0x2
 1624 0292 23       		.byte	0x23
 1625 0293 00       		.uleb128 0x0
 1626 0294 0B       		.uleb128 0xb
 1627 0295 723500   		.ascii	"r5\000"
 1628 0298 08       		.byte	0x8
 1629 0299 1201     		.2byte	0x112
 1630 029b 6D020000 		.4byte	0x26d
 1631 029f 02       		.byte	0x2
 1632 02a0 23       		.byte	0x23
 1633 02a1 04       		.uleb128 0x4
 1634 02a2 0B       		.uleb128 0xb
 1635 02a3 723600   		.ascii	"r6\000"
 1636 02a6 08       		.byte	0x8
 1637 02a7 1301     		.2byte	0x113
 1638 02a9 6D020000 		.4byte	0x26d
 1639 02ad 02       		.byte	0x2
ARM GAS  /tmp/ccVbFWdL.s 			page 30


 1640 02ae 23       		.byte	0x23
 1641 02af 08       		.uleb128 0x8
 1642 02b0 0B       		.uleb128 0xb
 1643 02b1 723700   		.ascii	"r7\000"
 1644 02b4 08       		.byte	0x8
 1645 02b5 1401     		.2byte	0x114
 1646 02b7 6D020000 		.4byte	0x26d
 1647 02bb 02       		.byte	0x2
 1648 02bc 23       		.byte	0x23
 1649 02bd 0C       		.uleb128 0xc
 1650 02be 0B       		.uleb128 0xb
 1651 02bf 723800   		.ascii	"r8\000"
 1652 02c2 08       		.byte	0x8
 1653 02c3 1501     		.2byte	0x115
 1654 02c5 6D020000 		.4byte	0x26d
 1655 02c9 02       		.byte	0x2
 1656 02ca 23       		.byte	0x23
 1657 02cb 10       		.uleb128 0x10
 1658 02cc 0B       		.uleb128 0xb
 1659 02cd 723900   		.ascii	"r9\000"
 1660 02d0 08       		.byte	0x8
 1661 02d1 1601     		.2byte	0x116
 1662 02d3 6D020000 		.4byte	0x26d
 1663 02d7 02       		.byte	0x2
 1664 02d8 23       		.byte	0x23
 1665 02d9 14       		.uleb128 0x14
 1666 02da 0B       		.uleb128 0xb
 1667 02db 72313000 		.ascii	"r10\000"
 1668 02df 08       		.byte	0x8
 1669 02e0 1701     		.2byte	0x117
 1670 02e2 6D020000 		.4byte	0x26d
 1671 02e6 02       		.byte	0x2
 1672 02e7 23       		.byte	0x23
 1673 02e8 18       		.uleb128 0x18
 1674 02e9 0B       		.uleb128 0xb
 1675 02ea 72313100 		.ascii	"r11\000"
 1676 02ee 08       		.byte	0x8
 1677 02ef 1801     		.2byte	0x118
 1678 02f1 6D020000 		.4byte	0x26d
 1679 02f5 02       		.byte	0x2
 1680 02f6 23       		.byte	0x23
 1681 02f7 1C       		.uleb128 0x1c
 1682 02f8 0B       		.uleb128 0xb
 1683 02f9 6C7200   		.ascii	"lr\000"
 1684 02fc 08       		.byte	0x8
 1685 02fd 1901     		.2byte	0x119
 1686 02ff 6D020000 		.4byte	0x26d
 1687 0303 02       		.byte	0x2
 1688 0304 23       		.byte	0x23
 1689 0305 20       		.uleb128 0x20
 1690 0306 00       		.byte	0x0
 1691 0307 0C       		.uleb128 0xc
 1692 0308 66010000 		.4byte	.LASF44
 1693 030c 04       		.byte	0x4
 1694 030d 08       		.byte	0x8
 1695 030e 2301     		.2byte	0x123
 1696 0310 24030000 		.4byte	0x324
ARM GAS  /tmp/ccVbFWdL.s 			page 31


 1697 0314 0B       		.uleb128 0xb
 1698 0315 72313300 		.ascii	"r13\000"
 1699 0319 08       		.byte	0x8
 1700 031a 2401     		.2byte	0x124
 1701 031c 24030000 		.4byte	0x324
 1702 0320 02       		.byte	0x2
 1703 0321 23       		.byte	0x23
 1704 0322 00       		.uleb128 0x0
 1705 0323 00       		.byte	0x0
 1706 0324 09       		.uleb128 0x9
 1707 0325 04       		.byte	0x4
 1708 0326 7A020000 		.4byte	0x27a
 1709 032a 03       		.uleb128 0x3
 1710 032b 11030000 		.4byte	.LASF45
 1711 032f 09       		.byte	0x9
 1712 0330 53       		.byte	0x53
 1713 0331 35030000 		.4byte	0x335
 1714 0335 09       		.uleb128 0x9
 1715 0336 04       		.byte	0x4
 1716 0337 3B030000 		.4byte	0x33b
 1717 033b 0D       		.uleb128 0xd
 1718 033c 01       		.byte	0x1
 1719 033d 47030000 		.4byte	0x347
 1720 0341 0E       		.uleb128 0xe
 1721 0342 78020000 		.4byte	0x278
 1722 0346 00       		.byte	0x0
 1723 0347 03       		.uleb128 0x3
 1724 0348 E3020000 		.4byte	.LASF46
 1725 034c 09       		.byte	0x9
 1726 034d 58       		.byte	0x58
 1727 034e 52030000 		.4byte	0x352
 1728 0352 05       		.uleb128 0x5
 1729 0353 E3020000 		.4byte	.LASF46
 1730 0357 14       		.byte	0x14
 1731 0358 09       		.byte	0x9
 1732 0359 5F       		.byte	0x5f
 1733 035a A5030000 		.4byte	0x3a5
 1734 035e 06       		.uleb128 0x6
 1735 035f 4C010000 		.4byte	.LASF47
 1736 0363 09       		.byte	0x9
 1737 0364 60       		.byte	0x60
 1738 0365 A5030000 		.4byte	0x3a5
 1739 0369 02       		.byte	0x2
 1740 036a 23       		.byte	0x23
 1741 036b 00       		.uleb128 0x0
 1742 036c 06       		.uleb128 0x6
 1743 036d 20010000 		.4byte	.LASF48
 1744 0371 09       		.byte	0x9
 1745 0372 62       		.byte	0x62
 1746 0373 A5030000 		.4byte	0x3a5
 1747 0377 02       		.byte	0x2
 1748 0378 23       		.byte	0x23
 1749 0379 04       		.uleb128 0x4
 1750 037a 06       		.uleb128 0x6
 1751 037b E3010000 		.4byte	.LASF49
 1752 037f 09       		.byte	0x9
 1753 0380 64       		.byte	0x64
ARM GAS  /tmp/ccVbFWdL.s 			page 32


 1754 0381 DD000000 		.4byte	0xdd
 1755 0385 02       		.byte	0x2
 1756 0386 23       		.byte	0x23
 1757 0387 08       		.uleb128 0x8
 1758 0388 06       		.uleb128 0x6
 1759 0389 EB010000 		.4byte	.LASF50
 1760 038d 09       		.byte	0x9
 1761 038e 65       		.byte	0x65
 1762 038f 2A030000 		.4byte	0x32a
 1763 0393 02       		.byte	0x2
 1764 0394 23       		.byte	0x23
 1765 0395 0C       		.uleb128 0xc
 1766 0396 06       		.uleb128 0x6
 1767 0397 3D030000 		.4byte	.LASF51
 1768 039b 09       		.byte	0x9
 1769 039c 67       		.byte	0x67
 1770 039d 78020000 		.4byte	0x278
 1771 03a1 02       		.byte	0x2
 1772 03a2 23       		.byte	0x23
 1773 03a3 10       		.uleb128 0x10
 1774 03a4 00       		.byte	0x0
 1775 03a5 09       		.uleb128 0x9
 1776 03a6 04       		.byte	0x4
 1777 03a7 47030000 		.4byte	0x347
 1778 03ab 08       		.uleb128 0x8
 1779 03ac 10       		.byte	0x10
 1780 03ad 09       		.byte	0x9
 1781 03ae 71       		.byte	0x71
 1782 03af EC030000 		.4byte	0x3ec
 1783 03b3 06       		.uleb128 0x6
 1784 03b4 4C010000 		.4byte	.LASF47
 1785 03b8 09       		.byte	0x9
 1786 03b9 72       		.byte	0x72
 1787 03ba A5030000 		.4byte	0x3a5
 1788 03be 02       		.byte	0x2
 1789 03bf 23       		.byte	0x23
 1790 03c0 00       		.uleb128 0x0
 1791 03c1 06       		.uleb128 0x6
 1792 03c2 20010000 		.4byte	.LASF48
 1793 03c6 09       		.byte	0x9
 1794 03c7 74       		.byte	0x74
 1795 03c8 A5030000 		.4byte	0x3a5
 1796 03cc 02       		.byte	0x2
 1797 03cd 23       		.byte	0x23
 1798 03ce 04       		.uleb128 0x4
 1799 03cf 06       		.uleb128 0x6
 1800 03d0 E3010000 		.4byte	.LASF49
 1801 03d4 09       		.byte	0x9
 1802 03d5 76       		.byte	0x76
 1803 03d6 DD000000 		.4byte	0xdd
 1804 03da 02       		.byte	0x2
 1805 03db 23       		.byte	0x23
 1806 03dc 08       		.uleb128 0x8
 1807 03dd 06       		.uleb128 0x6
 1808 03de 93030000 		.4byte	.LASF52
 1809 03e2 09       		.byte	0x9
 1810 03e3 77       		.byte	0x77
ARM GAS  /tmp/ccVbFWdL.s 			page 33


 1811 03e4 EC030000 		.4byte	0x3ec
 1812 03e8 02       		.byte	0x2
 1813 03e9 23       		.byte	0x23
 1814 03ea 0C       		.uleb128 0xc
 1815 03eb 00       		.byte	0x0
 1816 03ec 0F       		.uleb128 0xf
 1817 03ed DD000000 		.4byte	0xdd
 1818 03f1 03       		.uleb128 0x3
 1819 03f2 9E030000 		.4byte	.LASF53
 1820 03f6 09       		.byte	0x9
 1821 03f7 78       		.byte	0x78
 1822 03f8 AB030000 		.4byte	0x3ab
 1823 03fc 08       		.uleb128 0x8
 1824 03fd 20       		.byte	0x20
 1825 03fe 0A       		.byte	0xa
 1826 03ff 5E       		.byte	0x5e
 1827 0400 67040000 		.4byte	0x467
 1828 0404 06       		.uleb128 0x6
 1829 0405 DB020000 		.4byte	.LASF54
 1830 0409 0A       		.byte	0xa
 1831 040a 5F       		.byte	0x5f
 1832 040b 40020000 		.4byte	0x240
 1833 040f 02       		.byte	0x2
 1834 0410 23       		.byte	0x23
 1835 0411 00       		.uleb128 0x0
 1836 0412 06       		.uleb128 0x6
 1837 0413 96020000 		.4byte	.LASF55
 1838 0417 0A       		.byte	0xa
 1839 0418 60       		.byte	0x60
 1840 0419 BC000000 		.4byte	0xbc
 1841 041d 02       		.byte	0x2
 1842 041e 23       		.byte	0x23
 1843 041f 08       		.uleb128 0x8
 1844 0420 06       		.uleb128 0x6
 1845 0421 07020000 		.4byte	.LASF56
 1846 0425 0A       		.byte	0xa
 1847 0426 62       		.byte	0x62
 1848 0427 07030000 		.4byte	0x307
 1849 042b 02       		.byte	0x2
 1850 042c 23       		.byte	0x23
 1851 042d 0C       		.uleb128 0xc
 1852 042e 06       		.uleb128 0x6
 1853 042f 0F010000 		.4byte	.LASF57
 1854 0433 0A       		.byte	0xa
 1855 0434 65       		.byte	0x65
 1856 0435 3A020000 		.4byte	0x23a
 1857 0439 02       		.byte	0x2
 1858 043a 23       		.byte	0x23
 1859 043b 10       		.uleb128 0x10
 1860 043c 06       		.uleb128 0x6
 1861 043d 35020000 		.4byte	.LASF58
 1862 0441 0A       		.byte	0xa
 1863 0442 66       		.byte	0x66
 1864 0443 3A020000 		.4byte	0x23a
 1865 0447 02       		.byte	0x2
 1866 0448 23       		.byte	0x23
 1867 0449 14       		.uleb128 0x14
ARM GAS  /tmp/ccVbFWdL.s 			page 34


 1868 044a 06       		.uleb128 0x6
 1869 044b A5030000 		.4byte	.LASF59
 1870 044f 0A       		.byte	0xa
 1871 0450 6A       		.byte	0x6a
 1872 0451 E8000000 		.4byte	0xe8
 1873 0455 02       		.byte	0x2
 1874 0456 23       		.byte	0x23
 1875 0457 18       		.uleb128 0x18
 1876 0458 06       		.uleb128 0x6
 1877 0459 2B020000 		.4byte	.LASF60
 1878 045d 0A       		.byte	0xa
 1879 045e 6C       		.byte	0x6c
 1880 045f 3A020000 		.4byte	0x23a
 1881 0463 02       		.byte	0x2
 1882 0464 23       		.byte	0x23
 1883 0465 1C       		.uleb128 0x1c
 1884 0466 00       		.byte	0x0
 1885 0467 03       		.uleb128 0x3
 1886 0468 56030000 		.4byte	.LASF61
 1887 046c 0A       		.byte	0xa
 1888 046d 6E       		.byte	0x6e
 1889 046e FC030000 		.4byte	0x3fc
 1890 0472 05       		.uleb128 0x5
 1891 0473 C3010000 		.4byte	.LASF62
 1892 0477 10       		.byte	0x10
 1893 0478 0B       		.byte	0xb
 1894 0479 2C       		.byte	0x2c
 1895 047a A9040000 		.4byte	0x4a9
 1896 047e 06       		.uleb128 0x6
 1897 047f D4000000 		.4byte	.LASF63
 1898 0483 0B       		.byte	0xb
 1899 0484 2D       		.byte	0x2d
 1900 0485 40020000 		.4byte	0x240
 1901 0489 02       		.byte	0x2
 1902 048a 23       		.byte	0x23
 1903 048b 00       		.uleb128 0x0
 1904 048c 06       		.uleb128 0x6
 1905 048d AF030000 		.4byte	.LASF64
 1906 0491 0B       		.byte	0xb
 1907 0492 2F       		.byte	0x2f
 1908 0493 3A020000 		.4byte	0x23a
 1909 0497 02       		.byte	0x2
 1910 0498 23       		.byte	0x23
 1911 0499 08       		.uleb128 0x8
 1912 049a 06       		.uleb128 0x6
 1913 049b F5020000 		.4byte	.LASF65
 1914 049f 0B       		.byte	0xb
 1915 04a0 31       		.byte	0x31
 1916 04a1 A9040000 		.4byte	0x4a9
 1917 04a5 02       		.byte	0x2
 1918 04a6 23       		.byte	0x23
 1919 04a7 0C       		.uleb128 0xc
 1920 04a8 00       		.byte	0x0
 1921 04a9 09       		.uleb128 0x9
 1922 04aa 04       		.byte	0x4
 1923 04ab 72040000 		.4byte	0x472
 1924 04af 03       		.uleb128 0x3
ARM GAS  /tmp/ccVbFWdL.s 			page 35


 1925 04b0 C3010000 		.4byte	.LASF62
 1926 04b4 0B       		.byte	0xb
 1927 04b5 33       		.byte	0x33
 1928 04b6 72040000 		.4byte	0x472
 1929 04ba 10       		.uleb128 0x10
 1930 04bb 04       		.byte	0x4
 1931 04bc 07       		.byte	0x7
 1932 04bd 90       		.byte	0x90
 1933 04be EF040000 		.4byte	0x4ef
 1934 04c2 11       		.uleb128 0x11
 1935 04c3 4A000000 		.4byte	.LASF66
 1936 04c7 07       		.byte	0x7
 1937 04c8 97       		.byte	0x97
 1938 04c9 C7000000 		.4byte	0xc7
 1939 04cd 11       		.uleb128 0x11
 1940 04ce 7A000000 		.4byte	.LASF67
 1941 04d2 07       		.byte	0x7
 1942 04d3 9E       		.byte	0x9e
 1943 04d4 C7000000 		.4byte	0xc7
 1944 04d8 11       		.uleb128 0x11
 1945 04d9 79030000 		.4byte	.LASF68
 1946 04dd 07       		.byte	0x7
 1947 04de A5       		.byte	0xa5
 1948 04df 78020000 		.4byte	0x278
 1949 04e3 11       		.uleb128 0x11
 1950 04e4 9D020000 		.4byte	.LASF69
 1951 04e8 07       		.byte	0x7
 1952 04e9 AC       		.byte	0xac
 1953 04ea D2000000 		.4byte	0xd2
 1954 04ee 00       		.byte	0x0
 1955 04ef 09       		.uleb128 0x9
 1956 04f0 04       		.byte	0x4
 1957 04f1 F5040000 		.4byte	0x4f5
 1958 04f5 12       		.uleb128 0x12
 1959 04f6 FA040000 		.4byte	0x4fa
 1960 04fa 04       		.uleb128 0x4
 1961 04fb 01       		.byte	0x1
 1962 04fc 08       		.byte	0x8
 1963 04fd F0020000 		.4byte	.LASF70
 1964 0501 09       		.uleb128 0x9
 1965 0502 04       		.byte	0x4
 1966 0503 AF040000 		.4byte	0x4af
 1967 0507 03       		.uleb128 0x3
 1968 0508 00000000 		.4byte	.LASF71
 1969 050c 07       		.byte	0x7
 1970 050d DF       		.byte	0xdf
 1971 050e 12050000 		.4byte	0x512
 1972 0512 09       		.uleb128 0x9
 1973 0513 04       		.byte	0x4
 1974 0514 18050000 		.4byte	0x518
 1975 0518 13       		.uleb128 0x13
 1976 0519 01       		.byte	0x1
 1977 051a C7000000 		.4byte	0xc7
 1978 051e 28050000 		.4byte	0x528
 1979 0522 0E       		.uleb128 0xe
 1980 0523 78020000 		.4byte	0x278
 1981 0527 00       		.byte	0x0
ARM GAS  /tmp/ccVbFWdL.s 			page 36


 1982 0528 14       		.uleb128 0x14
 1983 0529 01       		.byte	0x1
 1984 052a CE020000 		.4byte	.LASF93
 1985 052e 01       		.byte	0x1
 1986 052f 4C       		.byte	0x4c
 1987 0530 01       		.byte	0x1
 1988 0531 3A020000 		.4byte	0x23a
 1989 0535 01       		.byte	0x1
 1990 0536 50050000 		.4byte	0x550
 1991 053a 15       		.uleb128 0x15
 1992 053b 747000   		.ascii	"tp\000"
 1993 053e 01       		.byte	0x1
 1994 053f 4C       		.byte	0x4c
 1995 0540 3A020000 		.4byte	0x23a
 1996 0544 16       		.uleb128 0x16
 1997 0545 45000000 		.4byte	.LASF72
 1998 0549 01       		.byte	0x1
 1999 054a 4C       		.byte	0x4c
 2000 054b BC000000 		.4byte	0xbc
 2001 054f 00       		.byte	0x0
 2002 0550 17       		.uleb128 0x17
 2003 0551 03010000 		.4byte	.LASF94
 2004 0555 02       		.byte	0x2
 2005 0556 56       		.byte	0x56
 2006 0557 01       		.byte	0x1
 2007 0558 3A020000 		.4byte	0x23a
 2008 055c 03       		.byte	0x3
 2009 055d 77050000 		.4byte	0x577
 2010 0561 15       		.uleb128 0x15
 2011 0562 746C7000 		.ascii	"tlp\000"
 2012 0566 02       		.byte	0x2
 2013 0567 56       		.byte	0x56
 2014 0568 77050000 		.4byte	0x577
 2015 056c 18       		.uleb128 0x18
 2016 056d 747000   		.ascii	"tp\000"
 2017 0570 02       		.byte	0x2
 2018 0571 58       		.byte	0x58
 2019 0572 3A020000 		.4byte	0x23a
 2020 0576 00       		.byte	0x0
 2021 0577 09       		.uleb128 0x9
 2022 0578 04       		.byte	0x4
 2023 0579 62020000 		.4byte	0x262
 2024 057d 19       		.uleb128 0x19
 2025 057e 1F020000 		.4byte	.LASF95
 2026 0582 02       		.byte	0x2
 2027 0583 50       		.byte	0x50
 2028 0584 01       		.byte	0x1
 2029 0585 03       		.byte	0x3
 2030 0586 A0050000 		.4byte	0x5a0
 2031 058a 15       		.uleb128 0x15
 2032 058b 747000   		.ascii	"tp\000"
 2033 058e 02       		.byte	0x2
 2034 058f 50       		.byte	0x50
 2035 0590 3A020000 		.4byte	0x23a
 2036 0594 15       		.uleb128 0x15
 2037 0595 746C7000 		.ascii	"tlp\000"
 2038 0599 02       		.byte	0x2
ARM GAS  /tmp/ccVbFWdL.s 			page 37


 2039 059a 50       		.byte	0x50
 2040 059b 77050000 		.4byte	0x577
 2041 059f 00       		.byte	0x0
 2042 05a0 1A       		.uleb128 0x1a
 2043 05a1 28050000 		.4byte	0x528
 2044 05a5 00000000 		.4byte	.LFB7
 2045 05a9 3C000000 		.4byte	.LFE7
 2046 05ad 00000000 		.4byte	.LLST0
 2047 05b1 C4050000 		.4byte	0x5c4
 2048 05b5 1B       		.uleb128 0x1b
 2049 05b6 3A050000 		.4byte	0x53a
 2050 05ba 01       		.byte	0x1
 2051 05bb 50       		.byte	0x50
 2052 05bc 1B       		.uleb128 0x1b
 2053 05bd 44050000 		.4byte	0x544
 2054 05c1 01       		.byte	0x1
 2055 05c2 51       		.byte	0x51
 2056 05c3 00       		.byte	0x0
 2057 05c4 1C       		.uleb128 0x1c
 2058 05c5 01       		.byte	0x1
 2059 05c6 DC000000 		.4byte	.LASF74
 2060 05ca 01       		.byte	0x1
 2061 05cb 9A       		.byte	0x9a
 2062 05cc 01       		.byte	0x1
 2063 05cd 3A020000 		.4byte	0x23a
 2064 05d1 00000000 		.4byte	.LFB8
 2065 05d5 50000000 		.4byte	.LFE8
 2066 05d9 20000000 		.4byte	.LLST1
 2067 05dd 51060000 		.4byte	0x651
 2068 05e1 1D       		.uleb128 0x1d
 2069 05e2 77737000 		.ascii	"wsp\000"
 2070 05e6 01       		.byte	0x1
 2071 05e7 9A       		.byte	0x9a
 2072 05e8 78020000 		.4byte	0x278
 2073 05ec 01       		.byte	0x1
 2074 05ed 50       		.byte	0x50
 2075 05ee 1E       		.uleb128 0x1e
 2076 05ef 6E010000 		.4byte	.LASF73
 2077 05f3 01       		.byte	0x1
 2078 05f4 9A       		.byte	0x9a
 2079 05f5 30000000 		.4byte	0x30
 2080 05f9 40000000 		.4byte	.LLST2
 2081 05fd 1F       		.uleb128 0x1f
 2082 05fe 45000000 		.4byte	.LASF72
 2083 0602 01       		.byte	0x1
 2084 0603 9B       		.byte	0x9b
 2085 0604 BC000000 		.4byte	0xbc
 2086 0608 01       		.byte	0x1
 2087 0609 52       		.byte	0x52
 2088 060a 20       		.uleb128 0x20
 2089 060b 706600   		.ascii	"pf\000"
 2090 060e 01       		.byte	0x1
 2091 060f 9B       		.byte	0x9b
 2092 0610 07050000 		.4byte	0x507
 2093 0614 60000000 		.4byte	.LLST3
 2094 0618 1D       		.uleb128 0x1d
 2095 0619 61726700 		.ascii	"arg\000"
ARM GAS  /tmp/ccVbFWdL.s 			page 38


 2096 061d 01       		.byte	0x1
 2097 061e 9B       		.byte	0x9b
 2098 061f 78020000 		.4byte	0x278
 2099 0623 02       		.byte	0x2
 2100 0624 91       		.byte	0x91
 2101 0625 00       		.sleb128 0
 2102 0626 21       		.uleb128 0x21
 2103 0627 747000   		.ascii	"tp\000"
 2104 062a 01       		.byte	0x1
 2105 062b 9D       		.byte	0x9d
 2106 062c 3A020000 		.4byte	0x23a
 2107 0630 01       		.byte	0x1
 2108 0631 50       		.byte	0x50
 2109 0632 22       		.uleb128 0x22
 2110 0633 28050000 		.4byte	0x528
 2111 0637 12000000 		.4byte	.LBB10
 2112 063b 44000000 		.4byte	.LBE10
 2113 063f 01       		.byte	0x1
 2114 0640 A5       		.byte	0xa5
 2115 0641 1B       		.uleb128 0x1b
 2116 0642 44050000 		.4byte	0x544
 2117 0646 01       		.byte	0x1
 2118 0647 52       		.byte	0x52
 2119 0648 1B       		.uleb128 0x1b
 2120 0649 3A050000 		.4byte	0x53a
 2121 064d 01       		.byte	0x1
 2122 064e 50       		.byte	0x50
 2123 064f 00       		.byte	0x0
 2124 0650 00       		.byte	0x0
 2125 0651 1C       		.uleb128 0x1c
 2126 0652 01       		.byte	0x1
 2127 0653 D1010000 		.4byte	.LASF75
 2128 0657 01       		.byte	0x1
 2129 0658 B8       		.byte	0xb8
 2130 0659 01       		.byte	0x1
 2131 065a 3A020000 		.4byte	0x23a
 2132 065e 00000000 		.4byte	.LFB9
 2133 0662 2A000000 		.4byte	.LFE9
 2134 0666 8C000000 		.4byte	.LLST4
 2135 066a FC060000 		.4byte	0x6fc
 2136 066e 20       		.uleb128 0x20
 2137 066f 77737000 		.ascii	"wsp\000"
 2138 0673 01       		.byte	0x1
 2139 0674 B8       		.byte	0xb8
 2140 0675 78020000 		.4byte	0x278
 2141 0679 B8000000 		.4byte	.LLST5
 2142 067d 1E       		.uleb128 0x1e
 2143 067e 6E010000 		.4byte	.LASF73
 2144 0682 01       		.byte	0x1
 2145 0683 B8       		.byte	0xb8
 2146 0684 30000000 		.4byte	0x30
 2147 0688 CB000000 		.4byte	.LLST6
 2148 068c 1E       		.uleb128 0x1e
 2149 068d 45000000 		.4byte	.LASF72
 2150 0691 01       		.byte	0x1
 2151 0692 B9       		.byte	0xb9
 2152 0693 BC000000 		.4byte	0xbc
ARM GAS  /tmp/ccVbFWdL.s 			page 39


 2153 0697 DE000000 		.4byte	.LLST7
 2154 069b 20       		.uleb128 0x20
 2155 069c 706600   		.ascii	"pf\000"
 2156 069f 01       		.byte	0x1
 2157 06a0 B9       		.byte	0xb9
 2158 06a1 07050000 		.4byte	0x507
 2159 06a5 F1000000 		.4byte	.LLST8
 2160 06a9 1D       		.uleb128 0x1d
 2161 06aa 61726700 		.ascii	"arg\000"
 2162 06ae 01       		.byte	0x1
 2163 06af B9       		.byte	0xb9
 2164 06b0 78020000 		.4byte	0x278
 2165 06b4 02       		.byte	0x2
 2166 06b5 91       		.byte	0x91
 2167 06b6 00       		.sleb128 0
 2168 06b7 23       		.uleb128 0x23
 2169 06b8 747000   		.ascii	"tp\000"
 2170 06bb 01       		.byte	0x1
 2171 06bc BA       		.byte	0xba
 2172 06bd 3A020000 		.4byte	0x23a
 2173 06c1 0F010000 		.4byte	.LLST9
 2174 06c5 24       		.uleb128 0x24
 2175 06c6 06000000 		.4byte	.LBB12
 2176 06ca 0C000000 		.4byte	.LBE12
 2177 06ce E2060000 		.4byte	0x6e2
 2178 06d2 23       		.uleb128 0x23
 2179 06d3 746D7000 		.ascii	"tmp\000"
 2180 06d7 01       		.byte	0x1
 2181 06d8 C4       		.byte	0xc4
 2182 06d9 7B000000 		.4byte	0x7b
 2183 06dd 2D010000 		.4byte	.LLST10
 2184 06e1 00       		.byte	0x0
 2185 06e2 25       		.uleb128 0x25
 2186 06e3 1E000000 		.4byte	.LBB13
 2187 06e7 24000000 		.4byte	.LBE13
 2188 06eb 23       		.uleb128 0x23
 2189 06ec 746D7000 		.ascii	"tmp\000"
 2190 06f0 01       		.byte	0x1
 2191 06f1 C6       		.byte	0xc6
 2192 06f2 7B000000 		.4byte	0x7b
 2193 06f6 40010000 		.4byte	.LLST11
 2194 06fa 00       		.byte	0x0
 2195 06fb 00       		.byte	0x0
 2196 06fc 1C       		.uleb128 0x1c
 2197 06fd 01       		.byte	0x1
 2198 06fe 28010000 		.4byte	.LASF76
 2199 0702 01       		.byte	0x1
 2200 0703 D6       		.byte	0xd6
 2201 0704 01       		.byte	0x1
 2202 0705 BC000000 		.4byte	0xbc
 2203 0709 00000000 		.4byte	.LFB10
 2204 070d 30000000 		.4byte	.LFE10
 2205 0711 53010000 		.4byte	.LLST12
 2206 0715 6C070000 		.4byte	0x76c
 2207 0719 1E       		.uleb128 0x1e
 2208 071a 8C010000 		.4byte	.LASF77
 2209 071e 01       		.byte	0x1
ARM GAS  /tmp/ccVbFWdL.s 			page 40


 2210 071f D6       		.byte	0xd6
 2211 0720 BC000000 		.4byte	0xbc
 2212 0724 73010000 		.4byte	.LLST13
 2213 0728 26       		.uleb128 0x26
 2214 0729 C9010000 		.4byte	.LASF78
 2215 072d 01       		.byte	0x1
 2216 072e D7       		.byte	0xd7
 2217 072f BC000000 		.4byte	0xbc
 2218 0733 01       		.byte	0x1
 2219 0734 54       		.byte	0x54
 2220 0735 24       		.uleb128 0x24
 2221 0736 02000000 		.4byte	.LBB14
 2222 073a 08000000 		.4byte	.LBE14
 2223 073e 52070000 		.4byte	0x752
 2224 0742 23       		.uleb128 0x23
 2225 0743 746D7000 		.ascii	"tmp\000"
 2226 0747 01       		.byte	0x1
 2227 0748 DB       		.byte	0xdb
 2228 0749 7B000000 		.4byte	0x7b
 2229 074d 86010000 		.4byte	.LLST14
 2230 0751 00       		.byte	0x0
 2231 0752 25       		.uleb128 0x25
 2232 0753 20000000 		.4byte	.LBB15
 2233 0757 26000000 		.4byte	.LBE15
 2234 075b 23       		.uleb128 0x23
 2235 075c 746D7000 		.ascii	"tmp\000"
 2236 0760 01       		.byte	0x1
 2237 0761 E6       		.byte	0xe6
 2238 0762 7B000000 		.4byte	0x7b
 2239 0766 99010000 		.4byte	.LLST15
 2240 076a 00       		.byte	0x0
 2241 076b 00       		.byte	0x0
 2242 076c 1C       		.uleb128 0x1c
 2243 076d 01       		.byte	0x1
 2244 076e F3010000 		.4byte	.LASF79
 2245 0772 01       		.byte	0x1
 2246 0773 F7       		.byte	0xf7
 2247 0774 01       		.byte	0x1
 2248 0775 3A020000 		.4byte	0x23a
 2249 0779 00000000 		.4byte	.LFB11
 2250 077d 1A000000 		.4byte	.LFE11
 2251 0781 AC010000 		.4byte	.LLST16
 2252 0785 CA070000 		.4byte	0x7ca
 2253 0789 20       		.uleb128 0x20
 2254 078a 747000   		.ascii	"tp\000"
 2255 078d 01       		.byte	0x1
 2256 078e F7       		.byte	0xf7
 2257 078f 3A020000 		.4byte	0x23a
 2258 0793 CC010000 		.4byte	.LLST17
 2259 0797 27       		.uleb128 0x27
 2260 0798 00000000 		.4byte	.Ldebug_ranges0+0x0
 2261 079c B0070000 		.4byte	0x7b0
 2262 07a0 23       		.uleb128 0x23
 2263 07a1 746D7000 		.ascii	"tmp\000"
 2264 07a5 01       		.byte	0x1
 2265 07a6 F9       		.byte	0xf9
 2266 07a7 7B000000 		.4byte	0x7b
ARM GAS  /tmp/ccVbFWdL.s 			page 41


 2267 07ab EA010000 		.4byte	.LLST18
 2268 07af 00       		.byte	0x0
 2269 07b0 25       		.uleb128 0x25
 2270 07b1 10000000 		.4byte	.LBB18
 2271 07b5 16000000 		.4byte	.LBE18
 2272 07b9 23       		.uleb128 0x23
 2273 07ba 746D7000 		.ascii	"tmp\000"
 2274 07be 01       		.byte	0x1
 2275 07bf FE       		.byte	0xfe
 2276 07c0 7B000000 		.4byte	0x7b
 2277 07c4 FD010000 		.4byte	.LLST19
 2278 07c8 00       		.byte	0x0
 2279 07c9 00       		.byte	0x0
 2280 07ca 28       		.uleb128 0x28
 2281 07cb 01       		.byte	0x1
 2282 07cc 9C010000 		.4byte	.LASF80
 2283 07d0 01       		.byte	0x1
 2284 07d1 0E01     		.2byte	0x10e
 2285 07d3 01       		.byte	0x1
 2286 07d4 00000000 		.4byte	.LFB12
 2287 07d8 16000000 		.4byte	.LFE12
 2288 07dc 02       		.byte	0x2
 2289 07dd 7D       		.byte	0x7d
 2290 07de 00       		.sleb128 0
 2291 07df 29080000 		.4byte	0x829
 2292 07e3 29       		.uleb128 0x29
 2293 07e4 747000   		.ascii	"tp\000"
 2294 07e7 01       		.byte	0x1
 2295 07e8 0E01     		.2byte	0x10e
 2296 07ea 3A020000 		.4byte	0x23a
 2297 07ee 01       		.byte	0x1
 2298 07ef 50       		.byte	0x50
 2299 07f0 24       		.uleb128 0x24
 2300 07f1 00000000 		.4byte	.LBB19
 2301 07f5 06000000 		.4byte	.LBE19
 2302 07f9 0E080000 		.4byte	0x80e
 2303 07fd 2A       		.uleb128 0x2a
 2304 07fe 746D7000 		.ascii	"tmp\000"
 2305 0802 01       		.byte	0x1
 2306 0803 1001     		.2byte	0x110
 2307 0805 7B000000 		.4byte	0x7b
 2308 0809 10020000 		.4byte	.LLST20
 2309 080d 00       		.byte	0x0
 2310 080e 25       		.uleb128 0x25
 2311 080f 0E000000 		.4byte	.LBB20
 2312 0813 14000000 		.4byte	.LBE20
 2313 0817 2A       		.uleb128 0x2a
 2314 0818 746D7000 		.ascii	"tmp\000"
 2315 081c 01       		.byte	0x1
 2316 081d 1201     		.2byte	0x112
 2317 081f 7B000000 		.4byte	0x7b
 2318 0823 23020000 		.4byte	.LLST21
 2319 0827 00       		.byte	0x0
 2320 0828 00       		.byte	0x0
 2321 0829 2B       		.uleb128 0x2b
 2322 082a 01       		.byte	0x1
 2323 082b 44030000 		.4byte	.LASF81
ARM GAS  /tmp/ccVbFWdL.s 			page 42


 2324 082f 01       		.byte	0x1
 2325 0830 2101     		.2byte	0x121
 2326 0832 01       		.byte	0x1
 2327 0833 00000000 		.4byte	.LFB13
 2328 0837 18000000 		.4byte	.LFE13
 2329 083b 36020000 		.4byte	.LLST22
 2330 083f 8C080000 		.4byte	0x88c
 2331 0843 2C       		.uleb128 0x2c
 2332 0844 1A020000 		.4byte	.LASF82
 2333 0848 01       		.byte	0x1
 2334 0849 2101     		.2byte	0x121
 2335 084b DD000000 		.4byte	0xdd
 2336 084f 56020000 		.4byte	.LLST23
 2337 0853 24       		.uleb128 0x24
 2338 0854 04000000 		.4byte	.LBB21
 2339 0858 0A000000 		.4byte	.LBE21
 2340 085c 71080000 		.4byte	0x871
 2341 0860 2A       		.uleb128 0x2a
 2342 0861 746D7000 		.ascii	"tmp\000"
 2343 0865 01       		.byte	0x1
 2344 0866 2501     		.2byte	0x125
 2345 0868 7B000000 		.4byte	0x7b
 2346 086c 74020000 		.4byte	.LLST24
 2347 0870 00       		.byte	0x0
 2348 0871 25       		.uleb128 0x25
 2349 0872 10000000 		.4byte	.LBB22
 2350 0876 16000000 		.4byte	.LBE22
 2351 087a 2A       		.uleb128 0x2a
 2352 087b 746D7000 		.ascii	"tmp\000"
 2353 087f 01       		.byte	0x1
 2354 0880 2701     		.2byte	0x127
 2355 0882 7B000000 		.4byte	0x7b
 2356 0886 87020000 		.4byte	.LLST25
 2357 088a 00       		.byte	0x0
 2358 088b 00       		.byte	0x0
 2359 088c 2B       		.uleb128 0x2b
 2360 088d 01       		.byte	0x1
 2361 088e 3D020000 		.4byte	.LASF83
 2362 0892 01       		.byte	0x1
 2363 0893 3201     		.2byte	0x132
 2364 0895 01       		.byte	0x1
 2365 0896 00000000 		.4byte	.LFB14
 2366 089a 24000000 		.4byte	.LFE14
 2367 089e 9A020000 		.4byte	.LLST26
 2368 08a2 EF080000 		.4byte	0x8ef
 2369 08a6 2C       		.uleb128 0x2c
 2370 08a7 1A020000 		.4byte	.LASF82
 2371 08ab 01       		.byte	0x1
 2372 08ac 3201     		.2byte	0x132
 2373 08ae DD000000 		.4byte	0xdd
 2374 08b2 BA020000 		.4byte	.LLST27
 2375 08b6 24       		.uleb128 0x24
 2376 08b7 02000000 		.4byte	.LBB23
 2377 08bb 08000000 		.4byte	.LBE23
 2378 08bf D4080000 		.4byte	0x8d4
 2379 08c3 2A       		.uleb128 0x2a
 2380 08c4 746D7000 		.ascii	"tmp\000"
ARM GAS  /tmp/ccVbFWdL.s 			page 43


 2381 08c8 01       		.byte	0x1
 2382 08c9 3401     		.2byte	0x134
 2383 08cb 7B000000 		.4byte	0x7b
 2384 08cf E8020000 		.4byte	.LLST28
 2385 08d3 00       		.byte	0x0
 2386 08d4 25       		.uleb128 0x25
 2387 08d5 16000000 		.4byte	.LBB24
 2388 08d9 1C000000 		.4byte	.LBE24
 2389 08dd 2A       		.uleb128 0x2a
 2390 08de 746D7000 		.ascii	"tmp\000"
 2391 08e2 01       		.byte	0x1
 2392 08e3 3701     		.2byte	0x137
 2393 08e5 7B000000 		.4byte	0x7b
 2394 08e9 FB020000 		.4byte	.LLST29
 2395 08ed 00       		.byte	0x0
 2396 08ee 00       		.byte	0x0
 2397 08ef 2B       		.uleb128 0x2b
 2398 08f0 01       		.byte	0x1
 2399 08f1 6E030000 		.4byte	.LASF84
 2400 08f5 01       		.byte	0x1
 2401 08f6 4101     		.2byte	0x141
 2402 08f8 01       		.byte	0x1
 2403 08f9 00000000 		.4byte	.LFB15
 2404 08fd 28000000 		.4byte	.LFE15
 2405 0901 0E030000 		.4byte	.LLST30
 2406 0905 42090000 		.4byte	0x942
 2407 0909 24       		.uleb128 0x24
 2408 090a 02000000 		.4byte	.LBB25
 2409 090e 08000000 		.4byte	.LBE25
 2410 0912 27090000 		.4byte	0x927
 2411 0916 2A       		.uleb128 0x2a
 2412 0917 746D7000 		.ascii	"tmp\000"
 2413 091b 01       		.byte	0x1
 2414 091c 4301     		.2byte	0x143
 2415 091e 7B000000 		.4byte	0x7b
 2416 0922 2E030000 		.4byte	.LLST31
 2417 0926 00       		.byte	0x0
 2418 0927 25       		.uleb128 0x25
 2419 0928 1A000000 		.4byte	.LBB26
 2420 092c 20000000 		.4byte	.LBE26
 2421 0930 2A       		.uleb128 0x2a
 2422 0931 746D7000 		.ascii	"tmp\000"
 2423 0935 01       		.byte	0x1
 2424 0936 4501     		.2byte	0x145
 2425 0938 7B000000 		.4byte	0x7b
 2426 093c 41030000 		.4byte	.LLST32
 2427 0940 00       		.byte	0x0
 2428 0941 00       		.byte	0x0
 2429 0942 2B       		.uleb128 0x2b
 2430 0943 01       		.byte	0x1
 2431 0944 58000000 		.4byte	.LASF85
 2432 0948 01       		.byte	0x1
 2433 0949 6B01     		.2byte	0x16b
 2434 094b 01       		.byte	0x1
 2435 094c 00000000 		.4byte	.LFB17
 2436 0950 40000000 		.4byte	.LFE17
 2437 0954 54030000 		.4byte	.LLST33
ARM GAS  /tmp/ccVbFWdL.s 			page 44


 2438 0958 A9090000 		.4byte	0x9a9
 2439 095c 2D       		.uleb128 0x2d
 2440 095d 6D736700 		.ascii	"msg\000"
 2441 0961 01       		.byte	0x1
 2442 0962 6B01     		.2byte	0x16b
 2443 0964 C7000000 		.4byte	0xc7
 2444 0968 74030000 		.4byte	.LLST34
 2445 096c 2A       		.uleb128 0x2a
 2446 096d 747000   		.ascii	"tp\000"
 2447 0970 01       		.byte	0x1
 2448 0971 6C01     		.2byte	0x16c
 2449 0973 3A020000 		.4byte	0x23a
 2450 0977 96030000 		.4byte	.LLST35
 2451 097b 2E       		.uleb128 0x2e
 2452 097c 50050000 		.4byte	0x550
 2453 0980 12000000 		.4byte	.LBB27
 2454 0984 16000000 		.4byte	.LBE27
 2455 0988 01       		.byte	0x1
 2456 0989 7401     		.2byte	0x174
 2457 098b 2F       		.uleb128 0x2f
 2458 098c 61050000 		.4byte	0x561
 2459 0990 B5030000 		.4byte	.LLST36
 2460 0994 25       		.uleb128 0x25
 2461 0995 12000000 		.4byte	.LBB28
 2462 0999 16000000 		.4byte	.LBE28
 2463 099d 30       		.uleb128 0x30
 2464 099e 6C050000 		.4byte	0x56c
 2465 09a2 CA030000 		.4byte	.LLST37
 2466 09a6 00       		.byte	0x0
 2467 09a7 00       		.byte	0x0
 2468 09a8 00       		.byte	0x0
 2469 09a9 28       		.uleb128 0x28
 2470 09aa 01       		.byte	0x1
 2471 09ab C2000000 		.4byte	.LASF86
 2472 09af 01       		.byte	0x1
 2473 09b0 5601     		.2byte	0x156
 2474 09b2 01       		.byte	0x1
 2475 09b3 00000000 		.4byte	.LFB16
 2476 09b7 0A000000 		.4byte	.LFE16
 2477 09bb 02       		.byte	0x2
 2478 09bc 7D       		.byte	0x7d
 2479 09bd 00       		.sleb128 0
 2480 09be EB090000 		.4byte	0x9eb
 2481 09c2 29       		.uleb128 0x29
 2482 09c3 6D736700 		.ascii	"msg\000"
 2483 09c7 01       		.byte	0x1
 2484 09c8 5601     		.2byte	0x156
 2485 09ca C7000000 		.4byte	0xc7
 2486 09ce 01       		.byte	0x1
 2487 09cf 50       		.byte	0x50
 2488 09d0 25       		.uleb128 0x25
 2489 09d1 00000000 		.4byte	.LBB29
 2490 09d5 06000000 		.4byte	.LBE29
 2491 09d9 2A       		.uleb128 0x2a
 2492 09da 746D7000 		.ascii	"tmp\000"
 2493 09de 01       		.byte	0x1
 2494 09df 5801     		.2byte	0x158
ARM GAS  /tmp/ccVbFWdL.s 			page 45


 2495 09e1 7B000000 		.4byte	0x7b
 2496 09e5 DD030000 		.4byte	.LLST38
 2497 09e9 00       		.byte	0x0
 2498 09ea 00       		.byte	0x0
 2499 09eb 31       		.uleb128 0x31
 2500 09ec 01       		.byte	0x1
 2501 09ed 33030000 		.4byte	.LASF87
 2502 09f1 01       		.byte	0x1
 2503 09f2 A101     		.2byte	0x1a1
 2504 09f4 01       		.byte	0x1
 2505 09f5 C7000000 		.4byte	0xc7
 2506 09f9 00000000 		.4byte	.LFB18
 2507 09fd 38000000 		.4byte	.LFE18
 2508 0a01 F0030000 		.4byte	.LLST39
 2509 0a05 880A0000 		.4byte	0xa88
 2510 0a09 2D       		.uleb128 0x2d
 2511 0a0a 747000   		.ascii	"tp\000"
 2512 0a0d 01       		.byte	0x1
 2513 0a0e A101     		.2byte	0x1a1
 2514 0a10 3A020000 		.4byte	0x23a
 2515 0a14 10040000 		.4byte	.LLST40
 2516 0a18 2A       		.uleb128 0x2a
 2517 0a19 6D736700 		.ascii	"msg\000"
 2518 0a1d 01       		.byte	0x1
 2519 0a1e A201     		.2byte	0x1a2
 2520 0a20 C7000000 		.4byte	0xc7
 2521 0a24 2E040000 		.4byte	.LLST41
 2522 0a28 24       		.uleb128 0x24
 2523 0a29 04000000 		.4byte	.LBB30
 2524 0a2d 0A000000 		.4byte	.LBE30
 2525 0a31 460A0000 		.4byte	0xa46
 2526 0a35 2A       		.uleb128 0x2a
 2527 0a36 746D7000 		.ascii	"tmp\000"
 2528 0a3a 01       		.byte	0x1
 2529 0a3b A601     		.2byte	0x1a6
 2530 0a3d 7B000000 		.4byte	0x7b
 2531 0a41 4D040000 		.4byte	.LLST42
 2532 0a45 00       		.byte	0x0
 2533 0a46 32       		.uleb128 0x32
 2534 0a47 7D050000 		.4byte	0x57d
 2535 0a4b 10000000 		.4byte	.LBB31
 2536 0a4f 18000000 		.4byte	.Ldebug_ranges0+0x18
 2537 0a53 01       		.byte	0x1
 2538 0a54 AC01     		.2byte	0x1ac
 2539 0a56 6D0A0000 		.4byte	0xa6d
 2540 0a5a 2F       		.uleb128 0x2f
 2541 0a5b 94050000 		.4byte	0x594
 2542 0a5f 60040000 		.4byte	.LLST43
 2543 0a63 2F       		.uleb128 0x2f
 2544 0a64 8A050000 		.4byte	0x58a
 2545 0a68 75040000 		.4byte	.LLST44
 2546 0a6c 00       		.byte	0x0
 2547 0a6d 25       		.uleb128 0x25
 2548 0a6e 22000000 		.4byte	.LBB35
 2549 0a72 28000000 		.4byte	.LBE35
 2550 0a76 2A       		.uleb128 0x2a
 2551 0a77 746D7000 		.ascii	"tmp\000"
ARM GAS  /tmp/ccVbFWdL.s 			page 46


 2552 0a7b 01       		.byte	0x1
 2553 0a7c B001     		.2byte	0x1b0
 2554 0a7e 7B000000 		.4byte	0x7b
 2555 0a82 89040000 		.4byte	.LLST45
 2556 0a86 00       		.byte	0x0
 2557 0a87 00       		.byte	0x0
 2558 0a88 33       		.uleb128 0x33
 2559 0a89 51000000 		.4byte	.LASF88
 2560 0a8d 09       		.byte	0x9
 2561 0a8e 7A       		.byte	0x7a
 2562 0a8f F1030000 		.4byte	0x3f1
 2563 0a93 01       		.byte	0x1
 2564 0a94 01       		.byte	0x1
 2565 0a95 33       		.uleb128 0x33
 2566 0a96 60030000 		.4byte	.LASF89
 2567 0a9a 0A       		.byte	0xa
 2568 0a9b 72       		.byte	0x72
 2569 0a9c 67040000 		.4byte	0x467
 2570 0aa0 01       		.byte	0x1
 2571 0aa1 01       		.byte	0x1
 2572 0aa2 33       		.uleb128 0x33
 2573 0aa3 51000000 		.4byte	.LASF88
 2574 0aa7 09       		.byte	0x9
 2575 0aa8 7A       		.byte	0x7a
 2576 0aa9 F1030000 		.4byte	0x3f1
 2577 0aad 01       		.byte	0x1
 2578 0aae 01       		.byte	0x1
 2579 0aaf 33       		.uleb128 0x33
 2580 0ab0 60030000 		.4byte	.LASF89
 2581 0ab4 0A       		.byte	0xa
 2582 0ab5 72       		.byte	0x72
 2583 0ab6 67040000 		.4byte	0x467
 2584 0aba 01       		.byte	0x1
 2585 0abb 01       		.byte	0x1
 2586 0abc 00       		.byte	0x0
 2587              		.section	.debug_abbrev
 2588 0000 01       		.uleb128 0x1
 2589 0001 11       		.uleb128 0x11
 2590 0002 01       		.byte	0x1
 2591 0003 25       		.uleb128 0x25
 2592 0004 0E       		.uleb128 0xe
 2593 0005 13       		.uleb128 0x13
 2594 0006 0B       		.uleb128 0xb
 2595 0007 03       		.uleb128 0x3
 2596 0008 0E       		.uleb128 0xe
 2597 0009 1B       		.uleb128 0x1b
 2598 000a 0E       		.uleb128 0xe
 2599 000b 11       		.uleb128 0x11
 2600 000c 01       		.uleb128 0x1
 2601 000d 52       		.uleb128 0x52
 2602 000e 01       		.uleb128 0x1
 2603 000f 55       		.uleb128 0x55
 2604 0010 06       		.uleb128 0x6
 2605 0011 10       		.uleb128 0x10
 2606 0012 06       		.uleb128 0x6
 2607 0013 00       		.byte	0x0
 2608 0014 00       		.byte	0x0
ARM GAS  /tmp/ccVbFWdL.s 			page 47


 2609 0015 02       		.uleb128 0x2
 2610 0016 24       		.uleb128 0x24
 2611 0017 00       		.byte	0x0
 2612 0018 0B       		.uleb128 0xb
 2613 0019 0B       		.uleb128 0xb
 2614 001a 3E       		.uleb128 0x3e
 2615 001b 0B       		.uleb128 0xb
 2616 001c 03       		.uleb128 0x3
 2617 001d 08       		.uleb128 0x8
 2618 001e 00       		.byte	0x0
 2619 001f 00       		.byte	0x0
 2620 0020 03       		.uleb128 0x3
 2621 0021 16       		.uleb128 0x16
 2622 0022 00       		.byte	0x0
 2623 0023 03       		.uleb128 0x3
 2624 0024 0E       		.uleb128 0xe
 2625 0025 3A       		.uleb128 0x3a
 2626 0026 0B       		.uleb128 0xb
 2627 0027 3B       		.uleb128 0x3b
 2628 0028 0B       		.uleb128 0xb
 2629 0029 49       		.uleb128 0x49
 2630 002a 13       		.uleb128 0x13
 2631 002b 00       		.byte	0x0
 2632 002c 00       		.byte	0x0
 2633 002d 04       		.uleb128 0x4
 2634 002e 24       		.uleb128 0x24
 2635 002f 00       		.byte	0x0
 2636 0030 0B       		.uleb128 0xb
 2637 0031 0B       		.uleb128 0xb
 2638 0032 3E       		.uleb128 0x3e
 2639 0033 0B       		.uleb128 0xb
 2640 0034 03       		.uleb128 0x3
 2641 0035 0E       		.uleb128 0xe
 2642 0036 00       		.byte	0x0
 2643 0037 00       		.byte	0x0
 2644 0038 05       		.uleb128 0x5
 2645 0039 13       		.uleb128 0x13
 2646 003a 01       		.byte	0x1
 2647 003b 03       		.uleb128 0x3
 2648 003c 0E       		.uleb128 0xe
 2649 003d 0B       		.uleb128 0xb
 2650 003e 0B       		.uleb128 0xb
 2651 003f 3A       		.uleb128 0x3a
 2652 0040 0B       		.uleb128 0xb
 2653 0041 3B       		.uleb128 0x3b
 2654 0042 0B       		.uleb128 0xb
 2655 0043 01       		.uleb128 0x1
 2656 0044 13       		.uleb128 0x13
 2657 0045 00       		.byte	0x0
 2658 0046 00       		.byte	0x0
 2659 0047 06       		.uleb128 0x6
 2660 0048 0D       		.uleb128 0xd
 2661 0049 00       		.byte	0x0
 2662 004a 03       		.uleb128 0x3
 2663 004b 0E       		.uleb128 0xe
 2664 004c 3A       		.uleb128 0x3a
 2665 004d 0B       		.uleb128 0xb
ARM GAS  /tmp/ccVbFWdL.s 			page 48


 2666 004e 3B       		.uleb128 0x3b
 2667 004f 0B       		.uleb128 0xb
 2668 0050 49       		.uleb128 0x49
 2669 0051 13       		.uleb128 0x13
 2670 0052 38       		.uleb128 0x38
 2671 0053 0A       		.uleb128 0xa
 2672 0054 00       		.byte	0x0
 2673 0055 00       		.byte	0x0
 2674 0056 07       		.uleb128 0x7
 2675 0057 0D       		.uleb128 0xd
 2676 0058 00       		.byte	0x0
 2677 0059 03       		.uleb128 0x3
 2678 005a 08       		.uleb128 0x8
 2679 005b 3A       		.uleb128 0x3a
 2680 005c 0B       		.uleb128 0xb
 2681 005d 3B       		.uleb128 0x3b
 2682 005e 0B       		.uleb128 0xb
 2683 005f 49       		.uleb128 0x49
 2684 0060 13       		.uleb128 0x13
 2685 0061 38       		.uleb128 0x38
 2686 0062 0A       		.uleb128 0xa
 2687 0063 00       		.byte	0x0
 2688 0064 00       		.byte	0x0
 2689 0065 08       		.uleb128 0x8
 2690 0066 13       		.uleb128 0x13
 2691 0067 01       		.byte	0x1
 2692 0068 0B       		.uleb128 0xb
 2693 0069 0B       		.uleb128 0xb
 2694 006a 3A       		.uleb128 0x3a
 2695 006b 0B       		.uleb128 0xb
 2696 006c 3B       		.uleb128 0x3b
 2697 006d 0B       		.uleb128 0xb
 2698 006e 01       		.uleb128 0x1
 2699 006f 13       		.uleb128 0x13
 2700 0070 00       		.byte	0x0
 2701 0071 00       		.byte	0x0
 2702 0072 09       		.uleb128 0x9
 2703 0073 0F       		.uleb128 0xf
 2704 0074 00       		.byte	0x0
 2705 0075 0B       		.uleb128 0xb
 2706 0076 0B       		.uleb128 0xb
 2707 0077 49       		.uleb128 0x49
 2708 0078 13       		.uleb128 0x13
 2709 0079 00       		.byte	0x0
 2710 007a 00       		.byte	0x0
 2711 007b 0A       		.uleb128 0xa
 2712 007c 0F       		.uleb128 0xf
 2713 007d 00       		.byte	0x0
 2714 007e 0B       		.uleb128 0xb
 2715 007f 0B       		.uleb128 0xb
 2716 0080 00       		.byte	0x0
 2717 0081 00       		.byte	0x0
 2718 0082 0B       		.uleb128 0xb
 2719 0083 0D       		.uleb128 0xd
 2720 0084 00       		.byte	0x0
 2721 0085 03       		.uleb128 0x3
 2722 0086 08       		.uleb128 0x8
ARM GAS  /tmp/ccVbFWdL.s 			page 49


 2723 0087 3A       		.uleb128 0x3a
 2724 0088 0B       		.uleb128 0xb
 2725 0089 3B       		.uleb128 0x3b
 2726 008a 05       		.uleb128 0x5
 2727 008b 49       		.uleb128 0x49
 2728 008c 13       		.uleb128 0x13
 2729 008d 38       		.uleb128 0x38
 2730 008e 0A       		.uleb128 0xa
 2731 008f 00       		.byte	0x0
 2732 0090 00       		.byte	0x0
 2733 0091 0C       		.uleb128 0xc
 2734 0092 13       		.uleb128 0x13
 2735 0093 01       		.byte	0x1
 2736 0094 03       		.uleb128 0x3
 2737 0095 0E       		.uleb128 0xe
 2738 0096 0B       		.uleb128 0xb
 2739 0097 0B       		.uleb128 0xb
 2740 0098 3A       		.uleb128 0x3a
 2741 0099 0B       		.uleb128 0xb
 2742 009a 3B       		.uleb128 0x3b
 2743 009b 05       		.uleb128 0x5
 2744 009c 01       		.uleb128 0x1
 2745 009d 13       		.uleb128 0x13
 2746 009e 00       		.byte	0x0
 2747 009f 00       		.byte	0x0
 2748 00a0 0D       		.uleb128 0xd
 2749 00a1 15       		.uleb128 0x15
 2750 00a2 01       		.byte	0x1
 2751 00a3 27       		.uleb128 0x27
 2752 00a4 0C       		.uleb128 0xc
 2753 00a5 01       		.uleb128 0x1
 2754 00a6 13       		.uleb128 0x13
 2755 00a7 00       		.byte	0x0
 2756 00a8 00       		.byte	0x0
 2757 00a9 0E       		.uleb128 0xe
 2758 00aa 05       		.uleb128 0x5
 2759 00ab 00       		.byte	0x0
 2760 00ac 49       		.uleb128 0x49
 2761 00ad 13       		.uleb128 0x13
 2762 00ae 00       		.byte	0x0
 2763 00af 00       		.byte	0x0
 2764 00b0 0F       		.uleb128 0xf
 2765 00b1 35       		.uleb128 0x35
 2766 00b2 00       		.byte	0x0
 2767 00b3 49       		.uleb128 0x49
 2768 00b4 13       		.uleb128 0x13
 2769 00b5 00       		.byte	0x0
 2770 00b6 00       		.byte	0x0
 2771 00b7 10       		.uleb128 0x10
 2772 00b8 17       		.uleb128 0x17
 2773 00b9 01       		.byte	0x1
 2774 00ba 0B       		.uleb128 0xb
 2775 00bb 0B       		.uleb128 0xb
 2776 00bc 3A       		.uleb128 0x3a
 2777 00bd 0B       		.uleb128 0xb
 2778 00be 3B       		.uleb128 0x3b
 2779 00bf 0B       		.uleb128 0xb
ARM GAS  /tmp/ccVbFWdL.s 			page 50


 2780 00c0 01       		.uleb128 0x1
 2781 00c1 13       		.uleb128 0x13
 2782 00c2 00       		.byte	0x0
 2783 00c3 00       		.byte	0x0
 2784 00c4 11       		.uleb128 0x11
 2785 00c5 0D       		.uleb128 0xd
 2786 00c6 00       		.byte	0x0
 2787 00c7 03       		.uleb128 0x3
 2788 00c8 0E       		.uleb128 0xe
 2789 00c9 3A       		.uleb128 0x3a
 2790 00ca 0B       		.uleb128 0xb
 2791 00cb 3B       		.uleb128 0x3b
 2792 00cc 0B       		.uleb128 0xb
 2793 00cd 49       		.uleb128 0x49
 2794 00ce 13       		.uleb128 0x13
 2795 00cf 00       		.byte	0x0
 2796 00d0 00       		.byte	0x0
 2797 00d1 12       		.uleb128 0x12
 2798 00d2 26       		.uleb128 0x26
 2799 00d3 00       		.byte	0x0
 2800 00d4 49       		.uleb128 0x49
 2801 00d5 13       		.uleb128 0x13
 2802 00d6 00       		.byte	0x0
 2803 00d7 00       		.byte	0x0
 2804 00d8 13       		.uleb128 0x13
 2805 00d9 15       		.uleb128 0x15
 2806 00da 01       		.byte	0x1
 2807 00db 27       		.uleb128 0x27
 2808 00dc 0C       		.uleb128 0xc
 2809 00dd 49       		.uleb128 0x49
 2810 00de 13       		.uleb128 0x13
 2811 00df 01       		.uleb128 0x1
 2812 00e0 13       		.uleb128 0x13
 2813 00e1 00       		.byte	0x0
 2814 00e2 00       		.byte	0x0
 2815 00e3 14       		.uleb128 0x14
 2816 00e4 2E       		.uleb128 0x2e
 2817 00e5 01       		.byte	0x1
 2818 00e6 3F       		.uleb128 0x3f
 2819 00e7 0C       		.uleb128 0xc
 2820 00e8 03       		.uleb128 0x3
 2821 00e9 0E       		.uleb128 0xe
 2822 00ea 3A       		.uleb128 0x3a
 2823 00eb 0B       		.uleb128 0xb
 2824 00ec 3B       		.uleb128 0x3b
 2825 00ed 0B       		.uleb128 0xb
 2826 00ee 27       		.uleb128 0x27
 2827 00ef 0C       		.uleb128 0xc
 2828 00f0 49       		.uleb128 0x49
 2829 00f1 13       		.uleb128 0x13
 2830 00f2 20       		.uleb128 0x20
 2831 00f3 0B       		.uleb128 0xb
 2832 00f4 01       		.uleb128 0x1
 2833 00f5 13       		.uleb128 0x13
 2834 00f6 00       		.byte	0x0
 2835 00f7 00       		.byte	0x0
 2836 00f8 15       		.uleb128 0x15
ARM GAS  /tmp/ccVbFWdL.s 			page 51


 2837 00f9 05       		.uleb128 0x5
 2838 00fa 00       		.byte	0x0
 2839 00fb 03       		.uleb128 0x3
 2840 00fc 08       		.uleb128 0x8
 2841 00fd 3A       		.uleb128 0x3a
 2842 00fe 0B       		.uleb128 0xb
 2843 00ff 3B       		.uleb128 0x3b
 2844 0100 0B       		.uleb128 0xb
 2845 0101 49       		.uleb128 0x49
 2846 0102 13       		.uleb128 0x13
 2847 0103 00       		.byte	0x0
 2848 0104 00       		.byte	0x0
 2849 0105 16       		.uleb128 0x16
 2850 0106 05       		.uleb128 0x5
 2851 0107 00       		.byte	0x0
 2852 0108 03       		.uleb128 0x3
 2853 0109 0E       		.uleb128 0xe
 2854 010a 3A       		.uleb128 0x3a
 2855 010b 0B       		.uleb128 0xb
 2856 010c 3B       		.uleb128 0x3b
 2857 010d 0B       		.uleb128 0xb
 2858 010e 49       		.uleb128 0x49
 2859 010f 13       		.uleb128 0x13
 2860 0110 00       		.byte	0x0
 2861 0111 00       		.byte	0x0
 2862 0112 17       		.uleb128 0x17
 2863 0113 2E       		.uleb128 0x2e
 2864 0114 01       		.byte	0x1
 2865 0115 03       		.uleb128 0x3
 2866 0116 0E       		.uleb128 0xe
 2867 0117 3A       		.uleb128 0x3a
 2868 0118 0B       		.uleb128 0xb
 2869 0119 3B       		.uleb128 0x3b
 2870 011a 0B       		.uleb128 0xb
 2871 011b 27       		.uleb128 0x27
 2872 011c 0C       		.uleb128 0xc
 2873 011d 49       		.uleb128 0x49
 2874 011e 13       		.uleb128 0x13
 2875 011f 20       		.uleb128 0x20
 2876 0120 0B       		.uleb128 0xb
 2877 0121 01       		.uleb128 0x1
 2878 0122 13       		.uleb128 0x13
 2879 0123 00       		.byte	0x0
 2880 0124 00       		.byte	0x0
 2881 0125 18       		.uleb128 0x18
 2882 0126 34       		.uleb128 0x34
 2883 0127 00       		.byte	0x0
 2884 0128 03       		.uleb128 0x3
 2885 0129 08       		.uleb128 0x8
 2886 012a 3A       		.uleb128 0x3a
 2887 012b 0B       		.uleb128 0xb
 2888 012c 3B       		.uleb128 0x3b
 2889 012d 0B       		.uleb128 0xb
 2890 012e 49       		.uleb128 0x49
 2891 012f 13       		.uleb128 0x13
 2892 0130 00       		.byte	0x0
 2893 0131 00       		.byte	0x0
ARM GAS  /tmp/ccVbFWdL.s 			page 52


 2894 0132 19       		.uleb128 0x19
 2895 0133 2E       		.uleb128 0x2e
 2896 0134 01       		.byte	0x1
 2897 0135 03       		.uleb128 0x3
 2898 0136 0E       		.uleb128 0xe
 2899 0137 3A       		.uleb128 0x3a
 2900 0138 0B       		.uleb128 0xb
 2901 0139 3B       		.uleb128 0x3b
 2902 013a 0B       		.uleb128 0xb
 2903 013b 27       		.uleb128 0x27
 2904 013c 0C       		.uleb128 0xc
 2905 013d 20       		.uleb128 0x20
 2906 013e 0B       		.uleb128 0xb
 2907 013f 01       		.uleb128 0x1
 2908 0140 13       		.uleb128 0x13
 2909 0141 00       		.byte	0x0
 2910 0142 00       		.byte	0x0
 2911 0143 1A       		.uleb128 0x1a
 2912 0144 2E       		.uleb128 0x2e
 2913 0145 01       		.byte	0x1
 2914 0146 31       		.uleb128 0x31
 2915 0147 13       		.uleb128 0x13
 2916 0148 11       		.uleb128 0x11
 2917 0149 01       		.uleb128 0x1
 2918 014a 12       		.uleb128 0x12
 2919 014b 01       		.uleb128 0x1
 2920 014c 40       		.uleb128 0x40
 2921 014d 06       		.uleb128 0x6
 2922 014e 01       		.uleb128 0x1
 2923 014f 13       		.uleb128 0x13
 2924 0150 00       		.byte	0x0
 2925 0151 00       		.byte	0x0
 2926 0152 1B       		.uleb128 0x1b
 2927 0153 05       		.uleb128 0x5
 2928 0154 00       		.byte	0x0
 2929 0155 31       		.uleb128 0x31
 2930 0156 13       		.uleb128 0x13
 2931 0157 02       		.uleb128 0x2
 2932 0158 0A       		.uleb128 0xa
 2933 0159 00       		.byte	0x0
 2934 015a 00       		.byte	0x0
 2935 015b 1C       		.uleb128 0x1c
 2936 015c 2E       		.uleb128 0x2e
 2937 015d 01       		.byte	0x1
 2938 015e 3F       		.uleb128 0x3f
 2939 015f 0C       		.uleb128 0xc
 2940 0160 03       		.uleb128 0x3
 2941 0161 0E       		.uleb128 0xe
 2942 0162 3A       		.uleb128 0x3a
 2943 0163 0B       		.uleb128 0xb
 2944 0164 3B       		.uleb128 0x3b
 2945 0165 0B       		.uleb128 0xb
 2946 0166 27       		.uleb128 0x27
 2947 0167 0C       		.uleb128 0xc
 2948 0168 49       		.uleb128 0x49
 2949 0169 13       		.uleb128 0x13
 2950 016a 11       		.uleb128 0x11
ARM GAS  /tmp/ccVbFWdL.s 			page 53


 2951 016b 01       		.uleb128 0x1
 2952 016c 12       		.uleb128 0x12
 2953 016d 01       		.uleb128 0x1
 2954 016e 40       		.uleb128 0x40
 2955 016f 06       		.uleb128 0x6
 2956 0170 01       		.uleb128 0x1
 2957 0171 13       		.uleb128 0x13
 2958 0172 00       		.byte	0x0
 2959 0173 00       		.byte	0x0
 2960 0174 1D       		.uleb128 0x1d
 2961 0175 05       		.uleb128 0x5
 2962 0176 00       		.byte	0x0
 2963 0177 03       		.uleb128 0x3
 2964 0178 08       		.uleb128 0x8
 2965 0179 3A       		.uleb128 0x3a
 2966 017a 0B       		.uleb128 0xb
 2967 017b 3B       		.uleb128 0x3b
 2968 017c 0B       		.uleb128 0xb
 2969 017d 49       		.uleb128 0x49
 2970 017e 13       		.uleb128 0x13
 2971 017f 02       		.uleb128 0x2
 2972 0180 0A       		.uleb128 0xa
 2973 0181 00       		.byte	0x0
 2974 0182 00       		.byte	0x0
 2975 0183 1E       		.uleb128 0x1e
 2976 0184 05       		.uleb128 0x5
 2977 0185 00       		.byte	0x0
 2978 0186 03       		.uleb128 0x3
 2979 0187 0E       		.uleb128 0xe
 2980 0188 3A       		.uleb128 0x3a
 2981 0189 0B       		.uleb128 0xb
 2982 018a 3B       		.uleb128 0x3b
 2983 018b 0B       		.uleb128 0xb
 2984 018c 49       		.uleb128 0x49
 2985 018d 13       		.uleb128 0x13
 2986 018e 02       		.uleb128 0x2
 2987 018f 06       		.uleb128 0x6
 2988 0190 00       		.byte	0x0
 2989 0191 00       		.byte	0x0
 2990 0192 1F       		.uleb128 0x1f
 2991 0193 05       		.uleb128 0x5
 2992 0194 00       		.byte	0x0
 2993 0195 03       		.uleb128 0x3
 2994 0196 0E       		.uleb128 0xe
 2995 0197 3A       		.uleb128 0x3a
 2996 0198 0B       		.uleb128 0xb
 2997 0199 3B       		.uleb128 0x3b
 2998 019a 0B       		.uleb128 0xb
 2999 019b 49       		.uleb128 0x49
 3000 019c 13       		.uleb128 0x13
 3001 019d 02       		.uleb128 0x2
 3002 019e 0A       		.uleb128 0xa
 3003 019f 00       		.byte	0x0
 3004 01a0 00       		.byte	0x0
 3005 01a1 20       		.uleb128 0x20
 3006 01a2 05       		.uleb128 0x5
 3007 01a3 00       		.byte	0x0
ARM GAS  /tmp/ccVbFWdL.s 			page 54


 3008 01a4 03       		.uleb128 0x3
 3009 01a5 08       		.uleb128 0x8
 3010 01a6 3A       		.uleb128 0x3a
 3011 01a7 0B       		.uleb128 0xb
 3012 01a8 3B       		.uleb128 0x3b
 3013 01a9 0B       		.uleb128 0xb
 3014 01aa 49       		.uleb128 0x49
 3015 01ab 13       		.uleb128 0x13
 3016 01ac 02       		.uleb128 0x2
 3017 01ad 06       		.uleb128 0x6
 3018 01ae 00       		.byte	0x0
 3019 01af 00       		.byte	0x0
 3020 01b0 21       		.uleb128 0x21
 3021 01b1 34       		.uleb128 0x34
 3022 01b2 00       		.byte	0x0
 3023 01b3 03       		.uleb128 0x3
 3024 01b4 08       		.uleb128 0x8
 3025 01b5 3A       		.uleb128 0x3a
 3026 01b6 0B       		.uleb128 0xb
 3027 01b7 3B       		.uleb128 0x3b
 3028 01b8 0B       		.uleb128 0xb
 3029 01b9 49       		.uleb128 0x49
 3030 01ba 13       		.uleb128 0x13
 3031 01bb 02       		.uleb128 0x2
 3032 01bc 0A       		.uleb128 0xa
 3033 01bd 00       		.byte	0x0
 3034 01be 00       		.byte	0x0
 3035 01bf 22       		.uleb128 0x22
 3036 01c0 1D       		.uleb128 0x1d
 3037 01c1 01       		.byte	0x1
 3038 01c2 31       		.uleb128 0x31
 3039 01c3 13       		.uleb128 0x13
 3040 01c4 11       		.uleb128 0x11
 3041 01c5 01       		.uleb128 0x1
 3042 01c6 12       		.uleb128 0x12
 3043 01c7 01       		.uleb128 0x1
 3044 01c8 58       		.uleb128 0x58
 3045 01c9 0B       		.uleb128 0xb
 3046 01ca 59       		.uleb128 0x59
 3047 01cb 0B       		.uleb128 0xb
 3048 01cc 00       		.byte	0x0
 3049 01cd 00       		.byte	0x0
 3050 01ce 23       		.uleb128 0x23
 3051 01cf 34       		.uleb128 0x34
 3052 01d0 00       		.byte	0x0
 3053 01d1 03       		.uleb128 0x3
 3054 01d2 08       		.uleb128 0x8
 3055 01d3 3A       		.uleb128 0x3a
 3056 01d4 0B       		.uleb128 0xb
 3057 01d5 3B       		.uleb128 0x3b
 3058 01d6 0B       		.uleb128 0xb
 3059 01d7 49       		.uleb128 0x49
 3060 01d8 13       		.uleb128 0x13
 3061 01d9 02       		.uleb128 0x2
 3062 01da 06       		.uleb128 0x6
 3063 01db 00       		.byte	0x0
 3064 01dc 00       		.byte	0x0
ARM GAS  /tmp/ccVbFWdL.s 			page 55


 3065 01dd 24       		.uleb128 0x24
 3066 01de 0B       		.uleb128 0xb
 3067 01df 01       		.byte	0x1
 3068 01e0 11       		.uleb128 0x11
 3069 01e1 01       		.uleb128 0x1
 3070 01e2 12       		.uleb128 0x12
 3071 01e3 01       		.uleb128 0x1
 3072 01e4 01       		.uleb128 0x1
 3073 01e5 13       		.uleb128 0x13
 3074 01e6 00       		.byte	0x0
 3075 01e7 00       		.byte	0x0
 3076 01e8 25       		.uleb128 0x25
 3077 01e9 0B       		.uleb128 0xb
 3078 01ea 01       		.byte	0x1
 3079 01eb 11       		.uleb128 0x11
 3080 01ec 01       		.uleb128 0x1
 3081 01ed 12       		.uleb128 0x12
 3082 01ee 01       		.uleb128 0x1
 3083 01ef 00       		.byte	0x0
 3084 01f0 00       		.byte	0x0
 3085 01f1 26       		.uleb128 0x26
 3086 01f2 34       		.uleb128 0x34
 3087 01f3 00       		.byte	0x0
 3088 01f4 03       		.uleb128 0x3
 3089 01f5 0E       		.uleb128 0xe
 3090 01f6 3A       		.uleb128 0x3a
 3091 01f7 0B       		.uleb128 0xb
 3092 01f8 3B       		.uleb128 0x3b
 3093 01f9 0B       		.uleb128 0xb
 3094 01fa 49       		.uleb128 0x49
 3095 01fb 13       		.uleb128 0x13
 3096 01fc 02       		.uleb128 0x2
 3097 01fd 0A       		.uleb128 0xa
 3098 01fe 00       		.byte	0x0
 3099 01ff 00       		.byte	0x0
 3100 0200 27       		.uleb128 0x27
 3101 0201 0B       		.uleb128 0xb
 3102 0202 01       		.byte	0x1
 3103 0203 55       		.uleb128 0x55
 3104 0204 06       		.uleb128 0x6
 3105 0205 01       		.uleb128 0x1
 3106 0206 13       		.uleb128 0x13
 3107 0207 00       		.byte	0x0
 3108 0208 00       		.byte	0x0
 3109 0209 28       		.uleb128 0x28
 3110 020a 2E       		.uleb128 0x2e
 3111 020b 01       		.byte	0x1
 3112 020c 3F       		.uleb128 0x3f
 3113 020d 0C       		.uleb128 0xc
 3114 020e 03       		.uleb128 0x3
 3115 020f 0E       		.uleb128 0xe
 3116 0210 3A       		.uleb128 0x3a
 3117 0211 0B       		.uleb128 0xb
 3118 0212 3B       		.uleb128 0x3b
 3119 0213 05       		.uleb128 0x5
 3120 0214 27       		.uleb128 0x27
 3121 0215 0C       		.uleb128 0xc
ARM GAS  /tmp/ccVbFWdL.s 			page 56


 3122 0216 11       		.uleb128 0x11
 3123 0217 01       		.uleb128 0x1
 3124 0218 12       		.uleb128 0x12
 3125 0219 01       		.uleb128 0x1
 3126 021a 40       		.uleb128 0x40
 3127 021b 0A       		.uleb128 0xa
 3128 021c 01       		.uleb128 0x1
 3129 021d 13       		.uleb128 0x13
 3130 021e 00       		.byte	0x0
 3131 021f 00       		.byte	0x0
 3132 0220 29       		.uleb128 0x29
 3133 0221 05       		.uleb128 0x5
 3134 0222 00       		.byte	0x0
 3135 0223 03       		.uleb128 0x3
 3136 0224 08       		.uleb128 0x8
 3137 0225 3A       		.uleb128 0x3a
 3138 0226 0B       		.uleb128 0xb
 3139 0227 3B       		.uleb128 0x3b
 3140 0228 05       		.uleb128 0x5
 3141 0229 49       		.uleb128 0x49
 3142 022a 13       		.uleb128 0x13
 3143 022b 02       		.uleb128 0x2
 3144 022c 0A       		.uleb128 0xa
 3145 022d 00       		.byte	0x0
 3146 022e 00       		.byte	0x0
 3147 022f 2A       		.uleb128 0x2a
 3148 0230 34       		.uleb128 0x34
 3149 0231 00       		.byte	0x0
 3150 0232 03       		.uleb128 0x3
 3151 0233 08       		.uleb128 0x8
 3152 0234 3A       		.uleb128 0x3a
 3153 0235 0B       		.uleb128 0xb
 3154 0236 3B       		.uleb128 0x3b
 3155 0237 05       		.uleb128 0x5
 3156 0238 49       		.uleb128 0x49
 3157 0239 13       		.uleb128 0x13
 3158 023a 02       		.uleb128 0x2
 3159 023b 06       		.uleb128 0x6
 3160 023c 00       		.byte	0x0
 3161 023d 00       		.byte	0x0
 3162 023e 2B       		.uleb128 0x2b
 3163 023f 2E       		.uleb128 0x2e
 3164 0240 01       		.byte	0x1
 3165 0241 3F       		.uleb128 0x3f
 3166 0242 0C       		.uleb128 0xc
 3167 0243 03       		.uleb128 0x3
 3168 0244 0E       		.uleb128 0xe
 3169 0245 3A       		.uleb128 0x3a
 3170 0246 0B       		.uleb128 0xb
 3171 0247 3B       		.uleb128 0x3b
 3172 0248 05       		.uleb128 0x5
 3173 0249 27       		.uleb128 0x27
 3174 024a 0C       		.uleb128 0xc
 3175 024b 11       		.uleb128 0x11
 3176 024c 01       		.uleb128 0x1
 3177 024d 12       		.uleb128 0x12
 3178 024e 01       		.uleb128 0x1
ARM GAS  /tmp/ccVbFWdL.s 			page 57


 3179 024f 40       		.uleb128 0x40
 3180 0250 06       		.uleb128 0x6
 3181 0251 01       		.uleb128 0x1
 3182 0252 13       		.uleb128 0x13
 3183 0253 00       		.byte	0x0
 3184 0254 00       		.byte	0x0
 3185 0255 2C       		.uleb128 0x2c
 3186 0256 05       		.uleb128 0x5
 3187 0257 00       		.byte	0x0
 3188 0258 03       		.uleb128 0x3
 3189 0259 0E       		.uleb128 0xe
 3190 025a 3A       		.uleb128 0x3a
 3191 025b 0B       		.uleb128 0xb
 3192 025c 3B       		.uleb128 0x3b
 3193 025d 05       		.uleb128 0x5
 3194 025e 49       		.uleb128 0x49
 3195 025f 13       		.uleb128 0x13
 3196 0260 02       		.uleb128 0x2
 3197 0261 06       		.uleb128 0x6
 3198 0262 00       		.byte	0x0
 3199 0263 00       		.byte	0x0
 3200 0264 2D       		.uleb128 0x2d
 3201 0265 05       		.uleb128 0x5
 3202 0266 00       		.byte	0x0
 3203 0267 03       		.uleb128 0x3
 3204 0268 08       		.uleb128 0x8
 3205 0269 3A       		.uleb128 0x3a
 3206 026a 0B       		.uleb128 0xb
 3207 026b 3B       		.uleb128 0x3b
 3208 026c 05       		.uleb128 0x5
 3209 026d 49       		.uleb128 0x49
 3210 026e 13       		.uleb128 0x13
 3211 026f 02       		.uleb128 0x2
 3212 0270 06       		.uleb128 0x6
 3213 0271 00       		.byte	0x0
 3214 0272 00       		.byte	0x0
 3215 0273 2E       		.uleb128 0x2e
 3216 0274 1D       		.uleb128 0x1d
 3217 0275 01       		.byte	0x1
 3218 0276 31       		.uleb128 0x31
 3219 0277 13       		.uleb128 0x13
 3220 0278 11       		.uleb128 0x11
 3221 0279 01       		.uleb128 0x1
 3222 027a 12       		.uleb128 0x12
 3223 027b 01       		.uleb128 0x1
 3224 027c 58       		.uleb128 0x58
 3225 027d 0B       		.uleb128 0xb
 3226 027e 59       		.uleb128 0x59
 3227 027f 05       		.uleb128 0x5
 3228 0280 00       		.byte	0x0
 3229 0281 00       		.byte	0x0
 3230 0282 2F       		.uleb128 0x2f
 3231 0283 05       		.uleb128 0x5
 3232 0284 00       		.byte	0x0
 3233 0285 31       		.uleb128 0x31
 3234 0286 13       		.uleb128 0x13
 3235 0287 02       		.uleb128 0x2
ARM GAS  /tmp/ccVbFWdL.s 			page 58


 3236 0288 06       		.uleb128 0x6
 3237 0289 00       		.byte	0x0
 3238 028a 00       		.byte	0x0
 3239 028b 30       		.uleb128 0x30
 3240 028c 34       		.uleb128 0x34
 3241 028d 00       		.byte	0x0
 3242 028e 31       		.uleb128 0x31
 3243 028f 13       		.uleb128 0x13
 3244 0290 02       		.uleb128 0x2
 3245 0291 06       		.uleb128 0x6
 3246 0292 00       		.byte	0x0
 3247 0293 00       		.byte	0x0
 3248 0294 31       		.uleb128 0x31
 3249 0295 2E       		.uleb128 0x2e
 3250 0296 01       		.byte	0x1
 3251 0297 3F       		.uleb128 0x3f
 3252 0298 0C       		.uleb128 0xc
 3253 0299 03       		.uleb128 0x3
 3254 029a 0E       		.uleb128 0xe
 3255 029b 3A       		.uleb128 0x3a
 3256 029c 0B       		.uleb128 0xb
 3257 029d 3B       		.uleb128 0x3b
 3258 029e 05       		.uleb128 0x5
 3259 029f 27       		.uleb128 0x27
 3260 02a0 0C       		.uleb128 0xc
 3261 02a1 49       		.uleb128 0x49
 3262 02a2 13       		.uleb128 0x13
 3263 02a3 11       		.uleb128 0x11
 3264 02a4 01       		.uleb128 0x1
 3265 02a5 12       		.uleb128 0x12
 3266 02a6 01       		.uleb128 0x1
 3267 02a7 40       		.uleb128 0x40
 3268 02a8 06       		.uleb128 0x6
 3269 02a9 01       		.uleb128 0x1
 3270 02aa 13       		.uleb128 0x13
 3271 02ab 00       		.byte	0x0
 3272 02ac 00       		.byte	0x0
 3273 02ad 32       		.uleb128 0x32
 3274 02ae 1D       		.uleb128 0x1d
 3275 02af 01       		.byte	0x1
 3276 02b0 31       		.uleb128 0x31
 3277 02b1 13       		.uleb128 0x13
 3278 02b2 52       		.uleb128 0x52
 3279 02b3 01       		.uleb128 0x1
 3280 02b4 55       		.uleb128 0x55
 3281 02b5 06       		.uleb128 0x6
 3282 02b6 58       		.uleb128 0x58
 3283 02b7 0B       		.uleb128 0xb
 3284 02b8 59       		.uleb128 0x59
 3285 02b9 05       		.uleb128 0x5
 3286 02ba 01       		.uleb128 0x1
 3287 02bb 13       		.uleb128 0x13
 3288 02bc 00       		.byte	0x0
 3289 02bd 00       		.byte	0x0
 3290 02be 33       		.uleb128 0x33
 3291 02bf 34       		.uleb128 0x34
 3292 02c0 00       		.byte	0x0
ARM GAS  /tmp/ccVbFWdL.s 			page 59


 3293 02c1 03       		.uleb128 0x3
 3294 02c2 0E       		.uleb128 0xe
 3295 02c3 3A       		.uleb128 0x3a
 3296 02c4 0B       		.uleb128 0xb
 3297 02c5 3B       		.uleb128 0x3b
 3298 02c6 0B       		.uleb128 0xb
 3299 02c7 49       		.uleb128 0x49
 3300 02c8 13       		.uleb128 0x13
 3301 02c9 3F       		.uleb128 0x3f
 3302 02ca 0C       		.uleb128 0xc
 3303 02cb 3C       		.uleb128 0x3c
 3304 02cc 0C       		.uleb128 0xc
 3305 02cd 00       		.byte	0x0
 3306 02ce 00       		.byte	0x0
 3307 02cf 00       		.byte	0x0
 3308              		.section	.debug_pubnames,"",%progbits
 3309 0000 DB000000 		.4byte	0xdb
 3310 0004 0200     		.2byte	0x2
 3311 0006 00000000 		.4byte	.Ldebug_info0
 3312 000a BD0A0000 		.4byte	0xabd
 3313 000e A0050000 		.4byte	0x5a0
 3314 0012 5F746872 		.ascii	"_thread_init\000"
 3314      6561645F 
 3314      696E6974 
 3314      00
 3315 001f C4050000 		.4byte	0x5c4
 3316 0023 63685468 		.ascii	"chThdCreateI\000"
 3316      64437265 
 3316      61746549 
 3316      00
 3317 0030 51060000 		.4byte	0x651
 3318 0034 63685468 		.ascii	"chThdCreateStatic\000"
 3318      64437265 
 3318      61746553 
 3318      74617469 
 3318      6300
 3319 0046 FC060000 		.4byte	0x6fc
 3320 004a 63685468 		.ascii	"chThdSetPriority\000"
 3320      64536574 
 3320      5072696F 
 3320      72697479 
 3320      00
 3321 005b 6C070000 		.4byte	0x76c
 3322 005f 63685468 		.ascii	"chThdResume\000"
 3322      64526573 
 3322      756D6500 
 3323 006b CA070000 		.4byte	0x7ca
 3324 006f 63685468 		.ascii	"chThdTerminate\000"
 3324      64546572 
 3324      6D696E61 
 3324      746500
 3325 007e 29080000 		.4byte	0x829
 3326 0082 63685468 		.ascii	"chThdSleep\000"
 3326      64536C65 
 3326      657000
 3327 008d 8C080000 		.4byte	0x88c
 3328 0091 63685468 		.ascii	"chThdSleepUntil\000"
ARM GAS  /tmp/ccVbFWdL.s 			page 60


 3328      64536C65 
 3328      6570556E 
 3328      74696C00 
 3329 00a1 EF080000 		.4byte	0x8ef
 3330 00a5 63685468 		.ascii	"chThdYield\000"
 3330      64596965 
 3330      6C6400
 3331 00b0 42090000 		.4byte	0x942
 3332 00b4 63685468 		.ascii	"chThdExitS\000"
 3332      64457869 
 3332      745300
 3333 00bf A9090000 		.4byte	0x9a9
 3334 00c3 63685468 		.ascii	"chThdExit\000"
 3334      64457869 
 3334      7400
 3335 00cd EB090000 		.4byte	0x9eb
 3336 00d1 63685468 		.ascii	"chThdWait\000"
 3336      64576169 
 3336      7400
 3337 00db 00000000 		.4byte	0x0
 3338              		.section	.debug_pubtypes,"",%progbits
 3339 0000 64010000 		.4byte	0x164
 3340 0004 0200     		.2byte	0x2
 3341 0006 00000000 		.4byte	.Ldebug_info0
 3342 000a BD0A0000 		.4byte	0xabd
 3343 000e 30000000 		.4byte	0x30
 3344 0012 73697A65 		.ascii	"size_t\000"
 3344      5F7400
 3345 0019 49000000 		.4byte	0x49
 3346 001d 75696E74 		.ascii	"uint8_t\000"
 3346      385F7400 
 3347 0025 69000000 		.4byte	0x69
 3348 0029 696E7433 		.ascii	"int32_t\000"
 3348      325F7400 
 3349 0031 7B000000 		.4byte	0x7b
 3350 0035 75696E74 		.ascii	"uint32_t\000"
 3350      33325F74 
 3350      00
 3351 003e 9B000000 		.4byte	0x9b
 3352 0042 746D6F64 		.ascii	"tmode_t\000"
 3352      655F7400 
 3353 004a A6000000 		.4byte	0xa6
 3354 004e 74737461 		.ascii	"tstate_t\000"
 3354      74655F74 
 3354      00
 3355 0057 B1000000 		.4byte	0xb1
 3356 005b 74726566 		.ascii	"trefs_t\000"
 3356      735F7400 
 3357 0063 BC000000 		.4byte	0xbc
 3358 0067 74707269 		.ascii	"tprio_t\000"
 3358      6F5F7400 
 3359 006f C7000000 		.4byte	0xc7
 3360 0073 6D73675F 		.ascii	"msg_t\000"
 3360      7400
 3361 0079 D2000000 		.4byte	0xd2
 3362 007d 6576656E 		.ascii	"eventmask_t\000"
 3362      746D6173 
ARM GAS  /tmp/ccVbFWdL.s 			page 61


 3362      6B5F7400 
 3363 0089 DD000000 		.4byte	0xdd
 3364 008d 73797374 		.ascii	"systime_t\000"
 3364      696D655F 
 3364      7400
 3365 0097 E8000000 		.4byte	0xe8
 3366 009b 636E745F 		.ascii	"cnt_t\000"
 3366      7400
 3367 00a1 F3000000 		.4byte	0xf3
 3368 00a5 54687265 		.ascii	"Thread\000"
 3368      616400
 3369 00ac 40020000 		.4byte	0x240
 3370 00b0 54687265 		.ascii	"ThreadsQueue\000"
 3370      61647351 
 3370      75657565 
 3370      00
 3371 00bd 62020000 		.4byte	0x262
 3372 00c1 54687265 		.ascii	"ThreadsList\000"
 3372      6164734C 
 3372      69737400 
 3373 00cd 6D020000 		.4byte	0x26d
 3374 00d1 72656761 		.ascii	"regarm_t\000"
 3374      726D5F74 
 3374      00
 3375 00da 7A020000 		.4byte	0x27a
 3376 00de 696E7463 		.ascii	"intctx\000"
 3376      747800
 3377 00e5 07030000 		.4byte	0x307
 3378 00e9 636F6E74 		.ascii	"context\000"
 3378      65787400 
 3379 00f1 2A030000 		.4byte	0x32a
 3380 00f5 76746675 		.ascii	"vtfunc_t\000"
 3380      6E635F74 
 3380      00
 3381 00fe 47030000 		.4byte	0x347
 3382 0102 56697274 		.ascii	"VirtualTimer\000"
 3382      75616C54 
 3382      696D6572 
 3382      00
 3383 010f 52030000 		.4byte	0x352
 3384 0113 56697274 		.ascii	"VirtualTimer\000"
 3384      75616C54 
 3384      696D6572 
 3384      00
 3385 0120 F1030000 		.4byte	0x3f1
 3386 0124 56544C69 		.ascii	"VTList\000"
 3386      737400
 3387 012b 67040000 		.4byte	0x467
 3388 012f 52656164 		.ascii	"ReadyList\000"
 3388      794C6973 
 3388      7400
 3389 0139 72040000 		.4byte	0x472
 3390 013d 4D757465 		.ascii	"Mutex\000"
 3390      7800
 3391 0143 AF040000 		.4byte	0x4af
 3392 0147 4D757465 		.ascii	"Mutex\000"
 3392      7800
ARM GAS  /tmp/ccVbFWdL.s 			page 62


 3393 014d FE000000 		.4byte	0xfe
 3394 0151 54687265 		.ascii	"Thread\000"
 3394      616400
 3395 0158 07050000 		.4byte	0x507
 3396 015c 7466756E 		.ascii	"tfunc_t\000"
 3396      635F7400 
 3397 0164 00000000 		.4byte	0x0
 3398              		.section	.debug_aranges,"",%progbits
 3399 0000 74000000 		.4byte	0x74
 3400 0004 0200     		.2byte	0x2
 3401 0006 00000000 		.4byte	.Ldebug_info0
 3402 000a 04       		.byte	0x4
 3403 000b 00       		.byte	0x0
 3404 000c 0000     		.2byte	0x0
 3405 000e 0000     		.2byte	0x0
 3406 0010 00000000 		.4byte	.LFB7
 3407 0014 3C000000 		.4byte	.LFE7-.LFB7
 3408 0018 00000000 		.4byte	.LFB8
 3409 001c 50000000 		.4byte	.LFE8-.LFB8
 3410 0020 00000000 		.4byte	.LFB9
 3411 0024 2A000000 		.4byte	.LFE9-.LFB9
 3412 0028 00000000 		.4byte	.LFB10
 3413 002c 30000000 		.4byte	.LFE10-.LFB10
 3414 0030 00000000 		.4byte	.LFB11
 3415 0034 1A000000 		.4byte	.LFE11-.LFB11
 3416 0038 00000000 		.4byte	.LFB12
 3417 003c 16000000 		.4byte	.LFE12-.LFB12
 3418 0040 00000000 		.4byte	.LFB13
 3419 0044 18000000 		.4byte	.LFE13-.LFB13
 3420 0048 00000000 		.4byte	.LFB14
 3421 004c 24000000 		.4byte	.LFE14-.LFB14
 3422 0050 00000000 		.4byte	.LFB15
 3423 0054 28000000 		.4byte	.LFE15-.LFB15
 3424 0058 00000000 		.4byte	.LFB17
 3425 005c 40000000 		.4byte	.LFE17-.LFB17
 3426 0060 00000000 		.4byte	.LFB16
 3427 0064 0A000000 		.4byte	.LFE16-.LFB16
 3428 0068 00000000 		.4byte	.LFB18
 3429 006c 38000000 		.4byte	.LFE18-.LFB18
 3430 0070 00000000 		.4byte	0x0
 3431 0074 00000000 		.4byte	0x0
 3432              		.section	.debug_ranges,"",%progbits
 3433              	.Ldebug_ranges0:
 3434 0000 02000000 		.4byte	.LBB16
 3435 0004 04000000 		.4byte	.LBE16
 3436 0008 06000000 		.4byte	.LBB17
 3437 000c 0A000000 		.4byte	.LBE17
 3438 0010 00000000 		.4byte	0x0
 3439 0014 00000000 		.4byte	0x0
 3440 0018 10000000 		.4byte	.LBB31
 3441 001c 12000000 		.4byte	.LBE31
 3442 0020 18000000 		.4byte	.LBB34
 3443 0024 1C000000 		.4byte	.LBE34
 3444 0028 00000000 		.4byte	0x0
 3445 002c 00000000 		.4byte	0x0
 3446 0030 00000000 		.4byte	.LFB7
 3447 0034 3C000000 		.4byte	.LFE7
ARM GAS  /tmp/ccVbFWdL.s 			page 63


 3448 0038 00000000 		.4byte	.LFB8
 3449 003c 50000000 		.4byte	.LFE8
 3450 0040 00000000 		.4byte	.LFB9
 3451 0044 2A000000 		.4byte	.LFE9
 3452 0048 00000000 		.4byte	.LFB10
 3453 004c 30000000 		.4byte	.LFE10
 3454 0050 00000000 		.4byte	.LFB11
 3455 0054 1A000000 		.4byte	.LFE11
 3456 0058 00000000 		.4byte	.LFB12
 3457 005c 16000000 		.4byte	.LFE12
 3458 0060 00000000 		.4byte	.LFB13
 3459 0064 18000000 		.4byte	.LFE13
 3460 0068 00000000 		.4byte	.LFB14
 3461 006c 24000000 		.4byte	.LFE14
 3462 0070 00000000 		.4byte	.LFB15
 3463 0074 28000000 		.4byte	.LFE15
 3464 0078 00000000 		.4byte	.LFB17
 3465 007c 40000000 		.4byte	.LFE17
 3466 0080 00000000 		.4byte	.LFB16
 3467 0084 0A000000 		.4byte	.LFE16
 3468 0088 00000000 		.4byte	.LFB18
 3469 008c 38000000 		.4byte	.LFE18
 3470 0090 00000000 		.4byte	0x0
 3471 0094 00000000 		.4byte	0x0
 3472              		.section	.debug_str,"MS",%progbits,1
 3473              	.LASF71:
 3474 0000 7466756E 		.ascii	"tfunc_t\000"
 3474      635F7400 
 3475              	.LASF35:
 3476 0008 705F6D73 		.ascii	"p_msg\000"
 3476      6700
 3477              	.LASF91:
 3478 000e 2E2E2F6C 		.ascii	"../libs/ChibiOS_2.4.0/os/kernel/src/chthreads.c\000"
 3478      6962732F 
 3478      43686962 
 3478      694F535F 
 3478      322E342E 
 3479              	.LASF2:
 3480 003e 73697A65 		.ascii	"size_t\000"
 3480      5F7400
 3481              	.LASF72:
 3482 0045 7072696F 		.ascii	"prio\000"
 3482      00
 3483              	.LASF66:
 3484 004a 7264796D 		.ascii	"rdymsg\000"
 3484      736700
 3485              	.LASF88:
 3486 0051 76746C69 		.ascii	"vtlist\000"
 3486      737400
 3487              	.LASF85:
 3488 0058 63685468 		.ascii	"chThdExitS\000"
 3488      64457869 
 3488      745300
 3489              	.LASF12:
 3490 0063 6C6F6E67 		.ascii	"long long unsigned int\000"
 3490      206C6F6E 
 3490      6720756E 
ARM GAS  /tmp/ccVbFWdL.s 			page 64


 3490      7369676E 
 3490      65642069 
 3491              	.LASF67:
 3492 007a 65786974 		.ascii	"exitcode\000"
 3492      636F6465 
 3492      00
 3493              	.LASF24:
 3494 0083 705F7072 		.ascii	"p_prio\000"
 3494      696F00
 3495              	.LASF11:
 3496 008a 6C6F6E67 		.ascii	"long long int\000"
 3496      206C6F6E 
 3496      6720696E 
 3496      7400
 3497              	.LASF1:
 3498 0098 7369676E 		.ascii	"signed char\000"
 3498      65642063 
 3498      68617200 
 3499              	.LASF92:
 3500 00a4 2F686F6D 		.ascii	"/home/stm32/Workspace/demoarm\000"
 3500      652F7374 
 3500      6D33322F 
 3500      576F726B 
 3500      73706163 
 3501              	.LASF86:
 3502 00c2 63685468 		.ascii	"chThdExit\000"
 3502      64457869 
 3502      7400
 3503              	.LASF39:
 3504 00cc 705F6D70 		.ascii	"p_mpool\000"
 3504      6F6F6C00 
 3505              	.LASF63:
 3506 00d4 6D5F7175 		.ascii	"m_queue\000"
 3506      65756500 
 3507              	.LASF74:
 3508 00dc 63685468 		.ascii	"chThdCreateI\000"
 3508      64437265 
 3508      61746549 
 3508      00
 3509              	.LASF8:
 3510 00e9 6C6F6E67 		.ascii	"long int\000"
 3510      20696E74 
 3510      00
 3511              	.LASF14:
 3512 00f2 74737461 		.ascii	"tstate_t\000"
 3512      74655F74 
 3512      00
 3513              	.LASF26:
 3514 00fb 705F6E65 		.ascii	"p_newer\000"
 3514      77657200 
 3515              	.LASF94:
 3516 0103 6C697374 		.ascii	"list_remove\000"
 3516      5F72656D 
 3516      6F766500 
 3517              	.LASF57:
 3518 010f 725F6E65 		.ascii	"r_newer\000"
 3518      77657200 
ARM GAS  /tmp/ccVbFWdL.s 			page 65


 3519              	.LASF42:
 3520 0117 72656761 		.ascii	"regarm_t\000"
 3520      726D5F74 
 3520      00
 3521              	.LASF48:
 3522 0120 76745F70 		.ascii	"vt_prev\000"
 3522      72657600 
 3523              	.LASF76:
 3524 0128 63685468 		.ascii	"chThdSetPriority\000"
 3524      64536574 
 3524      5072696F 
 3524      72697479 
 3524      00
 3525              	.LASF20:
 3526 0139 636E745F 		.ascii	"cnt_t\000"
 3526      7400
 3527              	.LASF0:
 3528 013f 756E7369 		.ascii	"unsigned int\000"
 3528      676E6564 
 3528      20696E74 
 3528      00
 3529              	.LASF47:
 3530 014c 76745F6E 		.ascii	"vt_next\000"
 3530      65787400 
 3531              	.LASF10:
 3532 0154 6C6F6E67 		.ascii	"long unsigned int\000"
 3532      20756E73 
 3532      69676E65 
 3532      6420696E 
 3532      7400
 3533              	.LASF44:
 3534 0166 636F6E74 		.ascii	"context\000"
 3534      65787400 
 3535              	.LASF73:
 3536 016e 73697A65 		.ascii	"size\000"
 3536      00
 3537              	.LASF6:
 3538 0173 73686F72 		.ascii	"short unsigned int\000"
 3538      7420756E 
 3538      7369676E 
 3538      65642069 
 3538      6E7400
 3539              	.LASF17:
 3540 0186 6D73675F 		.ascii	"msg_t\000"
 3540      7400
 3541              	.LASF77:
 3542 018c 6E657770 		.ascii	"newprio\000"
 3542      72696F00 
 3543              	.LASF13:
 3544 0194 746D6F64 		.ascii	"tmode_t\000"
 3544      655F7400 
 3545              	.LASF80:
 3546 019c 63685468 		.ascii	"chThdTerminate\000"
 3546      64546572 
 3546      6D696E61 
 3546      746500
 3547              	.LASF41:
ARM GAS  /tmp/ccVbFWdL.s 			page 66


 3548 01ab 54687265 		.ascii	"ThreadsList\000"
 3548      6164734C 
 3548      69737400 
 3549              	.LASF18:
 3550 01b7 6576656E 		.ascii	"eventmask_t\000"
 3550      746D6173 
 3550      6B5F7400 
 3551              	.LASF62:
 3552 01c3 4D757465 		.ascii	"Mutex\000"
 3552      7800
 3553              	.LASF78:
 3554 01c9 6F6C6470 		.ascii	"oldprio\000"
 3554      72696F00 
 3555              	.LASF75:
 3556 01d1 63685468 		.ascii	"chThdCreateStatic\000"
 3556      64437265 
 3556      61746553 
 3556      74617469 
 3556      6300
 3557              	.LASF49:
 3558 01e3 76745F74 		.ascii	"vt_time\000"
 3558      696D6500 
 3559              	.LASF50:
 3560 01eb 76745F66 		.ascii	"vt_func\000"
 3560      756E6300 
 3561              	.LASF79:
 3562 01f3 63685468 		.ascii	"chThdResume\000"
 3562      64526573 
 3562      756D6500 
 3563              	.LASF27:
 3564 01ff 705F6F6C 		.ascii	"p_older\000"
 3564      64657200 
 3565              	.LASF56:
 3566 0207 725F6374 		.ascii	"r_ctx\000"
 3566      7800
 3567              	.LASF40:
 3568 020d 54687265 		.ascii	"ThreadsQueue\000"
 3568      61647351 
 3568      75657565 
 3568      00
 3569              	.LASF82:
 3570 021a 74696D65 		.ascii	"time\000"
 3570      00
 3571              	.LASF95:
 3572 021f 6C697374 		.ascii	"list_insert\000"
 3572      5F696E73 
 3572      65727400 
 3573              	.LASF60:
 3574 022b 725F6375 		.ascii	"r_current\000"
 3574      7272656E 
 3574      7400
 3575              	.LASF58:
 3576 0235 725F6F6C 		.ascii	"r_older\000"
 3576      64657200 
 3577              	.LASF83:
 3578 023d 63685468 		.ascii	"chThdSleepUntil\000"
 3578      64536C65 
ARM GAS  /tmp/ccVbFWdL.s 			page 67


 3578      6570556E 
 3578      74696C00 
 3579              	.LASF15:
 3580 024d 74726566 		.ascii	"trefs_t\000"
 3580      735F7400 
 3581              	.LASF23:
 3582 0255 705F7072 		.ascii	"p_prev\000"
 3582      657600
 3583              	.LASF16:
 3584 025c 74707269 		.ascii	"tprio_t\000"
 3584      6F5F7400 
 3585              	.LASF7:
 3586 0264 696E7433 		.ascii	"int32_t\000"
 3586      325F7400 
 3587              	.LASF4:
 3588 026c 756E7369 		.ascii	"unsigned char\000"
 3588      676E6564 
 3588      20636861 
 3588      7200
 3589              	.LASF37:
 3590 027a 705F6D74 		.ascii	"p_mtxlist\000"
 3590      786C6973 
 3590      7400
 3591              	.LASF5:
 3592 0284 73686F72 		.ascii	"short int\000"
 3592      7420696E 
 3592      7400
 3593              	.LASF29:
 3594 028e 705F7374 		.ascii	"p_state\000"
 3594      61746500 
 3595              	.LASF55:
 3596 0296 725F7072 		.ascii	"r_prio\000"
 3596      696F00
 3597              	.LASF69:
 3598 029d 65776D61 		.ascii	"ewmask\000"
 3598      736B00
 3599              	.LASF22:
 3600 02a4 705F6E65 		.ascii	"p_next\000"
 3600      787400
 3601              	.LASF30:
 3602 02ab 705F666C 		.ascii	"p_flags\000"
 3602      61677300 
 3603              	.LASF21:
 3604 02b3 54687265 		.ascii	"Thread\000"
 3604      616400
 3605              	.LASF36:
 3606 02ba 705F6570 		.ascii	"p_epending\000"
 3606      656E6469 
 3606      6E6700
 3607              	.LASF9:
 3608 02c5 75696E74 		.ascii	"uint32_t\000"
 3608      33325F74 
 3608      00
 3609              	.LASF93:
 3610 02ce 5F746872 		.ascii	"_thread_init\000"
 3610      6561645F 
 3610      696E6974 
ARM GAS  /tmp/ccVbFWdL.s 			page 68


 3610      00
 3611              	.LASF54:
 3612 02db 725F7175 		.ascii	"r_queue\000"
 3612      65756500 
 3613              	.LASF46:
 3614 02e3 56697274 		.ascii	"VirtualTimer\000"
 3614      75616C54 
 3614      696D6572 
 3614      00
 3615              	.LASF70:
 3616 02f0 63686172 		.ascii	"char\000"
 3616      00
 3617              	.LASF65:
 3618 02f5 6D5F6E65 		.ascii	"m_next\000"
 3618      787400
 3619              	.LASF19:
 3620 02fc 73797374 		.ascii	"systime_t\000"
 3620      696D655F 
 3620      7400
 3621              	.LASF38:
 3622 0306 705F7265 		.ascii	"p_realprio\000"
 3622      616C7072 
 3622      696F00
 3623              	.LASF45:
 3624 0311 76746675 		.ascii	"vtfunc_t\000"
 3624      6E635F74 
 3624      00
 3625              	.LASF32:
 3626 031a 705F7469 		.ascii	"p_time\000"
 3626      6D6500
 3627              	.LASF43:
 3628 0321 696E7463 		.ascii	"intctx\000"
 3628      747800
 3629              	.LASF34:
 3630 0328 705F6D73 		.ascii	"p_msgqueue\000"
 3630      67717565 
 3630      756500
 3631              	.LASF87:
 3632 0333 63685468 		.ascii	"chThdWait\000"
 3632      64576169 
 3632      7400
 3633              	.LASF51:
 3634 033d 76745F70 		.ascii	"vt_par\000"
 3634      617200
 3635              	.LASF81:
 3636 0344 63685468 		.ascii	"chThdSleep\000"
 3636      64536C65 
 3636      657000
 3637              	.LASF31:
 3638 034f 705F7265 		.ascii	"p_refs\000"
 3638      667300
 3639              	.LASF61:
 3640 0356 52656164 		.ascii	"ReadyList\000"
 3640      794C6973 
 3640      7400
 3641              	.LASF89:
 3642 0360 726C6973 		.ascii	"rlist\000"
ARM GAS  /tmp/ccVbFWdL.s 			page 69


 3642      7400
 3643              	.LASF3:
 3644 0366 75696E74 		.ascii	"uint8_t\000"
 3644      385F7400 
 3645              	.LASF84:
 3646 036e 63685468 		.ascii	"chThdYield\000"
 3646      64596965 
 3646      6C6400
 3647              	.LASF68:
 3648 0379 77746F62 		.ascii	"wtobjp\000"
 3648      6A7000
 3649              	.LASF90:
 3650 0380 474E5520 		.ascii	"GNU C 4.5.2\000"
 3650      4320342E 
 3650      352E3200 
 3651              	.LASF28:
 3652 038c 705F6E61 		.ascii	"p_name\000"
 3652      6D6500
 3653              	.LASF52:
 3654 0393 76745F73 		.ascii	"vt_systime\000"
 3654      79737469 
 3654      6D6500
 3655              	.LASF53:
 3656 039e 56544C69 		.ascii	"VTList\000"
 3656      737400
 3657              	.LASF59:
 3658 03a5 725F7072 		.ascii	"r_preempt\000"
 3658      65656D70 
 3658      7400
 3659              	.LASF64:
 3660 03af 6D5F6F77 		.ascii	"m_owner\000"
 3660      6E657200 
 3661              	.LASF25:
 3662 03b7 705F6374 		.ascii	"p_ctx\000"
 3662      7800
 3663              	.LASF33:
 3664 03bd 705F7761 		.ascii	"p_waiting\000"
 3664      6974696E 
 3664      6700
 3665              		.ident	"GCC: (Sourcery G++ Lite 2011.03-42) 4.5.2"
ARM GAS  /tmp/ccVbFWdL.s 			page 70


DEFINED SYMBOLS
                            *ABS*:00000000 chthreads.c
     /tmp/ccVbFWdL.s:26     .text._thread_init:00000000 $t
     /tmp/ccVbFWdL.s:32     .text._thread_init:00000000 _thread_init
     /tmp/ccVbFWdL.s:98     .text._thread_init:00000038 $d
     /tmp/ccVbFWdL.s:103    .text.chThdCreateI:00000000 $t
     /tmp/ccVbFWdL.s:109    .text.chThdCreateI:00000000 chThdCreateI
     /tmp/ccVbFWdL.s:196    .text.chThdCreateI:00000048 $d
     /tmp/ccVbFWdL.s:202    .text.chThdCreateStatic:00000000 $t
     /tmp/ccVbFWdL.s:208    .text.chThdCreateStatic:00000000 chThdCreateStatic
     /tmp/ccVbFWdL.s:264    .text.chThdSetPriority:00000000 $t
     /tmp/ccVbFWdL.s:270    .text.chThdSetPriority:00000000 chThdSetPriority
     /tmp/ccVbFWdL.s:330    .text.chThdSetPriority:0000002c $d
     /tmp/ccVbFWdL.s:335    .text.chThdResume:00000000 $t
     /tmp/ccVbFWdL.s:341    .text.chThdResume:00000000 chThdResume
     /tmp/ccVbFWdL.s:389    .text.chThdTerminate:00000000 $t
     /tmp/ccVbFWdL.s:395    .text.chThdTerminate:00000000 chThdTerminate
     /tmp/ccVbFWdL.s:434    .text.chThdSleep:00000000 $t
     /tmp/ccVbFWdL.s:440    .text.chThdSleep:00000000 chThdSleep
     /tmp/ccVbFWdL.s:485    .text.chThdSleepUntil:00000000 $t
     /tmp/ccVbFWdL.s:491    .text.chThdSleepUntil:00000000 chThdSleepUntil
     /tmp/ccVbFWdL.s:541    .text.chThdSleepUntil:00000020 $d
     /tmp/ccVbFWdL.s:546    .text.chThdYield:00000000 $t
     /tmp/ccVbFWdL.s:552    .text.chThdYield:00000000 chThdYield
     /tmp/ccVbFWdL.s:600    .text.chThdYield:00000024 $d
     /tmp/ccVbFWdL.s:605    .text.chThdExitS:00000000 $t
     /tmp/ccVbFWdL.s:611    .text.chThdExitS:00000000 chThdExitS
     /tmp/ccVbFWdL.s:679    .text.chThdExitS:0000003c $d
     /tmp/ccVbFWdL.s:684    .text.chThdExit:00000000 $t
     /tmp/ccVbFWdL.s:690    .text.chThdExit:00000000 chThdExit
     /tmp/ccVbFWdL.s:715    .text.chThdWait:00000000 $t
     /tmp/ccVbFWdL.s:721    .text.chThdWait:00000000 chThdWait
     /tmp/ccVbFWdL.s:801    .text.chThdWait:00000034 $d
                     .debug_frame:00000010 $d
     /tmp/ccVbFWdL.s:102    .text._thread_init:0000003c $t
     /tmp/ccVbFWdL.s:545    .text.chThdSleepUntil:00000024 $t
     /tmp/ccVbFWdL.s:604    .text.chThdYield:00000028 $t
     /tmp/ccVbFWdL.s:805    .text.chThdWait:00000038 $t

UNDEFINED SYMBOLS
rlist
_port_thread_start
chSchWakeupS
chSchRescheduleS
chSchGoSleepTimeoutS
vtlist
chSchDoReschedule
chSchReadyI
chSchGoSleepS
chThdRelease
