ARM GAS  /tmp/ccVbFWdL.s 			page 1


   1              		.syntax unified
   2              		.cpu cortex-m4
   3              		.eabi_attribute 27, 3
   4              		.eabi_attribute 28, 1
   5              		.fpu fpv4-sp-d16
   6              		.eabi_attribute 20, 1
   7              		.eabi_attribute 21, 1
   8              		.eabi_attribute 23, 3
   9              		.eabi_attribute 24, 1
  10              		.eabi_attribute 25, 1
  11              		.eabi_attribute 26, 1
  12              		.eabi_attribute 30, 2
  13              		.eabi_attribute 18, 4
  14              		.thumb
  15              		.file	"chthreads.c"
  22 0000 6E030000 		.text
  22      0200CA01 
  22      00000201 
  22      FB0E0D00 
  22      01010101 
  23              	.Ltext0:
  24              		.cfi_sections	.debug_frame
  25              		.section	.text._thread_init,"ax",%progbits
  26              		.align	2
  27              		.p2align 4,,15
  28              		.global	_thread_init
  29              		.thumb
  30              		.thumb_func
  31              		.type	_thread_init, %function
  32              	_thread_init:
  33              	.LFB7:
  34              		.file 1 "../libs/ChibiOS_2.4.0/os/kernel/src/chthreads.c"
  35              		.loc 1 76 0
  36              		.cfi_startproc
  37              		@ args = 0, pretend = 0, frame = 0
  38              		@ frame_needed = 0, uses_anonymous_args = 0
  39              		@ link register save eliminated.
  40              	.LVL0:
  41 0000 F0B4     		push	{r4, r5, r6, r7}
  42              	.LCFI0:
  43              		.cfi_def_cfa_offset 16
  44              		.loc 1 80 0
  45 0002 0022     		movs	r2, #0
  46              		.loc 1 96 0
  47 0004 0C4C     		ldr	r4, .L2
  48              		.cfi_offset 7, -4
  49              		.cfi_offset 6, -8
  50              		.cfi_offset 5, -12
  51              		.cfi_offset 4, -16
  52              		.loc 1 80 0
  53 0006 4277     		strb	r2, [r0, #29]
ARM GAS  /tmp/ccVbFWdL.s 			page 2


  54              		.loc 1 92 0
  55 0008 0125     		movs	r5, #1
  56              		.loc 1 79 0
  57 000a 0223     		movs	r3, #2
  58 000c 0377     		strb	r3, [r0, #28]
  59              		.loc 1 92 0
  60 000e 8577     		strb	r5, [r0, #30]
  61              		.loc 1 96 0
  62 0010 6569     		ldr	r5, [r4, #20]
  63              		.loc 1 82 0
  64 0012 0164     		str	r1, [r0, #64]
  65              		.loc 1 102 0
  66 0014 00F12C06 		add	r6, r0, #44
  67              		.loc 1 99 0
  68 0018 00F12807 		add	r7, r0, #40
  69              		.loc 1 96 0
  70 001c 0461     		str	r4, [r0, #16]
  71              		.loc 1 78 0
  72 001e 8160     		str	r1, [r0, #8]
  73              		.loc 1 96 0
  74 0020 4561     		str	r5, [r0, #20]
  75              		.loc 1 83 0
  76 0022 C263     		str	r2, [r0, #60]
  77              		.loc 1 96 0
  78 0024 6061     		str	r0, [r4, #20]
  79              		.loc 1 86 0
  80 0026 8263     		str	r2, [r0, #56]
  81              		.loc 1 89 0
  82 0028 0262     		str	r2, [r0, #32]
  83              		.loc 1 95 0
  84 002a 8261     		str	r2, [r0, #24]
  85              		.loc 1 96 0
  86 002c 2861     		str	r0, [r5, #16]
  87              		.loc 1 99 0
  88 002e 8762     		str	r7, [r0, #40]
  89              		.loc 1 102 0
  90 0030 0663     		str	r6, [r0, #48]
  91 0032 C662     		str	r6, [r0, #44]
  92              		.loc 1 111 0
  93 0034 F0BC     		pop	{r4, r5, r6, r7}
  94 0036 7047     		bx	lr
  95              	.L3:
  96              		.align	2
  97              	.L2:
  98 0038 00000000 		.word	rlist
  99              		.cfi_endproc
 100              	.LFE7:
 101              		.size	_thread_init, .-_thread_init
 102 003c AFF30080 		.section	.text.chThdCreateI,"ax",%progbits
 103              		.align	2
 104              		.p2align 4,,15
 105              		.global	chThdCreateI
 106              		.thumb
 107              		.thumb_func
 108              		.type	chThdCreateI, %function
 109              	chThdCreateI:
 110              	.LFB8:
ARM GAS  /tmp/ccVbFWdL.s 			page 3


 111              		.loc 1 155 0
 112              		.cfi_startproc
 113              		@ args = 4, pretend = 0, frame = 0
 114              		@ frame_needed = 0, uses_anonymous_args = 0
 115              		@ link register save eliminated.
 116              	.LVL1:
 117              		.loc 1 164 0
 118 0000 2439     		subs	r1, r1, #36
 119              	.LVL2:
 120              		.loc 1 155 0
 121 0002 F0B4     		push	{r4, r5, r6, r7}
 122              	.LCFI1:
 123              		.cfi_def_cfa_offset 16
 124              		.loc 1 164 0
 125 0004 4718     		adds	r7, r0, r1
 126              		.cfi_offset 7, -4
 127              		.cfi_offset 6, -8
 128              		.cfi_offset 5, -12
 129              		.cfi_offset 4, -16
 130 0006 C760     		str	r7, [r0, #12]
 131 0008 4350     		str	r3, [r0, r1]
 132 000a 0499     		ldr	r1, [sp, #16]
 133              	.LVL3:
 134 000c 0E4B     		ldr	r3, .L5
 135              	.LVL4:
 136 000e 7960     		str	r1, [r7, #4]
 137 0010 3B62     		str	r3, [r7, #32]
 138              	.LVL5:
 139              	.LBB10:
 140              	.LBB11:
 141              		.loc 1 80 0
 142 0012 0025     		movs	r5, #0
 143              		.loc 1 96 0
 144 0014 0D4E     		ldr	r6, .L5+4
 145              		.loc 1 80 0
 146 0016 4577     		strb	r5, [r0, #29]
 147              		.loc 1 79 0
 148 0018 0221     		movs	r1, #2
 149              		.loc 1 92 0
 150 001a 0127     		movs	r7, #1
 151              	.LVL6:
 152              		.loc 1 79 0
 153 001c 0177     		strb	r1, [r0, #28]
 154              		.loc 1 92 0
 155 001e 8777     		strb	r7, [r0, #30]
 156              		.loc 1 96 0
 157 0020 7369     		ldr	r3, [r6, #20]
 158              		.loc 1 82 0
 159 0022 0264     		str	r2, [r0, #64]
 160              		.loc 1 102 0
 161 0024 00F12C01 		add	r1, r0, #44
 162              		.loc 1 99 0
 163 0028 00F12807 		add	r7, r0, #40
 164              		.loc 1 96 0
 165 002c 0661     		str	r6, [r0, #16]
 166              	.LVL7:
 167              		.loc 1 78 0
ARM GAS  /tmp/ccVbFWdL.s 			page 4


 168 002e 8260     		str	r2, [r0, #8]
 169              		.loc 1 96 0
 170 0030 4361     		str	r3, [r0, #20]
 171              		.loc 1 83 0
 172 0032 C563     		str	r5, [r0, #60]
 173              		.loc 1 96 0
 174 0034 7061     		str	r0, [r6, #20]
 175              		.loc 1 86 0
 176 0036 8563     		str	r5, [r0, #56]
 177              		.loc 1 89 0
 178 0038 0562     		str	r5, [r0, #32]
 179              		.loc 1 95 0
 180 003a 8561     		str	r5, [r0, #24]
 181              		.loc 1 96 0
 182 003c 1861     		str	r0, [r3, #16]
 183              		.loc 1 99 0
 184 003e 8762     		str	r7, [r0, #40]
 185              		.loc 1 102 0
 186 0040 0163     		str	r1, [r0, #48]
 187 0042 C162     		str	r1, [r0, #44]
 188              	.LBE11:
 189              	.LBE10:
 190              		.loc 1 166 0
 191 0044 F0BC     		pop	{r4, r5, r6, r7}
 192 0046 7047     		bx	lr
 193              	.L6:
 194              		.align	2
 195              	.L5:
 196 0048 00000000 		.word	_port_thread_start
 197 004c 00000000 		.word	rlist
 198              		.cfi_endproc
 199              	.LFE8:
 200              		.size	chThdCreateI, .-chThdCreateI
 201              		.section	.text.chThdCreateStatic,"ax",%progbits
 202              		.align	2
 203              		.p2align 4,,15
 204              		.global	chThdCreateStatic
 205              		.thumb
 206              		.thumb_func
 207              		.type	chThdCreateStatic, %function
 208              	chThdCreateStatic:
 209              	.LFB9:
 210              		.loc 1 185 0
 211              		.cfi_startproc
 212              		@ args = 4, pretend = 0, frame = 0
 213              		@ frame_needed = 0, uses_anonymous_args = 0
 214              	.LVL8:
 215 0000 10B5     		push	{r4, lr}
 216              	.LCFI2:
 217              		.cfi_def_cfa_offset 8
 218 0002 9C46     		mov	ip, r3
 219 0004 82B0     		sub	sp, sp, #8
 220              	.LCFI3:
 221              		.cfi_def_cfa_offset 16
 222              	.LBB12:
 223              		.loc 1 196 0
 224 0006 2023     		movs	r3, #32
ARM GAS  /tmp/ccVbFWdL.s 			page 5


 225              	.LVL9:
 226              	@ 196 "../libs/ChibiOS_2.4.0/os/kernel/src/chthreads.c" 1
 227 0008 83F31188 		msr     BASEPRI, r3
 228              	@ 0 "" 2
 229              	.LVL10:
 230              		.thumb
 231              	.LBE12:
 232              		.loc 1 197 0
 233 000c 049C     		ldr	r4, [sp, #16]
 234              		.cfi_offset 14, -4
 235              		.cfi_offset 4, -8
 236 000e 6346     		mov	r3, ip
 237              	.LVL11:
 238 0010 0094     		str	r4, [sp, #0]
 239 0012 FFF7FEFF 		bl	chThdCreateI
 240              	.LVL12:
 241 0016 0021     		movs	r1, #0
 242 0018 0446     		mov	r4, r0
 243              	.LVL13:
 244 001a FFF7FEFF 		bl	chSchWakeupS
 245              	.LVL14:
 246              	.LBB13:
 247              		.loc 1 198 0
 248 001e 0023     		movs	r3, #0
 249              	.LVL15:
 250              	@ 198 "../libs/ChibiOS_2.4.0/os/kernel/src/chthreads.c" 1
 251 0020 83F31188 		msr     BASEPRI, r3
 252              	@ 0 "" 2
 253              	.LVL16:
 254              		.thumb
 255              	.LBE13:
 256              		.loc 1 200 0
 257 0024 2046     		mov	r0, r4
 258 0026 02B0     		add	sp, sp, #8
 259 0028 10BD     		pop	{r4, pc}
 260              		.cfi_endproc
 261              	.LFE9:
 262              		.size	chThdCreateStatic, .-chThdCreateStatic
 263 002a 00BFAFF3 		.section	.text.chThdSetPriority,"ax",%progbits
 263      0080
 264              		.align	2
 265              		.p2align 4,,15
 266              		.global	chThdSetPriority
 267              		.thumb
 268              		.thumb_func
 269              		.type	chThdSetPriority, %function
 270              	chThdSetPriority:
 271              	.LFB10:
 272              		.loc 1 214 0
 273              		.cfi_startproc
 274              		@ args = 0, pretend = 0, frame = 0
 275              		@ frame_needed = 0, uses_anonymous_args = 0
 276              	.LVL17:
 277 0000 10B5     		push	{r4, lr}
 278              	.LCFI4:
 279              		.cfi_def_cfa_offset 8
 280              	.LBB14:
ARM GAS  /tmp/ccVbFWdL.s 			page 6


 281              		.loc 1 219 0
 282 0002 2023     		movs	r3, #32
 283              	.LVL18:
 284              	@ 219 "../libs/ChibiOS_2.4.0/os/kernel/src/chthreads.c" 1
 285 0004 83F31188 		msr     BASEPRI, r3
 286              	@ 0 "" 2
 287              	.LVL19:
 288              		.thumb
 289              	.LBE14:
 290              		.loc 1 221 0
 291 0008 084B     		ldr	r3, .L12
 292              	.LVL20:
 293 000a DB69     		ldr	r3, [r3, #28]
 294 000c 1C6C     		ldr	r4, [r3, #64]
 295              		.cfi_offset 14, -4
 296              		.cfi_offset 4, -8
 297              	.LVL21:
 298              		.loc 1 222 0
 299 000e 9A68     		ldr	r2, [r3, #8]
 300 0010 9442     		cmp	r4, r2
 301 0012 01D0     		beq	.L9
 302              		.loc 1 222 0 is_stmt 0 discriminator 1
 303 0014 8242     		cmp	r2, r0
 304 0016 00D2     		bcs	.L10
 305              	.L9:
 306              		.loc 1 223 0 is_stmt 1
 307 0018 9860     		str	r0, [r3, #8]
 308              	.L10:
 309              		.loc 1 224 0
 310 001a 1864     		str	r0, [r3, #64]
 311              		.loc 1 229 0
 312 001c FFF7FEFF 		bl	chSchRescheduleS
 313              	.LVL22:
 314              	.LBB15:
 315              		.loc 1 230 0
 316 0020 0023     		movs	r3, #0
 317              	.LVL23:
 318              	@ 230 "../libs/ChibiOS_2.4.0/os/kernel/src/chthreads.c" 1
 319 0022 83F31188 		msr     BASEPRI, r3
 320              	@ 0 "" 2
 321              	.LVL24:
 322              		.thumb
 323              	.LBE15:
 324              		.loc 1 232 0
 325 0026 2046     		mov	r0, r4
 326 0028 10BD     		pop	{r4, pc}
 327              	.L13:
 328 002a 00BF     		.align	2
 329              	.L12:
 330 002c 00000000 		.word	rlist
 331              		.cfi_endproc
 332              	.LFE10:
 333              		.size	chThdSetPriority, .-chThdSetPriority
 334              		.section	.text.chThdResume,"ax",%progbits
 335              		.align	2
 336              		.p2align 4,,15
 337              		.global	chThdResume
ARM GAS  /tmp/ccVbFWdL.s 			page 7


 338              		.thumb
 339              		.thumb_func
 340              		.type	chThdResume, %function
 341              	chThdResume:
 342              	.LFB11:
 343              		.loc 1 247 0
 344              		.cfi_startproc
 345              		@ args = 0, pretend = 0, frame = 0
 346              		@ frame_needed = 0, uses_anonymous_args = 0
 347              	.LVL25:
 348 0000 10B5     		push	{r4, lr}
 349              	.LCFI5:
 350              		.cfi_def_cfa_offset 8
 351              	.LBB16:
 352              		.loc 1 249 0
 353 0002 2023     		movs	r3, #32
 354              	.LVL26:
 355              	.LBE16:
 356              		.loc 1 247 0
 357 0004 0446     		mov	r4, r0
 358              		.cfi_offset 14, -4
 359              		.cfi_offset 4, -8
 360              	.LBB17:
 361              		.loc 1 249 0
 362              	@ 249 "../libs/ChibiOS_2.4.0/os/kernel/src/chthreads.c" 1
 363 0006 83F31188 		msr     BASEPRI, r3
 364              	@ 0 "" 2
 365              	.LVL27:
 366              		.thumb
 367              	.LBE17:
 368              		.loc 1 253 0
 369 000a 0021     		movs	r1, #0
 370 000c FFF7FEFF 		bl	chSchWakeupS
 371              	.LVL28:
 372              	.LBB18:
 373              		.loc 1 254 0
 374 0010 0023     		movs	r3, #0
 375              	.LVL29:
 376              	@ 254 "../libs/ChibiOS_2.4.0/os/kernel/src/chthreads.c" 1
 377 0012 83F31188 		msr     BASEPRI, r3
 378              	@ 0 "" 2
 379              	.LVL30:
 380              		.thumb
 381              	.LBE18:
 382              		.loc 1 256 0
 383 0016 2046     		mov	r0, r4
 384 0018 10BD     		pop	{r4, pc}
 385              		.cfi_endproc
 386              	.LFE11:
 387              		.size	chThdResume, .-chThdResume
 388 001a 00BFAFF3 		.section	.text.chThdTerminate,"ax",%progbits
 388      0080
 389              		.align	2
 390              		.p2align 4,,15
 391              		.global	chThdTerminate
 392              		.thumb
 393              		.thumb_func
ARM GAS  /tmp/ccVbFWdL.s 			page 8


 394              		.type	chThdTerminate, %function
 395              	chThdTerminate:
 396              	.LFB12:
 397              		.loc 1 270 0
 398              		.cfi_startproc
 399              		@ args = 0, pretend = 0, frame = 0
 400              		@ frame_needed = 0, uses_anonymous_args = 0
 401              		@ link register save eliminated.
 402              	.LVL31:
 403              	.LBB19:
 404              		.loc 1 272 0
 405 0000 2023     		movs	r3, #32
 406              	.LVL32:
 407              	@ 272 "../libs/ChibiOS_2.4.0/os/kernel/src/chthreads.c" 1
 408 0002 83F31188 		msr     BASEPRI, r3
 409              	@ 0 "" 2
 410              	.LVL33:
 411              		.thumb
 412              	.LBE19:
 413              		.loc 1 273 0
 414 0006 417F     		ldrb	r1, [r0, #29]	@ zero_extendqisi2
 415 0008 41F00403 		orr	r3, r1, #4
 416              	.LVL34:
 417 000c 4377     		strb	r3, [r0, #29]
 418              	.LBB20:
 419              		.loc 1 274 0
 420 000e 0023     		movs	r3, #0
 421              	.LVL35:
 422              	@ 274 "../libs/ChibiOS_2.4.0/os/kernel/src/chthreads.c" 1
 423 0010 83F31188 		msr     BASEPRI, r3
 424              	@ 0 "" 2
 425              	.LVL36:
 426              		.thumb
 427              	.LBE20:
 428              		.loc 1 275 0
 429 0014 7047     		bx	lr
 430              		.cfi_endproc
 431              	.LFE12:
 432              		.size	chThdTerminate, .-chThdTerminate
 433 0016 00BFAFF3 		.section	.text.chThdSleep,"ax",%progbits
 433      0080AFF3 
 433      0080
 434              		.align	2
 435              		.p2align 4,,15
 436              		.global	chThdSleep
 437              		.thumb
 438              		.thumb_func
 439              		.type	chThdSleep, %function
 440              	chThdSleep:
 441              	.LFB13:
 442              		.loc 1 289 0
 443              		.cfi_startproc
 444              		@ args = 0, pretend = 0, frame = 0
 445              		@ frame_needed = 0, uses_anonymous_args = 0
 446              	.LVL37:
 447 0000 08B5     		push	{r3, lr}
 448              	.LCFI6:
ARM GAS  /tmp/ccVbFWdL.s 			page 9


 449              		.cfi_def_cfa_offset 8
 450              		.loc 1 289 0
 451 0002 0146     		mov	r1, r0
 452              	.LBB21:
 453              		.loc 1 293 0
 454 0004 2023     		movs	r3, #32
 455              		.cfi_offset 14, -4
 456              		.cfi_offset 3, -8
 457              	.LVL38:
 458              	@ 293 "../libs/ChibiOS_2.4.0/os/kernel/src/chthreads.c" 1
 459 0006 83F31188 		msr     BASEPRI, r3
 460              	@ 0 "" 2
 461              	.LVL39:
 462              		.thumb
 463              	.LBE21:
 464              		.loc 1 294 0
 465 000a 0620     		movs	r0, #6
 466              	.LVL40:
 467 000c FFF7FEFF 		bl	chSchGoSleepTimeoutS
 468              	.LVL41:
 469              	.LBB22:
 470              		.loc 1 295 0
 471 0010 0023     		movs	r3, #0
 472              	.LVL42:
 473              	@ 295 "../libs/ChibiOS_2.4.0/os/kernel/src/chthreads.c" 1
 474 0012 83F31188 		msr     BASEPRI, r3
 475              	@ 0 "" 2
 476              	.LVL43:
 477              		.thumb
 478              	.LBE22:
 479              		.loc 1 296 0
 480 0016 08BD     		pop	{r3, pc}
 481              		.cfi_endproc
 482              	.LFE13:
 483              		.size	chThdSleep, .-chThdSleep
 484 0018 AFF30080 		.section	.text.chThdSleepUntil,"ax",%progbits
 484      AFF30080 
 485              		.align	2
 486              		.p2align 4,,15
 487              		.global	chThdSleepUntil
 488              		.thumb
 489              		.thumb_func
 490              		.type	chThdSleepUntil, %function
 491              	chThdSleepUntil:
 492              	.LFB14:
 493              		.loc 1 306 0
 494              		.cfi_startproc
 495              		@ args = 0, pretend = 0, frame = 0
 496              		@ frame_needed = 0, uses_anonymous_args = 0
 497              	.LVL44:
 498 0000 08B5     		push	{r3, lr}
 499              	.LCFI7:
 500              		.cfi_def_cfa_offset 8
 501              	.LBB23:
 502              		.loc 1 308 0
 503 0002 2023     		movs	r3, #32
 504              		.cfi_offset 14, -4
ARM GAS  /tmp/ccVbFWdL.s 			page 10


 505              		.cfi_offset 3, -8
 506              	.LVL45:
 507              	@ 308 "../libs/ChibiOS_2.4.0/os/kernel/src/chthreads.c" 1
 508 0004 83F31188 		msr     BASEPRI, r3
 509              	@ 0 "" 2
 510              	.LVL46:
 511              		.thumb
 512              	.LBE23:
 513              		.loc 1 309 0
 514 0008 054B     		ldr	r3, .L19
 515              	.LVL47:
 516 000a D968     		ldr	r1, [r3, #12]
 517              	.LVL48:
 518 000c 411A     		subs	r1, r0, r1
 519              	.LVL49:
 520 000e 02D0     		beq	.L18
 521              		.loc 1 310 0
 522 0010 0620     		movs	r0, #6
 523 0012 FFF7FEFF 		bl	chSchGoSleepTimeoutS
 524              	.LVL50:
 525              	.L18:
 526              	.LBB24:
 527              		.loc 1 311 0
 528 0016 0023     		movs	r3, #0
 529              	.LVL51:
 530              	@ 311 "../libs/ChibiOS_2.4.0/os/kernel/src/chthreads.c" 1
 531 0018 83F31188 		msr     BASEPRI, r3
 532              	@ 0 "" 2
 533              	.LVL52:
 534              		.thumb
 535              	.LBE24:
 536              		.loc 1 312 0
 537 001c 08BD     		pop	{r3, pc}
 538              	.L20:
 539 001e 00BF     		.align	2
 540              	.L19:
 541 0020 00000000 		.word	vtlist
 542              		.cfi_endproc
 543              	.LFE14:
 544              		.size	chThdSleepUntil, .-chThdSleepUntil
 545 0024 AFF30080 		.section	.text.chThdYield,"ax",%progbits
 545      AFF30080 
 545      AFF30080 
 546              		.align	2
 547              		.p2align 4,,15
 548              		.global	chThdYield
 549              		.thumb
 550              		.thumb_func
 551              		.type	chThdYield, %function
 552              	chThdYield:
 553              	.LFB15:
 554              		.loc 1 321 0
 555              		.cfi_startproc
 556              		@ args = 0, pretend = 0, frame = 0
 557              		@ frame_needed = 0, uses_anonymous_args = 0
 558 0000 08B5     		push	{r3, lr}
 559              	.LCFI8:
ARM GAS  /tmp/ccVbFWdL.s 			page 11


 560              		.cfi_def_cfa_offset 8
 561              	.LBB25:
 562              		.loc 1 323 0
 563 0002 2023     		movs	r3, #32
 564              		.cfi_offset 14, -4
 565              		.cfi_offset 3, -8
 566              	.LVL53:
 567              	@ 323 "../libs/ChibiOS_2.4.0/os/kernel/src/chthreads.c" 1
 568 0004 83F31188 		msr     BASEPRI, r3
 569              	@ 0 "" 2
 570              	.LVL54:
 571              		.thumb
 572              	.LBE25:
 573              		.loc 1 324 0
 574 0008 064A     		ldr	r2, .L23
 575 000a D069     		ldr	r0, [r2, #28]
 576 000c 1168     		ldr	r1, [r2, #0]
 577 000e 8368     		ldr	r3, [r0, #8]
 578              	.LVL55:
 579 0010 8A68     		ldr	r2, [r1, #8]
 580 0012 9A42     		cmp	r2, r3
 581 0014 01D3     		bcc	.L22
 582              		.loc 1 324 0 is_stmt 0 discriminator 1
 583 0016 FFF7FEFF 		bl	chSchDoReschedule
 584              	.L22:
 585              	.LBB26:
 586              		.loc 1 325 0 is_stmt 1
 587 001a 0023     		movs	r3, #0
 588              	.LVL56:
 589              	@ 325 "../libs/ChibiOS_2.4.0/os/kernel/src/chthreads.c" 1
 590 001c 83F31188 		msr     BASEPRI, r3
 591              	@ 0 "" 2
 592              	.LVL57:
 593              		.thumb
 594              	.LBE26:
 595              		.loc 1 326 0
 596 0020 08BD     		pop	{r3, pc}
 597              	.L24:
 598 0022 00BF     		.align	2
 599              	.L23:
 600 0024 00000000 		.word	rlist
 601              		.cfi_endproc
 602              	.LFE15:
 603              		.size	chThdYield, .-chThdYield
 604 0028 AFF30080 		.section	.text.chThdExitS,"ax",%progbits
 604      AFF30080 
 605              		.align	2
 606              		.p2align 4,,15
 607              		.global	chThdExitS
 608              		.thumb
 609              		.thumb_func
 610              		.type	chThdExitS, %function
 611              	chThdExitS:
 612              	.LFB17:
 613              		.loc 1 363 0
 614              		.cfi_startproc
 615              		@ args = 0, pretend = 0, frame = 0
ARM GAS  /tmp/ccVbFWdL.s 			page 12


 616              		@ frame_needed = 0, uses_anonymous_args = 0
 617              	.LVL58:
 618              		.loc 1 364 0
 619 0000 0E4B     		ldr	r3, .L31
 620              		.loc 1 363 0
 621 0002 70B5     		push	{r4, r5, r6, lr}
 622              	.LCFI9:
 623              		.cfi_def_cfa_offset 16
 624              		.loc 1 364 0
 625 0004 DC69     		ldr	r4, [r3, #28]
 626              		.cfi_offset 14, -4
 627              		.cfi_offset 6, -8
 628              		.cfi_offset 5, -12
 629              		.cfi_offset 4, -16
 630              	.LVL59:
 631              		.loc 1 371 0
 632 0006 2546     		mov	r5, r4
 633              		.loc 1 366 0
 634 0008 6062     		str	r0, [r4, #36]
 635              		.loc 1 371 0
 636 000a 55F8280F 		ldr	r0, [r5, #40]!
 637              	.LVL60:
 638 000e A842     		cmp	r0, r5
 639 0010 06D0     		beq	.L26
 640              	.LVL61:
 641              	.L29:
 642              	.LBB27:
 643              	.LBB28:
 644              		.file 2 "../libs/ChibiOS_2.4.0/os/kernel/include/chinline.h"
 645              		.loc 2 89 0
 646 0012 0168     		ldr	r1, [r0, #0]
 647 0014 A162     		str	r1, [r4, #40]
 648              	.LBE28:
 649              	.LBE27:
 650              		.loc 1 372 0
 651 0016 FFF7FEFF 		bl	chSchReadyI
 652              	.LVL62:
 653              		.loc 1 371 0
 654 001a A06A     		ldr	r0, [r4, #40]
 655 001c A842     		cmp	r0, r5
 656 001e F8D1     		bne	.L29
 657              	.LVL63:
 658              	.L26:
 659              		.loc 1 377 0
 660 0020 607F     		ldrb	r0, [r4, #29]	@ zero_extendqisi2
 661 0022 10F0030F 		tst	r0, #3
 662 0026 04D1     		bne	.L28
 663              		.loc 1 378 0
 664 0028 6369     		ldr	r3, [r4, #20]
 665 002a 2169     		ldr	r1, [r4, #16]
 666 002c 1961     		str	r1, [r3, #16]
 667 002e 2269     		ldr	r2, [r4, #16]
 668 0030 5361     		str	r3, [r2, #20]
 669              	.L28:
 670              		.loc 1 380 0
 671 0032 0E20     		movs	r0, #14
 672              		.loc 1 383 0
ARM GAS  /tmp/ccVbFWdL.s 			page 13


 673 0034 BDE87040 		pop	{r4, r5, r6, lr}
 674              		.loc 1 380 0
 675 0038 FFF7FEBF 		b	chSchGoSleepS
 676              	.L32:
 677              		.align	2
 678              	.L31:
 679 003c 00000000 		.word	rlist
 680              		.cfi_endproc
 681              	.LFE17:
 682              		.size	chThdExitS, .-chThdExitS
 683              		.section	.text.chThdExit,"ax",%progbits
 684              		.align	2
 685              		.p2align 4,,15
 686              		.global	chThdExit
 687              		.thumb
 688              		.thumb_func
 689              		.type	chThdExit, %function
 690              	chThdExit:
 691              	.LFB16:
 692              		.loc 1 342 0
 693              		.cfi_startproc
 694              		@ args = 0, pretend = 0, frame = 0
 695              		@ frame_needed = 0, uses_anonymous_args = 0
 696              		@ link register save eliminated.
 697              	.LVL64:
 698              	.LBB29:
 699              		.loc 1 344 0
 700 0000 2023     		movs	r3, #32
 701              	.LVL65:
 702              	@ 344 "../libs/ChibiOS_2.4.0/os/kernel/src/chthreads.c" 1
 703 0002 83F31188 		msr     BASEPRI, r3
 704              	@ 0 "" 2
 705              	.LVL66:
 706              		.thumb
 707              	.LBE29:
 708              		.loc 1 347 0
 709              		.loc 1 345 0
 710 0006 FFF7FEBF 		b	chThdExitS
 711              		.cfi_endproc
 712              	.LFE16:
 713              		.size	chThdExit, .-chThdExit
 714 000a 00BFAFF3 		.section	.text.chThdWait,"ax",%progbits
 714      0080
 715              		.align	2
 716              		.p2align 4,,15
 717              		.global	chThdWait
 718              		.thumb
 719              		.thumb_func
 720              		.type	chThdWait, %function
 721              	chThdWait:
 722              	.LFB18:
 723              		.loc 1 417 0
 724              		.cfi_startproc
 725              		@ args = 0, pretend = 0, frame = 0
 726              		@ frame_needed = 0, uses_anonymous_args = 0
 727              	.LVL67:
 728 0000 38B5     		push	{r3, r4, r5, lr}
ARM GAS  /tmp/ccVbFWdL.s 			page 14


 729              	.LCFI10:
 730              		.cfi_def_cfa_offset 16
 731              		.loc 1 417 0
 732 0002 0446     		mov	r4, r0
 733              		.cfi_offset 14, -4
 734              		.cfi_offset 5, -8
 735              		.cfi_offset 4, -12
 736              		.cfi_offset 3, -16
 737              	.LBB30:
 738              		.loc 1 422 0
 739 0004 2023     		movs	r3, #32
 740              	.LVL68:
 741              	@ 422 "../libs/ChibiOS_2.4.0/os/kernel/src/chthreads.c" 1
 742 0006 83F31188 		msr     BASEPRI, r3
 743              	@ 0 "" 2
 744              	.LVL69:
 745              		.thumb
 746              	.LBE30:
 747              		.loc 1 427 0
 748 000a 037F     		ldrb	r3, [r0, #28]	@ zero_extendqisi2
 749              	.LVL70:
 750 000c 0E2B     		cmp	r3, #14
 751 000e 07D0     		beq	.L35
 752              	.LBB31:
 753              	.LBB32:
 754              		.loc 2 82 0
 755 0010 826A     		ldr	r2, [r0, #40]
 756              	.LBE32:
 757              	.LBE31:
 758              		.loc 1 428 0
 759 0012 0848     		ldr	r0, .L36
 760              	.LVL71:
 761 0014 C169     		ldr	r1, [r0, #28]
 762              	.LVL72:
 763              		.loc 1 429 0
 764 0016 0720     		movs	r0, #7
 765              	.LVL73:
 766              	.LBB34:
 767              	.LBB33:
 768              		.loc 2 82 0
 769 0018 0A60     		str	r2, [r1, #0]
 770              		.loc 2 83 0
 771 001a A162     		str	r1, [r4, #40]
 772              	.LBE33:
 773              	.LBE34:
 774              		.loc 1 429 0
 775 001c FFF7FEFF 		bl	chSchGoSleepS
 776              	.LVL74:
 777              	.L35:
 778              		.loc 1 431 0
 779 0020 656A     		ldr	r5, [r4, #36]
 780              	.LVL75:
 781              	.LBB35:
 782              		.loc 1 432 0
 783 0022 0023     		movs	r3, #0
 784              	.LVL76:
 785              	@ 432 "../libs/ChibiOS_2.4.0/os/kernel/src/chthreads.c" 1
ARM GAS  /tmp/ccVbFWdL.s 			page 15


 786 0024 83F31188 		msr     BASEPRI, r3
 787              	@ 0 "" 2
 788              	.LVL77:
 789              		.thumb
 790              	.LBE35:
 791              		.loc 1 434 0
 792 0028 2046     		mov	r0, r4
 793 002a FFF7FEFF 		bl	chThdRelease
 794              	.LVL78:
 795              		.loc 1 437 0
 796 002e 2846     		mov	r0, r5
 797 0030 38BD     		pop	{r3, r4, r5, pc}
 798              	.L37:
 799 0032 00BF     		.align	2
 800              	.L36:
 801 0034 00000000 		.word	rlist
 802              		.cfi_endproc
 803              	.LFE18:
 804              		.size	chThdWait, .-chThdWait
 805 0038 AFF30080 		.text
 805      AFF30080 
 806              	.Letext0: