ARM GAS  /tmp/ccwhAe9c.s 			page 1


   1              		.syntax unified
   2              		.cpu cortex-m4
   3              		.eabi_attribute 27, 3
   4              		.eabi_attribute 28, 1
   5              		.fpu fpv4-sp-d16
   6              		.eabi_attribute 20, 1
   7              		.eabi_attribute 21, 1
   8              		.eabi_attribute 23, 3
   9              		.eabi_attribute 24, 1
  10              		.eabi_attribute 25, 1
  11              		.eabi_attribute 26, 1
  12              		.eabi_attribute 30, 2
  13              		.eabi_attribute 18, 4
  14              		.thumb
  15              		.file	"chvt.c"
  22 0000 96010000 		.text
  22      02001C01 
  22      00000201 
  22      FB0E0D00 
  22      01010101 
  23              	.Ltext0:
  24              		.cfi_sections	.debug_frame
  25              		.section	.text._vt_init,"ax",%progbits
  26              		.align	2
  27              		.p2align 4,,15
  28              		.global	_vt_init
  29              		.thumb
  30              		.thumb_func
  31              		.type	_vt_init, %function
  32              	_vt_init:
  33              	.LFB7:
  34              		.file 1 "../libs/ChibiOS_2.4.0/os/kernel/src/chvt.c"
  35              		.loc 1 50 0
  36              		.cfi_startproc
  37              		@ args = 0, pretend = 0, frame = 0
  38              		@ frame_needed = 0, uses_anonymous_args = 0
  39              		@ link register save eliminated.
  40              		.loc 1 52 0
  41 0000 044B     		ldr	r3, .L2
  42              		.loc 1 53 0
  43 0002 4FF0FF30 		mov	r0, #-1
  44              		.loc 1 54 0
  45 0006 0022     		movs	r2, #0
  46              		.loc 1 52 0
  47 0008 5B60     		str	r3, [r3, #4]
  48 000a 1B60     		str	r3, [r3, #0]
  49              		.loc 1 53 0
  50 000c 9860     		str	r0, [r3, #8]
  51              		.loc 1 54 0
  52 000e DA60     		str	r2, [r3, #12]
  53              		.loc 1 55 0
ARM GAS  /tmp/ccwhAe9c.s 			page 2


  54 0010 7047     		bx	lr
  55              	.L3:
  56 0012 00BF     		.align	2
  57              	.L2:
  58 0014 00000000 		.word	.LANCHOR0
  59              		.cfi_endproc
  60              	.LFE7:
  61              		.size	_vt_init, .-_vt_init
  62 0018 AFF30080 		.section	.text.chVTSetI,"ax",%progbits
  62      AFF30080 
  63              		.align	2
  64              		.p2align 4,,15
  65              		.global	chVTSetI
  66              		.thumb
  67              		.thumb_func
  68              		.type	chVTSetI, %function
  69              	chVTSetI:
  70              	.LFB8:
  71              		.loc 1 77 0
  72              		.cfi_startproc
  73              		@ args = 0, pretend = 0, frame = 0
  74              		@ frame_needed = 0, uses_anonymous_args = 0
  75              		@ link register save eliminated.
  76              	.LVL0:
  77 0000 70B4     		push	{r4, r5, r6}
  78              	.LCFI0:
  79              		.cfi_def_cfa_offset 12
  80              		.loc 1 86 0
  81 0002 0C4D     		ldr	r5, .L11
  82              		.cfi_offset 6, -4
  83              		.cfi_offset 5, -8
  84              		.cfi_offset 4, -12
  85              		.loc 1 84 0
  86 0004 0361     		str	r3, [r0, #16]
  87              		.loc 1 86 0
  88 0006 2C68     		ldr	r4, [r5, #0]
  89              	.LVL1:
  90              		.loc 1 85 0
  91 0008 C260     		str	r2, [r0, #12]
  92              		.loc 1 87 0
  93 000a A668     		ldr	r6, [r4, #8]
  94 000c B142     		cmp	r1, r6
  95 000e 04D9     		bls	.L5
  96              	.LVL2:
  97              	.L8:
  98              		.loc 1 89 0
  99 0010 2468     		ldr	r4, [r4, #0]
 100              	.LVL3:
 101              		.loc 1 88 0
 102 0012 891B     		subs	r1, r1, r6
 103              	.LVL4:
 104              		.loc 1 87 0
 105 0014 A668     		ldr	r6, [r4, #8]
 106 0016 8E42     		cmp	r6, r1
 107 0018 FAD3     		bcc	.L8
 108              	.L5:
 109              		.loc 1 92 0
ARM GAS  /tmp/ccwhAe9c.s 			page 3


 110 001a 6368     		ldr	r3, [r4, #4]
 111              	.LVL5:
 112 001c 0460     		str	r4, [r0, #0]
 113              		.loc 1 95 0
 114 001e AC42     		cmp	r4, r5
 115              		.loc 1 92 0
 116 0020 4360     		str	r3, [r0, #4]
 117              		.loc 1 93 0
 118 0022 1860     		str	r0, [r3, #0]
 119 0024 6060     		str	r0, [r4, #4]
 120              		.loc 1 94 0
 121 0026 8160     		str	r1, [r0, #8]
 122              		.loc 1 95 0
 123 0028 02D0     		beq	.L4
 124              		.loc 1 96 0
 125 002a A068     		ldr	r0, [r4, #8]
 126              	.LVL6:
 127 002c 411A     		subs	r1, r0, r1
 128              	.LVL7:
 129 002e A160     		str	r1, [r4, #8]
 130              	.L4:
 131              		.loc 1 97 0
 132 0030 70BC     		pop	{r4, r5, r6}
 133 0032 7047     		bx	lr
 134              	.L12:
 135              		.align	2
 136              	.L11:
 137 0034 00000000 		.word	.LANCHOR0
 138              		.cfi_endproc
 139              	.LFE8:
 140              		.size	chVTSetI, .-chVTSetI
 141 0038 AFF30080 		.section	.text.chVTResetI,"ax",%progbits
 141      AFF30080 
 142              		.align	2
 143              		.p2align 4,,15
 144              		.global	chVTResetI
 145              		.thumb
 146              		.thumb_func
 147              		.type	chVTResetI, %function
 148              	chVTResetI:
 149              	.LFB9:
 150              		.loc 1 107 0
 151              		.cfi_startproc
 152              		@ args = 0, pretend = 0, frame = 0
 153              		@ frame_needed = 0, uses_anonymous_args = 0
 154              		@ link register save eliminated.
 155              	.LVL8:
 156              		.loc 1 115 0
 157 0000 0368     		ldr	r3, [r0, #0]
 158 0002 074A     		ldr	r2, .L15
 159 0004 9342     		cmp	r3, r2
 160 0006 03D0     		beq	.L14
 161              		.loc 1 116 0
 162 0008 9968     		ldr	r1, [r3, #8]
 163 000a 8268     		ldr	r2, [r0, #8]
 164 000c 8918     		adds	r1, r1, r2
 165 000e 9960     		str	r1, [r3, #8]
ARM GAS  /tmp/ccwhAe9c.s 			page 4


 166              	.L14:
 167              		.loc 1 117 0
 168 0010 4268     		ldr	r2, [r0, #4]
 169 0012 1360     		str	r3, [r2, #0]
 170              		.loc 1 118 0
 171 0014 0168     		ldr	r1, [r0, #0]
 172              		.loc 1 119 0
 173 0016 0023     		movs	r3, #0
 174              		.loc 1 118 0
 175 0018 4A60     		str	r2, [r1, #4]
 176              		.loc 1 119 0
 177 001a C360     		str	r3, [r0, #12]
 178              		.loc 1 120 0
 179 001c 7047     		bx	lr
 180              	.L16:
 181 001e 00BF     		.align	2
 182              	.L15:
 183 0020 00000000 		.word	.LANCHOR0
 184              		.cfi_endproc
 185              	.LFE9:
 186              		.size	chVTResetI, .-chVTResetI
 187 0024 AFF30080 		.section	.text.chTimeIsWithin,"ax",%progbits
 187      AFF30080 
 187      AFF30080 
 188              		.align	2
 189              		.p2align 4,,15
 190              		.global	chTimeIsWithin
 191              		.thumb
 192              		.thumb_func
 193              		.type	chTimeIsWithin, %function
 194              	chTimeIsWithin:
 195              	.LFB10:
 196              		.loc 1 135 0
 197              		.cfi_startproc
 198              		@ args = 0, pretend = 0, frame = 0
 199              		@ frame_needed = 0, uses_anonymous_args = 0
 200              		@ link register save eliminated.
 201              	.LVL9:
 202              		.loc 1 137 0
 203 0000 084B     		ldr	r3, .L23
 204              		.loc 1 138 0
 205 0002 8142     		cmp	r1, r0
 206              		.loc 1 137 0
 207 0004 DB68     		ldr	r3, [r3, #12]
 208              	.LVL10:
 209              		.loc 1 138 0
 210 0006 06D9     		bls	.L18
 211              		.loc 1 138 0 is_stmt 0 discriminator 1
 212 0008 8342     		cmp	r3, r0
 213 000a 08D3     		bcc	.L20
 214              	.L22:
 215              		.loc 1 138 0
 216 000c 8B42     		cmp	r3, r1
 217 000e 2CBF     		ite	cs
 218 0010 0020     		movcs	r0, #0
 219              	.LVL11:
 220 0012 0120     		movcc	r0, #1
ARM GAS  /tmp/ccwhAe9c.s 			page 5


 221 0014 7047     		bx	lr
 222              	.LVL12:
 223              	.L18:
 224              		.loc 1 138 0 discriminator 2
 225 0016 8342     		cmp	r3, r0
 226 0018 F8D3     		bcc	.L22
 227              		.loc 1 138 0
 228 001a 0120     		movs	r0, #1
 229              	.LVL13:
 230              		.loc 1 140 0 is_stmt 1
 231 001c 7047     		bx	lr
 232              	.LVL14:
 233              	.L20:
 234              		.loc 1 138 0
 235 001e 0020     		movs	r0, #0
 236              	.LVL15:
 237 0020 7047     		bx	lr
 238              	.L24:
 239 0022 00BF     		.align	2
 240              	.L23:
 241 0024 00000000 		.word	.LANCHOR0
 242              		.cfi_endproc
 243              	.LFE10:
 244              		.size	chTimeIsWithin, .-chTimeIsWithin
 245              		.global	vtlist
 246 0028 AFF30080 		.section	.bss.vtlist,"aw",%nobits
 246      AFF30080 
 247              		.align	2
 248              		.set	.LANCHOR0,. + 0
 249              		.type	vtlist, %object
 250              		.size	vtlist, 16
 251              	vtlist:
 252 0000 00000000 		.space	16
 252      00000000 
 252      00000000 
 252      00000000 
 253              		.text
 254              	.Letext0: