ARM GAS  /tmp/cc82Vjk8.s 			page 1


   1              		.syntax unified
   2              		.cpu cortex-m4
   3              		.eabi_attribute 27, 3
   4              		.eabi_attribute 28, 1
   5              		.fpu fpv4-sp-d16
   6              		.eabi_attribute 20, 1
   7              		.eabi_attribute 21, 1
   8              		.eabi_attribute 23, 3
   9              		.eabi_attribute 24, 1
  10              		.eabi_attribute 25, 1
  11              		.eabi_attribute 26, 1
  12              		.eabi_attribute 30, 2
  13              		.eabi_attribute 18, 4
  14              		.thumb
  15              		.file	"crt0.c"
  22 0000 56010000 		.text
  22      0200B900 
  22      00000201 
  22      FB0E0D00 
  22      01010101 
  23              	.Ltext0:
  24              		.cfi_sections	.debug_frame
  25              		.section	.text.__early_init,"ax",%progbits
  26              		.align	2
  27              		.p2align 4,,15
  28              		.weak	__early_init
  29              		.thumb
  30              		.thumb_func
  31              		.type	__early_init, %function
  32              	__early_init:
  33              	.LFB0:
  34              		.file 1 "../libs/ChibiOS_2.4.0/os/ports/GCC/ARMCMx/crt0.c"
  35              		.loc 1 212 0
  36              		.cfi_startproc
  37              		@ args = 0, pretend = 0, frame = 0
  38              		@ frame_needed = 0, uses_anonymous_args = 0
  39              		@ link register save eliminated.
  40              		.loc 1 212 0
  41 0000 7047     		bx	lr
  42              		.cfi_endproc
  43              	.LFE0:
  44              		.size	__early_init, .-__early_init
  45 0002 00BFAFF3 		.section	.text.__late_init,"ax",%progbits
  45      0080AFF3 
  45      0080AFF3 
  45      0080
  46              		.align	2
  47              		.p2align 4,,15
  48              		.weak	__late_init
  49              		.thumb
  50              		.thumb_func
ARM GAS  /tmp/cc82Vjk8.s 			page 2


  51              		.type	__late_init, %function
  52              	__late_init:
  53              	.LFB1:
  54              		.loc 1 224 0
  55              		.cfi_startproc
  56              		@ args = 0, pretend = 0, frame = 0
  57              		@ frame_needed = 0, uses_anonymous_args = 0
  58              		@ link register save eliminated.
  59              		.loc 1 224 0
  60 0000 7047     		bx	lr
  61              		.cfi_endproc
  62              	.LFE1:
  63              		.size	__late_init, .-__late_init
  64 0002 00BFAFF3 		.section	.text._default_exit,"ax",%progbits
  64      0080AFF3 
  64      0080AFF3 
  64      0080
  65              		.align	2
  66              		.p2align 4,,15
  67              		.weak	_default_exit
  68              		.thumb
  69              		.thumb_func
  70              		.type	_default_exit, %function
  71              	_default_exit:
  72              	.LFB2:
  73              		.loc 1 235 0
  74              		.cfi_startproc
  75              		@ Naked Function: prologue and epilogue provided by programmer.
  76              		@ args = 0, pretend = 0, frame = 0
  77              		@ frame_needed = 0, uses_anonymous_args = 0
  78              	.L4:
  79 0000 FEE7     		b	.L4
  80              		.cfi_endproc
  81              	.LFE2:
  82              		.size	_default_exit, .-_default_exit
  83 0002 00BFAFF3 		.section	.text.ResetHandler,"ax",%progbits
  83      0080AFF3 
  83      0080AFF3 
  83      0080
  84              		.align	2
  85              		.p2align 4,,15
  86              		.global	ResetHandler
  87              		.thumb
  88              		.thumb_func
  89              		.type	ResetHandler, %function
  90              	ResetHandler:
  91              	.LFB4:
  92              		.loc 1 259 0
  93              		.cfi_startproc
  94              		@ Naked Function: prologue and epilogue provided by programmer.
  95              		@ args = 0, pretend = 0, frame = 0
  96              		@ frame_needed = 0, uses_anonymous_args = 0
  97              		.loc 1 265 0
  98              	@ 265 "../libs/ChibiOS_2.4.0/os/ports/GCC/ARMCMx/crt0.c" 1
  99 0000 72B6     		cpsid   i
 100              	@ 0 "" 2
 101              	.LVL0:
ARM GAS  /tmp/cc82Vjk8.s 			page 3


 102              		.loc 1 267 0
 103              		.thumb
 104 0002 634C     		ldr	r4, .L55
 105              	@ 267 "../libs/ChibiOS_2.4.0/os/ports/GCC/ARMCMx/crt0.c" 1
 106 0004 84F30988 		msr     PSP, r4
 107              	@ 0 "" 2
 108              	.LVL1:
 109              		.loc 1 271 0
 110              		.thumb
 111 0008 0223     		movs	r3, #2
 112              	@ 271 "../libs/ChibiOS_2.4.0/os/ports/GCC/ARMCMx/crt0.c" 1
 113 000a 83F31488 		msr     CONTROL, r3
 114              	@ 0 "" 2
 115              		.loc 1 272 0
 116              	@ 272 "../libs/ChibiOS_2.4.0/os/ports/GCC/ARMCMx/crt0.c" 1
 117 000e BFF36F8F 		isb
 118              	@ 0 "" 2
 119              		.loc 1 275 0
 120              		.thumb
 121 0012 FFF7FEFF 		bl	__early_init
 122              	.LVL2:
 123              	.LBB11:
 124              	.LBB12:
 125              		.loc 1 249 0
 126 0016 5F4A     		ldr	r2, .L55+4
 127 0018 5F48     		ldr	r0, .L55+8
 128 001a 8242     		cmp	r2, r0
 129 001c 17D2     		bcs	.L6
 130              		.loc 1 250 0
 131 001e 1346     		mov	r3, r2
 132 0020 4FF05531 		mov	r1, #1431655765
 133 0024 43F8041B 		str	r1, [r3], #4
 134              	.LVL3:
 135 0028 D643     		mvns	r6, r2
 136 002a 8519     		adds	r5, r0, r6
 137              		.loc 1 249 0
 138 002c 8342     		cmp	r3, r0
 139 002e C5F38005 		ubfx	r5, r5, #2, #1
 140 0032 0CD2     		bcs	.L6
 141 0034 25B1     		cbz	r5, .L7
 142              		.loc 1 250 0
 143 0036 1960     		str	r1, [r3, #0]
 144 0038 02F10803 		add	r3, r2, #8
 145              	.LVL4:
 146              		.loc 1 249 0
 147 003c 8342     		cmp	r3, r0
 148 003e 06D2     		bcs	.L6
 149              	.L7:
 150              		.loc 1 250 0
 151 0040 1A46     		mov	r2, r3
 152 0042 42F8041B 		str	r1, [r2], #4
 153 0046 5960     		str	r1, [r3, #4]
 154 0048 131D     		adds	r3, r2, #4
 155              		.loc 1 249 0
 156 004a 8342     		cmp	r3, r0
 157 004c F8D3     		bcc	.L7
 158              	.L6:
ARM GAS  /tmp/cc82Vjk8.s 			page 4


 159              	.LVL5:
 160              	.LBE12:
 161              	.LBE11:
 162              	.LBB13:
 163              	.LBB14:
 164 004e 534A     		ldr	r2, .L55+12
 165 0050 A242     		cmp	r2, r4
 166 0052 17D2     		bcs	.L8
 167              		.loc 1 250 0
 168 0054 1346     		mov	r3, r2
 169 0056 4FF05531 		mov	r1, #1431655765
 170 005a 43F8041B 		str	r1, [r3], #4
 171              	.LVL6:
 172 005e D543     		mvns	r5, r2
 173 0060 6019     		adds	r0, r4, r5
 174              		.loc 1 249 0
 175 0062 A342     		cmp	r3, r4
 176 0064 C0F38000 		ubfx	r0, r0, #2, #1
 177 0068 0CD2     		bcs	.L8
 178 006a 20B1     		cbz	r0, .L9
 179              		.loc 1 250 0
 180 006c 1960     		str	r1, [r3, #0]
 181 006e 02F10803 		add	r3, r2, #8
 182              	.LVL7:
 183              		.loc 1 249 0
 184 0072 A342     		cmp	r3, r4
 185 0074 06D2     		bcs	.L8
 186              	.L9:
 187              		.loc 1 250 0
 188 0076 1E46     		mov	r6, r3
 189 0078 46F8041B 		str	r1, [r6], #4
 190 007c 5960     		str	r1, [r3, #4]
 191 007e 331D     		adds	r3, r6, #4
 192              		.loc 1 249 0
 193 0080 A342     		cmp	r3, r4
 194 0082 F8D3     		bcc	.L9
 195              	.L8:
 196              	.LVL8:
 197              	.LBE14:
 198              	.LBE13:
 199              	.LBB15:
 200              		.loc 1 294 0 discriminator 1
 201 0084 4649     		ldr	r1, .L55+16
 202 0086 474C     		ldr	r4, .L55+20
 203 0088 A142     		cmp	r1, r4
 204 008a 22D2     		bcs	.L10
 205              		.loc 1 294 0 is_stmt 0
 206 008c 4648     		ldr	r0, .L55+24
 207              		.loc 1 295 0 is_stmt 1
 208 008e 0246     		mov	r2, r0
 209 0090 0B46     		mov	r3, r1
 210 0092 52F8046B 		ldr	r6, [r2], #4
 211 0096 43F8046B 		str	r6, [r3], #4
 212              	.LVL9:
 213 009a CD43     		mvns	r5, r1
 214 009c 04EB050C 		add	ip, r4, r5
 215              		.loc 1 294 0
ARM GAS  /tmp/cc82Vjk8.s 			page 5


 216 00a0 A342     		cmp	r3, r4
 217 00a2 CCF38005 		ubfx	r5, ip, #2, #1
 218 00a6 14D2     		bcs	.L10
 219 00a8 3DB1     		cbz	r5, .L11
 220              		.loc 1 295 0
 221 00aa 1668     		ldr	r6, [r2, #0]
 222 00ac 1E60     		str	r6, [r3, #0]
 223 00ae 01F10803 		add	r3, r1, #8
 224              	.LVL10:
 225              		.loc 1 294 0
 226 00b2 A342     		cmp	r3, r4
 227              		.loc 1 295 0
 228 00b4 00F10802 		add	r2, r0, #8
 229              		.loc 1 294 0
 230 00b8 0BD2     		bcs	.L10
 231              	.L11:
 232              		.loc 1 295 0
 233 00ba 1146     		mov	r1, r2
 234 00bc 1846     		mov	r0, r3
 235 00be 51F8045B 		ldr	r5, [r1], #4
 236 00c2 40F8045B 		str	r5, [r0], #4
 237 00c6 5268     		ldr	r2, [r2, #4]
 238 00c8 5A60     		str	r2, [r3, #4]
 239 00ca 031D     		adds	r3, r0, #4
 240 00cc 0A1D     		adds	r2, r1, #4
 241              		.loc 1 294 0
 242 00ce A342     		cmp	r3, r4
 243 00d0 F3D3     		bcc	.L11
 244              	.L10:
 245              	.LVL11:
 246              	.LBE15:
 247              	.LBB16:
 248              	.LBB17:
 249              		.loc 1 249 0
 250 00d2 364A     		ldr	r2, .L55+28
 251 00d4 3648     		ldr	r0, .L55+32
 252 00d6 8242     		cmp	r2, r0
 253 00d8 16D2     		bcs	.L12
 254              		.loc 1 250 0
 255 00da 1346     		mov	r3, r2
 256 00dc 0021     		movs	r1, #0
 257 00de 43F8041B 		str	r1, [r3], #4
 258              	.LVL12:
 259 00e2 D643     		mvns	r6, r2
 260 00e4 8419     		adds	r4, r0, r6
 261              		.loc 1 249 0
 262 00e6 8342     		cmp	r3, r0
 263 00e8 C4F38004 		ubfx	r4, r4, #2, #1
 264 00ec 0CD2     		bcs	.L12
 265 00ee 24B1     		cbz	r4, .L13
 266              		.loc 1 250 0
 267 00f0 1960     		str	r1, [r3, #0]
 268 00f2 02F10803 		add	r3, r2, #8
 269              	.LVL13:
 270              		.loc 1 249 0
 271 00f6 8342     		cmp	r3, r0
 272 00f8 06D2     		bcs	.L12
ARM GAS  /tmp/cc82Vjk8.s 			page 6


 273              	.L13:
 274              		.loc 1 250 0
 275 00fa 1A46     		mov	r2, r3
 276 00fc 42F8041B 		str	r1, [r2], #4
 277 0100 5960     		str	r1, [r3, #4]
 278 0102 131D     		adds	r3, r2, #4
 279              		.loc 1 249 0
 280 0104 8342     		cmp	r3, r0
 281 0106 F8D3     		bcc	.L13
 282              	.L12:
 283              	.LBE17:
 284              	.LBE16:
 285              	.LBB18:
 286              		.loc 1 311 0
 287 0108 2A4D     		ldr	r5, .L55+36
 288 010a 2B4E     		ldr	r6, .L55+40
 289              	.LBE18:
 290              		.loc 1 305 0
 291 010c FFF7FEFF 		bl	__late_init
 292              	.LVL14:
 293              	.LBB19:
 294              		.loc 1 311 0
 295 0110 B542     		cmp	r5, r6
 296 0112 19D2     		bcs	.L14
 297              		.loc 1 312 0
 298 0114 2C46     		mov	r4, r5
 299 0116 E943     		mvns	r1, r5
 300 0118 54F8043B 		ldr	r3, [r4], #4
 301 011c 7718     		adds	r7, r6, r1
 302 011e 9847     		blx	r3
 303              	.LVL15:
 304              		.loc 1 311 0
 305 0120 B442     		cmp	r4, r6
 306 0122 C7F38007 		ubfx	r7, r7, #2, #1
 307 0126 0FD2     		bcs	.L14
 308 0128 2FB1     		cbz	r7, .L15
 309              		.loc 1 312 0
 310 012a 2368     		ldr	r3, [r4, #0]
 311              		.loc 1 313 0
 312 012c 05F10804 		add	r4, r5, #8
 313              		.loc 1 312 0
 314 0130 9847     		blx	r3
 315              	.LVL16:
 316              		.loc 1 311 0
 317 0132 B442     		cmp	r4, r6
 318 0134 08D2     		bcs	.L14
 319              	.L15:
 320              		.loc 1 312 0
 321 0136 2546     		mov	r5, r4
 322 0138 55F8042B 		ldr	r2, [r5], #4
 323 013c 9047     		blx	r2
 324 013e 6068     		ldr	r0, [r4, #4]
 325              		.loc 1 313 0
 326 0140 2C1D     		adds	r4, r5, #4
 327              		.loc 1 312 0
 328 0142 8047     		blx	r0
 329              		.loc 1 311 0
ARM GAS  /tmp/cc82Vjk8.s 			page 7


 330 0144 B442     		cmp	r4, r6
 331 0146 F6D3     		bcc	.L15
 332              	.L14:
 333              	.LBE19:
 334              	.LBB20:
 335              		.loc 1 325 0
 336 0148 1C4D     		ldr	r5, .L55+44
 337 014a 1D4E     		ldr	r6, .L55+48
 338              	.LBE20:
 339              		.loc 1 319 0
 340 014c FFF7FEFF 		bl	main
 341              	.LVL17:
 342              	.LBB21:
 343              		.loc 1 325 0
 344 0150 B542     		cmp	r5, r6
 345 0152 1AD2     		bcs	.L16
 346              		.loc 1 326 0
 347 0154 2C46     		mov	r4, r5
 348 0156 EF43     		mvns	r7, r5
 349 0158 54F8043B 		ldr	r3, [r4], #4
 350 015c 06EB070E 		add	lr, r6, r7
 351 0160 CEF38007 		ubfx	r7, lr, #2, #1
 352 0164 9847     		blx	r3
 353              	.LVL18:
 354              		.loc 1 325 0
 355 0166 B442     		cmp	r4, r6
 356 0168 0FD2     		bcs	.L16
 357 016a 2FB1     		cbz	r7, .L17
 358              		.loc 1 326 0
 359 016c 2268     		ldr	r2, [r4, #0]
 360              		.loc 1 327 0
 361 016e 05F10804 		add	r4, r5, #8
 362              		.loc 1 326 0
 363 0172 9047     		blx	r2
 364              	.LVL19:
 365              		.loc 1 325 0
 366 0174 B442     		cmp	r4, r6
 367 0176 08D2     		bcs	.L16
 368              	.L17:
 369              		.loc 1 326 0
 370 0178 2546     		mov	r5, r4
 371 017a 55F8040B 		ldr	r0, [r5], #4
 372 017e 8047     		blx	r0
 373 0180 6168     		ldr	r1, [r4, #4]
 374              		.loc 1 327 0
 375 0182 2C1D     		adds	r4, r5, #4
 376              		.loc 1 326 0
 377 0184 8847     		blx	r1
 378              		.loc 1 325 0
 379 0186 B442     		cmp	r4, r6
 380 0188 F6D3     		bcc	.L17
 381              	.L16:
 382              	.LBE21:
 383              		.loc 1 334 0
 384              		.loc 1 333 0
 385 018a FFF7FEBF 		b	_default_exit
 386              	.L56:
ARM GAS  /tmp/cc82Vjk8.s 			page 8


 387 018e 00BF     		.align	2
 388              	.L55:
 389 0190 00000000 		.word	__process_stack_end__
 390 0194 00000000 		.word	__main_stack_base__
 391 0198 00000000 		.word	__main_stack_end__
 392 019c 00000000 		.word	__process_stack_base__
 393 01a0 00000000 		.word	_data
 394 01a4 00000000 		.word	_edata
 395 01a8 00000000 		.word	_textdata
 396 01ac 00000000 		.word	_bss_start
 397 01b0 00000000 		.word	_bss_end
 398 01b4 00000000 		.word	__init_array_start
 399 01b8 00000000 		.word	__init_array_end
 400 01bc 00000000 		.word	__fini_array_start
 401 01c0 00000000 		.word	__fini_array_end
 402              		.cfi_endproc
 403              	.LFE4:
 404              		.size	ResetHandler, .-ResetHandler
 405 01c4 AFF30080 		.text
 405      AFF30080 
 405      AFF30080 
 406              	.Letext0: