ARM GAS  /tmp/ccAV0WFj.s 			page 1


   1              		.syntax unified
   2              		.cpu cortex-m4
   3              		.eabi_attribute 27, 3
   4              		.eabi_attribute 28, 1
   5              		.fpu fpv4-sp-d16
   6              		.eabi_attribute 20, 1
   7              		.eabi_attribute 21, 1
   8              		.eabi_attribute 23, 3
   9              		.eabi_attribute 24, 1
  10              		.eabi_attribute 25, 1
  11              		.eabi_attribute 26, 1
  12              		.eabi_attribute 30, 2
  13              		.eabi_attribute 18, 4
  14              		.thumb
  15              		.file	"hal.c"
  16              		.section	.debug_abbrev,"",%progbits
  17              	.Ldebug_abbrev0:
  18              		.section	.debug_info,"",%progbits
  19              	.Ldebug_info0:
  20              		.section	.debug_line,"",%progbits
  21              	.Ldebug_line0:
  22 0000 5B010000 		.text
  22      02003901 
  22      00000201 
  22      FB0E0D00 
  22      01010101 
  23              	.Ltext0:
  24              		.cfi_sections	.debug_frame
  25              		.section	.text.halInit,"ax",%progbits
  26              		.align	2
  27              		.p2align 4,,15
  28              		.global	halInit
  29              		.thumb
  30              		.thumb_func
  31              		.type	halInit, %function
  32              	halInit:
  33              	.LFB117:
  34              		.file 1 "../libs/ChibiOS_2.4.0/os/hal/src/hal.c"
  35              		.loc 1 68 0
  36              		.cfi_startproc
  37              		@ args = 0, pretend = 0, frame = 0
  38              		@ frame_needed = 0, uses_anonymous_args = 0
  39 0000 10B5     		push	{r4, lr}
  40              	.LCFI0:
  41              		.cfi_def_cfa_offset 8
  42              		.loc 1 70 0
  43              		.cfi_offset 14, -4
  44              		.cfi_offset 4, -8
  45 0002 FFF7FEFF 		bl	hal_lld_init
  46              		.loc 1 76 0
  47 0006 0748     		ldr	r0, .L2
  48 0008 FFF7FEFF 		bl	_pal_lld_init
  49              		.loc 1 79 0
  50 000c FFF7FEFF 		bl	adcInit
  51              		.loc 1 100 0
  52 0010 FFF7FEFF 		bl	pwmInit
  53              		.loc 1 103 0
ARM GAS  /tmp/ccAV0WFj.s 			page 2


  54 0014 FFF7FEFF 		bl	sdInit
  55              		.loc 1 109 0
  56 0018 FFF7FEFF 		bl	spiInit
  57              		.loc 1 128 0
  58 001c BDE81040 		pop	{r4, lr}
  59              		.loc 1 127 0
  60 0020 FFF7FEBF 		b	boardInit
  61              	.L3:
  62              		.align	2
  63              	.L2:
  64 0024 00000000 		.word	pal_default_config
  65              		.cfi_endproc
  66              	.LFE117:
  67              		.size	halInit, .-halInit
  68 0028 AFF30080 		.text
  68      AFF30080 
  69              	.Letext0:
  70              		.section	.debug_loc,"",%progbits
  71              	.Ldebug_loc0:
  72              	.LLST0:
  73 0000 00000000 		.4byte	.LFB117
  74 0004 02000000 		.4byte	.LCFI0
  75 0008 0200     		.2byte	0x2
  76 000a 7D       		.byte	0x7d
  77 000b 00       		.sleb128 0
  78 000c 02000000 		.4byte	.LCFI0
  79 0010 28000000 		.4byte	.LFE117
  80 0014 0200     		.2byte	0x2
  81 0016 7D       		.byte	0x7d
  82 0017 08       		.sleb128 8
  83 0018 00000000 		.4byte	0x0
  84 001c 00000000 		.4byte	0x0
  85              		.file 2 "/opt/stm32/arm-none-eabi-2011.03/bin/../lib/gcc/arm-none-eabi/4.5.2/../../../../arm-none-
  86              		.file 3 "../libs/ChibiOS_2.4.0/os/hal/platforms/STM32/GPIOv2/pal_lld.h"
  87              		.file 4 "../libs/ChibiOS_2.4.0/os/ports/common/ARMCMx/CMSIS/include/core_cm4.h"
  88              		.section	.debug_info
  89 0000 EC010000 		.4byte	0x1ec
  90 0004 0200     		.2byte	0x2
  91 0006 00000000 		.4byte	.Ldebug_abbrev0
  92 000a 04       		.byte	0x4
  93 000b 01       		.uleb128 0x1
  94 000c 1C000000 		.4byte	.LASF31
  95 0010 01       		.byte	0x1
  96 0011 EA000000 		.4byte	.LASF32
  97 0015 6A010000 		.4byte	.LASF33
  98 0019 00000000 		.4byte	0x0
  99 001d 00000000 		.4byte	0x0
 100 0021 00000000 		.4byte	.Ldebug_ranges0+0x0
 101 0025 00000000 		.4byte	.Ldebug_line0
 102 0029 02       		.uleb128 0x2
 103 002a 04       		.byte	0x4
 104 002b 05       		.byte	0x5
 105 002c 696E7400 		.ascii	"int\000"
 106 0030 03       		.uleb128 0x3
 107 0031 04       		.byte	0x4
 108 0032 07       		.byte	0x7
 109 0033 43000000 		.4byte	.LASF0
ARM GAS  /tmp/ccAV0WFj.s 			page 3


 110 0037 03       		.uleb128 0x3
 111 0038 01       		.byte	0x1
 112 0039 06       		.byte	0x6
 113 003a 8F010000 		.4byte	.LASF1
 114 003e 03       		.uleb128 0x3
 115 003f 01       		.byte	0x1
 116 0040 08       		.byte	0x8
 117 0041 7C000000 		.4byte	.LASF2
 118 0045 03       		.uleb128 0x3
 119 0046 02       		.byte	0x2
 120 0047 05       		.byte	0x5
 121 0048 41010000 		.4byte	.LASF3
 122 004c 03       		.uleb128 0x3
 123 004d 02       		.byte	0x2
 124 004e 07       		.byte	0x7
 125 004f 28000000 		.4byte	.LASF4
 126 0053 04       		.uleb128 0x4
 127 0054 2A010000 		.4byte	.LASF6
 128 0058 02       		.byte	0x2
 129 0059 4F       		.byte	0x4f
 130 005a 5E000000 		.4byte	0x5e
 131 005e 03       		.uleb128 0x3
 132 005f 04       		.byte	0x4
 133 0060 05       		.byte	0x5
 134 0061 5B010000 		.4byte	.LASF5
 135 0065 04       		.uleb128 0x4
 136 0066 52010000 		.4byte	.LASF7
 137 006a 02       		.byte	0x2
 138 006b 50       		.byte	0x50
 139 006c 70000000 		.4byte	0x70
 140 0070 03       		.uleb128 0x3
 141 0071 04       		.byte	0x4
 142 0072 07       		.byte	0x7
 143 0073 A4000000 		.4byte	.LASF8
 144 0077 03       		.uleb128 0x3
 145 0078 08       		.byte	0x8
 146 0079 05       		.byte	0x5
 147 007a 00000000 		.4byte	.LASF9
 148 007e 03       		.uleb128 0x3
 149 007f 08       		.byte	0x8
 150 0080 07       		.byte	0x7
 151 0081 5E000000 		.4byte	.LASF10
 152 0085 03       		.uleb128 0x3
 153 0086 01       		.byte	0x1
 154 0087 08       		.byte	0x8
 155 0088 25010000 		.4byte	.LASF11
 156 008c 05       		.uleb128 0x5
 157 008d 53000000 		.4byte	0x53
 158 0091 06       		.uleb128 0x6
 159 0092 1C       		.byte	0x1c
 160 0093 03       		.byte	0x3
 161 0094 AA       		.byte	0xaa
 162 0095 FC000000 		.4byte	0xfc
 163 0099 07       		.uleb128 0x7
 164 009a 64010000 		.4byte	.LASF12
 165 009e 03       		.byte	0x3
 166 009f AC       		.byte	0xac
ARM GAS  /tmp/ccAV0WFj.s 			page 4


 167 00a0 65000000 		.4byte	0x65
 168 00a4 02       		.byte	0x2
 169 00a5 23       		.byte	0x23
 170 00a6 00       		.uleb128 0x0
 171 00a7 07       		.uleb128 0x7
 172 00a8 50000000 		.4byte	.LASF13
 173 00ac 03       		.byte	0x3
 174 00ad AE       		.byte	0xae
 175 00ae 65000000 		.4byte	0x65
 176 00b2 02       		.byte	0x2
 177 00b3 23       		.byte	0x23
 178 00b4 04       		.uleb128 0x4
 179 00b5 07       		.uleb128 0x7
 180 00b6 32010000 		.4byte	.LASF14
 181 00ba 03       		.byte	0x3
 182 00bb B0       		.byte	0xb0
 183 00bc 65000000 		.4byte	0x65
 184 00c0 02       		.byte	0x2
 185 00c1 23       		.byte	0x23
 186 00c2 08       		.uleb128 0x8
 187 00c3 07       		.uleb128 0x7
 188 00c4 11010000 		.4byte	.LASF15
 189 00c8 03       		.byte	0x3
 190 00c9 B2       		.byte	0xb2
 191 00ca 65000000 		.4byte	0x65
 192 00ce 02       		.byte	0x2
 193 00cf 23       		.byte	0x23
 194 00d0 0C       		.uleb128 0xc
 195 00d1 08       		.uleb128 0x8
 196 00d2 6F647200 		.ascii	"odr\000"
 197 00d6 03       		.byte	0x3
 198 00d7 B4       		.byte	0xb4
 199 00d8 65000000 		.4byte	0x65
 200 00dc 02       		.byte	0x2
 201 00dd 23       		.byte	0x23
 202 00de 10       		.uleb128 0x10
 203 00df 07       		.uleb128 0x7
 204 00e0 BB000000 		.4byte	.LASF16
 205 00e4 03       		.byte	0x3
 206 00e5 B6       		.byte	0xb6
 207 00e6 65000000 		.4byte	0x65
 208 00ea 02       		.byte	0x2
 209 00eb 23       		.byte	0x23
 210 00ec 14       		.uleb128 0x14
 211 00ed 07       		.uleb128 0x7
 212 00ee B6000000 		.4byte	.LASF17
 213 00f2 03       		.byte	0x3
 214 00f3 B8       		.byte	0xb8
 215 00f4 65000000 		.4byte	0x65
 216 00f8 02       		.byte	0x2
 217 00f9 23       		.byte	0x23
 218 00fa 18       		.uleb128 0x18
 219 00fb 00       		.byte	0x0
 220 00fc 04       		.uleb128 0x4
 221 00fd 8A000000 		.4byte	.LASF18
 222 0101 03       		.byte	0x3
 223 0102 B9       		.byte	0xb9
ARM GAS  /tmp/ccAV0WFj.s 			page 5


 224 0103 91000000 		.4byte	0x91
 225 0107 06       		.uleb128 0x6
 226 0108 FC       		.byte	0xfc
 227 0109 03       		.byte	0x3
 228 010a C2       		.byte	0xc2
 229 010b 92010000 		.4byte	0x192
 230 010f 07       		.uleb128 0x7
 231 0110 9D000000 		.4byte	.LASF19
 232 0114 03       		.byte	0x3
 233 0115 C4       		.byte	0xc4
 234 0116 FC000000 		.4byte	0xfc
 235 011a 02       		.byte	0x2
 236 011b 23       		.byte	0x23
 237 011c 00       		.uleb128 0x0
 238 011d 07       		.uleb128 0x7
 239 011e 1E010000 		.4byte	.LASF20
 240 0122 03       		.byte	0x3
 241 0123 C6       		.byte	0xc6
 242 0124 FC000000 		.4byte	0xfc
 243 0128 02       		.byte	0x2
 244 0129 23       		.byte	0x23
 245 012a 1C       		.uleb128 0x1c
 246 012b 07       		.uleb128 0x7
 247 012c 4B010000 		.4byte	.LASF21
 248 0130 03       		.byte	0x3
 249 0131 C8       		.byte	0xc8
 250 0132 FC000000 		.4byte	0xfc
 251 0136 02       		.byte	0x2
 252 0137 23       		.byte	0x23
 253 0138 38       		.uleb128 0x38
 254 0139 07       		.uleb128 0x7
 255 013a 15000000 		.4byte	.LASF22
 256 013e 03       		.byte	0x3
 257 013f CA       		.byte	0xca
 258 0140 FC000000 		.4byte	0xfc
 259 0144 02       		.byte	0x2
 260 0145 23       		.byte	0x23
 261 0146 54       		.uleb128 0x54
 262 0147 07       		.uleb128 0x7
 263 0148 75000000 		.4byte	.LASF23
 264 014c 03       		.byte	0x3
 265 014d CD       		.byte	0xcd
 266 014e FC000000 		.4byte	0xfc
 267 0152 02       		.byte	0x2
 268 0153 23       		.byte	0x23
 269 0154 70       		.uleb128 0x70
 270 0155 07       		.uleb128 0x7
 271 0156 17010000 		.4byte	.LASF24
 272 015a 03       		.byte	0x3
 273 015b D1       		.byte	0xd1
 274 015c FC000000 		.4byte	0xfc
 275 0160 03       		.byte	0x3
 276 0161 23       		.byte	0x23
 277 0162 8C01     		.uleb128 0x8c
 278 0164 07       		.uleb128 0x7
 279 0165 3A010000 		.4byte	.LASF25
 280 0169 03       		.byte	0x3
ARM GAS  /tmp/ccAV0WFj.s 			page 6


 281 016a D5       		.byte	0xd5
 282 016b FC000000 		.4byte	0xfc
 283 016f 03       		.byte	0x3
 284 0170 23       		.byte	0x23
 285 0171 A801     		.uleb128 0xa8
 286 0173 07       		.uleb128 0x7
 287 0174 0E000000 		.4byte	.LASF26
 288 0178 03       		.byte	0x3
 289 0179 D9       		.byte	0xd9
 290 017a FC000000 		.4byte	0xfc
 291 017e 03       		.byte	0x3
 292 017f 23       		.byte	0x23
 293 0180 C401     		.uleb128 0xc4
 294 0182 07       		.uleb128 0x7
 295 0183 57000000 		.4byte	.LASF27
 296 0187 03       		.byte	0x3
 297 0188 DD       		.byte	0xdd
 298 0189 FC000000 		.4byte	0xfc
 299 018d 03       		.byte	0x3
 300 018e 23       		.byte	0x23
 301 018f E001     		.uleb128 0xe0
 302 0191 00       		.byte	0x0
 303 0192 04       		.uleb128 0x4
 304 0193 CD000000 		.4byte	.LASF28
 305 0197 03       		.byte	0x3
 306 0198 DF       		.byte	0xdf
 307 0199 07010000 		.4byte	0x107
 308 019d 09       		.uleb128 0x9
 309 019e 01       		.byte	0x1
 310 019f 3B000000 		.4byte	.LASF34
 311 01a3 01       		.byte	0x1
 312 01a4 44       		.byte	0x44
 313 01a5 01       		.byte	0x1
 314 01a6 00000000 		.4byte	.LFB117
 315 01aa 28000000 		.4byte	.LFE117
 316 01ae 00000000 		.4byte	.LLST0
 317 01b2 0A       		.uleb128 0xa
 318 01b3 C0000000 		.4byte	.LASF29
 319 01b7 04       		.byte	0x4
 320 01b8 1A05     		.2byte	0x51a
 321 01ba 8C000000 		.4byte	0x8c
 322 01be 01       		.byte	0x1
 323 01bf 01       		.byte	0x1
 324 01c0 0A       		.uleb128 0xa
 325 01c1 D7000000 		.4byte	.LASF30
 326 01c5 03       		.byte	0x3
 327 01c6 CD01     		.2byte	0x1cd
 328 01c8 CE010000 		.4byte	0x1ce
 329 01cc 01       		.byte	0x1
 330 01cd 01       		.byte	0x1
 331 01ce 0B       		.uleb128 0xb
 332 01cf 92010000 		.4byte	0x192
 333 01d3 0A       		.uleb128 0xa
 334 01d4 C0000000 		.4byte	.LASF29
 335 01d8 04       		.byte	0x4
 336 01d9 1A05     		.2byte	0x51a
 337 01db 8C000000 		.4byte	0x8c
ARM GAS  /tmp/ccAV0WFj.s 			page 7


 338 01df 01       		.byte	0x1
 339 01e0 01       		.byte	0x1
 340 01e1 0A       		.uleb128 0xa
 341 01e2 D7000000 		.4byte	.LASF30
 342 01e6 03       		.byte	0x3
 343 01e7 CD01     		.2byte	0x1cd
 344 01e9 CE010000 		.4byte	0x1ce
 345 01ed 01       		.byte	0x1
 346 01ee 01       		.byte	0x1
 347 01ef 00       		.byte	0x0
 348              		.section	.debug_abbrev
 349 0000 01       		.uleb128 0x1
 350 0001 11       		.uleb128 0x11
 351 0002 01       		.byte	0x1
 352 0003 25       		.uleb128 0x25
 353 0004 0E       		.uleb128 0xe
 354 0005 13       		.uleb128 0x13
 355 0006 0B       		.uleb128 0xb
 356 0007 03       		.uleb128 0x3
 357 0008 0E       		.uleb128 0xe
 358 0009 1B       		.uleb128 0x1b
 359 000a 0E       		.uleb128 0xe
 360 000b 11       		.uleb128 0x11
 361 000c 01       		.uleb128 0x1
 362 000d 52       		.uleb128 0x52
 363 000e 01       		.uleb128 0x1
 364 000f 55       		.uleb128 0x55
 365 0010 06       		.uleb128 0x6
 366 0011 10       		.uleb128 0x10
 367 0012 06       		.uleb128 0x6
 368 0013 00       		.byte	0x0
 369 0014 00       		.byte	0x0
 370 0015 02       		.uleb128 0x2
 371 0016 24       		.uleb128 0x24
 372 0017 00       		.byte	0x0
 373 0018 0B       		.uleb128 0xb
 374 0019 0B       		.uleb128 0xb
 375 001a 3E       		.uleb128 0x3e
 376 001b 0B       		.uleb128 0xb
 377 001c 03       		.uleb128 0x3
 378 001d 08       		.uleb128 0x8
 379 001e 00       		.byte	0x0
 380 001f 00       		.byte	0x0
 381 0020 03       		.uleb128 0x3
 382 0021 24       		.uleb128 0x24
 383 0022 00       		.byte	0x0
 384 0023 0B       		.uleb128 0xb
 385 0024 0B       		.uleb128 0xb
 386 0025 3E       		.uleb128 0x3e
 387 0026 0B       		.uleb128 0xb
 388 0027 03       		.uleb128 0x3
 389 0028 0E       		.uleb128 0xe
 390 0029 00       		.byte	0x0
 391 002a 00       		.byte	0x0
 392 002b 04       		.uleb128 0x4
 393 002c 16       		.uleb128 0x16
 394 002d 00       		.byte	0x0
ARM GAS  /tmp/ccAV0WFj.s 			page 8


 395 002e 03       		.uleb128 0x3
 396 002f 0E       		.uleb128 0xe
 397 0030 3A       		.uleb128 0x3a
 398 0031 0B       		.uleb128 0xb
 399 0032 3B       		.uleb128 0x3b
 400 0033 0B       		.uleb128 0xb
 401 0034 49       		.uleb128 0x49
 402 0035 13       		.uleb128 0x13
 403 0036 00       		.byte	0x0
 404 0037 00       		.byte	0x0
 405 0038 05       		.uleb128 0x5
 406 0039 35       		.uleb128 0x35
 407 003a 00       		.byte	0x0
 408 003b 49       		.uleb128 0x49
 409 003c 13       		.uleb128 0x13
 410 003d 00       		.byte	0x0
 411 003e 00       		.byte	0x0
 412 003f 06       		.uleb128 0x6
 413 0040 13       		.uleb128 0x13
 414 0041 01       		.byte	0x1
 415 0042 0B       		.uleb128 0xb
 416 0043 0B       		.uleb128 0xb
 417 0044 3A       		.uleb128 0x3a
 418 0045 0B       		.uleb128 0xb
 419 0046 3B       		.uleb128 0x3b
 420 0047 0B       		.uleb128 0xb
 421 0048 01       		.uleb128 0x1
 422 0049 13       		.uleb128 0x13
 423 004a 00       		.byte	0x0
 424 004b 00       		.byte	0x0
 425 004c 07       		.uleb128 0x7
 426 004d 0D       		.uleb128 0xd
 427 004e 00       		.byte	0x0
 428 004f 03       		.uleb128 0x3
 429 0050 0E       		.uleb128 0xe
 430 0051 3A       		.uleb128 0x3a
 431 0052 0B       		.uleb128 0xb
 432 0053 3B       		.uleb128 0x3b
 433 0054 0B       		.uleb128 0xb
 434 0055 49       		.uleb128 0x49
 435 0056 13       		.uleb128 0x13
 436 0057 38       		.uleb128 0x38
 437 0058 0A       		.uleb128 0xa
 438 0059 00       		.byte	0x0
 439 005a 00       		.byte	0x0
 440 005b 08       		.uleb128 0x8
 441 005c 0D       		.uleb128 0xd
 442 005d 00       		.byte	0x0
 443 005e 03       		.uleb128 0x3
 444 005f 08       		.uleb128 0x8
 445 0060 3A       		.uleb128 0x3a
 446 0061 0B       		.uleb128 0xb
 447 0062 3B       		.uleb128 0x3b
 448 0063 0B       		.uleb128 0xb
 449 0064 49       		.uleb128 0x49
 450 0065 13       		.uleb128 0x13
 451 0066 38       		.uleb128 0x38
ARM GAS  /tmp/ccAV0WFj.s 			page 9


 452 0067 0A       		.uleb128 0xa
 453 0068 00       		.byte	0x0
 454 0069 00       		.byte	0x0
 455 006a 09       		.uleb128 0x9
 456 006b 2E       		.uleb128 0x2e
 457 006c 00       		.byte	0x0
 458 006d 3F       		.uleb128 0x3f
 459 006e 0C       		.uleb128 0xc
 460 006f 03       		.uleb128 0x3
 461 0070 0E       		.uleb128 0xe
 462 0071 3A       		.uleb128 0x3a
 463 0072 0B       		.uleb128 0xb
 464 0073 3B       		.uleb128 0x3b
 465 0074 0B       		.uleb128 0xb
 466 0075 27       		.uleb128 0x27
 467 0076 0C       		.uleb128 0xc
 468 0077 11       		.uleb128 0x11
 469 0078 01       		.uleb128 0x1
 470 0079 12       		.uleb128 0x12
 471 007a 01       		.uleb128 0x1
 472 007b 40       		.uleb128 0x40
 473 007c 06       		.uleb128 0x6
 474 007d 00       		.byte	0x0
 475 007e 00       		.byte	0x0
 476 007f 0A       		.uleb128 0xa
 477 0080 34       		.uleb128 0x34
 478 0081 00       		.byte	0x0
 479 0082 03       		.uleb128 0x3
 480 0083 0E       		.uleb128 0xe
 481 0084 3A       		.uleb128 0x3a
 482 0085 0B       		.uleb128 0xb
 483 0086 3B       		.uleb128 0x3b
 484 0087 05       		.uleb128 0x5
 485 0088 49       		.uleb128 0x49
 486 0089 13       		.uleb128 0x13
 487 008a 3F       		.uleb128 0x3f
 488 008b 0C       		.uleb128 0xc
 489 008c 3C       		.uleb128 0x3c
 490 008d 0C       		.uleb128 0xc
 491 008e 00       		.byte	0x0
 492 008f 00       		.byte	0x0
 493 0090 0B       		.uleb128 0xb
 494 0091 26       		.uleb128 0x26
 495 0092 00       		.byte	0x0
 496 0093 49       		.uleb128 0x49
 497 0094 13       		.uleb128 0x13
 498 0095 00       		.byte	0x0
 499 0096 00       		.byte	0x0
 500 0097 00       		.byte	0x0
 501              		.section	.debug_pubnames,"",%progbits
 502 0000 1A000000 		.4byte	0x1a
 503 0004 0200     		.2byte	0x2
 504 0006 00000000 		.4byte	.Ldebug_info0
 505 000a F0010000 		.4byte	0x1f0
 506 000e 9D010000 		.4byte	0x19d
 507 0012 68616C49 		.ascii	"halInit\000"
 507      6E697400 
ARM GAS  /tmp/ccAV0WFj.s 			page 10


 508 001a 00000000 		.4byte	0x0
 509              		.section	.debug_pubtypes,"",%progbits
 510 0000 4C000000 		.4byte	0x4c
 511 0004 0200     		.2byte	0x2
 512 0006 00000000 		.4byte	.Ldebug_info0
 513 000a F0010000 		.4byte	0x1f0
 514 000e 53000000 		.4byte	0x53
 515 0012 696E7433 		.ascii	"int32_t\000"
 515      325F7400 
 516 001a 65000000 		.4byte	0x65
 517 001e 75696E74 		.ascii	"uint32_t\000"
 517      33325F74 
 517      00
 518 0027 FC000000 		.4byte	0xfc
 519 002b 73746D33 		.ascii	"stm32_gpio_setup_t\000"
 519      325F6770 
 519      696F5F73 
 519      65747570 
 519      5F7400
 520 003e 92010000 		.4byte	0x192
 521 0042 50414C43 		.ascii	"PALConfig\000"
 521      6F6E6669 
 521      6700
 522 004c 00000000 		.4byte	0x0
 523              		.section	.debug_aranges,"",%progbits
 524 0000 1C000000 		.4byte	0x1c
 525 0004 0200     		.2byte	0x2
 526 0006 00000000 		.4byte	.Ldebug_info0
 527 000a 04       		.byte	0x4
 528 000b 00       		.byte	0x0
 529 000c 0000     		.2byte	0x0
 530 000e 0000     		.2byte	0x0
 531 0010 00000000 		.4byte	.LFB117
 532 0014 28000000 		.4byte	.LFE117-.LFB117
 533 0018 00000000 		.4byte	0x0
 534 001c 00000000 		.4byte	0x0
 535              		.section	.debug_ranges,"",%progbits
 536              	.Ldebug_ranges0:
 537 0000 00000000 		.4byte	.LFB117
 538 0004 28000000 		.4byte	.LFE117
 539 0008 00000000 		.4byte	0x0
 540 000c 00000000 		.4byte	0x0
 541              		.section	.debug_str,"MS",%progbits,1
 542              	.LASF9:
 543 0000 6C6F6E67 		.ascii	"long long int\000"
 543      206C6F6E 
 543      6720696E 
 543      7400
 544              	.LASF26:
 545 000e 50484461 		.ascii	"PHData\000"
 545      746100
 546              	.LASF22:
 547 0015 50444461 		.ascii	"PDData\000"
 547      746100
 548              	.LASF31:
 549 001c 474E5520 		.ascii	"GNU C 4.5.2\000"
 549      4320342E 
ARM GAS  /tmp/ccAV0WFj.s 			page 11


 549      352E3200 
 550              	.LASF4:
 551 0028 73686F72 		.ascii	"short unsigned int\000"
 551      7420756E 
 551      7369676E 
 551      65642069 
 551      6E7400
 552              	.LASF34:
 553 003b 68616C49 		.ascii	"halInit\000"
 553      6E697400 
 554              	.LASF0:
 555 0043 756E7369 		.ascii	"unsigned int\000"
 555      676E6564 
 555      20696E74 
 555      00
 556              	.LASF13:
 557 0050 6F747970 		.ascii	"otyper\000"
 557      657200
 558              	.LASF27:
 559 0057 50494461 		.ascii	"PIData\000"
 559      746100
 560              	.LASF10:
 561 005e 6C6F6E67 		.ascii	"long long unsigned int\000"
 561      206C6F6E 
 561      6720756E 
 561      7369676E 
 561      65642069 
 562              	.LASF23:
 563 0075 50454461 		.ascii	"PEData\000"
 563      746100
 564              	.LASF2:
 565 007c 756E7369 		.ascii	"unsigned char\000"
 565      676E6564 
 565      20636861 
 565      7200
 566              	.LASF18:
 567 008a 73746D33 		.ascii	"stm32_gpio_setup_t\000"
 567      325F6770 
 567      696F5F73 
 567      65747570 
 567      5F7400
 568              	.LASF19:
 569 009d 50414461 		.ascii	"PAData\000"
 569      746100
 570              	.LASF8:
 571 00a4 6C6F6E67 		.ascii	"long unsigned int\000"
 571      20756E73 
 571      69676E65 
 571      6420696E 
 571      7400
 572              	.LASF17:
 573 00b6 61667268 		.ascii	"afrh\000"
 573      00
 574              	.LASF16:
 575 00bb 6166726C 		.ascii	"afrl\000"
 575      00
 576              	.LASF29:
ARM GAS  /tmp/ccAV0WFj.s 			page 12


 577 00c0 49544D5F 		.ascii	"ITM_RxBuffer\000"
 577      52784275 
 577      66666572 
 577      00
 578              	.LASF28:
 579 00cd 50414C43 		.ascii	"PALConfig\000"
 579      6F6E6669 
 579      6700
 580              	.LASF30:
 581 00d7 70616C5F 		.ascii	"pal_default_config\000"
 581      64656661 
 581      756C745F 
 581      636F6E66 
 581      696700
 582              	.LASF32:
 583 00ea 2E2E2F6C 		.ascii	"../libs/ChibiOS_2.4.0/os/hal/src/hal.c\000"
 583      6962732F 
 583      43686962 
 583      694F535F 
 583      322E342E 
 584              	.LASF15:
 585 0111 70757064 		.ascii	"pupdr\000"
 585      7200
 586              	.LASF24:
 587 0117 50464461 		.ascii	"PFData\000"
 587      746100
 588              	.LASF20:
 589 011e 50424461 		.ascii	"PBData\000"
 589      746100
 590              	.LASF11:
 591 0125 63686172 		.ascii	"char\000"
 591      00
 592              	.LASF6:
 593 012a 696E7433 		.ascii	"int32_t\000"
 593      325F7400 
 594              	.LASF14:
 595 0132 6F737065 		.ascii	"ospeedr\000"
 595      65647200 
 596              	.LASF25:
 597 013a 50474461 		.ascii	"PGData\000"
 597      746100
 598              	.LASF3:
 599 0141 73686F72 		.ascii	"short int\000"
 599      7420696E 
 599      7400
 600              	.LASF21:
 601 014b 50434461 		.ascii	"PCData\000"
 601      746100
 602              	.LASF7:
 603 0152 75696E74 		.ascii	"uint32_t\000"
 603      33325F74 
 603      00
 604              	.LASF5:
 605 015b 6C6F6E67 		.ascii	"long int\000"
 605      20696E74 
 605      00
 606              	.LASF12:
ARM GAS  /tmp/ccAV0WFj.s 			page 13


 607 0164 6D6F6465 		.ascii	"moder\000"
 607      7200
 608              	.LASF33:
 609 016a 2F686F6D 		.ascii	"/home/stm32/Workspace/FirmwareSpykee\000"
 609      652F7374 
 609      6D33322F 
 609      576F726B 
 609      73706163 
 610              	.LASF1:
 611 018f 7369676E 		.ascii	"signed char\000"
 611      65642063 
 611      68617200 
 612              		.ident	"GCC: (Sourcery G++ Lite 2011.03-42) 4.5.2"
ARM GAS  /tmp/ccAV0WFj.s 			page 14


DEFINED SYMBOLS
                            *ABS*:00000000 hal.c
     /tmp/ccAV0WFj.s:26     .text.halInit:00000000 $t
     /tmp/ccAV0WFj.s:32     .text.halInit:00000000 halInit
     /tmp/ccAV0WFj.s:64     .text.halInit:00000024 $d
                     .debug_frame:00000010 $d
     /tmp/ccAV0WFj.s:68     .text.halInit:00000028 $t

UNDEFINED SYMBOLS
hal_lld_init
_pal_lld_init
adcInit
pwmInit
sdInit
spiInit
boardInit
pal_default_config
