ARM GAS  /tmp/ccDWrunA.s 			page 1


   1              		.syntax unified
   2              		.cpu cortex-m4
   3              		.eabi_attribute 27, 3
   4              		.eabi_attribute 28, 1
   5              		.fpu fpv4-sp-d16
   6              		.eabi_attribute 20, 1
   7              		.eabi_attribute 21, 1
   8              		.eabi_attribute 23, 3
   9              		.eabi_attribute 24, 1
  10              		.eabi_attribute 25, 1
  11              		.eabi_attribute 26, 1
  12              		.eabi_attribute 30, 2
  13              		.eabi_attribute 18, 4
  14              		.thumb
  15              		.file	"hal_lld.c"
  16              		.section	.debug_abbrev,"",%progbits
  17              	.Ldebug_abbrev0:
  18              		.section	.debug_info,"",%progbits
  19              	.Ldebug_info0:
  20              		.section	.debug_line,"",%progbits
  21              	.Ldebug_line0:
  22 0000 E1010000 		.text
  22      02005201 
  22      00000201 
  22      FB0E0D00 
  22      01010101 
  23              	.Ltext0:
  24              		.cfi_sections	.debug_frame
  25              		.section	.text.hal_lld_init,"ax",%progbits
  26              		.align	2
  27              		.p2align 4,,15
  28              		.global	hal_lld_init
  29              		.thumb
  30              		.thumb_func
  31              		.type	hal_lld_init, %function
  32              	hal_lld_init:
  33              	.LFB118:
  34              		.file 1 "../libs/ChibiOS_2.4.0/os/hal/platforms/STM32F4xx/hal_lld.c"
  35              		.loc 1 99 0
  36              		.cfi_startproc
  37              		@ args = 0, pretend = 0, frame = 0
  38              		@ frame_needed = 0, uses_anonymous_args = 0
  39              		@ link register save eliminated.
  40              		.loc 1 103 0
  41 0000 234B     		ldr	r3, .L5
  42              		.loc 1 110 0
  43 0002 2449     		ldr	r1, .L5+4
  44              	.LBB4:
  45              	.LBB5:
  46              		.loc 1 57 0
  47 0004 2448     		ldr	r0, .L5+8
  48              	.LBE5:
  49              	.LBE4:
  50              		.loc 1 99 0
  51 0006 30B4     		push	{r4, r5}
  52              	.LCFI0:
  53              		.cfi_def_cfa_offset 8
ARM GAS  /tmp/ccDWrunA.s 			page 2


  54              		.loc 1 103 0
  55 0008 1D69     		ldr	r5, [r3, #16]
  56              		.cfi_offset 5, -4
  57              		.cfi_offset 4, -8
  58              		.loc 1 117 0
  59 000a 244C     		ldr	r4, .L5+12
  60              		.loc 1 103 0
  61 000c 0022     		movs	r2, #0
  62 000e 45F00105 		orr	r5, r5, #1
  63 0012 1D61     		str	r5, [r3, #16]
  64 0014 1A61     		str	r2, [r3, #16]
  65              		.loc 1 104 0
  66 0016 5D69     		ldr	r5, [r3, #20]
  67 0018 45F00105 		orr	r5, r5, #1
  68 001c 5D61     		str	r5, [r3, #20]
  69 001e 5A61     		str	r2, [r3, #20]
  70              		.loc 1 105 0
  71 0020 9D69     		ldr	r5, [r3, #24]
  72 0022 45F00105 		orr	r5, r5, #1
  73 0026 9D61     		str	r5, [r3, #24]
  74 0028 9A61     		str	r2, [r3, #24]
  75              		.loc 1 106 0
  76 002a 1D6A     		ldr	r5, [r3, #32]
  77 002c 1D62     		str	r5, [r3, #32]
  78 002e 1A62     		str	r2, [r3, #32]
  79              		.loc 1 107 0
  80 0030 5D6A     		ldr	r5, [r3, #36]
  81 0032 45F00105 		orr	r5, r5, #1
  82 0036 5D62     		str	r5, [r3, #36]
  83              		.loc 1 110 0
  84 0038 194D     		ldr	r5, .L5+16
  85              		.loc 1 107 0
  86 003a 5A62     		str	r2, [r3, #36]
  87              		.loc 1 110 0
  88 003c 4D60     		str	r5, [r1, #4]
  89              		.loc 1 112 0
  90 003e 0725     		movs	r5, #7
  91              		.loc 1 111 0
  92 0040 8A60     		str	r2, [r1, #8]
  93              		.loc 1 112 0
  94 0042 0D60     		str	r5, [r1, #0]
  95              		.loc 1 117 0
  96 0044 2168     		ldr	r1, [r4, #0]
  97 0046 41F00101 		orr	r1, r1, #1
  98 004a 2160     		str	r1, [r4, #0]
  99              		.loc 1 120 0
 100 004c 196C     		ldr	r1, [r3, #64]
 101 004e 41F08051 		orr	r1, r1, #268435456
 102 0052 1964     		str	r1, [r3, #64]
 103              	.LBB7:
 104              	.LBB6:
 105              		.loc 1 57 0
 106 0054 0168     		ldr	r1, [r0, #0]
 107 0056 41F48071 		orr	r1, r1, #256
 108 005a 0160     		str	r1, [r0, #0]
 109              		.loc 1 60 0
 110 005c 186F     		ldr	r0, [r3, #112]
ARM GAS  /tmp/ccDWrunA.s 			page 3


 111 005e 00F44071 		and	r1, r0, #768
 112 0062 B1F5007F 		cmp	r1, #512
 113 0066 03D0     		beq	.L2
 114              		.loc 1 62 0
 115 0068 4FF48030 		mov	r0, #65536
 116 006c 1867     		str	r0, [r3, #112]
 117              		.loc 1 63 0
 118 006e 1A67     		str	r2, [r3, #112]
 119              	.L2:
 120              		.loc 1 76 0
 121 0070 074B     		ldr	r3, .L5
 122 0072 1A6F     		ldr	r2, [r3, #112]
 123 0074 12F4004F 		tst	r2, #32768
 124 0078 07D1     		bne	.L3
 125              		.loc 1 78 0
 126 007a 196F     		ldr	r1, [r3, #112]
 127 007c 41F40072 		orr	r2, r1, #512
 128 0080 1A67     		str	r2, [r3, #112]
 129              		.loc 1 81 0
 130 0082 186F     		ldr	r0, [r3, #112]
 131 0084 40F40041 		orr	r1, r0, #32768
 132 0088 1967     		str	r1, [r3, #112]
 133              	.L3:
 134              	.LBE6:
 135              	.LBE7:
 136              		.loc 1 133 0
 137 008a 30BC     		pop	{r4, r5}
 138              		.loc 1 126 0
 139 008c FFF7FEBF 		b	dmaInit
 140              	.L6:
 141              		.align	2
 142              	.L5:
 143 0090 00380240 		.word	1073887232
 144 0094 10E000E0 		.word	-536813552
 145 0098 00700040 		.word	1073770496
 146 009c 001000E0 		.word	-536866816
 147 00a0 3F900200 		.word	167999
 148              		.cfi_endproc
 149              	.LFE118:
 150              		.size	hal_lld_init, .-hal_lld_init
 151 00a4 AFF30080 		.section	.text.stm32_clock_init,"ax",%progbits
 151      AFF30080 
 151      AFF30080 
 152              		.align	2
 153              		.p2align 4,,15
 154              		.global	stm32_clock_init
 155              		.thumb
 156              		.thumb_func
 157              		.type	stm32_clock_init, %function
 158              	stm32_clock_init:
 159              	.LFB119:
 160              		.loc 1 142 0
 161              		.cfi_startproc
 162              		@ args = 0, pretend = 0, frame = 0
 163              		@ frame_needed = 0, uses_anonymous_args = 0
 164              		@ link register save eliminated.
 165              		.loc 1 149 0
ARM GAS  /tmp/ccDWrunA.s 			page 4


 166 0000 294B     		ldr	r3, .L20
 167              		.loc 1 146 0
 168 0002 2A4A     		ldr	r2, .L20+4
 169 0004 4FF08050 		mov	r0, #268435456
 170              		.loc 1 149 0
 171 0008 4FF48041 		mov	r1, #16384
 172              		.loc 1 146 0
 173 000c 1064     		str	r0, [r2, #64]
 174              		.loc 1 150 0
 175 000e 1A46     		mov	r2, r3
 176              		.loc 1 149 0
 177 0010 1960     		str	r1, [r3, #0]
 178              	.L8:
 179              		.loc 1 150 0 discriminator 1
 180 0012 5168     		ldr	r1, [r2, #4]
 181 0014 11F4804F 		tst	r1, #16384
 182 0018 FBD0     		beq	.L8
 183              		.loc 1 155 0
 184 001a 2449     		ldr	r1, .L20+4
 185 001c 0868     		ldr	r0, [r1, #0]
 186 001e 40F00103 		orr	r3, r0, #1
 187 0022 0B60     		str	r3, [r1, #0]
 188              	.L9:
 189              		.loc 1 156 0 discriminator 1
 190 0024 0B68     		ldr	r3, [r1, #0]
 191 0026 214A     		ldr	r2, .L20+4
 192 0028 13F0020F 		tst	r3, #2
 193 002c FAD0     		beq	.L9
 194              		.loc 1 161 0
 195 002e 1068     		ldr	r0, [r2, #0]
 196 0030 40F48031 		orr	r1, r0, #65536
 197 0034 1160     		str	r1, [r2, #0]
 198              		.loc 1 162 0
 199 0036 1146     		mov	r1, r2
 200              	.L10:
 201              		.loc 1 162 0 is_stmt 0 discriminator 1
 202 0038 0B68     		ldr	r3, [r1, #0]
 203 003a 1C4A     		ldr	r2, .L20+4
 204 003c 13F4003F 		tst	r3, #131072
 205 0040 FAD0     		beq	.L10
 206              		.loc 1 168 0 is_stmt 1
 207 0042 506F     		ldr	r0, [r2, #116]
 208 0044 40F00101 		orr	r1, r0, #1
 209 0048 5167     		str	r1, [r2, #116]
 210              		.loc 1 169 0
 211 004a 1146     		mov	r1, r2
 212              	.L11:
 213              		.loc 1 169 0 is_stmt 0 discriminator 1
 214 004c 4B6F     		ldr	r3, [r1, #116]
 215 004e 174A     		ldr	r2, .L20+4
 216 0050 13F0020F 		tst	r3, #2
 217 0054 FAD0     		beq	.L11
 218              		.loc 1 186 0 is_stmt 1
 219 0056 164B     		ldr	r3, .L20+8
 220 0058 5360     		str	r3, [r2, #4]
 221              		.loc 1 187 0
 222 005a 1068     		ldr	r0, [r2, #0]
ARM GAS  /tmp/ccDWrunA.s 			page 5


 223 005c 40F08071 		orr	r1, r0, #16777216
 224 0060 1160     		str	r1, [r2, #0]
 225              		.loc 1 188 0
 226 0062 1146     		mov	r1, r2
 227              	.L12:
 228              		.loc 1 188 0 is_stmt 0 discriminator 1
 229 0064 0868     		ldr	r0, [r1, #0]
 230 0066 114A     		ldr	r2, .L20+4
 231 0068 10F0007F 		tst	r0, #33554432
 232 006c FAD0     		beq	.L12
 233              		.loc 1 201 0 is_stmt 1
 234 006e 9168     		ldr	r1, [r2, #8]
 235 0070 1048     		ldr	r0, .L20+12
 236 0072 41EA0003 		orr	r3, r1, r0
 237              		.loc 1 205 0
 238 0076 1049     		ldr	r1, .L20+16
 239              		.loc 1 201 0
 240 0078 9360     		str	r3, [r2, #8]
 241              		.loc 1 205 0
 242 007a 40F20570 		movw	r0, #1797
 243 007e 0860     		str	r0, [r1, #0]
 244              		.loc 1 210 0
 245 0080 9368     		ldr	r3, [r2, #8]
 246 0082 43F00201 		orr	r1, r3, #2
 247 0086 9160     		str	r1, [r2, #8]
 248              	.L13:
 249              		.loc 1 211 0 discriminator 1
 250 0088 9368     		ldr	r3, [r2, #8]
 251 008a 0849     		ldr	r1, .L20+4
 252 008c 03F00C0C 		and	ip, r3, #12
 253 0090 BCF1080F 		cmp	ip, #8
 254 0094 F8D1     		bne	.L13
 255              		.loc 1 218 0
 256 0096 4A6C     		ldr	r2, [r1, #68]
 257 0098 42F48043 		orr	r3, r2, #16384
 258 009c 4B64     		str	r3, [r1, #68]
 259 009e 486E     		ldr	r0, [r1, #100]
 260 00a0 40F48042 		orr	r2, r0, #16384
 261 00a4 4A66     		str	r2, [r1, #100]
 262              		.loc 1 219 0
 263 00a6 7047     		bx	lr
 264              	.L21:
 265              		.align	2
 266              	.L20:
 267 00a8 00700040 		.word	1073770496
 268 00ac 00380240 		.word	1073887232
 269 00b0 08544007 		.word	121656328
 270 00b4 00940838 		.word	940086272
 271 00b8 003C0240 		.word	1073888256
 272              		.cfi_endproc
 273              	.LFE119:
 274              		.size	stm32_clock_init, .-stm32_clock_init
 275 00bc AFF30080 		.text
 276              	.Letext0:
 277              		.section	.debug_loc,"",%progbits
 278              	.Ldebug_loc0:
 279              	.LLST0:
ARM GAS  /tmp/ccDWrunA.s 			page 6


 280 0000 00000000 		.4byte	.LFB118
 281 0004 08000000 		.4byte	.LCFI0
 282 0008 0200     		.2byte	0x2
 283 000a 7D       		.byte	0x7d
 284 000b 00       		.sleb128 0
 285 000c 08000000 		.4byte	.LCFI0
 286 0010 A4000000 		.4byte	.LFE118
 287 0014 0200     		.2byte	0x2
 288 0016 7D       		.byte	0x7d
 289 0017 08       		.sleb128 8
 290 0018 00000000 		.4byte	0x0
 291 001c 00000000 		.4byte	0x0
 292              		.file 2 "/opt/stm32/arm-none-eabi-2011.03/bin/../lib/gcc/arm-none-eabi/4.5.2/../../../../arm-none-
 293              		.file 3 "../libs/ChibiOS_2.4.0/os/ports/common/ARMCMx/nvic.h"
 294              		.file 4 "../libs/ChibiOS_2.4.0/os/ports/common/ARMCMx/CMSIS/include/core_cm4.h"
 295              		.file 5 "../libs/ChibiOS_2.4.0/os/hal/platforms/STM32F4xx/stm32f4xx.h"
 296              		.section	.debug_info
 297 0000 6A040000 		.4byte	0x46a
 298 0004 0200     		.2byte	0x2
 299 0006 00000000 		.4byte	.Ldebug_abbrev0
 300 000a 04       		.byte	0x4
 301 000b 01       		.uleb128 0x1
 302 000c C9020000 		.4byte	.LASF59
 303 0010 01       		.byte	0x1
 304 0011 67010000 		.4byte	.LASF60
 305 0015 9A000000 		.4byte	.LASF61
 306 0019 00000000 		.4byte	0x0
 307 001d 00000000 		.4byte	0x0
 308 0021 18000000 		.4byte	.Ldebug_ranges0+0x18
 309 0025 00000000 		.4byte	.Ldebug_line0
 310 0029 02       		.uleb128 0x2
 311 002a 04       		.byte	0x4
 312 002b 05       		.byte	0x5
 313 002c 696E7400 		.ascii	"int\000"
 314 0030 03       		.uleb128 0x3
 315 0031 04       		.byte	0x4
 316 0032 07       		.byte	0x7
 317 0033 A2010000 		.4byte	.LASF0
 318 0037 03       		.uleb128 0x3
 319 0038 01       		.byte	0x1
 320 0039 06       		.byte	0x6
 321 003a 3B010000 		.4byte	.LASF1
 322 003e 03       		.uleb128 0x3
 323 003f 01       		.byte	0x1
 324 0040 08       		.byte	0x8
 325 0041 25010000 		.4byte	.LASF2
 326 0045 03       		.uleb128 0x3
 327 0046 02       		.byte	0x2
 328 0047 05       		.byte	0x5
 329 0048 1B000000 		.4byte	.LASF3
 330 004c 04       		.uleb128 0x4
 331 004d B8010000 		.4byte	.LASF5
 332 0051 02       		.byte	0x2
 333 0052 36       		.byte	0x36
 334 0053 57000000 		.4byte	0x57
 335 0057 03       		.uleb128 0x3
 336 0058 02       		.byte	0x2
ARM GAS  /tmp/ccDWrunA.s 			page 7


 337 0059 07       		.byte	0x7
 338 005a F5010000 		.4byte	.LASF4
 339 005e 04       		.uleb128 0x4
 340 005f 17020000 		.4byte	.LASF6
 341 0063 02       		.byte	0x2
 342 0064 4F       		.byte	0x4f
 343 0065 69000000 		.4byte	0x69
 344 0069 03       		.uleb128 0x3
 345 006a 04       		.byte	0x4
 346 006b 05       		.byte	0x5
 347 006c EA000000 		.4byte	.LASF7
 348 0070 04       		.uleb128 0x4
 349 0071 5E010000 		.4byte	.LASF8
 350 0075 02       		.byte	0x2
 351 0076 50       		.byte	0x50
 352 0077 7B000000 		.4byte	0x7b
 353 007b 03       		.uleb128 0x3
 354 007c 04       		.byte	0x4
 355 007d 07       		.byte	0x7
 356 007e C1010000 		.4byte	.LASF9
 357 0082 03       		.uleb128 0x3
 358 0083 08       		.byte	0x8
 359 0084 05       		.byte	0x5
 360 0085 CF000000 		.4byte	.LASF10
 361 0089 03       		.uleb128 0x3
 362 008a 08       		.byte	0x8
 363 008b 07       		.byte	0x7
 364 008c 47010000 		.4byte	.LASF11
 365 0090 05       		.uleb128 0x5
 366 0091 70000000 		.4byte	0x70
 367 0095 05       		.uleb128 0x5
 368 0096 7B000000 		.4byte	0x7b
 369 009a 06       		.uleb128 0x6
 370 009b 20       		.byte	0x20
 371 009c 03       		.byte	0x3
 372 009d F1       		.byte	0xf1
 373 009e 13010000 		.4byte	0x113
 374 00a2 07       		.uleb128 0x7
 375 00a3 5C000000 		.4byte	.LASF12
 376 00a7 03       		.byte	0x3
 377 00a8 F2       		.byte	0xf2
 378 00a9 95000000 		.4byte	0x95
 379 00ad 02       		.byte	0x2
 380 00ae 23       		.byte	0x23
 381 00af 00       		.uleb128 0x0
 382 00b0 07       		.uleb128 0x7
 383 00b1 DD000000 		.4byte	.LASF13
 384 00b5 03       		.byte	0x3
 385 00b6 F3       		.byte	0xf3
 386 00b7 95000000 		.4byte	0x95
 387 00bb 02       		.byte	0x2
 388 00bc 23       		.byte	0x23
 389 00bd 04       		.uleb128 0x4
 390 00be 07       		.uleb128 0x7
 391 00bf 70000000 		.4byte	.LASF14
 392 00c3 03       		.byte	0x3
 393 00c4 F4       		.byte	0xf4
ARM GAS  /tmp/ccDWrunA.s 			page 8


 394 00c5 95000000 		.4byte	0x95
 395 00c9 02       		.byte	0x2
 396 00ca 23       		.byte	0x23
 397 00cb 08       		.uleb128 0x8
 398 00cc 07       		.uleb128 0x7
 399 00cd 1E010000 		.4byte	.LASF15
 400 00d1 03       		.byte	0x3
 401 00d2 F5       		.byte	0xf5
 402 00d3 95000000 		.4byte	0x95
 403 00d7 02       		.byte	0x2
 404 00d8 23       		.byte	0x23
 405 00d9 0C       		.uleb128 0xc
 406 00da 07       		.uleb128 0x7
 407 00db 77020000 		.4byte	.LASF16
 408 00df 03       		.byte	0x3
 409 00e0 F6       		.byte	0xf6
 410 00e1 95000000 		.4byte	0x95
 411 00e5 02       		.byte	0x2
 412 00e6 23       		.byte	0x23
 413 00e7 10       		.uleb128 0x10
 414 00e8 07       		.uleb128 0x7
 415 00e9 80020000 		.4byte	.LASF17
 416 00ed 03       		.byte	0x3
 417 00ee F7       		.byte	0xf7
 418 00ef 95000000 		.4byte	0x95
 419 00f3 02       		.byte	0x2
 420 00f4 23       		.byte	0x23
 421 00f5 14       		.uleb128 0x14
 422 00f6 07       		.uleb128 0x7
 423 00f7 2F000000 		.4byte	.LASF18
 424 00fb 03       		.byte	0x3
 425 00fc F8       		.byte	0xf8
 426 00fd 95000000 		.4byte	0x95
 427 0101 02       		.byte	0x2
 428 0102 23       		.byte	0x23
 429 0103 18       		.uleb128 0x18
 430 0104 07       		.uleb128 0x7
 431 0105 2A000000 		.4byte	.LASF19
 432 0109 03       		.byte	0x3
 433 010a F9       		.byte	0xf9
 434 010b 95000000 		.4byte	0x95
 435 010f 02       		.byte	0x2
 436 0110 23       		.byte	0x23
 437 0111 1C       		.uleb128 0x1c
 438 0112 00       		.byte	0x0
 439 0113 04       		.uleb128 0x4
 440 0114 29020000 		.4byte	.LASF20
 441 0118 03       		.byte	0x3
 442 0119 FA       		.byte	0xfa
 443 011a 9A000000 		.4byte	0x9a
 444 011e 03       		.uleb128 0x3
 445 011f 01       		.byte	0x1
 446 0120 08       		.byte	0x8
 447 0121 12020000 		.4byte	.LASF21
 448 0125 08       		.uleb128 0x8
 449 0126 90000000 		.4byte	0x90
 450 012a 09       		.uleb128 0x9
ARM GAS  /tmp/ccDWrunA.s 			page 9


 451 012b 70000000 		.4byte	0x70
 452 012f 3A010000 		.4byte	0x13a
 453 0133 0A       		.uleb128 0xa
 454 0134 30000000 		.4byte	0x30
 455 0138 01       		.byte	0x1
 456 0139 00       		.byte	0x0
 457 013a 0B       		.uleb128 0xb
 458 013b 10       		.byte	0x10
 459 013c 04       		.byte	0x4
 460 013d 4E02     		.2byte	0x24e
 461 013f 80010000 		.4byte	0x180
 462 0143 0C       		.uleb128 0xc
 463 0144 5C000000 		.4byte	.LASF12
 464 0148 04       		.byte	0x4
 465 0149 5002     		.2byte	0x250
 466 014b 90000000 		.4byte	0x90
 467 014f 02       		.byte	0x2
 468 0150 23       		.byte	0x23
 469 0151 00       		.uleb128 0x0
 470 0152 0C       		.uleb128 0xc
 471 0153 87020000 		.4byte	.LASF22
 472 0157 04       		.byte	0x4
 473 0158 5102     		.2byte	0x251
 474 015a 90000000 		.4byte	0x90
 475 015e 02       		.byte	0x2
 476 015f 23       		.byte	0x23
 477 0160 04       		.uleb128 0x4
 478 0161 0D       		.uleb128 0xd
 479 0162 56414C00 		.ascii	"VAL\000"
 480 0166 04       		.byte	0x4
 481 0167 5202     		.2byte	0x252
 482 0169 90000000 		.4byte	0x90
 483 016d 02       		.byte	0x2
 484 016e 23       		.byte	0x23
 485 016f 08       		.uleb128 0x8
 486 0170 0C       		.uleb128 0xc
 487 0171 E4000000 		.4byte	.LASF23
 488 0175 04       		.byte	0x4
 489 0176 5302     		.2byte	0x253
 490 0178 25010000 		.4byte	0x125
 491 017c 02       		.byte	0x2
 492 017d 23       		.byte	0x23
 493 017e 0C       		.uleb128 0xc
 494 017f 00       		.byte	0x0
 495 0180 0E       		.uleb128 0xe
 496 0181 E8010000 		.4byte	.LASF24
 497 0185 04       		.byte	0x4
 498 0186 5402     		.2byte	0x254
 499 0188 3A010000 		.4byte	0x13a
 500 018c 05       		.uleb128 0x5
 501 018d 5E000000 		.4byte	0x5e
 502 0191 0B       		.uleb128 0xb
 503 0192 18       		.byte	0x18
 504 0193 05       		.byte	0x5
 505 0194 4102     		.2byte	0x241
 506 0196 F3010000 		.4byte	0x1f3
 507 019a 0D       		.uleb128 0xd
ARM GAS  /tmp/ccDWrunA.s 			page 10


 508 019b 41435200 		.ascii	"ACR\000"
 509 019f 05       		.byte	0x5
 510 01a0 4302     		.2byte	0x243
 511 01a2 90000000 		.4byte	0x90
 512 01a6 02       		.byte	0x2
 513 01a7 23       		.byte	0x23
 514 01a8 00       		.uleb128 0x0
 515 01a9 0C       		.uleb128 0xc
 516 01aa 19010000 		.4byte	.LASF25
 517 01ae 05       		.byte	0x5
 518 01af 4402     		.2byte	0x244
 519 01b1 90000000 		.4byte	0x90
 520 01b5 02       		.byte	0x2
 521 01b6 23       		.byte	0x23
 522 01b7 04       		.uleb128 0x4
 523 01b8 0C       		.uleb128 0xc
 524 01b9 C7000000 		.4byte	.LASF26
 525 01bd 05       		.byte	0x5
 526 01be 4502     		.2byte	0x245
 527 01c0 90000000 		.4byte	0x90
 528 01c4 02       		.byte	0x2
 529 01c5 23       		.byte	0x23
 530 01c6 08       		.uleb128 0x8
 531 01c7 0D       		.uleb128 0xd
 532 01c8 535200   		.ascii	"SR\000"
 533 01cb 05       		.byte	0x5
 534 01cc 4602     		.2byte	0x246
 535 01ce 90000000 		.4byte	0x90
 536 01d2 02       		.byte	0x2
 537 01d3 23       		.byte	0x23
 538 01d4 0C       		.uleb128 0xc
 539 01d5 0D       		.uleb128 0xd
 540 01d6 435200   		.ascii	"CR\000"
 541 01d9 05       		.byte	0x5
 542 01da 4702     		.2byte	0x247
 543 01dc 90000000 		.4byte	0x90
 544 01e0 02       		.byte	0x2
 545 01e1 23       		.byte	0x23
 546 01e2 10       		.uleb128 0x10
 547 01e3 0C       		.uleb128 0xc
 548 01e4 C3020000 		.4byte	.LASF27
 549 01e8 05       		.byte	0x5
 550 01e9 4802     		.2byte	0x248
 551 01eb 90000000 		.4byte	0x90
 552 01ef 02       		.byte	0x2
 553 01f0 23       		.byte	0x23
 554 01f1 14       		.uleb128 0x14
 555 01f2 00       		.byte	0x0
 556 01f3 0E       		.uleb128 0xe
 557 01f4 9E020000 		.4byte	.LASF28
 558 01f8 05       		.byte	0x5
 559 01f9 4902     		.2byte	0x249
 560 01fb 91010000 		.4byte	0x191
 561 01ff 0B       		.uleb128 0xb
 562 0200 08       		.byte	0x8
 563 0201 05       		.byte	0x5
 564 0202 D102     		.2byte	0x2d1
ARM GAS  /tmp/ccDWrunA.s 			page 11


 565 0204 26020000 		.4byte	0x226
 566 0208 0D       		.uleb128 0xd
 567 0209 435200   		.ascii	"CR\000"
 568 020c 05       		.byte	0x5
 569 020d D302     		.2byte	0x2d3
 570 020f 90000000 		.4byte	0x90
 571 0213 02       		.byte	0x2
 572 0214 23       		.byte	0x23
 573 0215 00       		.uleb128 0x0
 574 0216 0D       		.uleb128 0xd
 575 0217 43535200 		.ascii	"CSR\000"
 576 021b 05       		.byte	0x5
 577 021c D402     		.2byte	0x2d4
 578 021e 90000000 		.4byte	0x90
 579 0222 02       		.byte	0x2
 580 0223 23       		.byte	0x23
 581 0224 04       		.uleb128 0x4
 582 0225 00       		.byte	0x0
 583 0226 0E       		.uleb128 0xe
 584 0227 42000000 		.4byte	.LASF29
 585 022b 05       		.byte	0x5
 586 022c D502     		.2byte	0x2d5
 587 022e FF010000 		.4byte	0x1ff
 588 0232 0B       		.uleb128 0xb
 589 0233 88       		.byte	0x88
 590 0234 05       		.byte	0x5
 591 0235 DB02     		.2byte	0x2db
 592 0237 FF030000 		.4byte	0x3ff
 593 023b 0D       		.uleb128 0xd
 594 023c 435200   		.ascii	"CR\000"
 595 023f 05       		.byte	0x5
 596 0240 DD02     		.2byte	0x2dd
 597 0242 90000000 		.4byte	0x90
 598 0246 02       		.byte	0x2
 599 0247 23       		.byte	0x23
 600 0248 00       		.uleb128 0x0
 601 0249 0C       		.uleb128 0xc
 602 024a E0010000 		.4byte	.LASF30
 603 024e 05       		.byte	0x5
 604 024f DE02     		.2byte	0x2de
 605 0251 90000000 		.4byte	0x90
 606 0255 02       		.byte	0x2
 607 0256 23       		.byte	0x23
 608 0257 04       		.uleb128 0x4
 609 0258 0C       		.uleb128 0xc
 610 0259 6B000000 		.4byte	.LASF31
 611 025d 05       		.byte	0x5
 612 025e DF02     		.2byte	0x2df
 613 0260 90000000 		.4byte	0x90
 614 0264 02       		.byte	0x2
 615 0265 23       		.byte	0x23
 616 0266 08       		.uleb128 0x8
 617 0267 0D       		.uleb128 0xd
 618 0268 43495200 		.ascii	"CIR\000"
 619 026c 05       		.byte	0x5
 620 026d E002     		.2byte	0x2e0
 621 026f 90000000 		.4byte	0x90
ARM GAS  /tmp/ccDWrunA.s 			page 12


 622 0273 02       		.byte	0x2
 623 0274 23       		.byte	0x23
 624 0275 0C       		.uleb128 0xc
 625 0276 0C       		.uleb128 0xc
 626 0277 8C020000 		.4byte	.LASF32
 627 027b 05       		.byte	0x5
 628 027c E102     		.2byte	0x2e1
 629 027e 90000000 		.4byte	0x90
 630 0282 02       		.byte	0x2
 631 0283 23       		.byte	0x23
 632 0284 10       		.uleb128 0x10
 633 0285 0C       		.uleb128 0xc
 634 0286 AF010000 		.4byte	.LASF33
 635 028a 05       		.byte	0x5
 636 028b E202     		.2byte	0x2e2
 637 028d 90000000 		.4byte	0x90
 638 0291 02       		.byte	0x2
 639 0292 23       		.byte	0x23
 640 0293 14       		.uleb128 0x14
 641 0294 0C       		.uleb128 0xc
 642 0295 95020000 		.4byte	.LASF34
 643 0299 05       		.byte	0x5
 644 029a E302     		.2byte	0x2e3
 645 029c 90000000 		.4byte	0x90
 646 02a0 02       		.byte	0x2
 647 02a1 23       		.byte	0x23
 648 02a2 18       		.uleb128 0x18
 649 02a3 0C       		.uleb128 0xc
 650 02a4 31020000 		.4byte	.LASF35
 651 02a8 05       		.byte	0x5
 652 02a9 E402     		.2byte	0x2e4
 653 02ab 70000000 		.4byte	0x70
 654 02af 02       		.byte	0x2
 655 02b0 23       		.byte	0x23
 656 02b1 1C       		.uleb128 0x1c
 657 02b2 0C       		.uleb128 0xc
 658 02b3 0A000000 		.4byte	.LASF36
 659 02b7 05       		.byte	0x5
 660 02b8 E502     		.2byte	0x2e5
 661 02ba 90000000 		.4byte	0x90
 662 02be 02       		.byte	0x2
 663 02bf 23       		.byte	0x23
 664 02c0 20       		.uleb128 0x20
 665 02c1 0C       		.uleb128 0xc
 666 02c2 FF000000 		.4byte	.LASF37
 667 02c6 05       		.byte	0x5
 668 02c7 E602     		.2byte	0x2e6
 669 02c9 90000000 		.4byte	0x90
 670 02cd 02       		.byte	0x2
 671 02ce 23       		.byte	0x23
 672 02cf 24       		.uleb128 0x24
 673 02d0 0C       		.uleb128 0xc
 674 02d1 3B020000 		.4byte	.LASF38
 675 02d5 05       		.byte	0x5
 676 02d6 E702     		.2byte	0x2e7
 677 02d8 2A010000 		.4byte	0x12a
 678 02dc 02       		.byte	0x2
ARM GAS  /tmp/ccDWrunA.s 			page 13


 679 02dd 23       		.byte	0x23
 680 02de 28       		.uleb128 0x28
 681 02df 0C       		.uleb128 0xc
 682 02e0 4E000000 		.4byte	.LASF39
 683 02e4 05       		.byte	0x5
 684 02e5 E802     		.2byte	0x2e8
 685 02e7 90000000 		.4byte	0x90
 686 02eb 02       		.byte	0x2
 687 02ec 23       		.byte	0x23
 688 02ed 30       		.uleb128 0x30
 689 02ee 0C       		.uleb128 0xc
 690 02ef 13000000 		.4byte	.LASF40
 691 02f3 05       		.byte	0x5
 692 02f4 E902     		.2byte	0x2e9
 693 02f6 90000000 		.4byte	0x90
 694 02fa 02       		.byte	0x2
 695 02fb 23       		.byte	0x23
 696 02fc 34       		.uleb128 0x34
 697 02fd 0C       		.uleb128 0xc
 698 02fe BF000000 		.4byte	.LASF41
 699 0302 05       		.byte	0x5
 700 0303 EA02     		.2byte	0x2ea
 701 0305 90000000 		.4byte	0x90
 702 0309 02       		.byte	0x2
 703 030a 23       		.byte	0x23
 704 030b 38       		.uleb128 0x38
 705 030c 0C       		.uleb128 0xc
 706 030d 45020000 		.4byte	.LASF42
 707 0311 05       		.byte	0x5
 708 0312 EB02     		.2byte	0x2eb
 709 0314 70000000 		.4byte	0x70
 710 0318 02       		.byte	0x2
 711 0319 23       		.byte	0x23
 712 031a 3C       		.uleb128 0x3c
 713 031b 0C       		.uleb128 0xc
 714 031c 77000000 		.4byte	.LASF43
 715 0320 05       		.byte	0x5
 716 0321 EC02     		.2byte	0x2ec
 717 0323 90000000 		.4byte	0x90
 718 0327 02       		.byte	0x2
 719 0328 23       		.byte	0x23
 720 0329 40       		.uleb128 0x40
 721 032a 0C       		.uleb128 0xc
 722 032b 33010000 		.4byte	.LASF44
 723 032f 05       		.byte	0x5
 724 0330 ED02     		.2byte	0x2ed
 725 0332 90000000 		.4byte	0x90
 726 0336 02       		.byte	0x2
 727 0337 23       		.byte	0x23
 728 0338 44       		.uleb128 0x44
 729 0339 0C       		.uleb128 0xc
 730 033a 4F020000 		.4byte	.LASF45
 731 033e 05       		.byte	0x5
 732 033f EE02     		.2byte	0x2ee
 733 0341 2A010000 		.4byte	0x12a
 734 0345 02       		.byte	0x2
 735 0346 23       		.byte	0x23
ARM GAS  /tmp/ccDWrunA.s 			page 14


 736 0347 48       		.uleb128 0x48
 737 0348 0C       		.uleb128 0xc
 738 0349 00000000 		.4byte	.LASF46
 739 034d 05       		.byte	0x5
 740 034e EF02     		.2byte	0x2ef
 741 0350 90000000 		.4byte	0x90
 742 0354 02       		.byte	0x2
 743 0355 23       		.byte	0x23
 744 0356 50       		.uleb128 0x50
 745 0357 0C       		.uleb128 0xc
 746 0358 1F020000 		.4byte	.LASF47
 747 035c 05       		.byte	0x5
 748 035d F002     		.2byte	0x2f0
 749 035f 90000000 		.4byte	0x90
 750 0363 02       		.byte	0x2
 751 0364 23       		.byte	0x23
 752 0365 54       		.uleb128 0x54
 753 0366 0C       		.uleb128 0xc
 754 0367 61000000 		.4byte	.LASF48
 755 036b 05       		.byte	0x5
 756 036c F102     		.2byte	0x2f1
 757 036e 90000000 		.4byte	0x90
 758 0372 02       		.byte	0x2
 759 0373 23       		.byte	0x23
 760 0374 58       		.uleb128 0x58
 761 0375 0C       		.uleb128 0xc
 762 0376 59020000 		.4byte	.LASF49
 763 037a 05       		.byte	0x5
 764 037b F202     		.2byte	0x2f2
 765 037d 70000000 		.4byte	0x70
 766 0381 02       		.byte	0x2
 767 0382 23       		.byte	0x23
 768 0383 5C       		.uleb128 0x5c
 769 0384 0C       		.uleb128 0xc
 770 0385 08020000 		.4byte	.LASF50
 771 0389 05       		.byte	0x5
 772 038a F302     		.2byte	0x2f3
 773 038c 90000000 		.4byte	0x90
 774 0390 02       		.byte	0x2
 775 0391 23       		.byte	0x23
 776 0392 60       		.uleb128 0x60
 777 0393 0C       		.uleb128 0xc
 778 0394 B9020000 		.4byte	.LASF51
 779 0398 05       		.byte	0x5
 780 0399 F402     		.2byte	0x2f4
 781 039b 90000000 		.4byte	0x90
 782 039f 02       		.byte	0x2
 783 03a0 23       		.byte	0x23
 784 03a1 64       		.uleb128 0x64
 785 03a2 0C       		.uleb128 0xc
 786 03a3 63020000 		.4byte	.LASF52
 787 03a7 05       		.byte	0x5
 788 03a8 F502     		.2byte	0x2f5
 789 03aa 2A010000 		.4byte	0x12a
 790 03ae 02       		.byte	0x2
 791 03af 23       		.byte	0x23
 792 03b0 68       		.uleb128 0x68
ARM GAS  /tmp/ccDWrunA.s 			page 15


 793 03b1 0C       		.uleb128 0xc
 794 03b2 25000000 		.4byte	.LASF53
 795 03b6 05       		.byte	0x5
 796 03b7 F602     		.2byte	0x2f6
 797 03b9 90000000 		.4byte	0x90
 798 03bd 02       		.byte	0x2
 799 03be 23       		.byte	0x23
 800 03bf 70       		.uleb128 0x70
 801 03c0 0D       		.uleb128 0xd
 802 03c1 43535200 		.ascii	"CSR\000"
 803 03c5 05       		.byte	0x5
 804 03c6 F702     		.2byte	0x2f7
 805 03c8 90000000 		.4byte	0x90
 806 03cc 02       		.byte	0x2
 807 03cd 23       		.byte	0x23
 808 03ce 74       		.uleb128 0x74
 809 03cf 0C       		.uleb128 0xc
 810 03d0 6D020000 		.4byte	.LASF54
 811 03d4 05       		.byte	0x5
 812 03d5 F802     		.2byte	0x2f8
 813 03d7 2A010000 		.4byte	0x12a
 814 03db 02       		.byte	0x2
 815 03dc 23       		.byte	0x23
 816 03dd 78       		.uleb128 0x78
 817 03de 0C       		.uleb128 0xc
 818 03df 56000000 		.4byte	.LASF55
 819 03e3 05       		.byte	0x5
 820 03e4 F902     		.2byte	0x2f9
 821 03e6 90000000 		.4byte	0x90
 822 03ea 03       		.byte	0x3
 823 03eb 23       		.byte	0x23
 824 03ec 8001     		.uleb128 0x80
 825 03ee 0C       		.uleb128 0xc
 826 03ef 37000000 		.4byte	.LASF56
 827 03f3 05       		.byte	0x5
 828 03f4 FA02     		.2byte	0x2fa
 829 03f6 90000000 		.4byte	0x90
 830 03fa 03       		.byte	0x3
 831 03fb 23       		.byte	0x23
 832 03fc 8401     		.uleb128 0x84
 833 03fe 00       		.byte	0x0
 834 03ff 0E       		.uleb128 0xe
 835 0400 F3000000 		.4byte	.LASF57
 836 0404 05       		.byte	0x5
 837 0405 FB02     		.2byte	0x2fb
 838 0407 32020000 		.4byte	0x232
 839 040b 0F       		.uleb128 0xf
 840 040c 7F000000 		.4byte	.LASF62
 841 0410 01       		.byte	0x1
 842 0411 36       		.byte	0x36
 843 0412 01       		.byte	0x1
 844 0413 01       		.byte	0x1
 845 0414 10       		.uleb128 0x10
 846 0415 01       		.byte	0x1
 847 0416 D3010000 		.4byte	.LASF63
 848 041a 01       		.byte	0x1
 849 041b 63       		.byte	0x63
ARM GAS  /tmp/ccDWrunA.s 			page 16


 850 041c 01       		.byte	0x1
 851 041d 00000000 		.4byte	.LFB118
 852 0421 A4000000 		.4byte	.LFE118
 853 0425 00000000 		.4byte	.LLST0
 854 0429 3D040000 		.4byte	0x43d
 855 042d 11       		.uleb128 0x11
 856 042e 0B040000 		.4byte	0x40b
 857 0432 04000000 		.4byte	.LBB4
 858 0436 00000000 		.4byte	.Ldebug_ranges0+0x0
 859 043a 01       		.byte	0x1
 860 043b 7B       		.byte	0x7b
 861 043c 00       		.byte	0x0
 862 043d 12       		.uleb128 0x12
 863 043e 01       		.byte	0x1
 864 043f 08010000 		.4byte	.LASF64
 865 0443 01       		.byte	0x1
 866 0444 8E       		.byte	0x8e
 867 0445 01       		.byte	0x1
 868 0446 00000000 		.4byte	.LFB119
 869 044a BC000000 		.4byte	.LFE119
 870 044e 02       		.byte	0x2
 871 044f 7D       		.byte	0x7d
 872 0450 00       		.sleb128 0
 873 0451 13       		.uleb128 0x13
 874 0452 AC020000 		.4byte	.LASF58
 875 0456 04       		.byte	0x4
 876 0457 1A05     		.2byte	0x51a
 877 0459 8C010000 		.4byte	0x18c
 878 045d 01       		.byte	0x1
 879 045e 01       		.byte	0x1
 880 045f 13       		.uleb128 0x13
 881 0460 AC020000 		.4byte	.LASF58
 882 0464 04       		.byte	0x4
 883 0465 1A05     		.2byte	0x51a
 884 0467 8C010000 		.4byte	0x18c
 885 046b 01       		.byte	0x1
 886 046c 01       		.byte	0x1
 887 046d 00       		.byte	0x0
 888              		.section	.debug_abbrev
 889 0000 01       		.uleb128 0x1
 890 0001 11       		.uleb128 0x11
 891 0002 01       		.byte	0x1
 892 0003 25       		.uleb128 0x25
 893 0004 0E       		.uleb128 0xe
 894 0005 13       		.uleb128 0x13
 895 0006 0B       		.uleb128 0xb
 896 0007 03       		.uleb128 0x3
 897 0008 0E       		.uleb128 0xe
 898 0009 1B       		.uleb128 0x1b
 899 000a 0E       		.uleb128 0xe
 900 000b 11       		.uleb128 0x11
 901 000c 01       		.uleb128 0x1
 902 000d 52       		.uleb128 0x52
 903 000e 01       		.uleb128 0x1
 904 000f 55       		.uleb128 0x55
 905 0010 06       		.uleb128 0x6
 906 0011 10       		.uleb128 0x10
ARM GAS  /tmp/ccDWrunA.s 			page 17


 907 0012 06       		.uleb128 0x6
 908 0013 00       		.byte	0x0
 909 0014 00       		.byte	0x0
 910 0015 02       		.uleb128 0x2
 911 0016 24       		.uleb128 0x24
 912 0017 00       		.byte	0x0
 913 0018 0B       		.uleb128 0xb
 914 0019 0B       		.uleb128 0xb
 915 001a 3E       		.uleb128 0x3e
 916 001b 0B       		.uleb128 0xb
 917 001c 03       		.uleb128 0x3
 918 001d 08       		.uleb128 0x8
 919 001e 00       		.byte	0x0
 920 001f 00       		.byte	0x0
 921 0020 03       		.uleb128 0x3
 922 0021 24       		.uleb128 0x24
 923 0022 00       		.byte	0x0
 924 0023 0B       		.uleb128 0xb
 925 0024 0B       		.uleb128 0xb
 926 0025 3E       		.uleb128 0x3e
 927 0026 0B       		.uleb128 0xb
 928 0027 03       		.uleb128 0x3
 929 0028 0E       		.uleb128 0xe
 930 0029 00       		.byte	0x0
 931 002a 00       		.byte	0x0
 932 002b 04       		.uleb128 0x4
 933 002c 16       		.uleb128 0x16
 934 002d 00       		.byte	0x0
 935 002e 03       		.uleb128 0x3
 936 002f 0E       		.uleb128 0xe
 937 0030 3A       		.uleb128 0x3a
 938 0031 0B       		.uleb128 0xb
 939 0032 3B       		.uleb128 0x3b
 940 0033 0B       		.uleb128 0xb
 941 0034 49       		.uleb128 0x49
 942 0035 13       		.uleb128 0x13
 943 0036 00       		.byte	0x0
 944 0037 00       		.byte	0x0
 945 0038 05       		.uleb128 0x5
 946 0039 35       		.uleb128 0x35
 947 003a 00       		.byte	0x0
 948 003b 49       		.uleb128 0x49
 949 003c 13       		.uleb128 0x13
 950 003d 00       		.byte	0x0
 951 003e 00       		.byte	0x0
 952 003f 06       		.uleb128 0x6
 953 0040 13       		.uleb128 0x13
 954 0041 01       		.byte	0x1
 955 0042 0B       		.uleb128 0xb
 956 0043 0B       		.uleb128 0xb
 957 0044 3A       		.uleb128 0x3a
 958 0045 0B       		.uleb128 0xb
 959 0046 3B       		.uleb128 0x3b
 960 0047 0B       		.uleb128 0xb
 961 0048 01       		.uleb128 0x1
 962 0049 13       		.uleb128 0x13
 963 004a 00       		.byte	0x0
ARM GAS  /tmp/ccDWrunA.s 			page 18


 964 004b 00       		.byte	0x0
 965 004c 07       		.uleb128 0x7
 966 004d 0D       		.uleb128 0xd
 967 004e 00       		.byte	0x0
 968 004f 03       		.uleb128 0x3
 969 0050 0E       		.uleb128 0xe
 970 0051 3A       		.uleb128 0x3a
 971 0052 0B       		.uleb128 0xb
 972 0053 3B       		.uleb128 0x3b
 973 0054 0B       		.uleb128 0xb
 974 0055 49       		.uleb128 0x49
 975 0056 13       		.uleb128 0x13
 976 0057 38       		.uleb128 0x38
 977 0058 0A       		.uleb128 0xa
 978 0059 00       		.byte	0x0
 979 005a 00       		.byte	0x0
 980 005b 08       		.uleb128 0x8
 981 005c 26       		.uleb128 0x26
 982 005d 00       		.byte	0x0
 983 005e 49       		.uleb128 0x49
 984 005f 13       		.uleb128 0x13
 985 0060 00       		.byte	0x0
 986 0061 00       		.byte	0x0
 987 0062 09       		.uleb128 0x9
 988 0063 01       		.uleb128 0x1
 989 0064 01       		.byte	0x1
 990 0065 49       		.uleb128 0x49
 991 0066 13       		.uleb128 0x13
 992 0067 01       		.uleb128 0x1
 993 0068 13       		.uleb128 0x13
 994 0069 00       		.byte	0x0
 995 006a 00       		.byte	0x0
 996 006b 0A       		.uleb128 0xa
 997 006c 21       		.uleb128 0x21
 998 006d 00       		.byte	0x0
 999 006e 49       		.uleb128 0x49
 1000 006f 13       		.uleb128 0x13
 1001 0070 2F       		.uleb128 0x2f
 1002 0071 0B       		.uleb128 0xb
 1003 0072 00       		.byte	0x0
 1004 0073 00       		.byte	0x0
 1005 0074 0B       		.uleb128 0xb
 1006 0075 13       		.uleb128 0x13
 1007 0076 01       		.byte	0x1
 1008 0077 0B       		.uleb128 0xb
 1009 0078 0B       		.uleb128 0xb
 1010 0079 3A       		.uleb128 0x3a
 1011 007a 0B       		.uleb128 0xb
 1012 007b 3B       		.uleb128 0x3b
 1013 007c 05       		.uleb128 0x5
 1014 007d 01       		.uleb128 0x1
 1015 007e 13       		.uleb128 0x13
 1016 007f 00       		.byte	0x0
 1017 0080 00       		.byte	0x0
 1018 0081 0C       		.uleb128 0xc
 1019 0082 0D       		.uleb128 0xd
 1020 0083 00       		.byte	0x0
ARM GAS  /tmp/ccDWrunA.s 			page 19


 1021 0084 03       		.uleb128 0x3
 1022 0085 0E       		.uleb128 0xe
 1023 0086 3A       		.uleb128 0x3a
 1024 0087 0B       		.uleb128 0xb
 1025 0088 3B       		.uleb128 0x3b
 1026 0089 05       		.uleb128 0x5
 1027 008a 49       		.uleb128 0x49
 1028 008b 13       		.uleb128 0x13
 1029 008c 38       		.uleb128 0x38
 1030 008d 0A       		.uleb128 0xa
 1031 008e 00       		.byte	0x0
 1032 008f 00       		.byte	0x0
 1033 0090 0D       		.uleb128 0xd
 1034 0091 0D       		.uleb128 0xd
 1035 0092 00       		.byte	0x0
 1036 0093 03       		.uleb128 0x3
 1037 0094 08       		.uleb128 0x8
 1038 0095 3A       		.uleb128 0x3a
 1039 0096 0B       		.uleb128 0xb
 1040 0097 3B       		.uleb128 0x3b
 1041 0098 05       		.uleb128 0x5
 1042 0099 49       		.uleb128 0x49
 1043 009a 13       		.uleb128 0x13
 1044 009b 38       		.uleb128 0x38
 1045 009c 0A       		.uleb128 0xa
 1046 009d 00       		.byte	0x0
 1047 009e 00       		.byte	0x0
 1048 009f 0E       		.uleb128 0xe
 1049 00a0 16       		.uleb128 0x16
 1050 00a1 00       		.byte	0x0
 1051 00a2 03       		.uleb128 0x3
 1052 00a3 0E       		.uleb128 0xe
 1053 00a4 3A       		.uleb128 0x3a
 1054 00a5 0B       		.uleb128 0xb
 1055 00a6 3B       		.uleb128 0x3b
 1056 00a7 05       		.uleb128 0x5
 1057 00a8 49       		.uleb128 0x49
 1058 00a9 13       		.uleb128 0x13
 1059 00aa 00       		.byte	0x0
 1060 00ab 00       		.byte	0x0
 1061 00ac 0F       		.uleb128 0xf
 1062 00ad 2E       		.uleb128 0x2e
 1063 00ae 00       		.byte	0x0
 1064 00af 03       		.uleb128 0x3
 1065 00b0 0E       		.uleb128 0xe
 1066 00b1 3A       		.uleb128 0x3a
 1067 00b2 0B       		.uleb128 0xb
 1068 00b3 3B       		.uleb128 0x3b
 1069 00b4 0B       		.uleb128 0xb
 1070 00b5 27       		.uleb128 0x27
 1071 00b6 0C       		.uleb128 0xc
 1072 00b7 20       		.uleb128 0x20
 1073 00b8 0B       		.uleb128 0xb
 1074 00b9 00       		.byte	0x0
 1075 00ba 00       		.byte	0x0
 1076 00bb 10       		.uleb128 0x10
 1077 00bc 2E       		.uleb128 0x2e
ARM GAS  /tmp/ccDWrunA.s 			page 20


 1078 00bd 01       		.byte	0x1
 1079 00be 3F       		.uleb128 0x3f
 1080 00bf 0C       		.uleb128 0xc
 1081 00c0 03       		.uleb128 0x3
 1082 00c1 0E       		.uleb128 0xe
 1083 00c2 3A       		.uleb128 0x3a
 1084 00c3 0B       		.uleb128 0xb
 1085 00c4 3B       		.uleb128 0x3b
 1086 00c5 0B       		.uleb128 0xb
 1087 00c6 27       		.uleb128 0x27
 1088 00c7 0C       		.uleb128 0xc
 1089 00c8 11       		.uleb128 0x11
 1090 00c9 01       		.uleb128 0x1
 1091 00ca 12       		.uleb128 0x12
 1092 00cb 01       		.uleb128 0x1
 1093 00cc 40       		.uleb128 0x40
 1094 00cd 06       		.uleb128 0x6
 1095 00ce 01       		.uleb128 0x1
 1096 00cf 13       		.uleb128 0x13
 1097 00d0 00       		.byte	0x0
 1098 00d1 00       		.byte	0x0
 1099 00d2 11       		.uleb128 0x11
 1100 00d3 1D       		.uleb128 0x1d
 1101 00d4 00       		.byte	0x0
 1102 00d5 31       		.uleb128 0x31
 1103 00d6 13       		.uleb128 0x13
 1104 00d7 52       		.uleb128 0x52
 1105 00d8 01       		.uleb128 0x1
 1106 00d9 55       		.uleb128 0x55
 1107 00da 06       		.uleb128 0x6
 1108 00db 58       		.uleb128 0x58
 1109 00dc 0B       		.uleb128 0xb
 1110 00dd 59       		.uleb128 0x59
 1111 00de 0B       		.uleb128 0xb
 1112 00df 00       		.byte	0x0
 1113 00e0 00       		.byte	0x0
 1114 00e1 12       		.uleb128 0x12
 1115 00e2 2E       		.uleb128 0x2e
 1116 00e3 00       		.byte	0x0
 1117 00e4 3F       		.uleb128 0x3f
 1118 00e5 0C       		.uleb128 0xc
 1119 00e6 03       		.uleb128 0x3
 1120 00e7 0E       		.uleb128 0xe
 1121 00e8 3A       		.uleb128 0x3a
 1122 00e9 0B       		.uleb128 0xb
 1123 00ea 3B       		.uleb128 0x3b
 1124 00eb 0B       		.uleb128 0xb
 1125 00ec 27       		.uleb128 0x27
 1126 00ed 0C       		.uleb128 0xc
 1127 00ee 11       		.uleb128 0x11
 1128 00ef 01       		.uleb128 0x1
 1129 00f0 12       		.uleb128 0x12
 1130 00f1 01       		.uleb128 0x1
 1131 00f2 40       		.uleb128 0x40
 1132 00f3 0A       		.uleb128 0xa
 1133 00f4 00       		.byte	0x0
 1134 00f5 00       		.byte	0x0
ARM GAS  /tmp/ccDWrunA.s 			page 21


 1135 00f6 13       		.uleb128 0x13
 1136 00f7 34       		.uleb128 0x34
 1137 00f8 00       		.byte	0x0
 1138 00f9 03       		.uleb128 0x3
 1139 00fa 0E       		.uleb128 0xe
 1140 00fb 3A       		.uleb128 0x3a
 1141 00fc 0B       		.uleb128 0xb
 1142 00fd 3B       		.uleb128 0x3b
 1143 00fe 05       		.uleb128 0x5
 1144 00ff 49       		.uleb128 0x49
 1145 0100 13       		.uleb128 0x13
 1146 0101 3F       		.uleb128 0x3f
 1147 0102 0C       		.uleb128 0xc
 1148 0103 3C       		.uleb128 0x3c
 1149 0104 0C       		.uleb128 0xc
 1150 0105 00       		.byte	0x0
 1151 0106 00       		.byte	0x0
 1152 0107 00       		.byte	0x0
 1153              		.section	.debug_pubnames,"",%progbits
 1154 0000 34000000 		.4byte	0x34
 1155 0004 0200     		.2byte	0x2
 1156 0006 00000000 		.4byte	.Ldebug_info0
 1157 000a 6E040000 		.4byte	0x46e
 1158 000e 14040000 		.4byte	0x414
 1159 0012 68616C5F 		.ascii	"hal_lld_init\000"
 1159      6C6C645F 
 1159      696E6974 
 1159      00
 1160 001f 3D040000 		.4byte	0x43d
 1161 0023 73746D33 		.ascii	"stm32_clock_init\000"
 1161      325F636C 
 1161      6F636B5F 
 1161      696E6974 
 1161      00
 1162 0034 00000000 		.4byte	0x0
 1163              		.section	.debug_pubtypes,"",%progbits
 1164 0000 83000000 		.4byte	0x83
 1165 0004 0200     		.2byte	0x2
 1166 0006 00000000 		.4byte	.Ldebug_info0
 1167 000a 6E040000 		.4byte	0x46e
 1168 000e 4C000000 		.4byte	0x4c
 1169 0012 75696E74 		.ascii	"uint16_t\000"
 1169      31365F74 
 1169      00
 1170 001b 5E000000 		.4byte	0x5e
 1171 001f 696E7433 		.ascii	"int32_t\000"
 1171      325F7400 
 1172 0027 70000000 		.4byte	0x70
 1173 002b 75696E74 		.ascii	"uint32_t\000"
 1173      33325F74 
 1173      00
 1174 0034 13010000 		.4byte	0x113
 1175 0038 434D785F 		.ascii	"CMx_DWT\000"
 1175      44575400 
 1176 0040 80010000 		.4byte	0x180
 1177 0044 53797354 		.ascii	"SysTick_Type\000"
 1177      69636B5F 
ARM GAS  /tmp/ccDWrunA.s 			page 22


 1177      54797065 
 1177      00
 1178 0051 F3010000 		.4byte	0x1f3
 1179 0055 464C4153 		.ascii	"FLASH_TypeDef\000"
 1179      485F5479 
 1179      70654465 
 1179      6600
 1180 0063 26020000 		.4byte	0x226
 1181 0067 5057525F 		.ascii	"PWR_TypeDef\000"
 1181      54797065 
 1181      44656600 
 1182 0073 FF030000 		.4byte	0x3ff
 1183 0077 5243435F 		.ascii	"RCC_TypeDef\000"
 1183      54797065 
 1183      44656600 
 1184 0083 00000000 		.4byte	0x0
 1185              		.section	.debug_aranges,"",%progbits
 1186 0000 24000000 		.4byte	0x24
 1187 0004 0200     		.2byte	0x2
 1188 0006 00000000 		.4byte	.Ldebug_info0
 1189 000a 04       		.byte	0x4
 1190 000b 00       		.byte	0x0
 1191 000c 0000     		.2byte	0x0
 1192 000e 0000     		.2byte	0x0
 1193 0010 00000000 		.4byte	.LFB118
 1194 0014 A4000000 		.4byte	.LFE118-.LFB118
 1195 0018 00000000 		.4byte	.LFB119
 1196 001c BC000000 		.4byte	.LFE119-.LFB119
 1197 0020 00000000 		.4byte	0x0
 1198 0024 00000000 		.4byte	0x0
 1199              		.section	.debug_ranges,"",%progbits
 1200              	.Ldebug_ranges0:
 1201 0000 04000000 		.4byte	.LBB4
 1202 0004 06000000 		.4byte	.LBE4
 1203 0008 54000000 		.4byte	.LBB7
 1204 000c 8A000000 		.4byte	.LBE7
 1205 0010 00000000 		.4byte	0x0
 1206 0014 00000000 		.4byte	0x0
 1207 0018 00000000 		.4byte	.LFB118
 1208 001c A4000000 		.4byte	.LFE118
 1209 0020 00000000 		.4byte	.LFB119
 1210 0024 BC000000 		.4byte	.LFE119
 1211 0028 00000000 		.4byte	0x0
 1212 002c 00000000 		.4byte	0x0
 1213              		.section	.debug_str,"MS",%progbits,1
 1214              	.LASF46:
 1215 0000 41484231 		.ascii	"AHB1LPENR\000"
 1215      4C50454E 
 1215      5200
 1216              	.LASF36:
 1217 000a 41504231 		.ascii	"APB1RSTR\000"
 1217      52535452 
 1217      00
 1218              	.LASF40:
 1219 0013 41484232 		.ascii	"AHB2ENR\000"
 1219      454E5200 
 1220              	.LASF3:
ARM GAS  /tmp/ccDWrunA.s 			page 23


 1221 001b 73686F72 		.ascii	"short int\000"
 1221      7420696E 
 1221      7400
 1222              	.LASF53:
 1223 0025 42444352 		.ascii	"BDCR\000"
 1223      00
 1224              	.LASF19:
 1225 002a 50435352 		.ascii	"PCSR\000"
 1225      00
 1226              	.LASF18:
 1227 002f 464F4C44 		.ascii	"FOLDCNT\000"
 1227      434E5400 
 1228              	.LASF56:
 1229 0037 504C4C49 		.ascii	"PLLI2SCFGR\000"
 1229      32534346 
 1229      475200
 1230              	.LASF29:
 1231 0042 5057525F 		.ascii	"PWR_TypeDef\000"
 1231      54797065 
 1231      44656600 
 1232              	.LASF39:
 1233 004e 41484231 		.ascii	"AHB1ENR\000"
 1233      454E5200 
 1234              	.LASF55:
 1235 0056 53534347 		.ascii	"SSCGR\000"
 1235      5200
 1236              	.LASF12:
 1237 005c 4354524C 		.ascii	"CTRL\000"
 1237      00
 1238              	.LASF48:
 1239 0061 41484233 		.ascii	"AHB3LPENR\000"
 1239      4C50454E 
 1239      5200
 1240              	.LASF31:
 1241 006b 43464752 		.ascii	"CFGR\000"
 1241      00
 1242              	.LASF14:
 1243 0070 43504943 		.ascii	"CPICNT\000"
 1243      4E5400
 1244              	.LASF43:
 1245 0077 41504231 		.ascii	"APB1ENR\000"
 1245      454E5200 
 1246              	.LASF62:
 1247 007f 68616C5F 		.ascii	"hal_lld_backup_domain_init\000"
 1247      6C6C645F 
 1247      6261636B 
 1247      75705F64 
 1247      6F6D6169 
 1248              	.LASF61:
 1249 009a 2F686F6D 		.ascii	"/home/stm32/Workspace/FirmwareSpykee\000"
 1249      652F7374 
 1249      6D33322F 
 1249      576F726B 
 1249      73706163 
 1250              	.LASF41:
 1251 00bf 41484233 		.ascii	"AHB3ENR\000"
 1251      454E5200 
ARM GAS  /tmp/ccDWrunA.s 			page 24


 1252              	.LASF26:
 1253 00c7 4F50544B 		.ascii	"OPTKEYR\000"
 1253      45595200 
 1254              	.LASF10:
 1255 00cf 6C6F6E67 		.ascii	"long long int\000"
 1255      206C6F6E 
 1255      6720696E 
 1255      7400
 1256              	.LASF13:
 1257 00dd 43594343 		.ascii	"CYCCNT\000"
 1257      4E5400
 1258              	.LASF23:
 1259 00e4 43414C49 		.ascii	"CALIB\000"
 1259      4200
 1260              	.LASF7:
 1261 00ea 6C6F6E67 		.ascii	"long int\000"
 1261      20696E74 
 1261      00
 1262              	.LASF57:
 1263 00f3 5243435F 		.ascii	"RCC_TypeDef\000"
 1263      54797065 
 1263      44656600 
 1264              	.LASF37:
 1265 00ff 41504232 		.ascii	"APB2RSTR\000"
 1265      52535452 
 1265      00
 1266              	.LASF64:
 1267 0108 73746D33 		.ascii	"stm32_clock_init\000"
 1267      325F636C 
 1267      6F636B5F 
 1267      696E6974 
 1267      00
 1268              	.LASF25:
 1269 0119 4B455952 		.ascii	"KEYR\000"
 1269      00
 1270              	.LASF15:
 1271 011e 45584343 		.ascii	"EXCCNT\000"
 1271      4E5400
 1272              	.LASF2:
 1273 0125 756E7369 		.ascii	"unsigned char\000"
 1273      676E6564 
 1273      20636861 
 1273      7200
 1274              	.LASF44:
 1275 0133 41504232 		.ascii	"APB2ENR\000"
 1275      454E5200 
 1276              	.LASF1:
 1277 013b 7369676E 		.ascii	"signed char\000"
 1277      65642063 
 1277      68617200 
 1278              	.LASF11:
 1279 0147 6C6F6E67 		.ascii	"long long unsigned int\000"
 1279      206C6F6E 
 1279      6720756E 
 1279      7369676E 
 1279      65642069 
 1280              	.LASF8:
ARM GAS  /tmp/ccDWrunA.s 			page 25


 1281 015e 75696E74 		.ascii	"uint32_t\000"
 1281      33325F74 
 1281      00
 1282              	.LASF60:
 1283 0167 2E2E2F6C 		.ascii	"../libs/ChibiOS_2.4.0/os/hal/platforms/STM32F4xx/ha"
 1283      6962732F 
 1283      43686962 
 1283      694F535F 
 1283      322E342E 
 1284 019a 6C5F6C6C 		.ascii	"l_lld.c\000"
 1284      642E6300 
 1285              	.LASF0:
 1286 01a2 756E7369 		.ascii	"unsigned int\000"
 1286      676E6564 
 1286      20696E74 
 1286      00
 1287              	.LASF33:
 1288 01af 41484232 		.ascii	"AHB2RSTR\000"
 1288      52535452 
 1288      00
 1289              	.LASF5:
 1290 01b8 75696E74 		.ascii	"uint16_t\000"
 1290      31365F74 
 1290      00
 1291              	.LASF9:
 1292 01c1 6C6F6E67 		.ascii	"long unsigned int\000"
 1292      20756E73 
 1292      69676E65 
 1292      6420696E 
 1292      7400
 1293              	.LASF63:
 1294 01d3 68616C5F 		.ascii	"hal_lld_init\000"
 1294      6C6C645F 
 1294      696E6974 
 1294      00
 1295              	.LASF30:
 1296 01e0 504C4C43 		.ascii	"PLLCFGR\000"
 1296      46475200 
 1297              	.LASF24:
 1298 01e8 53797354 		.ascii	"SysTick_Type\000"
 1298      69636B5F 
 1298      54797065 
 1298      00
 1299              	.LASF4:
 1300 01f5 73686F72 		.ascii	"short unsigned int\000"
 1300      7420756E 
 1300      7369676E 
 1300      65642069 
 1300      6E7400
 1301              	.LASF50:
 1302 0208 41504231 		.ascii	"APB1LPENR\000"
 1302      4C50454E 
 1302      5200
 1303              	.LASF21:
 1304 0212 63686172 		.ascii	"char\000"
 1304      00
 1305              	.LASF6:
ARM GAS  /tmp/ccDWrunA.s 			page 26


 1306 0217 696E7433 		.ascii	"int32_t\000"
 1306      325F7400 
 1307              	.LASF47:
 1308 021f 41484232 		.ascii	"AHB2LPENR\000"
 1308      4C50454E 
 1308      5200
 1309              	.LASF20:
 1310 0229 434D785F 		.ascii	"CMx_DWT\000"
 1310      44575400 
 1311              	.LASF35:
 1312 0231 52455345 		.ascii	"RESERVED0\000"
 1312      52564544 
 1312      3000
 1313              	.LASF38:
 1314 023b 52455345 		.ascii	"RESERVED1\000"
 1314      52564544 
 1314      3100
 1315              	.LASF42:
 1316 0245 52455345 		.ascii	"RESERVED2\000"
 1316      52564544 
 1316      3200
 1317              	.LASF45:
 1318 024f 52455345 		.ascii	"RESERVED3\000"
 1318      52564544 
 1318      3300
 1319              	.LASF49:
 1320 0259 52455345 		.ascii	"RESERVED4\000"
 1320      52564544 
 1320      3400
 1321              	.LASF52:
 1322 0263 52455345 		.ascii	"RESERVED5\000"
 1322      52564544 
 1322      3500
 1323              	.LASF54:
 1324 026d 52455345 		.ascii	"RESERVED6\000"
 1324      52564544 
 1324      3600
 1325              	.LASF16:
 1326 0277 534C4545 		.ascii	"SLEEPCNT\000"
 1326      50434E54 
 1326      00
 1327              	.LASF17:
 1328 0280 4C535543 		.ascii	"LSUCNT\000"
 1328      4E5400
 1329              	.LASF22:
 1330 0287 4C4F4144 		.ascii	"LOAD\000"
 1330      00
 1331              	.LASF32:
 1332 028c 41484231 		.ascii	"AHB1RSTR\000"
 1332      52535452 
 1332      00
 1333              	.LASF34:
 1334 0295 41484233 		.ascii	"AHB3RSTR\000"
 1334      52535452 
 1334      00
 1335              	.LASF28:
 1336 029e 464C4153 		.ascii	"FLASH_TypeDef\000"
ARM GAS  /tmp/ccDWrunA.s 			page 27


 1336      485F5479 
 1336      70654465 
 1336      6600
 1337              	.LASF58:
 1338 02ac 49544D5F 		.ascii	"ITM_RxBuffer\000"
 1338      52784275 
 1338      66666572 
 1338      00
 1339              	.LASF51:
 1340 02b9 41504232 		.ascii	"APB2LPENR\000"
 1340      4C50454E 
 1340      5200
 1341              	.LASF27:
 1342 02c3 4F505443 		.ascii	"OPTCR\000"
 1342      5200
 1343              	.LASF59:
 1344 02c9 474E5520 		.ascii	"GNU C 4.5.2\000"
 1344      4320342E 
 1344      352E3200 
 1345              		.ident	"GCC: (Sourcery G++ Lite 2011.03-42) 4.5.2"
ARM GAS  /tmp/ccDWrunA.s 			page 28


DEFINED SYMBOLS
                            *ABS*:00000000 hal_lld.c
     /tmp/ccDWrunA.s:26     .text.hal_lld_init:00000000 $t
     /tmp/ccDWrunA.s:32     .text.hal_lld_init:00000000 hal_lld_init
     /tmp/ccDWrunA.s:143    .text.hal_lld_init:00000090 $d
     /tmp/ccDWrunA.s:152    .text.stm32_clock_init:00000000 $t
     /tmp/ccDWrunA.s:158    .text.stm32_clock_init:00000000 stm32_clock_init
     /tmp/ccDWrunA.s:267    .text.stm32_clock_init:000000a8 $d
                     .debug_frame:00000010 $d
     /tmp/ccDWrunA.s:151    .text.hal_lld_init:000000a4 $t
     /tmp/ccDWrunA.s:275    .text.stm32_clock_init:000000bc $t

UNDEFINED SYMBOLS
dmaInit
