ARM GAS  /tmp/ccDZM1WB.s 			page 1


   1              		.syntax unified
   2              		.cpu cortex-m4
   3              		.eabi_attribute 27, 3
   4              		.eabi_attribute 28, 1
   5              		.fpu fpv4-sp-d16
   6              		.eabi_attribute 20, 1
   7              		.eabi_attribute 21, 1
   8              		.eabi_attribute 23, 3
   9              		.eabi_attribute 24, 1
  10              		.eabi_attribute 25, 1
  11              		.eabi_attribute 26, 1
  12              		.eabi_attribute 30, 2
  13              		.eabi_attribute 18, 4
  14              		.thumb
  15              		.file	"lis302dl.c"
  22 0000 CE020000 		.text
  22      02008B02 
  22      00000201 
  22      FB0E0D00 
  22      01010101 
  23              	.Ltext0:
  24              		.cfi_sections	.debug_frame
  25              		.section	.text.lis302dlReadRegister,"ax",%progbits
  26              		.align	2
  27              		.p2align 4,,15
  28              		.global	lis302dlReadRegister
  29              		.thumb
  30              		.thumb_func
  31              		.type	lis302dlReadRegister, %function
  32              	lis302dlReadRegister:
  33              	.LFB117:
  34              		.file 1 "../libs/ChibiOS_2.4.0/os/various/lis302dl.c"
  35              		.loc 1 51 0
  36              		.cfi_startproc
  37              		@ args = 0, pretend = 0, frame = 0
  38              		@ frame_needed = 0, uses_anonymous_args = 0
  39              	.LVL0:
  40 0000 F8B5     		push	{r3, r4, r5, r6, r7, lr}
  41              	.LCFI0:
  42              		.cfi_def_cfa_offset 24
  43              		.loc 1 54 0
  44 0002 0B4F     		ldr	r7, .L2
  45              		.cfi_offset 14, -4
  46              		.cfi_offset 7, -8
  47              		.cfi_offset 6, -12
  48              		.cfi_offset 5, -16
  49              		.cfi_offset 4, -20
  50              		.cfi_offset 3, -24
  51              		.loc 1 56 0
  52 0004 0B4C     		ldr	r4, .L2+4
  53              		.loc 1 51 0
ARM GAS  /tmp/ccDZM1WB.s 			page 2


  54 0006 0E46     		mov	r6, r1
  55              		.loc 1 54 0
  56 0008 66F07F06 		orn	r6, r6, #127
  57              		.loc 1 51 0
  58 000c 0546     		mov	r5, r0
  59              		.loc 1 53 0
  60 000e FFF7FEFF 		bl	spiSelect
  61              	.LVL1:
  62              		.loc 1 54 0
  63 0012 3E70     		strb	r6, [r7, #0]
  64              		.loc 1 55 0
  65 0014 FF26     		movs	r6, #255
  66              		.loc 1 56 0
  67 0016 0221     		movs	r1, #2
  68 0018 3A46     		mov	r2, r7
  69 001a 2346     		mov	r3, r4
  70 001c 2846     		mov	r0, r5
  71              		.loc 1 55 0
  72 001e 7E70     		strb	r6, [r7, #1]
  73              		.loc 1 56 0
  74 0020 FFF7FEFF 		bl	spiExchange
  75              		.loc 1 57 0
  76 0024 2846     		mov	r0, r5
  77 0026 FFF7FEFF 		bl	spiUnselect
  78              		.loc 1 59 0
  79 002a 6078     		ldrb	r0, [r4, #1]	@ zero_extendqisi2
  80 002c F8BD     		pop	{r3, r4, r5, r6, r7, pc}
  81              	.L3:
  82 002e 00BF     		.align	2
  83              	.L2:
  84 0030 00000000 		.word	.LANCHOR0
  85 0034 00000000 		.word	.LANCHOR1
  86              		.cfi_endproc
  87              	.LFE117:
  88              		.size	lis302dlReadRegister, .-lis302dlReadRegister
  89 0038 AFF30080 		.section	.text.lis302dlWriteRegister,"ax",%progbits
  89      AFF30080 
  90              		.align	2
  91              		.p2align 4,,15
  92              		.global	lis302dlWriteRegister
  93              		.thumb
  94              		.thumb_func
  95              		.type	lis302dlWriteRegister, %function
  96              	lis302dlWriteRegister:
  97              	.LFB118:
  98              		.loc 1 69 0
  99              		.cfi_startproc
 100              		@ args = 0, pretend = 0, frame = 0
 101              		@ frame_needed = 0, uses_anonymous_args = 0
 102              	.LVL2:
 103              		.loc 1 71 0
 104 0000 A1F12003 		sub	r3, r1, #32
 105              		.loc 1 69 0
 106 0004 70B5     		push	{r4, r5, r6, lr}
 107              	.LCFI1:
 108              		.cfi_def_cfa_offset 16
 109              		.loc 1 69 0
ARM GAS  /tmp/ccDZM1WB.s 			page 3


 110 0006 0C46     		mov	r4, r1
 111              		.cfi_offset 14, -4
 112              		.cfi_offset 6, -8
 113              		.cfi_offset 5, -12
 114              		.cfi_offset 4, -16
 115              		.loc 1 71 0
 116 0008 D9B2     		uxtb	r1, r3
 117              	.LVL3:
 118 000a 1F29     		cmp	r1, #31
 119              		.loc 1 69 0
 120 000c 0546     		mov	r5, r0
 121 000e 1646     		mov	r6, r2
 122              		.loc 1 71 0
 123 0010 12D8     		bhi	.L4
 124 0012 0A4A     		ldr	r2, .L8
 125              	.LVL4:
 126 0014 5BB2     		sxtb	r3, r3
 127 0016 9A40     		lsls	r2, r2, r3
 128 0018 0ED5     		bpl	.L4
 129              		.loc 1 102 0
 130 001a FFF7FEFF 		bl	spiSelect
 131              	.LVL5:
 132              		.loc 1 103 0
 133 001e 084B     		ldr	r3, .L8+4
 134              		.loc 1 105 0
 135 0020 2846     		mov	r0, r5
 136 0022 0221     		movs	r1, #2
 137 0024 1A46     		mov	r2, r3
 138              		.loc 1 103 0
 139 0026 1C70     		strb	r4, [r3, #0]
 140              		.loc 1 104 0
 141 0028 5E70     		strb	r6, [r3, #1]
 142              		.loc 1 105 0
 143 002a FFF7FEFF 		bl	spiSend
 144              		.loc 1 106 0
 145 002e 2846     		mov	r0, r5
 146              		.loc 1 108 0
 147 0030 BDE87040 		pop	{r4, r5, r6, lr}
 148              		.loc 1 106 0
 149 0034 FFF7FEBF 		b	spiUnselect
 150              	.L4:
 151 0038 70BD     		pop	{r4, r5, r6, pc}
 152              	.L9:
 153 003a 00BF     		.align	2
 154              	.L8:
 155 003c 9FBB00E0 		.word	-536822881
 156 0040 00000000 		.word	.LANCHOR0
 157              		.cfi_endproc
 158              	.LFE118:
 159              		.size	lis302dlWriteRegister, .-lis302dlWriteRegister
 160 0044 AFF30080 		.section	.bss.rxbuf,"aw",%nobits
 160      AFF30080 
 160      AFF30080 
 161              		.align	2
 162              		.set	.LANCHOR1,. + 0
 163              		.type	rxbuf, %object
 164              		.size	rxbuf, 2
ARM GAS  /tmp/ccDZM1WB.s 			page 4


 165              	rxbuf:
 166 0000 0000     		.space	2
 167 0002 0000     		.section	.bss.txbuf,"aw",%nobits
 168              		.align	2
 169              		.set	.LANCHOR0,. + 0
 170              		.type	txbuf, %object
 171              		.size	txbuf, 2
 172              	txbuf:
 173 0000 0000     		.space	2
 174 0002 0000     		.text
 175              	.Letext0: