ARM GAS  /tmp/ccgjrrKz.s 			page 1


   1              		.syntax unified
   2              		.cpu cortex-m4
   3              		.eabi_attribute 27, 3
   4              		.eabi_attribute 28, 1
   5              		.fpu fpv4-sp-d16
   6              		.eabi_attribute 20, 1
   7              		.eabi_attribute 21, 1
   8              		.eabi_attribute 23, 3
   9              		.eabi_attribute 24, 1
  10              		.eabi_attribute 25, 1
  11              		.eabi_attribute 26, 1
  12              		.eabi_attribute 30, 2
  13              		.eabi_attribute 18, 4
  14              		.thumb
  15              		.file	"nvic.c"
  16              		.section	.debug_abbrev,"",%progbits
  17              	.Ldebug_abbrev0:
  18              		.section	.debug_info,"",%progbits
  19              	.Ldebug_info0:
  20              		.section	.debug_line,"",%progbits
  21              	.Ldebug_line0:
  22 0000 1A010000 		.text
  22      0200C600 
  22      00000201 
  22      FB0E0D00 
  22      01010101 
  23              	.Ltext0:
  24              		.cfi_sections	.debug_frame
  25              		.section	.text.nvicEnableVector,"ax",%progbits
  26              		.align	2
  27              		.p2align 4,,15
  28              		.global	nvicEnableVector
  29              		.thumb
  30              		.thumb_func
  31              		.type	nvicEnableVector, %function
  32              	nvicEnableVector:
  33              	.LFB7:
  34              		.file 1 "../libs/ChibiOS_2.4.0/os/ports/common/ARMCMx/nvic.c"
  35              		.loc 1 46 0
  36              		.cfi_startproc
  37              		@ args = 0, pretend = 0, frame = 0
  38              		@ frame_needed = 0, uses_anonymous_args = 0
  39              		@ link register save eliminated.
  40              	.LVL0:
  41 0000 F0B4     		push	{r4, r5, r6, r7}
  42              	.LCFI0:
  43              		.cfi_def_cfa_offset 16
  44              		.loc 1 49 0
  45 0002 8408     		lsrs	r4, r0, #2
  46              		.cfi_offset 7, -4
  47              		.cfi_offset 6, -8
  48              		.cfi_offset 5, -12
  49              		.cfi_offset 4, -16
  50 0004 0E4B     		ldr	r3, .L2
  51 0006 C034     		adds	r4, r4, #192
  52              		.loc 1 47 0
  53 0008 00F00302 		and	r2, r0, #3
ARM GAS  /tmp/ccgjrrKz.s 			page 2


  54              		.loc 1 49 0
  55 000c 53F82470 		ldr	r7, [r3, r4, lsl #2]
  56              		.loc 1 47 0
  57 0010 D500     		lsls	r5, r2, #3
  58              		.loc 1 49 0
  59 0012 FF26     		movs	r6, #255
  60              		.loc 1 50 0
  61 0014 4209     		lsrs	r2, r0, #5
  62              		.loc 1 49 0
  63 0016 AE40     		lsls	r6, r6, r5
  64 0018 27EA0606 		bic	r6, r7, r6
  65 001c 11FA05F5 		lsls	r5, r1, r5
  66              		.loc 1 50 0
  67 0020 00F01F00 		and	r0, r0, #31
  68              	.LVL1:
  69 0024 02F16007 		add	r7, r2, #96
  70 0028 0121     		movs	r1, #1
  71              	.LVL2:
  72 002a 11FA00F0 		lsls	r0, r1, r0
  73              		.loc 1 49 0
  74 002e 2E43     		orrs	r6, r6, r5
  75 0030 43F82460 		str	r6, [r3, r4, lsl #2]
  76              		.loc 1 50 0
  77 0034 43F82700 		str	r0, [r3, r7, lsl #2]
  78              		.loc 1 51 0
  79 0038 43F82200 		str	r0, [r3, r2, lsl #2]
  80              		.loc 1 52 0
  81 003c F0BC     		pop	{r4, r5, r6, r7}
  82 003e 7047     		bx	lr
  83              	.L3:
  84              		.align	2
  85              	.L2:
  86 0040 00E100E0 		.word	-536813312
  87              		.cfi_endproc
  88              	.LFE7:
  89              		.size	nvicEnableVector, .-nvicEnableVector
  90 0044 AFF30080 		.section	.text.nvicDisableVector,"ax",%progbits
  90      AFF30080 
  90      AFF30080 
  91              		.align	2
  92              		.p2align 4,,15
  93              		.global	nvicDisableVector
  94              		.thumb
  95              		.thumb_func
  96              		.type	nvicDisableVector, %function
  97              	nvicDisableVector:
  98              	.LFB8:
  99              		.loc 1 60 0
 100              		.cfi_startproc
 101              		@ args = 0, pretend = 0, frame = 0
 102              		@ frame_needed = 0, uses_anonymous_args = 0
 103              		@ link register save eliminated.
 104              	.LVL3:
 105              		.loc 1 63 0
 106 0000 4109     		lsrs	r1, r0, #5
 107              		.loc 1 60 0
 108 0002 10B4     		push	{r4}
ARM GAS  /tmp/ccgjrrKz.s 			page 3


 109              	.LCFI1:
 110              		.cfi_def_cfa_offset 4
 111              		.loc 1 63 0
 112 0004 0B4B     		ldr	r3, .L5
 113 0006 00F01F02 		and	r2, r0, #31
 114 000a 2031     		adds	r1, r1, #32
 115 000c 0124     		movs	r4, #1
 116              		.cfi_offset 4, -4
 117 000e 9440     		lsls	r4, r4, r2
 118              		.loc 1 64 0
 119 0010 8208     		lsrs	r2, r0, #2
 120              		.loc 1 63 0
 121 0012 43F82140 		str	r4, [r3, r1, lsl #2]
 122              		.loc 1 64 0
 123 0016 C032     		adds	r2, r2, #192
 124              		.loc 1 61 0
 125 0018 00F00304 		and	r4, r0, #3
 126              		.loc 1 64 0
 127 001c 53F82210 		ldr	r1, [r3, r2, lsl #2]
 128              		.loc 1 61 0
 129 0020 E000     		lsls	r0, r4, #3
 130              	.LVL4:
 131              		.loc 1 64 0
 132 0022 FF24     		movs	r4, #255
 133 0024 14FA00F0 		lsls	r0, r4, r0
 134              	.LVL5:
 135 0028 21EA0000 		bic	r0, r1, r0
 136 002c 43F82200 		str	r0, [r3, r2, lsl #2]
 137              		.loc 1 65 0
 138 0030 10BC     		pop	{r4}
 139 0032 7047     		bx	lr
 140              	.L6:
 141              		.align	2
 142              	.L5:
 143 0034 00E100E0 		.word	-536813312
 144              		.cfi_endproc
 145              	.LFE8:
 146              		.size	nvicDisableVector, .-nvicDisableVector
 147 0038 AFF30080 		.section	.text.nvicSetSystemHandlerPriority,"ax",%progbits
 147      AFF30080 
 148              		.align	2
 149              		.p2align 4,,15
 150              		.global	nvicSetSystemHandlerPriority
 151              		.thumb
 152              		.thumb_func
 153              		.type	nvicSetSystemHandlerPriority, %function
 154              	nvicSetSystemHandlerPriority:
 155              	.LFB9:
 156              		.loc 1 74 0
 157              		.cfi_startproc
 158              		@ args = 0, pretend = 0, frame = 0
 159              		@ frame_needed = 0, uses_anonymous_args = 0
 160              		@ link register save eliminated.
 161              	.LVL6:
 162 0000 30B4     		push	{r4, r5}
 163              	.LCFI2:
 164              		.cfi_def_cfa_offset 8
ARM GAS  /tmp/ccgjrrKz.s 			page 4


 165              		.loc 1 77 0
 166 0002 8508     		lsrs	r5, r0, #2
 167              		.cfi_offset 5, -4
 168              		.cfi_offset 4, -8
 169 0004 084B     		ldr	r3, .L8
 170 0006 AA1D     		adds	r2, r5, #6
 171              		.loc 1 75 0
 172 0008 00F00300 		and	r0, r0, #3
 173              	.LVL7:
 174              		.loc 1 77 0
 175 000c 53F82250 		ldr	r5, [r3, r2, lsl #2]
 176              		.loc 1 75 0
 177 0010 C000     		lsls	r0, r0, #3
 178              		.loc 1 78 0
 179 0012 FF24     		movs	r4, #255
 180 0014 8440     		lsls	r4, r4, r0
 181              		.loc 1 77 0
 182 0016 25EA0404 		bic	r4, r5, r4
 183              		.loc 1 78 0
 184 001a 11FA00F0 		lsls	r0, r1, r0
 185 001e 0443     		orrs	r4, r4, r0
 186              		.loc 1 77 0
 187 0020 43F82240 		str	r4, [r3, r2, lsl #2]
 188              		.loc 1 79 0
 189 0024 30BC     		pop	{r4, r5}
 190 0026 7047     		bx	lr
 191              	.L9:
 192              		.align	2
 193              	.L8:
 194 0028 00ED00E0 		.word	-536810240
 195              		.cfi_endproc
 196              	.LFE9:
 197              		.size	nvicSetSystemHandlerPriority, .-nvicSetSystemHandlerPriority
 198 002c AFF30080 		.text
 199              	.Letext0:
 200              		.section	.debug_loc,"",%progbits
 201              	.Ldebug_loc0:
 202              	.LLST0:
 203 0000 00000000 		.4byte	.LFB7
 204 0004 02000000 		.4byte	.LCFI0
 205 0008 0200     		.2byte	0x2
 206 000a 7D       		.byte	0x7d
 207 000b 00       		.sleb128 0
 208 000c 02000000 		.4byte	.LCFI0
 209 0010 44000000 		.4byte	.LFE7
 210 0014 0200     		.2byte	0x2
 211 0016 7D       		.byte	0x7d
 212 0017 10       		.sleb128 16
 213 0018 00000000 		.4byte	0x0
 214 001c 00000000 		.4byte	0x0
 215              	.LLST1:
 216 0020 00000000 		.4byte	.LVL0
 217 0024 24000000 		.4byte	.LVL1
 218 0028 0100     		.2byte	0x1
 219 002a 50       		.byte	0x50
 220 002b 00000000 		.4byte	0x0
 221 002f 00000000 		.4byte	0x0
ARM GAS  /tmp/ccgjrrKz.s 			page 5


 222              	.LLST2:
 223 0033 00000000 		.4byte	.LVL0
 224 0037 2A000000 		.4byte	.LVL2
 225 003b 0100     		.2byte	0x1
 226 003d 51       		.byte	0x51
 227 003e 00000000 		.4byte	0x0
 228 0042 00000000 		.4byte	0x0
 229              	.LLST3:
 230 0046 00000000 		.4byte	.LVL0
 231 004a 24000000 		.4byte	.LVL1
 232 004e 0700     		.2byte	0x7
 233 0050 70       		.byte	0x70
 234 0051 00       		.sleb128 0
 235 0052 33       		.byte	0x33
 236 0053 1A       		.byte	0x1a
 237 0054 33       		.byte	0x33
 238 0055 24       		.byte	0x24
 239 0056 9F       		.byte	0x9f
 240 0057 00000000 		.4byte	0x0
 241 005b 00000000 		.4byte	0x0
 242              	.LLST4:
 243 005f 00000000 		.4byte	.LFB8
 244 0063 04000000 		.4byte	.LCFI1
 245 0067 0200     		.2byte	0x2
 246 0069 7D       		.byte	0x7d
 247 006a 00       		.sleb128 0
 248 006b 04000000 		.4byte	.LCFI1
 249 006f 38000000 		.4byte	.LFE8
 250 0073 0200     		.2byte	0x2
 251 0075 7D       		.byte	0x7d
 252 0076 04       		.sleb128 4
 253 0077 00000000 		.4byte	0x0
 254 007b 00000000 		.4byte	0x0
 255              	.LLST5:
 256 007f 00000000 		.4byte	.LVL3
 257 0083 22000000 		.4byte	.LVL4
 258 0087 0100     		.2byte	0x1
 259 0089 50       		.byte	0x50
 260 008a 00000000 		.4byte	0x0
 261 008e 00000000 		.4byte	0x0
 262              	.LLST6:
 263 0092 00000000 		.4byte	.LVL3
 264 0096 22000000 		.4byte	.LVL4
 265 009a 0700     		.2byte	0x7
 266 009c 70       		.byte	0x70
 267 009d 00       		.sleb128 0
 268 009e 33       		.byte	0x33
 269 009f 1A       		.byte	0x1a
 270 00a0 33       		.byte	0x33
 271 00a1 24       		.byte	0x24
 272 00a2 9F       		.byte	0x9f
 273 00a3 22000000 		.4byte	.LVL4
 274 00a7 28000000 		.4byte	.LVL5
 275 00ab 0100     		.2byte	0x1
 276 00ad 50       		.byte	0x50
 277 00ae 00000000 		.4byte	0x0
 278 00b2 00000000 		.4byte	0x0
ARM GAS  /tmp/ccgjrrKz.s 			page 6


 279              	.LLST7:
 280 00b6 00000000 		.4byte	.LFB9
 281 00ba 02000000 		.4byte	.LCFI2
 282 00be 0200     		.2byte	0x2
 283 00c0 7D       		.byte	0x7d
 284 00c1 00       		.sleb128 0
 285 00c2 02000000 		.4byte	.LCFI2
 286 00c6 2C000000 		.4byte	.LFE9
 287 00ca 0200     		.2byte	0x2
 288 00cc 7D       		.byte	0x7d
 289 00cd 08       		.sleb128 8
 290 00ce 00000000 		.4byte	0x0
 291 00d2 00000000 		.4byte	0x0
 292              	.LLST8:
 293 00d6 00000000 		.4byte	.LVL6
 294 00da 0C000000 		.4byte	.LVL7
 295 00de 0100     		.2byte	0x1
 296 00e0 50       		.byte	0x50
 297 00e1 00000000 		.4byte	0x0
 298 00e5 00000000 		.4byte	0x0
 299              	.LLST9:
 300 00e9 00000000 		.4byte	.LVL6
 301 00ed 0C000000 		.4byte	.LVL7
 302 00f1 0700     		.2byte	0x7
 303 00f3 70       		.byte	0x70
 304 00f4 00       		.sleb128 0
 305 00f5 33       		.byte	0x33
 306 00f6 1A       		.byte	0x1a
 307 00f7 33       		.byte	0x33
 308 00f8 24       		.byte	0x24
 309 00f9 9F       		.byte	0x9f
 310 00fa 00000000 		.4byte	0x0
 311 00fe 00000000 		.4byte	0x0
 312              		.file 2 "../libs/ChibiOS_2.4.0/os/ports/common/ARMCMx/nvic.h"
 313              		.file 3 "/opt/stm32/arm-none-eabi-2011.03/bin/../lib/gcc/arm-none-eabi/4.5.2/../../../../arm-none-
 314              		.section	.debug_info
 315 0000 33040000 		.4byte	0x433
 316 0004 0200     		.2byte	0x2
 317 0006 00000000 		.4byte	.Ldebug_abbrev0
 318 000a 04       		.byte	0x4
 319 000b 01       		.uleb128 0x1
 320 000c 90000000 		.4byte	.LASF43
 321 0010 01       		.byte	0x1
 322 0011 2F010000 		.4byte	.LASF44
 323 0015 8A010000 		.4byte	.LASF45
 324 0019 00000000 		.4byte	0x0
 325 001d 00000000 		.4byte	0x0
 326 0021 00000000 		.4byte	.Ldebug_ranges0+0x0
 327 0025 00000000 		.4byte	.Ldebug_line0
 328 0029 02       		.uleb128 0x2
 329 002a 04       		.byte	0x4
 330 002b 05       		.byte	0x5
 331 002c 696E7400 		.ascii	"int\000"
 332 0030 03       		.uleb128 0x3
 333 0031 04       		.byte	0x4
 334 0032 07       		.byte	0x7
 335 0033 C8000000 		.4byte	.LASF0
ARM GAS  /tmp/ccgjrrKz.s 			page 7


 336 0037 03       		.uleb128 0x3
 337 0038 01       		.byte	0x1
 338 0039 06       		.byte	0x6
 339 003a A8010000 		.4byte	.LASF1
 340 003e 03       		.uleb128 0x3
 341 003f 01       		.byte	0x1
 342 0040 08       		.byte	0x8
 343 0041 3A000000 		.4byte	.LASF2
 344 0045 03       		.uleb128 0x3
 345 0046 02       		.byte	0x2
 346 0047 05       		.byte	0x5
 347 0048 BE000000 		.4byte	.LASF3
 348 004c 03       		.uleb128 0x3
 349 004d 02       		.byte	0x2
 350 004e 07       		.byte	0x7
 351 004f 78000000 		.4byte	.LASF4
 352 0053 03       		.uleb128 0x3
 353 0054 04       		.byte	0x4
 354 0055 05       		.byte	0x5
 355 0056 7C010000 		.4byte	.LASF5
 356 005a 04       		.uleb128 0x4
 357 005b 73010000 		.4byte	.LASF21
 358 005f 03       		.byte	0x3
 359 0060 50       		.byte	0x50
 360 0061 65000000 		.4byte	0x65
 361 0065 03       		.uleb128 0x3
 362 0066 04       		.byte	0x4
 363 0067 07       		.byte	0x7
 364 0068 A1000000 		.4byte	.LASF6
 365 006c 03       		.uleb128 0x3
 366 006d 08       		.byte	0x8
 367 006e 05       		.byte	0x5
 368 006f 16010000 		.4byte	.LASF7
 369 0073 03       		.uleb128 0x3
 370 0074 08       		.byte	0x8
 371 0075 07       		.byte	0x7
 372 0076 DF000000 		.4byte	.LASF8
 373 007a 05       		.uleb128 0x5
 374 007b 65000000 		.4byte	0x65
 375 007f 06       		.uleb128 0x6
 376 0080 040E     		.2byte	0xe04
 377 0082 02       		.byte	0x2
 378 0083 6A       		.byte	0x6a
 379 0084 4A010000 		.4byte	0x14a
 380 0088 07       		.uleb128 0x7
 381 0089 63010000 		.4byte	.LASF9
 382 008d 02       		.byte	0x2
 383 008e 6B       		.byte	0x6b
 384 008f 5A010000 		.4byte	0x15a
 385 0093 02       		.byte	0x2
 386 0094 23       		.byte	0x23
 387 0095 00       		.uleb128 0x0
 388 0096 07       		.uleb128 0x7
 389 0097 48000000 		.4byte	.LASF10
 390 009b 02       		.byte	0x2
 391 009c 6C       		.byte	0x6c
 392 009d 6F010000 		.4byte	0x16f
ARM GAS  /tmp/ccgjrrKz.s 			page 8


 393 00a1 02       		.byte	0x2
 394 00a2 23       		.byte	0x23
 395 00a3 20       		.uleb128 0x20
 396 00a4 07       		.uleb128 0x7
 397 00a5 35000000 		.4byte	.LASF11
 398 00a9 02       		.byte	0x2
 399 00aa 6D       		.byte	0x6d
 400 00ab 74010000 		.4byte	0x174
 401 00af 03       		.byte	0x3
 402 00b0 23       		.byte	0x23
 403 00b1 8001     		.uleb128 0x80
 404 00b3 07       		.uleb128 0x7
 405 00b4 50000000 		.4byte	.LASF12
 406 00b8 02       		.byte	0x2
 407 00b9 6E       		.byte	0x6e
 408 00ba 79010000 		.4byte	0x179
 409 00be 03       		.byte	0x3
 410 00bf 23       		.byte	0x23
 411 00c0 A001     		.uleb128 0xa0
 412 00c2 07       		.uleb128 0x7
 413 00c3 D5000000 		.4byte	.LASF13
 414 00c7 02       		.byte	0x2
 415 00c8 6F       		.byte	0x6f
 416 00c9 7E010000 		.4byte	0x17e
 417 00cd 03       		.byte	0x3
 418 00ce 23       		.byte	0x23
 419 00cf 8002     		.uleb128 0x100
 420 00d1 07       		.uleb128 0x7
 421 00d2 58000000 		.4byte	.LASF14
 422 00d6 02       		.byte	0x2
 423 00d7 70       		.byte	0x70
 424 00d8 83010000 		.4byte	0x183
 425 00dc 03       		.byte	0x3
 426 00dd 23       		.byte	0x23
 427 00de A002     		.uleb128 0x120
 428 00e0 07       		.uleb128 0x7
 429 00e1 05000000 		.4byte	.LASF15
 430 00e5 02       		.byte	0x2
 431 00e6 71       		.byte	0x71
 432 00e7 88010000 		.4byte	0x188
 433 00eb 03       		.byte	0x3
 434 00ec 23       		.byte	0x23
 435 00ed 8003     		.uleb128 0x180
 436 00ef 07       		.uleb128 0x7
 437 00f0 60000000 		.4byte	.LASF16
 438 00f4 02       		.byte	0x2
 439 00f5 72       		.byte	0x72
 440 00f6 8D010000 		.4byte	0x18d
 441 00fa 03       		.byte	0x3
 442 00fb 23       		.byte	0x23
 443 00fc A003     		.uleb128 0x1a0
 444 00fe 07       		.uleb128 0x7
 445 00ff D1010000 		.4byte	.LASF17
 446 0103 02       		.byte	0x2
 447 0104 73       		.byte	0x73
 448 0105 92010000 		.4byte	0x192
 449 0109 03       		.byte	0x3
ARM GAS  /tmp/ccgjrrKz.s 			page 9


 450 010a 23       		.byte	0x23
 451 010b 8004     		.uleb128 0x200
 452 010d 07       		.uleb128 0x7
 453 010e 68000000 		.4byte	.LASF18
 454 0112 02       		.byte	0x2
 455 0113 74       		.byte	0x74
 456 0114 A7010000 		.4byte	0x1a7
 457 0118 03       		.byte	0x3
 458 0119 23       		.byte	0x23
 459 011a A004     		.uleb128 0x220
 460 011c 08       		.uleb128 0x8
 461 011d 49505200 		.ascii	"IPR\000"
 462 0121 02       		.byte	0x2
 463 0122 75       		.byte	0x75
 464 0123 BC010000 		.4byte	0x1bc
 465 0127 03       		.byte	0x3
 466 0128 23       		.byte	0x23
 467 0129 8006     		.uleb128 0x300
 468 012b 07       		.uleb128 0x7
 469 012c 70000000 		.4byte	.LASF19
 470 0130 02       		.byte	0x2
 471 0131 76       		.byte	0x76
 472 0132 D2010000 		.4byte	0x1d2
 473 0136 03       		.byte	0x3
 474 0137 23       		.byte	0x23
 475 0138 F007     		.uleb128 0x3f0
 476 013a 07       		.uleb128 0x7
 477 013b B9000000 		.4byte	.LASF20
 478 013f 02       		.byte	0x2
 479 0140 77       		.byte	0x77
 480 0141 7A000000 		.4byte	0x7a
 481 0145 03       		.byte	0x3
 482 0146 23       		.byte	0x23
 483 0147 801C     		.uleb128 0xe00
 484 0149 00       		.byte	0x0
 485 014a 09       		.uleb128 0x9
 486 014b 65000000 		.4byte	0x65
 487 014f 5A010000 		.4byte	0x15a
 488 0153 0A       		.uleb128 0xa
 489 0154 30000000 		.4byte	0x30
 490 0158 07       		.byte	0x7
 491 0159 00       		.byte	0x0
 492 015a 05       		.uleb128 0x5
 493 015b 4A010000 		.4byte	0x14a
 494 015f 09       		.uleb128 0x9
 495 0160 65000000 		.4byte	0x65
 496 0164 6F010000 		.4byte	0x16f
 497 0168 0A       		.uleb128 0xa
 498 0169 30000000 		.4byte	0x30
 499 016d 17       		.byte	0x17
 500 016e 00       		.byte	0x0
 501 016f 05       		.uleb128 0x5
 502 0170 5F010000 		.4byte	0x15f
 503 0174 05       		.uleb128 0x5
 504 0175 4A010000 		.4byte	0x14a
 505 0179 05       		.uleb128 0x5
 506 017a 5F010000 		.4byte	0x15f
ARM GAS  /tmp/ccgjrrKz.s 			page 10


 507 017e 05       		.uleb128 0x5
 508 017f 4A010000 		.4byte	0x14a
 509 0183 05       		.uleb128 0x5
 510 0184 5F010000 		.4byte	0x15f
 511 0188 05       		.uleb128 0x5
 512 0189 4A010000 		.4byte	0x14a
 513 018d 05       		.uleb128 0x5
 514 018e 5F010000 		.4byte	0x15f
 515 0192 05       		.uleb128 0x5
 516 0193 4A010000 		.4byte	0x14a
 517 0197 09       		.uleb128 0x9
 518 0198 65000000 		.4byte	0x65
 519 019c A7010000 		.4byte	0x1a7
 520 01a0 0A       		.uleb128 0xa
 521 01a1 30000000 		.4byte	0x30
 522 01a5 37       		.byte	0x37
 523 01a6 00       		.byte	0x0
 524 01a7 05       		.uleb128 0x5
 525 01a8 97010000 		.4byte	0x197
 526 01ac 09       		.uleb128 0x9
 527 01ad 65000000 		.4byte	0x65
 528 01b1 BC010000 		.4byte	0x1bc
 529 01b5 0A       		.uleb128 0xa
 530 01b6 30000000 		.4byte	0x30
 531 01ba 3B       		.byte	0x3b
 532 01bb 00       		.byte	0x0
 533 01bc 05       		.uleb128 0x5
 534 01bd AC010000 		.4byte	0x1ac
 535 01c1 09       		.uleb128 0x9
 536 01c2 65000000 		.4byte	0x65
 537 01c6 D2010000 		.4byte	0x1d2
 538 01ca 0B       		.uleb128 0xb
 539 01cb 30000000 		.4byte	0x30
 540 01cf 8302     		.2byte	0x283
 541 01d1 00       		.byte	0x0
 542 01d2 05       		.uleb128 0x5
 543 01d3 C1010000 		.4byte	0x1c1
 544 01d7 04       		.uleb128 0x4
 545 01d8 27000000 		.4byte	.LASF22
 546 01dc 02       		.byte	0x2
 547 01dd 78       		.byte	0x78
 548 01de 7F000000 		.4byte	0x7f
 549 01e2 0C       		.uleb128 0xc
 550 01e3 8C       		.byte	0x8c
 551 01e4 02       		.byte	0x2
 552 01e5 89       		.byte	0x89
 553 01e6 12030000 		.4byte	0x312
 554 01ea 07       		.uleb128 0x7
 555 01eb 24010000 		.4byte	.LASF23
 556 01ef 02       		.byte	0x2
 557 01f0 8A       		.byte	0x8a
 558 01f1 7A000000 		.4byte	0x7a
 559 01f5 02       		.byte	0x2
 560 01f6 23       		.byte	0x23
 561 01f7 00       		.uleb128 0x0
 562 01f8 07       		.uleb128 0x7
 563 01f9 F6000000 		.4byte	.LASF24
ARM GAS  /tmp/ccgjrrKz.s 			page 11


 564 01fd 02       		.byte	0x2
 565 01fe 8B       		.byte	0x8b
 566 01ff 7A000000 		.4byte	0x7a
 567 0203 02       		.byte	0x2
 568 0204 23       		.byte	0x23
 569 0205 04       		.uleb128 0x4
 570 0206 07       		.uleb128 0x7
 571 0207 30000000 		.4byte	.LASF25
 572 020b 02       		.byte	0x2
 573 020c 8C       		.byte	0x8c
 574 020d 7A000000 		.4byte	0x7a
 575 0211 02       		.byte	0x2
 576 0212 23       		.byte	0x23
 577 0213 08       		.uleb128 0x8
 578 0214 07       		.uleb128 0x7
 579 0215 03010000 		.4byte	.LASF26
 580 0219 02       		.byte	0x2
 581 021a 8D       		.byte	0x8d
 582 021b 7A000000 		.4byte	0x7a
 583 021f 02       		.byte	0x2
 584 0220 23       		.byte	0x23
 585 0221 0C       		.uleb128 0xc
 586 0222 08       		.uleb128 0x8
 587 0223 53435200 		.ascii	"SCR\000"
 588 0227 02       		.byte	0x2
 589 0228 8E       		.byte	0x8e
 590 0229 7A000000 		.4byte	0x7a
 591 022d 02       		.byte	0x2
 592 022e 23       		.byte	0x23
 593 022f 10       		.uleb128 0x10
 594 0230 08       		.uleb128 0x8
 595 0231 43435200 		.ascii	"CCR\000"
 596 0235 02       		.byte	0x2
 597 0236 8F       		.byte	0x8f
 598 0237 7A000000 		.4byte	0x7a
 599 023b 02       		.byte	0x2
 600 023c 23       		.byte	0x23
 601 023d 14       		.uleb128 0x14
 602 023e 07       		.uleb128 0x7
 603 023f 85010000 		.4byte	.LASF27
 604 0243 02       		.byte	0x2
 605 0244 90       		.byte	0x90
 606 0245 22030000 		.4byte	0x322
 607 0249 02       		.byte	0x2
 608 024a 23       		.byte	0x23
 609 024b 18       		.uleb128 0x18
 610 024c 07       		.uleb128 0x7
 611 024d 0F000000 		.4byte	.LASF28
 612 0251 02       		.byte	0x2
 613 0252 91       		.byte	0x91
 614 0253 7A000000 		.4byte	0x7a
 615 0257 02       		.byte	0x2
 616 0258 23       		.byte	0x23
 617 0259 24       		.uleb128 0x24
 618 025a 07       		.uleb128 0x7
 619 025b 8B000000 		.4byte	.LASF29
 620 025f 02       		.byte	0x2
ARM GAS  /tmp/ccgjrrKz.s 			page 12


 621 0260 92       		.byte	0x92
 622 0261 7A000000 		.4byte	0x7a
 623 0265 02       		.byte	0x2
 624 0266 23       		.byte	0x23
 625 0267 28       		.uleb128 0x28
 626 0268 07       		.uleb128 0x7
 627 0269 9C000000 		.4byte	.LASF30
 628 026d 02       		.byte	0x2
 629 026e 93       		.byte	0x93
 630 026f 7A000000 		.4byte	0x7a
 631 0273 02       		.byte	0x2
 632 0274 23       		.byte	0x23
 633 0275 2C       		.uleb128 0x2c
 634 0276 07       		.uleb128 0x7
 635 0277 DA000000 		.4byte	.LASF31
 636 027b 02       		.byte	0x2
 637 027c 94       		.byte	0x94
 638 027d 7A000000 		.4byte	0x7a
 639 0281 02       		.byte	0x2
 640 0282 23       		.byte	0x23
 641 0283 30       		.uleb128 0x30
 642 0284 07       		.uleb128 0x7
 643 0285 6D010000 		.4byte	.LASF32
 644 0289 02       		.byte	0x2
 645 028a 95       		.byte	0x95
 646 028b 7A000000 		.4byte	0x7a
 647 028f 02       		.byte	0x2
 648 0290 23       		.byte	0x23
 649 0291 34       		.uleb128 0x34
 650 0292 07       		.uleb128 0x7
 651 0293 09010000 		.4byte	.LASF33
 652 0297 02       		.byte	0x2
 653 0298 96       		.byte	0x96
 654 0299 7A000000 		.4byte	0x7a
 655 029d 02       		.byte	0x2
 656 029e 23       		.byte	0x23
 657 029f 38       		.uleb128 0x38
 658 02a0 07       		.uleb128 0x7
 659 02a1 68010000 		.4byte	.LASF34
 660 02a5 02       		.byte	0x2
 661 02a6 97       		.byte	0x97
 662 02a7 7A000000 		.4byte	0x7a
 663 02ab 02       		.byte	0x2
 664 02ac 23       		.byte	0x23
 665 02ad 3C       		.uleb128 0x3c
 666 02ae 08       		.uleb128 0x8
 667 02af 50465200 		.ascii	"PFR\000"
 668 02b3 02       		.byte	0x2
 669 02b4 98       		.byte	0x98
 670 02b5 37030000 		.4byte	0x337
 671 02b9 02       		.byte	0x2
 672 02ba 23       		.byte	0x23
 673 02bb 40       		.uleb128 0x40
 674 02bc 08       		.uleb128 0x8
 675 02bd 44465200 		.ascii	"DFR\000"
 676 02c1 02       		.byte	0x2
 677 02c2 99       		.byte	0x99
ARM GAS  /tmp/ccgjrrKz.s 			page 13


 678 02c3 7A000000 		.4byte	0x7a
 679 02c7 02       		.byte	0x2
 680 02c8 23       		.byte	0x23
 681 02c9 48       		.uleb128 0x48
 682 02ca 08       		.uleb128 0x8
 683 02cb 41445200 		.ascii	"ADR\000"
 684 02cf 02       		.byte	0x2
 685 02d0 9A       		.byte	0x9a
 686 02d1 7A000000 		.4byte	0x7a
 687 02d5 02       		.byte	0x2
 688 02d6 23       		.byte	0x23
 689 02d7 4C       		.uleb128 0x4c
 690 02d8 07       		.uleb128 0x7
 691 02d9 0A000000 		.4byte	.LASF35
 692 02dd 02       		.byte	0x2
 693 02de 9B       		.byte	0x9b
 694 02df 4C030000 		.4byte	0x34c
 695 02e3 02       		.byte	0x2
 696 02e4 23       		.byte	0x23
 697 02e5 50       		.uleb128 0x50
 698 02e6 08       		.uleb128 0x8
 699 02e7 53415200 		.ascii	"SAR\000"
 700 02eb 02       		.byte	0x2
 701 02ec 9C       		.byte	0x9c
 702 02ed 61030000 		.4byte	0x361
 703 02f1 02       		.byte	0x2
 704 02f2 23       		.byte	0x23
 705 02f3 60       		.uleb128 0x60
 706 02f4 07       		.uleb128 0x7
 707 02f5 48000000 		.4byte	.LASF10
 708 02f9 02       		.byte	0x2
 709 02fa 9D       		.byte	0x9d
 710 02fb 66030000 		.4byte	0x366
 711 02ff 02       		.byte	0x2
 712 0300 23       		.byte	0x23
 713 0301 74       		.uleb128 0x74
 714 0302 07       		.uleb128 0x7
 715 0303 B3000000 		.4byte	.LASF36
 716 0307 02       		.byte	0x2
 717 0308 9E       		.byte	0x9e
 718 0309 7A000000 		.4byte	0x7a
 719 030d 03       		.byte	0x3
 720 030e 23       		.byte	0x23
 721 030f 8801     		.uleb128 0x88
 722 0311 00       		.byte	0x0
 723 0312 09       		.uleb128 0x9
 724 0313 65000000 		.4byte	0x65
 725 0317 22030000 		.4byte	0x322
 726 031b 0A       		.uleb128 0xa
 727 031c 30000000 		.4byte	0x30
 728 0320 02       		.byte	0x2
 729 0321 00       		.byte	0x0
 730 0322 05       		.uleb128 0x5
 731 0323 12030000 		.4byte	0x312
 732 0327 09       		.uleb128 0x9
 733 0328 65000000 		.4byte	0x65
 734 032c 37030000 		.4byte	0x337
ARM GAS  /tmp/ccgjrrKz.s 			page 14


 735 0330 0A       		.uleb128 0xa
 736 0331 30000000 		.4byte	0x30
 737 0335 01       		.byte	0x1
 738 0336 00       		.byte	0x0
 739 0337 05       		.uleb128 0x5
 740 0338 27030000 		.4byte	0x327
 741 033c 09       		.uleb128 0x9
 742 033d 65000000 		.4byte	0x65
 743 0341 4C030000 		.4byte	0x34c
 744 0345 0A       		.uleb128 0xa
 745 0346 30000000 		.4byte	0x30
 746 034a 03       		.byte	0x3
 747 034b 00       		.byte	0x0
 748 034c 05       		.uleb128 0x5
 749 034d 3C030000 		.4byte	0x33c
 750 0351 09       		.uleb128 0x9
 751 0352 65000000 		.4byte	0x65
 752 0356 61030000 		.4byte	0x361
 753 035a 0A       		.uleb128 0xa
 754 035b 30000000 		.4byte	0x30
 755 035f 04       		.byte	0x4
 756 0360 00       		.byte	0x0
 757 0361 05       		.uleb128 0x5
 758 0362 51030000 		.4byte	0x351
 759 0366 05       		.uleb128 0x5
 760 0367 51030000 		.4byte	0x351
 761 036b 04       		.uleb128 0x4
 762 036c FB000000 		.4byte	.LASF37
 763 0370 02       		.byte	0x2
 764 0371 9F       		.byte	0x9f
 765 0372 E2010000 		.4byte	0x1e2
 766 0376 03       		.uleb128 0x3
 767 0377 01       		.byte	0x1
 768 0378 08       		.byte	0x8
 769 0379 2A010000 		.4byte	.LASF38
 770 037d 0D       		.uleb128 0xd
 771 037e 01       		.byte	0x1
 772 037f D6010000 		.4byte	.LASF40
 773 0383 01       		.byte	0x1
 774 0384 2E       		.byte	0x2e
 775 0385 01       		.byte	0x1
 776 0386 00000000 		.4byte	.LFB7
 777 038a 44000000 		.4byte	.LFE7
 778 038e 00000000 		.4byte	.LLST0
 779 0392 C1030000 		.4byte	0x3c1
 780 0396 0E       		.uleb128 0xe
 781 0397 6E00     		.ascii	"n\000"
 782 0399 01       		.byte	0x1
 783 039a 2E       		.byte	0x2e
 784 039b 5A000000 		.4byte	0x5a
 785 039f 20000000 		.4byte	.LLST1
 786 03a3 0F       		.uleb128 0xf
 787 03a4 00000000 		.4byte	.LASF39
 788 03a8 01       		.byte	0x1
 789 03a9 2E       		.byte	0x2e
 790 03aa 5A000000 		.4byte	0x5a
 791 03ae 33000000 		.4byte	.LLST2
ARM GAS  /tmp/ccgjrrKz.s 			page 15


 792 03b2 10       		.uleb128 0x10
 793 03b3 736800   		.ascii	"sh\000"
 794 03b6 01       		.byte	0x1
 795 03b7 2F       		.byte	0x2f
 796 03b8 30000000 		.4byte	0x30
 797 03bc 46000000 		.4byte	.LLST3
 798 03c0 00       		.byte	0x0
 799 03c1 0D       		.uleb128 0xd
 800 03c2 01       		.byte	0x1
 801 03c3 15000000 		.4byte	.LASF41
 802 03c7 01       		.byte	0x1
 803 03c8 3C       		.byte	0x3c
 804 03c9 01       		.byte	0x1
 805 03ca 00000000 		.4byte	.LFB8
 806 03ce 38000000 		.4byte	.LFE8
 807 03d2 5F000000 		.4byte	.LLST4
 808 03d6 F6030000 		.4byte	0x3f6
 809 03da 0E       		.uleb128 0xe
 810 03db 6E00     		.ascii	"n\000"
 811 03dd 01       		.byte	0x1
 812 03de 3C       		.byte	0x3c
 813 03df 5A000000 		.4byte	0x5a
 814 03e3 7F000000 		.4byte	.LLST5
 815 03e7 10       		.uleb128 0x10
 816 03e8 736800   		.ascii	"sh\000"
 817 03eb 01       		.byte	0x1
 818 03ec 3D       		.byte	0x3d
 819 03ed 30000000 		.4byte	0x30
 820 03f1 92000000 		.4byte	.LLST6
 821 03f5 00       		.byte	0x0
 822 03f6 11       		.uleb128 0x11
 823 03f7 01       		.byte	0x1
 824 03f8 B4010000 		.4byte	.LASF46
 825 03fc 01       		.byte	0x1
 826 03fd 4A       		.byte	0x4a
 827 03fe 01       		.byte	0x1
 828 03ff 00000000 		.4byte	.LFB9
 829 0403 2C000000 		.4byte	.LFE9
 830 0407 B6000000 		.4byte	.LLST7
 831 040b 0F       		.uleb128 0xf
 832 040c 0E010000 		.4byte	.LASF42
 833 0410 01       		.byte	0x1
 834 0411 4A       		.byte	0x4a
 835 0412 5A000000 		.4byte	0x5a
 836 0416 D6000000 		.4byte	.LLST8
 837 041a 12       		.uleb128 0x12
 838 041b 00000000 		.4byte	.LASF39
 839 041f 01       		.byte	0x1
 840 0420 4A       		.byte	0x4a
 841 0421 5A000000 		.4byte	0x5a
 842 0425 01       		.byte	0x1
 843 0426 51       		.byte	0x51
 844 0427 10       		.uleb128 0x10
 845 0428 736800   		.ascii	"sh\000"
 846 042b 01       		.byte	0x1
 847 042c 4B       		.byte	0x4b
 848 042d 30000000 		.4byte	0x30
ARM GAS  /tmp/ccgjrrKz.s 			page 16


 849 0431 E9000000 		.4byte	.LLST9
 850 0435 00       		.byte	0x0
 851 0436 00       		.byte	0x0
 852              		.section	.debug_abbrev
 853 0000 01       		.uleb128 0x1
 854 0001 11       		.uleb128 0x11
 855 0002 01       		.byte	0x1
 856 0003 25       		.uleb128 0x25
 857 0004 0E       		.uleb128 0xe
 858 0005 13       		.uleb128 0x13
 859 0006 0B       		.uleb128 0xb
 860 0007 03       		.uleb128 0x3
 861 0008 0E       		.uleb128 0xe
 862 0009 1B       		.uleb128 0x1b
 863 000a 0E       		.uleb128 0xe
 864 000b 11       		.uleb128 0x11
 865 000c 01       		.uleb128 0x1
 866 000d 52       		.uleb128 0x52
 867 000e 01       		.uleb128 0x1
 868 000f 55       		.uleb128 0x55
 869 0010 06       		.uleb128 0x6
 870 0011 10       		.uleb128 0x10
 871 0012 06       		.uleb128 0x6
 872 0013 00       		.byte	0x0
 873 0014 00       		.byte	0x0
 874 0015 02       		.uleb128 0x2
 875 0016 24       		.uleb128 0x24
 876 0017 00       		.byte	0x0
 877 0018 0B       		.uleb128 0xb
 878 0019 0B       		.uleb128 0xb
 879 001a 3E       		.uleb128 0x3e
 880 001b 0B       		.uleb128 0xb
 881 001c 03       		.uleb128 0x3
 882 001d 08       		.uleb128 0x8
 883 001e 00       		.byte	0x0
 884 001f 00       		.byte	0x0
 885 0020 03       		.uleb128 0x3
 886 0021 24       		.uleb128 0x24
 887 0022 00       		.byte	0x0
 888 0023 0B       		.uleb128 0xb
 889 0024 0B       		.uleb128 0xb
 890 0025 3E       		.uleb128 0x3e
 891 0026 0B       		.uleb128 0xb
 892 0027 03       		.uleb128 0x3
 893 0028 0E       		.uleb128 0xe
 894 0029 00       		.byte	0x0
 895 002a 00       		.byte	0x0
 896 002b 04       		.uleb128 0x4
 897 002c 16       		.uleb128 0x16
 898 002d 00       		.byte	0x0
 899 002e 03       		.uleb128 0x3
 900 002f 0E       		.uleb128 0xe
 901 0030 3A       		.uleb128 0x3a
 902 0031 0B       		.uleb128 0xb
 903 0032 3B       		.uleb128 0x3b
 904 0033 0B       		.uleb128 0xb
 905 0034 49       		.uleb128 0x49
ARM GAS  /tmp/ccgjrrKz.s 			page 17


 906 0035 13       		.uleb128 0x13
 907 0036 00       		.byte	0x0
 908 0037 00       		.byte	0x0
 909 0038 05       		.uleb128 0x5
 910 0039 35       		.uleb128 0x35
 911 003a 00       		.byte	0x0
 912 003b 49       		.uleb128 0x49
 913 003c 13       		.uleb128 0x13
 914 003d 00       		.byte	0x0
 915 003e 00       		.byte	0x0
 916 003f 06       		.uleb128 0x6
 917 0040 13       		.uleb128 0x13
 918 0041 01       		.byte	0x1
 919 0042 0B       		.uleb128 0xb
 920 0043 05       		.uleb128 0x5
 921 0044 3A       		.uleb128 0x3a
 922 0045 0B       		.uleb128 0xb
 923 0046 3B       		.uleb128 0x3b
 924 0047 0B       		.uleb128 0xb
 925 0048 01       		.uleb128 0x1
 926 0049 13       		.uleb128 0x13
 927 004a 00       		.byte	0x0
 928 004b 00       		.byte	0x0
 929 004c 07       		.uleb128 0x7
 930 004d 0D       		.uleb128 0xd
 931 004e 00       		.byte	0x0
 932 004f 03       		.uleb128 0x3
 933 0050 0E       		.uleb128 0xe
 934 0051 3A       		.uleb128 0x3a
 935 0052 0B       		.uleb128 0xb
 936 0053 3B       		.uleb128 0x3b
 937 0054 0B       		.uleb128 0xb
 938 0055 49       		.uleb128 0x49
 939 0056 13       		.uleb128 0x13
 940 0057 38       		.uleb128 0x38
 941 0058 0A       		.uleb128 0xa
 942 0059 00       		.byte	0x0
 943 005a 00       		.byte	0x0
 944 005b 08       		.uleb128 0x8
 945 005c 0D       		.uleb128 0xd
 946 005d 00       		.byte	0x0
 947 005e 03       		.uleb128 0x3
 948 005f 08       		.uleb128 0x8
 949 0060 3A       		.uleb128 0x3a
 950 0061 0B       		.uleb128 0xb
 951 0062 3B       		.uleb128 0x3b
 952 0063 0B       		.uleb128 0xb
 953 0064 49       		.uleb128 0x49
 954 0065 13       		.uleb128 0x13
 955 0066 38       		.uleb128 0x38
 956 0067 0A       		.uleb128 0xa
 957 0068 00       		.byte	0x0
 958 0069 00       		.byte	0x0
 959 006a 09       		.uleb128 0x9
 960 006b 01       		.uleb128 0x1
 961 006c 01       		.byte	0x1
 962 006d 49       		.uleb128 0x49
ARM GAS  /tmp/ccgjrrKz.s 			page 18


 963 006e 13       		.uleb128 0x13
 964 006f 01       		.uleb128 0x1
 965 0070 13       		.uleb128 0x13
 966 0071 00       		.byte	0x0
 967 0072 00       		.byte	0x0
 968 0073 0A       		.uleb128 0xa
 969 0074 21       		.uleb128 0x21
 970 0075 00       		.byte	0x0
 971 0076 49       		.uleb128 0x49
 972 0077 13       		.uleb128 0x13
 973 0078 2F       		.uleb128 0x2f
 974 0079 0B       		.uleb128 0xb
 975 007a 00       		.byte	0x0
 976 007b 00       		.byte	0x0
 977 007c 0B       		.uleb128 0xb
 978 007d 21       		.uleb128 0x21
 979 007e 00       		.byte	0x0
 980 007f 49       		.uleb128 0x49
 981 0080 13       		.uleb128 0x13
 982 0081 2F       		.uleb128 0x2f
 983 0082 05       		.uleb128 0x5
 984 0083 00       		.byte	0x0
 985 0084 00       		.byte	0x0
 986 0085 0C       		.uleb128 0xc
 987 0086 13       		.uleb128 0x13
 988 0087 01       		.byte	0x1
 989 0088 0B       		.uleb128 0xb
 990 0089 0B       		.uleb128 0xb
 991 008a 3A       		.uleb128 0x3a
 992 008b 0B       		.uleb128 0xb
 993 008c 3B       		.uleb128 0x3b
 994 008d 0B       		.uleb128 0xb
 995 008e 01       		.uleb128 0x1
 996 008f 13       		.uleb128 0x13
 997 0090 00       		.byte	0x0
 998 0091 00       		.byte	0x0
 999 0092 0D       		.uleb128 0xd
 1000 0093 2E       		.uleb128 0x2e
 1001 0094 01       		.byte	0x1
 1002 0095 3F       		.uleb128 0x3f
 1003 0096 0C       		.uleb128 0xc
 1004 0097 03       		.uleb128 0x3
 1005 0098 0E       		.uleb128 0xe
 1006 0099 3A       		.uleb128 0x3a
 1007 009a 0B       		.uleb128 0xb
 1008 009b 3B       		.uleb128 0x3b
 1009 009c 0B       		.uleb128 0xb
 1010 009d 27       		.uleb128 0x27
 1011 009e 0C       		.uleb128 0xc
 1012 009f 11       		.uleb128 0x11
 1013 00a0 01       		.uleb128 0x1
 1014 00a1 12       		.uleb128 0x12
 1015 00a2 01       		.uleb128 0x1
 1016 00a3 40       		.uleb128 0x40
 1017 00a4 06       		.uleb128 0x6
 1018 00a5 01       		.uleb128 0x1
 1019 00a6 13       		.uleb128 0x13
ARM GAS  /tmp/ccgjrrKz.s 			page 19


 1020 00a7 00       		.byte	0x0
 1021 00a8 00       		.byte	0x0
 1022 00a9 0E       		.uleb128 0xe
 1023 00aa 05       		.uleb128 0x5
 1024 00ab 00       		.byte	0x0
 1025 00ac 03       		.uleb128 0x3
 1026 00ad 08       		.uleb128 0x8
 1027 00ae 3A       		.uleb128 0x3a
 1028 00af 0B       		.uleb128 0xb
 1029 00b0 3B       		.uleb128 0x3b
 1030 00b1 0B       		.uleb128 0xb
 1031 00b2 49       		.uleb128 0x49
 1032 00b3 13       		.uleb128 0x13
 1033 00b4 02       		.uleb128 0x2
 1034 00b5 06       		.uleb128 0x6
 1035 00b6 00       		.byte	0x0
 1036 00b7 00       		.byte	0x0
 1037 00b8 0F       		.uleb128 0xf
 1038 00b9 05       		.uleb128 0x5
 1039 00ba 00       		.byte	0x0
 1040 00bb 03       		.uleb128 0x3
 1041 00bc 0E       		.uleb128 0xe
 1042 00bd 3A       		.uleb128 0x3a
 1043 00be 0B       		.uleb128 0xb
 1044 00bf 3B       		.uleb128 0x3b
 1045 00c0 0B       		.uleb128 0xb
 1046 00c1 49       		.uleb128 0x49
 1047 00c2 13       		.uleb128 0x13
 1048 00c3 02       		.uleb128 0x2
 1049 00c4 06       		.uleb128 0x6
 1050 00c5 00       		.byte	0x0
 1051 00c6 00       		.byte	0x0
 1052 00c7 10       		.uleb128 0x10
 1053 00c8 34       		.uleb128 0x34
 1054 00c9 00       		.byte	0x0
 1055 00ca 03       		.uleb128 0x3
 1056 00cb 08       		.uleb128 0x8
 1057 00cc 3A       		.uleb128 0x3a
 1058 00cd 0B       		.uleb128 0xb
 1059 00ce 3B       		.uleb128 0x3b
 1060 00cf 0B       		.uleb128 0xb
 1061 00d0 49       		.uleb128 0x49
 1062 00d1 13       		.uleb128 0x13
 1063 00d2 02       		.uleb128 0x2
 1064 00d3 06       		.uleb128 0x6
 1065 00d4 00       		.byte	0x0
 1066 00d5 00       		.byte	0x0
 1067 00d6 11       		.uleb128 0x11
 1068 00d7 2E       		.uleb128 0x2e
 1069 00d8 01       		.byte	0x1
 1070 00d9 3F       		.uleb128 0x3f
 1071 00da 0C       		.uleb128 0xc
 1072 00db 03       		.uleb128 0x3
 1073 00dc 0E       		.uleb128 0xe
 1074 00dd 3A       		.uleb128 0x3a
 1075 00de 0B       		.uleb128 0xb
 1076 00df 3B       		.uleb128 0x3b
ARM GAS  /tmp/ccgjrrKz.s 			page 20


 1077 00e0 0B       		.uleb128 0xb
 1078 00e1 27       		.uleb128 0x27
 1079 00e2 0C       		.uleb128 0xc
 1080 00e3 11       		.uleb128 0x11
 1081 00e4 01       		.uleb128 0x1
 1082 00e5 12       		.uleb128 0x12
 1083 00e6 01       		.uleb128 0x1
 1084 00e7 40       		.uleb128 0x40
 1085 00e8 06       		.uleb128 0x6
 1086 00e9 00       		.byte	0x0
 1087 00ea 00       		.byte	0x0
 1088 00eb 12       		.uleb128 0x12
 1089 00ec 05       		.uleb128 0x5
 1090 00ed 00       		.byte	0x0
 1091 00ee 03       		.uleb128 0x3
 1092 00ef 0E       		.uleb128 0xe
 1093 00f0 3A       		.uleb128 0x3a
 1094 00f1 0B       		.uleb128 0xb
 1095 00f2 3B       		.uleb128 0x3b
 1096 00f3 0B       		.uleb128 0xb
 1097 00f4 49       		.uleb128 0x49
 1098 00f5 13       		.uleb128 0x13
 1099 00f6 02       		.uleb128 0x2
 1100 00f7 0A       		.uleb128 0xa
 1101 00f8 00       		.byte	0x0
 1102 00f9 00       		.byte	0x0
 1103 00fa 00       		.byte	0x0
 1104              		.section	.debug_pubnames,"",%progbits
 1105 0000 5A000000 		.4byte	0x5a
 1106 0004 0200     		.2byte	0x2
 1107 0006 00000000 		.4byte	.Ldebug_info0
 1108 000a 37040000 		.4byte	0x437
 1109 000e 7D030000 		.4byte	0x37d
 1110 0012 6E766963 		.ascii	"nvicEnableVector\000"
 1110      456E6162 
 1110      6C655665 
 1110      63746F72 
 1110      00
 1111 0023 C1030000 		.4byte	0x3c1
 1112 0027 6E766963 		.ascii	"nvicDisableVector\000"
 1112      44697361 
 1112      626C6556 
 1112      6563746F 
 1112      7200
 1113 0039 F6030000 		.4byte	0x3f6
 1114 003d 6E766963 		.ascii	"nvicSetSystemHandlerPriority\000"
 1114      53657453 
 1114      79737465 
 1114      6D48616E 
 1114      646C6572 
 1115 005a 00000000 		.4byte	0x0
 1116              		.section	.debug_pubtypes,"",%progbits
 1117 0000 34000000 		.4byte	0x34
 1118 0004 0200     		.2byte	0x2
 1119 0006 00000000 		.4byte	.Ldebug_info0
 1120 000a 37040000 		.4byte	0x437
 1121 000e 5A000000 		.4byte	0x5a
ARM GAS  /tmp/ccgjrrKz.s 			page 21


 1122 0012 75696E74 		.ascii	"uint32_t\000"
 1122      33325F74 
 1122      00
 1123 001b D7010000 		.4byte	0x1d7
 1124 001f 434D785F 		.ascii	"CMx_NVIC\000"
 1124      4E564943 
 1124      00
 1125 0028 6B030000 		.4byte	0x36b
 1126 002c 434D785F 		.ascii	"CMx_SCB\000"
 1126      53434200 
 1127 0034 00000000 		.4byte	0x0
 1128              		.section	.debug_aranges,"",%progbits
 1129 0000 2C000000 		.4byte	0x2c
 1130 0004 0200     		.2byte	0x2
 1131 0006 00000000 		.4byte	.Ldebug_info0
 1132 000a 04       		.byte	0x4
 1133 000b 00       		.byte	0x0
 1134 000c 0000     		.2byte	0x0
 1135 000e 0000     		.2byte	0x0
 1136 0010 00000000 		.4byte	.LFB7
 1137 0014 44000000 		.4byte	.LFE7-.LFB7
 1138 0018 00000000 		.4byte	.LFB8
 1139 001c 38000000 		.4byte	.LFE8-.LFB8
 1140 0020 00000000 		.4byte	.LFB9
 1141 0024 2C000000 		.4byte	.LFE9-.LFB9
 1142 0028 00000000 		.4byte	0x0
 1143 002c 00000000 		.4byte	0x0
 1144              		.section	.debug_ranges,"",%progbits
 1145              	.Ldebug_ranges0:
 1146 0000 00000000 		.4byte	.LFB7
 1147 0004 44000000 		.4byte	.LFE7
 1148 0008 00000000 		.4byte	.LFB8
 1149 000c 38000000 		.4byte	.LFE8
 1150 0010 00000000 		.4byte	.LFB9
 1151 0014 2C000000 		.4byte	.LFE9
 1152 0018 00000000 		.4byte	0x0
 1153 001c 00000000 		.4byte	0x0
 1154              		.section	.debug_str,"MS",%progbits,1
 1155              	.LASF39:
 1156 0000 7072696F 		.ascii	"prio\000"
 1156      00
 1157              	.LASF15:
 1158 0005 49435052 		.ascii	"ICPR\000"
 1158      00
 1159              	.LASF35:
 1160 000a 4D4D4652 		.ascii	"MMFR\000"
 1160      00
 1161              	.LASF28:
 1162 000f 53484353 		.ascii	"SHCSR\000"
 1162      5200
 1163              	.LASF41:
 1164 0015 6E766963 		.ascii	"nvicDisableVector\000"
 1164      44697361 
 1164      626C6556 
 1164      6563746F 
 1164      7200
 1165              	.LASF22:
ARM GAS  /tmp/ccgjrrKz.s 			page 22


 1166 0027 434D785F 		.ascii	"CMx_NVIC\000"
 1166      4E564943 
 1166      00
 1167              	.LASF25:
 1168 0030 56544F52 		.ascii	"VTOR\000"
 1168      00
 1169              	.LASF11:
 1170 0035 49434552 		.ascii	"ICER\000"
 1170      00
 1171              	.LASF2:
 1172 003a 756E7369 		.ascii	"unsigned char\000"
 1172      676E6564 
 1172      20636861 
 1172      7200
 1173              	.LASF10:
 1174 0048 756E7573 		.ascii	"unused1\000"
 1174      65643100 
 1175              	.LASF12:
 1176 0050 756E7573 		.ascii	"unused2\000"
 1176      65643200 
 1177              	.LASF14:
 1178 0058 756E7573 		.ascii	"unused3\000"
 1178      65643300 
 1179              	.LASF16:
 1180 0060 756E7573 		.ascii	"unused4\000"
 1180      65643400 
 1181              	.LASF18:
 1182 0068 756E7573 		.ascii	"unused5\000"
 1182      65643500 
 1183              	.LASF19:
 1184 0070 756E7573 		.ascii	"unused6\000"
 1184      65643600 
 1185              	.LASF4:
 1186 0078 73686F72 		.ascii	"short unsigned int\000"
 1186      7420756E 
 1186      7369676E 
 1186      65642069 
 1186      6E7400
 1187              	.LASF29:
 1188 008b 43465352 		.ascii	"CFSR\000"
 1188      00
 1189              	.LASF43:
 1190 0090 474E5520 		.ascii	"GNU C 4.5.2\000"
 1190      4320342E 
 1190      352E3200 
 1191              	.LASF30:
 1192 009c 48465352 		.ascii	"HFSR\000"
 1192      00
 1193              	.LASF6:
 1194 00a1 6C6F6E67 		.ascii	"long unsigned int\000"
 1194      20756E73 
 1194      69676E65 
 1194      6420696E 
 1194      7400
 1195              	.LASF36:
 1196 00b3 43504143 		.ascii	"CPACR\000"
 1196      5200
ARM GAS  /tmp/ccgjrrKz.s 			page 23


 1197              	.LASF20:
 1198 00b9 53544952 		.ascii	"STIR\000"
 1198      00
 1199              	.LASF3:
 1200 00be 73686F72 		.ascii	"short int\000"
 1200      7420696E 
 1200      7400
 1201              	.LASF0:
 1202 00c8 756E7369 		.ascii	"unsigned int\000"
 1202      676E6564 
 1202      20696E74 
 1202      00
 1203              	.LASF13:
 1204 00d5 49535052 		.ascii	"ISPR\000"
 1204      00
 1205              	.LASF31:
 1206 00da 44465352 		.ascii	"DFSR\000"
 1206      00
 1207              	.LASF8:
 1208 00df 6C6F6E67 		.ascii	"long long unsigned int\000"
 1208      206C6F6E 
 1208      6720756E 
 1208      7369676E 
 1208      65642069 
 1209              	.LASF24:
 1210 00f6 49435352 		.ascii	"ICSR\000"
 1210      00
 1211              	.LASF37:
 1212 00fb 434D785F 		.ascii	"CMx_SCB\000"
 1212      53434200 
 1213              	.LASF26:
 1214 0103 41495243 		.ascii	"AIRCR\000"
 1214      5200
 1215              	.LASF33:
 1216 0109 42464152 		.ascii	"BFAR\000"
 1216      00
 1217              	.LASF42:
 1218 010e 68616E64 		.ascii	"handler\000"
 1218      6C657200 
 1219              	.LASF7:
 1220 0116 6C6F6E67 		.ascii	"long long int\000"
 1220      206C6F6E 
 1220      6720696E 
 1220      7400
 1221              	.LASF23:
 1222 0124 43505549 		.ascii	"CPUID\000"
 1222      4400
 1223              	.LASF38:
 1224 012a 63686172 		.ascii	"char\000"
 1224      00
 1225              	.LASF44:
 1226 012f 2E2E2F6C 		.ascii	"../libs/ChibiOS_2.4.0/os/ports/common/ARMCMx/nvic.c"
 1226      6962732F 
 1226      43686962 
 1226      694F535F 
 1226      322E342E 
 1227 0162 00       		.ascii	"\000"
ARM GAS  /tmp/ccgjrrKz.s 			page 24


 1228              	.LASF9:
 1229 0163 49534552 		.ascii	"ISER\000"
 1229      00
 1230              	.LASF34:
 1231 0168 41465352 		.ascii	"AFSR\000"
 1231      00
 1232              	.LASF32:
 1233 016d 4D4D4641 		.ascii	"MMFAR\000"
 1233      5200
 1234              	.LASF21:
 1235 0173 75696E74 		.ascii	"uint32_t\000"
 1235      33325F74 
 1235      00
 1236              	.LASF5:
 1237 017c 6C6F6E67 		.ascii	"long int\000"
 1237      20696E74 
 1237      00
 1238              	.LASF27:
 1239 0185 53485052 		.ascii	"SHPR\000"
 1239      00
 1240              	.LASF45:
 1241 018a 2F686F6D 		.ascii	"/home/stm32/Workspace/demoarm\000"
 1241      652F7374 
 1241      6D33322F 
 1241      576F726B 
 1241      73706163 
 1242              	.LASF1:
 1243 01a8 7369676E 		.ascii	"signed char\000"
 1243      65642063 
 1243      68617200 
 1244              	.LASF46:
 1245 01b4 6E766963 		.ascii	"nvicSetSystemHandlerPriority\000"
 1245      53657453 
 1245      79737465 
 1245      6D48616E 
 1245      646C6572 
 1246              	.LASF17:
 1247 01d1 49414252 		.ascii	"IABR\000"
 1247      00
 1248              	.LASF40:
 1249 01d6 6E766963 		.ascii	"nvicEnableVector\000"
 1249      456E6162 
 1249      6C655665 
 1249      63746F72 
 1249      00
 1250              		.ident	"GCC: (Sourcery G++ Lite 2011.03-42) 4.5.2"
ARM GAS  /tmp/ccgjrrKz.s 			page 25


DEFINED SYMBOLS
                            *ABS*:00000000 nvic.c
     /tmp/ccgjrrKz.s:26     .text.nvicEnableVector:00000000 $t
     /tmp/ccgjrrKz.s:32     .text.nvicEnableVector:00000000 nvicEnableVector
     /tmp/ccgjrrKz.s:86     .text.nvicEnableVector:00000040 $d
     /tmp/ccgjrrKz.s:91     .text.nvicDisableVector:00000000 $t
     /tmp/ccgjrrKz.s:97     .text.nvicDisableVector:00000000 nvicDisableVector
     /tmp/ccgjrrKz.s:143    .text.nvicDisableVector:00000034 $d
     /tmp/ccgjrrKz.s:148    .text.nvicSetSystemHandlerPriority:00000000 $t
     /tmp/ccgjrrKz.s:154    .text.nvicSetSystemHandlerPriority:00000000 nvicSetSystemHandlerPriority
     /tmp/ccgjrrKz.s:194    .text.nvicSetSystemHandlerPriority:00000028 $d
                     .debug_frame:00000010 $d
     /tmp/ccgjrrKz.s:90     .text.nvicEnableVector:00000044 $t
     /tmp/ccgjrrKz.s:147    .text.nvicDisableVector:00000038 $t
     /tmp/ccgjrrKz.s:198    .text.nvicSetSystemHandlerPriority:0000002c $t

NO UNDEFINED SYMBOLS
