ARM GAS  /tmp/ccgjrrKz.s 			page 1


   1              		.syntax unified
   2              		.cpu cortex-m4
   3              		.eabi_attribute 27, 3
   4              		.eabi_attribute 28, 1
   5              		.fpu fpv4-sp-d16
   6              		.eabi_attribute 20, 1
   7              		.eabi_attribute 21, 1
   8              		.eabi_attribute 23, 3
   9              		.eabi_attribute 24, 1
  10              		.eabi_attribute 25, 1
  11              		.eabi_attribute 26, 1
  12              		.eabi_attribute 30, 2
  13              		.eabi_attribute 18, 4
  14              		.thumb
  15              		.file	"nvic.c"
  22 0000 1A010000 		.text
  22      0200C600 
  22      00000201 
  22      FB0E0D00 
  22      01010101 
  23              	.Ltext0:
  24              		.cfi_sections	.debug_frame
  25              		.section	.text.nvicEnableVector,"ax",%progbits
  26              		.align	2
  27              		.p2align 4,,15
  28              		.global	nvicEnableVector
  29              		.thumb
  30              		.thumb_func
  31              		.type	nvicEnableVector, %function
  32              	nvicEnableVector:
  33              	.LFB7:
  34              		.file 1 "../libs/ChibiOS_2.4.0/os/ports/common/ARMCMx/nvic.c"
  35              		.loc 1 46 0
  36              		.cfi_startproc
  37              		@ args = 0, pretend = 0, frame = 0
  38              		@ frame_needed = 0, uses_anonymous_args = 0
  39              		@ link register save eliminated.
  40              	.LVL0:
  41 0000 F0B4     		push	{r4, r5, r6, r7}
  42              	.LCFI0:
  43              		.cfi_def_cfa_offset 16
  44              		.loc 1 49 0
  45 0002 8408     		lsrs	r4, r0, #2
  46              		.cfi_offset 7, -4
  47              		.cfi_offset 6, -8
  48              		.cfi_offset 5, -12
  49              		.cfi_offset 4, -16
  50 0004 0E4B     		ldr	r3, .L2
  51 0006 C034     		adds	r4, r4, #192
  52              		.loc 1 47 0
  53 0008 00F00302 		and	r2, r0, #3
ARM GAS  /tmp/ccgjrrKz.s 			page 2


  54              		.loc 1 49 0
  55 000c 53F82470 		ldr	r7, [r3, r4, lsl #2]
  56              		.loc 1 47 0
  57 0010 D500     		lsls	r5, r2, #3
  58              		.loc 1 49 0
  59 0012 FF26     		movs	r6, #255
  60              		.loc 1 50 0
  61 0014 4209     		lsrs	r2, r0, #5
  62              		.loc 1 49 0
  63 0016 AE40     		lsls	r6, r6, r5
  64 0018 27EA0606 		bic	r6, r7, r6
  65 001c 11FA05F5 		lsls	r5, r1, r5
  66              		.loc 1 50 0
  67 0020 00F01F00 		and	r0, r0, #31
  68              	.LVL1:
  69 0024 02F16007 		add	r7, r2, #96
  70 0028 0121     		movs	r1, #1
  71              	.LVL2:
  72 002a 11FA00F0 		lsls	r0, r1, r0
  73              		.loc 1 49 0
  74 002e 2E43     		orrs	r6, r6, r5
  75 0030 43F82460 		str	r6, [r3, r4, lsl #2]
  76              		.loc 1 50 0
  77 0034 43F82700 		str	r0, [r3, r7, lsl #2]
  78              		.loc 1 51 0
  79 0038 43F82200 		str	r0, [r3, r2, lsl #2]
  80              		.loc 1 52 0
  81 003c F0BC     		pop	{r4, r5, r6, r7}
  82 003e 7047     		bx	lr
  83              	.L3:
  84              		.align	2
  85              	.L2:
  86 0040 00E100E0 		.word	-536813312
  87              		.cfi_endproc
  88              	.LFE7:
  89              		.size	nvicEnableVector, .-nvicEnableVector
  90 0044 AFF30080 		.section	.text.nvicDisableVector,"ax",%progbits
  90      AFF30080 
  90      AFF30080 
  91              		.align	2
  92              		.p2align 4,,15
  93              		.global	nvicDisableVector
  94              		.thumb
  95              		.thumb_func
  96              		.type	nvicDisableVector, %function
  97              	nvicDisableVector:
  98              	.LFB8:
  99              		.loc 1 60 0
 100              		.cfi_startproc
 101              		@ args = 0, pretend = 0, frame = 0
 102              		@ frame_needed = 0, uses_anonymous_args = 0
 103              		@ link register save eliminated.
 104              	.LVL3:
 105              		.loc 1 63 0
 106 0000 4109     		lsrs	r1, r0, #5
 107              		.loc 1 60 0
 108 0002 10B4     		push	{r4}
ARM GAS  /tmp/ccgjrrKz.s 			page 3


 109              	.LCFI1:
 110              		.cfi_def_cfa_offset 4
 111              		.loc 1 63 0
 112 0004 0B4B     		ldr	r3, .L5
 113 0006 00F01F02 		and	r2, r0, #31
 114 000a 2031     		adds	r1, r1, #32
 115 000c 0124     		movs	r4, #1
 116              		.cfi_offset 4, -4
 117 000e 9440     		lsls	r4, r4, r2
 118              		.loc 1 64 0
 119 0010 8208     		lsrs	r2, r0, #2
 120              		.loc 1 63 0
 121 0012 43F82140 		str	r4, [r3, r1, lsl #2]
 122              		.loc 1 64 0
 123 0016 C032     		adds	r2, r2, #192
 124              		.loc 1 61 0
 125 0018 00F00304 		and	r4, r0, #3
 126              		.loc 1 64 0
 127 001c 53F82210 		ldr	r1, [r3, r2, lsl #2]
 128              		.loc 1 61 0
 129 0020 E000     		lsls	r0, r4, #3
 130              	.LVL4:
 131              		.loc 1 64 0
 132 0022 FF24     		movs	r4, #255
 133 0024 14FA00F0 		lsls	r0, r4, r0
 134              	.LVL5:
 135 0028 21EA0000 		bic	r0, r1, r0
 136 002c 43F82200 		str	r0, [r3, r2, lsl #2]
 137              		.loc 1 65 0
 138 0030 10BC     		pop	{r4}
 139 0032 7047     		bx	lr
 140              	.L6:
 141              		.align	2
 142              	.L5:
 143 0034 00E100E0 		.word	-536813312
 144              		.cfi_endproc
 145              	.LFE8:
 146              		.size	nvicDisableVector, .-nvicDisableVector
 147 0038 AFF30080 		.section	.text.nvicSetSystemHandlerPriority,"ax",%progbits
 147      AFF30080 
 148              		.align	2
 149              		.p2align 4,,15
 150              		.global	nvicSetSystemHandlerPriority
 151              		.thumb
 152              		.thumb_func
 153              		.type	nvicSetSystemHandlerPriority, %function
 154              	nvicSetSystemHandlerPriority:
 155              	.LFB9:
 156              		.loc 1 74 0
 157              		.cfi_startproc
 158              		@ args = 0, pretend = 0, frame = 0
 159              		@ frame_needed = 0, uses_anonymous_args = 0
 160              		@ link register save eliminated.
 161              	.LVL6:
 162 0000 30B4     		push	{r4, r5}
 163              	.LCFI2:
 164              		.cfi_def_cfa_offset 8
ARM GAS  /tmp/ccgjrrKz.s 			page 4


 165              		.loc 1 77 0
 166 0002 8508     		lsrs	r5, r0, #2
 167              		.cfi_offset 5, -4
 168              		.cfi_offset 4, -8
 169 0004 084B     		ldr	r3, .L8
 170 0006 AA1D     		adds	r2, r5, #6
 171              		.loc 1 75 0
 172 0008 00F00300 		and	r0, r0, #3
 173              	.LVL7:
 174              		.loc 1 77 0
 175 000c 53F82250 		ldr	r5, [r3, r2, lsl #2]
 176              		.loc 1 75 0
 177 0010 C000     		lsls	r0, r0, #3
 178              		.loc 1 78 0
 179 0012 FF24     		movs	r4, #255
 180 0014 8440     		lsls	r4, r4, r0
 181              		.loc 1 77 0
 182 0016 25EA0404 		bic	r4, r5, r4
 183              		.loc 1 78 0
 184 001a 11FA00F0 		lsls	r0, r1, r0
 185 001e 0443     		orrs	r4, r4, r0
 186              		.loc 1 77 0
 187 0020 43F82240 		str	r4, [r3, r2, lsl #2]
 188              		.loc 1 79 0
 189 0024 30BC     		pop	{r4, r5}
 190 0026 7047     		bx	lr
 191              	.L9:
 192              		.align	2
 193              	.L8:
 194 0028 00ED00E0 		.word	-536810240
 195              		.cfi_endproc
 196              	.LFE9:
 197              		.size	nvicSetSystemHandlerPriority, .-nvicSetSystemHandlerPriority
 198 002c AFF30080 		.text
 199              	.Letext0: