ARM GAS  /tmp/ccdn9Qhg.s 			page 1


   1              		.syntax unified
   2              		.cpu cortex-m4
   3              		.eabi_attribute 27, 3
   4              		.eabi_attribute 28, 1
   5              		.fpu fpv4-sp-d16
   6              		.eabi_attribute 20, 1
   7              		.eabi_attribute 21, 1
   8              		.eabi_attribute 23, 3
   9              		.eabi_attribute 24, 1
  10              		.eabi_attribute 25, 1
  11              		.eabi_attribute 26, 1
  12              		.eabi_attribute 30, 2
  13              		.eabi_attribute 18, 4
  14              		.thumb
  15              		.file	"pal.c"
  22 0000 A8010000 		.text
  22      02006701 
  22      00000201 
  22      FB0E0D00 
  22      01010101 
  23              	.Ltext0:
  24              		.cfi_sections	.debug_frame
  25              		.section	.text.palReadBus,"ax",%progbits
  26              		.align	2
  27              		.p2align 4,,15
  28              		.global	palReadBus
  29              		.thumb
  30              		.thumb_func
  31              		.type	palReadBus, %function
  32              	palReadBus:
  33              	.LFB117:
  34              		.file 1 "../libs/ChibiOS_2.4.0/os/hal/src/pal.c"
  35              		.loc 1 76 0
  36              		.cfi_startproc
  37              		@ args = 0, pretend = 0, frame = 0
  38              		@ frame_needed = 0, uses_anonymous_args = 0
  39              		@ link register save eliminated.
  40              	.LVL0:
  41              		.loc 1 81 0
  42 0000 0368     		ldr	r3, [r0, #0]
  43 0002 8268     		ldr	r2, [r0, #8]
  44 0004 1969     		ldr	r1, [r3, #16]
  45 0006 4368     		ldr	r3, [r0, #4]
  46 0008 31FA02F0 		lsrs	r0, r1, r2
  47              	.LVL1:
  48              		.loc 1 82 0
  49 000c 1840     		ands	r0, r0, r3
  50 000e 7047     		bx	lr
  51              		.cfi_endproc
  52              	.LFE117:
  53              		.size	palReadBus, .-palReadBus
ARM GAS  /tmp/ccdn9Qhg.s 			page 2


  54              		.section	.text.palWriteBus,"ax",%progbits
  55              		.align	2
  56              		.p2align 4,,15
  57              		.global	palWriteBus
  58              		.thumb
  59              		.thumb_func
  60              		.type	palWriteBus, %function
  61              	palWriteBus:
  62              	.LFB118:
  63              		.loc 1 101 0
  64              		.cfi_startproc
  65              		@ args = 0, pretend = 0, frame = 0
  66              		@ frame_needed = 0, uses_anonymous_args = 0
  67              		@ link register save eliminated.
  68              	.LVL2:
  69              		.loc 1 106 0
  70 0000 8368     		ldr	r3, [r0, #8]
  71 0002 4268     		ldr	r2, [r0, #4]
  72 0004 0068     		ldr	r0, [r0, #0]
  73              	.LVL3:
  74              		.loc 1 101 0
  75 0006 30B4     		push	{r4, r5}
  76              	.LCFI0:
  77              		.cfi_def_cfa_offset 8
  78              		.loc 1 106 0
  79 0008 22EA0105 		bic	r5, r2, r1
  80              		.cfi_offset 5, -4
  81              		.cfi_offset 4, -8
  82 000c 03F11004 		add	r4, r3, #16
  83 0010 01EA0202 		and	r2, r1, r2
  84 0014 15FA04F4 		lsls	r4, r5, r4
  85 0018 12FA03F1 		lsls	r1, r2, r3
  86              	.LVL4:
  87 001c 44EA0103 		orr	r3, r4, r1
  88 0020 8361     		str	r3, [r0, #24]
  89              		.loc 1 107 0
  90 0022 30BC     		pop	{r4, r5}
  91 0024 7047     		bx	lr
  92              		.cfi_endproc
  93              	.LFE118:
  94              		.size	palWriteBus, .-palWriteBus
  95 0026 00BFAFF3 		.section	.text.palSetBusMode,"ax",%progbits
  95      0080AFF3 
  95      0080
  96              		.align	2
  97              		.p2align 4,,15
  98              		.global	palSetBusMode
  99              		.thumb
 100              		.thumb_func
 101              		.type	palSetBusMode, %function
 102              	palSetBusMode:
 103              	.LFB119:
 104              		.loc 1 124 0
 105              		.cfi_startproc
 106              		@ args = 0, pretend = 0, frame = 0
 107              		@ frame_needed = 0, uses_anonymous_args = 0
 108              		@ link register save eliminated.
ARM GAS  /tmp/ccdn9Qhg.s 			page 3


 109              	.LVL5:
 110              		.loc 1 129 0
 111 0000 8368     		ldr	r3, [r0, #8]
 112              		.loc 1 124 0
 113 0002 0A46     		mov	r2, r1
 114              		.loc 1 129 0
 115 0004 4168     		ldr	r1, [r0, #4]
 116              	.LVL6:
 117 0006 0068     		ldr	r0, [r0, #0]
 118              	.LVL7:
 119 0008 9940     		lsls	r1, r1, r3
 120              		.loc 1 130 0
 121              		.loc 1 129 0
 122 000a FFF7FEBF 		b	_pal_lld_setgroupmode
 123              		.cfi_endproc
 124              	.LFE119:
 125              		.size	palSetBusMode, .-palSetBusMode
 126 000e 00BF     		.text
 127              	.Letext0: