ARM GAS  /tmp/ccjvu7O1.s 			page 1


   1              		.syntax unified
   2              		.cpu cortex-m4
   3              		.eabi_attribute 27, 3
   4              		.eabi_attribute 28, 1
   5              		.fpu fpv4-sp-d16
   6              		.eabi_attribute 20, 1
   7              		.eabi_attribute 21, 1
   8              		.eabi_attribute 23, 3
   9              		.eabi_attribute 24, 1
  10              		.eabi_attribute 25, 1
  11              		.eabi_attribute 26, 1
  12              		.eabi_attribute 30, 2
  13              		.eabi_attribute 18, 4
  14              		.thumb
  15              		.file	"pwm.c"
  22 0000 04020000 		.text
  22      02006B01 
  22      00000201 
  22      FB0E0D00 
  22      01010101 
  23              	.Ltext0:
  24              		.cfi_sections	.debug_frame
  25              		.section	.text.pwmInit,"ax",%progbits
  26              		.align	2
  27              		.p2align 4,,15
  28              		.global	pwmInit
  29              		.thumb
  30              		.thumb_func
  31              		.type	pwmInit, %function
  32              	pwmInit:
  33              	.LFB117:
  34              		.file 1 "../libs/ChibiOS_2.4.0/os/hal/src/pwm.c"
  35              		.loc 1 68 0
  36              		.cfi_startproc
  37              		@ args = 0, pretend = 0, frame = 0
  38              		@ frame_needed = 0, uses_anonymous_args = 0
  39              		@ link register save eliminated.
  40              		.loc 1 71 0
  41              		.loc 1 70 0
  42 0000 FFF7FEBF 		b	pwm_lld_init
  43              		.cfi_endproc
  44              	.LFE117:
  45              		.size	pwmInit, .-pwmInit
  46 0004 AFF30080 		.section	.text.pwmObjectInit,"ax",%progbits
  46      AFF30080 
  46      AFF30080 
  47              		.align	2
  48              		.p2align 4,,15
  49              		.global	pwmObjectInit
  50              		.thumb
  51              		.thumb_func
ARM GAS  /tmp/ccjvu7O1.s 			page 2


  52              		.type	pwmObjectInit, %function
  53              	pwmObjectInit:
  54              	.LFB118:
  55              		.loc 1 80 0
  56              		.cfi_startproc
  57              		@ args = 0, pretend = 0, frame = 0
  58              		@ frame_needed = 0, uses_anonymous_args = 0
  59              		@ link register save eliminated.
  60              	.LVL0:
  61              		.loc 1 82 0
  62 0000 0121     		movs	r1, #1
  63              		.loc 1 83 0
  64 0002 0023     		movs	r3, #0
  65              		.loc 1 82 0
  66 0004 0170     		strb	r1, [r0, #0]
  67              		.loc 1 83 0
  68 0006 4360     		str	r3, [r0, #4]
  69              		.loc 1 87 0
  70 0008 7047     		bx	lr
  71              		.cfi_endproc
  72              	.LFE118:
  73              		.size	pwmObjectInit, .-pwmObjectInit
  74 000a 00BFAFF3 		.section	.text.pwmStart,"ax",%progbits
  74      0080
  75              		.align	2
  76              		.p2align 4,,15
  77              		.global	pwmStart
  78              		.thumb
  79              		.thumb_func
  80              		.type	pwmStart, %function
  81              	pwmStart:
  82              	.LFB119:
  83              		.loc 1 99 0
  84              		.cfi_startproc
  85              		@ args = 0, pretend = 0, frame = 0
  86              		@ frame_needed = 0, uses_anonymous_args = 0
  87              	.LVL1:
  88 0000 10B5     		push	{r4, lr}
  89              	.LCFI0:
  90              		.cfi_def_cfa_offset 8
  91              	.LBB2:
  92              		.loc 1 103 0
  93 0002 2023     		movs	r3, #32
  94              	.LVL2:
  95              	.LBE2:
  96              		.loc 1 99 0
  97 0004 0446     		mov	r4, r0
  98              		.cfi_offset 14, -4
  99              		.cfi_offset 4, -8
 100              	.LBB3:
 101              		.loc 1 103 0
 102              	@ 103 "../libs/ChibiOS_2.4.0/os/hal/src/pwm.c" 1
 103 0006 83F31188 		msr     BASEPRI, r3
 104              	@ 0 "" 2
 105              	.LVL3:
 106              		.thumb
 107              	.LBE3:
ARM GAS  /tmp/ccjvu7O1.s 			page 3


 108              		.loc 1 106 0
 109 000a 4160     		str	r1, [r0, #4]
 110              		.loc 1 107 0
 111 000c 8988     		ldrh	r1, [r1, #4]
 112              	.LVL4:
 113 000e 0181     		strh	r1, [r0, #8]	@ movhi
 114              		.loc 1 108 0
 115 0010 FFF7FEFF 		bl	pwm_lld_start
 116              	.LVL5:
 117              		.loc 1 109 0
 118 0014 0223     		movs	r3, #2
 119 0016 2370     		strb	r3, [r4, #0]
 120              	.LBB4:
 121              		.loc 1 110 0
 122 0018 0023     		movs	r3, #0
 123              	.LVL6:
 124              	@ 110 "../libs/ChibiOS_2.4.0/os/hal/src/pwm.c" 1
 125 001a 83F31188 		msr     BASEPRI, r3
 126              	@ 0 "" 2
 127              	.LVL7:
 128              		.thumb
 129              	.LBE4:
 130              		.loc 1 111 0
 131 001e 10BD     		pop	{r4, pc}
 132              		.cfi_endproc
 133              	.LFE119:
 134              		.size	pwmStart, .-pwmStart
 135              		.section	.text.pwmStop,"ax",%progbits
 136              		.align	2
 137              		.p2align 4,,15
 138              		.global	pwmStop
 139              		.thumb
 140              		.thumb_func
 141              		.type	pwmStop, %function
 142              	pwmStop:
 143              	.LFB120:
 144              		.loc 1 120 0
 145              		.cfi_startproc
 146              		@ args = 0, pretend = 0, frame = 0
 147              		@ frame_needed = 0, uses_anonymous_args = 0
 148              	.LVL8:
 149 0000 10B5     		push	{r4, lr}
 150              	.LCFI1:
 151              		.cfi_def_cfa_offset 8
 152              	.LBB5:
 153              		.loc 1 124 0
 154 0002 2023     		movs	r3, #32
 155              	.LVL9:
 156              	.LBE5:
 157              		.loc 1 120 0
 158 0004 0446     		mov	r4, r0
 159              		.cfi_offset 14, -4
 160              		.cfi_offset 4, -8
 161              	.LBB6:
 162              		.loc 1 124 0
 163              	@ 124 "../libs/ChibiOS_2.4.0/os/hal/src/pwm.c" 1
 164 0006 83F31188 		msr     BASEPRI, r3
ARM GAS  /tmp/ccjvu7O1.s 			page 4


 165              	@ 0 "" 2
 166              	.LVL10:
 167              		.thumb
 168              	.LBE6:
 169              		.loc 1 127 0
 170 000a FFF7FEFF 		bl	pwm_lld_stop
 171              	.LVL11:
 172              		.loc 1 128 0
 173 000e 0123     		movs	r3, #1
 174 0010 2370     		strb	r3, [r4, #0]
 175              	.LBB7:
 176              		.loc 1 129 0
 177 0012 0023     		movs	r3, #0
 178              	.LVL12:
 179              	@ 129 "../libs/ChibiOS_2.4.0/os/hal/src/pwm.c" 1
 180 0014 83F31188 		msr     BASEPRI, r3
 181              	@ 0 "" 2
 182              	.LVL13:
 183              		.thumb
 184              	.LBE7:
 185              		.loc 1 130 0
 186 0018 10BD     		pop	{r4, pc}
 187              		.cfi_endproc
 188              	.LFE120:
 189              		.size	pwmStop, .-pwmStop
 190 001a 00BFAFF3 		.section	.text.pwmChangePeriod,"ax",%progbits
 190      0080
 191              		.align	2
 192              		.p2align 4,,15
 193              		.global	pwmChangePeriod
 194              		.thumb
 195              		.thumb_func
 196              		.type	pwmChangePeriod, %function
 197              	pwmChangePeriod:
 198              	.LFB121:
 199              		.loc 1 147 0
 200              		.cfi_startproc
 201              		@ args = 0, pretend = 0, frame = 0
 202              		@ frame_needed = 0, uses_anonymous_args = 0
 203              		@ link register save eliminated.
 204              	.LVL14:
 205              	.LBB8:
 206              		.loc 1 151 0
 207 0000 2023     		movs	r3, #32
 208              	.LVL15:
 209              	@ 151 "../libs/ChibiOS_2.4.0/os/hal/src/pwm.c" 1
 210 0002 83F31188 		msr     BASEPRI, r3
 211              	@ 0 "" 2
 212              	.LVL16:
 213              		.thumb
 214              	.LBE8:
 215              		.loc 1 154 0
 216 0006 0369     		ldr	r3, [r0, #16]
 217              	.LVL17:
 218 0008 0181     		strh	r1, [r0, #8]	@ movhi
 219 000a 481E     		subs	r0, r1, #1
 220              	.LVL18:
ARM GAS  /tmp/ccjvu7O1.s 			page 5


 221 000c 81B2     		uxth	r1, r0
 222              	.LVL19:
 223 000e D962     		str	r1, [r3, #44]
 224              	.LBB9:
 225              		.loc 1 155 0
 226 0010 0023     		movs	r3, #0
 227              	.LVL20:
 228              	@ 155 "../libs/ChibiOS_2.4.0/os/hal/src/pwm.c" 1
 229 0012 83F31188 		msr     BASEPRI, r3
 230              	@ 0 "" 2
 231              	.LVL21:
 232              		.thumb
 233              	.LBE9:
 234              		.loc 1 156 0
 235 0016 7047     		bx	lr
 236              		.cfi_endproc
 237              	.LFE121:
 238              		.size	pwmChangePeriod, .-pwmChangePeriod
 239 0018 AFF30080 		.section	.text.pwmEnableChannel,"ax",%progbits
 239      AFF30080 
 240              		.align	2
 241              		.p2align 4,,15
 242              		.global	pwmEnableChannel
 243              		.thumb
 244              		.thumb_func
 245              		.type	pwmEnableChannel, %function
 246              	pwmEnableChannel:
 247              	.LFB122:
 248              		.loc 1 174 0
 249              		.cfi_startproc
 250              		@ args = 0, pretend = 0, frame = 0
 251              		@ frame_needed = 0, uses_anonymous_args = 0
 252              	.LVL22:
 253 0000 08B5     		push	{r3, lr}
 254              	.LCFI2:
 255              		.cfi_def_cfa_offset 8
 256              	.LBB10:
 257              		.loc 1 179 0
 258 0002 2023     		movs	r3, #32
 259              		.cfi_offset 14, -4
 260              		.cfi_offset 3, -8
 261              	.LVL23:
 262              	@ 179 "../libs/ChibiOS_2.4.0/os/hal/src/pwm.c" 1
 263 0004 83F31188 		msr     BASEPRI, r3
 264              	@ 0 "" 2
 265              	.LVL24:
 266              		.thumb
 267              	.LBE10:
 268              		.loc 1 182 0
 269 0008 FFF7FEFF 		bl	pwm_lld_enable_channel
 270              	.LVL25:
 271              	.LBB11:
 272              		.loc 1 183 0
 273 000c 0023     		movs	r3, #0
 274              	.LVL26:
 275              	@ 183 "../libs/ChibiOS_2.4.0/os/hal/src/pwm.c" 1
 276 000e 83F31188 		msr     BASEPRI, r3
ARM GAS  /tmp/ccjvu7O1.s 			page 6


 277              	@ 0 "" 2
 278              	.LVL27:
 279              		.thumb
 280              	.LBE11:
 281              		.loc 1 184 0
 282 0012 08BD     		pop	{r3, pc}
 283              		.cfi_endproc
 284              	.LFE122:
 285              		.size	pwmEnableChannel, .-pwmEnableChannel
 286 0014 AFF30080 		.section	.text.pwmDisableChannel,"ax",%progbits
 286      AFF30080 
 286      AFF30080 
 287              		.align	2
 288              		.p2align 4,,15
 289              		.global	pwmDisableChannel
 290              		.thumb
 291              		.thumb_func
 292              		.type	pwmDisableChannel, %function
 293              	pwmDisableChannel:
 294              	.LFB123:
 295              		.loc 1 200 0
 296              		.cfi_startproc
 297              		@ args = 0, pretend = 0, frame = 0
 298              		@ frame_needed = 0, uses_anonymous_args = 0
 299              	.LVL28:
 300 0000 08B5     		push	{r3, lr}
 301              	.LCFI3:
 302              		.cfi_def_cfa_offset 8
 303              	.LBB12:
 304              		.loc 1 205 0
 305 0002 2023     		movs	r3, #32
 306              		.cfi_offset 14, -4
 307              		.cfi_offset 3, -8
 308              	.LVL29:
 309              	@ 205 "../libs/ChibiOS_2.4.0/os/hal/src/pwm.c" 1
 310 0004 83F31188 		msr     BASEPRI, r3
 311              	@ 0 "" 2
 312              	.LVL30:
 313              		.thumb
 314              	.LBE12:
 315              		.loc 1 208 0
 316 0008 FFF7FEFF 		bl	pwm_lld_disable_channel
 317              	.LVL31:
 318              	.LBB13:
 319              		.loc 1 209 0
 320 000c 0023     		movs	r3, #0
 321              	.LVL32:
 322              	@ 209 "../libs/ChibiOS_2.4.0/os/hal/src/pwm.c" 1
 323 000e 83F31188 		msr     BASEPRI, r3
 324              	@ 0 "" 2
 325              	.LVL33:
 326              		.thumb
 327              	.LBE13:
 328              		.loc 1 210 0
 329 0012 08BD     		pop	{r3, pc}
 330              		.cfi_endproc
 331              	.LFE123:
ARM GAS  /tmp/ccjvu7O1.s 			page 7


 332              		.size	pwmDisableChannel, .-pwmDisableChannel
 333 0014 AFF30080 		.text
 333      AFF30080 
 333      AFF30080 
 334              	.Letext0: