ARM GAS  /tmp/cch8Irwj.s 			page 1


   1              		.syntax unified
   2              		.cpu cortex-m4
   3              		.eabi_attribute 27, 3
   4              		.eabi_attribute 28, 1
   5              		.fpu fpv4-sp-d16
   6              		.eabi_attribute 20, 1
   7              		.eabi_attribute 21, 1
   8              		.eabi_attribute 23, 3
   9              		.eabi_attribute 24, 1
  10              		.eabi_attribute 25, 1
  11              		.eabi_attribute 26, 1
  12              		.eabi_attribute 30, 2
  13              		.eabi_attribute 18, 4
  14              		.thumb
  15              		.file	"pwm_lld.c"
  22 0000 9B020000 		.text
  22      02008E01 
  22      00000201 
  22      FB0E0D00 
  22      01010101 
  23              	.Ltext0:
  24              		.cfi_sections	.debug_frame
  25              		.section	.text.VectorB8,"ax",%progbits
  26              		.align	2
  27              		.p2align 4,,15
  28              		.global	VectorB8
  29              		.thumb
  30              		.thumb_func
  31              		.type	VectorB8, %function
  32              	VectorB8:
  33              	.LFB118:
  34              		.file 1 "../libs/ChibiOS_2.4.0/os/hal/platforms/STM32/pwm_lld.c"
  35              		.loc 1 221 0
  36              		.cfi_startproc
  37              		@ args = 0, pretend = 0, frame = 0
  38              		@ frame_needed = 0, uses_anonymous_args = 0
  39              	.LVL0:
  40 0000 70B5     		push	{r4, r5, r6, lr}
  41              	.LCFI0:
  42              		.cfi_def_cfa_offset 16
  43              	.LBB4:
  44              	.LBB5:
  45              		.loc 1 114 0
  46 0002 194D     		ldr	r5, .L12
  47              		.cfi_offset 14, -4
  48              		.cfi_offset 6, -8
  49              		.cfi_offset 5, -12
  50              		.cfi_offset 4, -16
  51 0004 2B69     		ldr	r3, [r5, #16]
  52 0006 188A     		ldrh	r0, [r3, #16]
  53              	.LVL1:
ARM GAS  /tmp/cch8Irwj.s 			page 2


  54              		.loc 1 115 0
  55 0008 9C89     		ldrh	r4, [r3, #12]
  56              	.LVL2:
  57              		.loc 1 118 0
  58 000a 0440     		ands	r4, r4, r0
  59              	.LVL3:
  60              		.loc 1 116 0
  61 000c 4FF6E072 		movw	r2, 65504	@ movhi
  62              		.loc 1 118 0
  63 0010 14F0020F 		tst	r4, #2
  64              		.loc 1 116 0
  65 0014 1A82     		strh	r2, [r3, #16]	@ movhi
  66              		.loc 1 118 0
  67 0016 22D1     		bne	.L8
  68              	.L2:
  69              		.loc 1 120 0
  70 0018 14F0040F 		tst	r4, #4
  71 001c 1AD1     		bne	.L9
  72              	.L3:
  73              		.loc 1 122 0
  74 001e 14F0080F 		tst	r4, #8
  75 0022 12D1     		bne	.L10
  76              	.L4:
  77              		.loc 1 124 0
  78 0024 14F0100F 		tst	r4, #16
  79 0028 0AD1     		bne	.L11
  80              	.L5:
  81              		.loc 1 126 0
  82 002a 14F0010F 		tst	r4, #1
  83 002e 03D0     		beq	.L6
  84              		.loc 1 127 0
  85 0030 6968     		ldr	r1, [r5, #4]
  86 0032 0D48     		ldr	r0, .L12
  87 0034 8B68     		ldr	r3, [r1, #8]
  88 0036 9847     		blx	r3
  89              	.L6:
  90              	.LBE5:
  91              	.LBE4:
  92              		.loc 1 228 0
  93 0038 BDE87040 		pop	{r4, r5, r6, lr}
  94              		.loc 1 227 0
  95 003c FFF7FEBF 		b	_port_irq_epilogue
  96              	.L11:
  97              	.LBB7:
  98              	.LBB6:
  99              		.loc 1 125 0
 100 0040 6A68     		ldr	r2, [r5, #4]
 101 0042 0948     		ldr	r0, .L12
 102 0044 916A     		ldr	r1, [r2, #40]
 103 0046 8847     		blx	r1
 104 0048 EFE7     		b	.L5
 105              	.L10:
 106              		.loc 1 123 0
 107 004a 6B68     		ldr	r3, [r5, #4]
 108 004c 0648     		ldr	r0, .L12
 109 004e 1A6A     		ldr	r2, [r3, #32]
 110 0050 9047     		blx	r2
ARM GAS  /tmp/cch8Irwj.s 			page 3


 111 0052 E7E7     		b	.L4
 112              	.L9:
 113              		.loc 1 121 0
 114 0054 6968     		ldr	r1, [r5, #4]
 115 0056 0448     		ldr	r0, .L12
 116 0058 8B69     		ldr	r3, [r1, #24]
 117 005a 9847     		blx	r3
 118 005c DFE7     		b	.L3
 119              	.L8:
 120              		.loc 1 119 0
 121 005e 6A68     		ldr	r2, [r5, #4]
 122 0060 2846     		mov	r0, r5
 123 0062 1169     		ldr	r1, [r2, #16]
 124 0064 8847     		blx	r1
 125 0066 D7E7     		b	.L2
 126              	.L13:
 127              		.align	2
 128              	.L12:
 129 0068 00000000 		.word	.LANCHOR0
 130              	.LBE6:
 131              	.LBE7:
 132              		.cfi_endproc
 133              	.LFE118:
 134              		.size	VectorB8, .-VectorB8
 135 006c AFF30080 		.section	.text.pwm_lld_init,"ax",%progbits
 136              		.align	2
 137              		.p2align 4,,15
 138              		.global	pwm_lld_init
 139              		.thumb
 140              		.thumb_func
 141              		.type	pwm_lld_init, %function
 142              	pwm_lld_init:
 143              	.LFB119:
 144              		.loc 1 303 0
 145              		.cfi_startproc
 146              		@ args = 0, pretend = 0, frame = 0
 147              		@ frame_needed = 0, uses_anonymous_args = 0
 148 0000 10B5     		push	{r4, lr}
 149              	.LCFI1:
 150              		.cfi_def_cfa_offset 8
 151              		.loc 1 325 0
 152 0002 034C     		ldr	r4, .L15
 153              		.cfi_offset 14, -4
 154              		.cfi_offset 4, -8
 155 0004 2046     		mov	r0, r4
 156 0006 FFF7FEFF 		bl	pwmObjectInit
 157              		.loc 1 326 0
 158 000a 024B     		ldr	r3, .L15+4
 159 000c 2361     		str	r3, [r4, #16]
 160              		.loc 1 340 0
 161 000e 10BD     		pop	{r4, pc}
 162              	.L16:
 163              		.align	2
 164              	.L15:
 165 0010 00000000 		.word	.LANCHOR0
 166 0014 00080040 		.word	1073743872
 167              		.cfi_endproc
ARM GAS  /tmp/cch8Irwj.s 			page 4


 168              	.LFE119:
 169              		.size	pwm_lld_init, .-pwm_lld_init
 170 0018 AFF30080 		.section	.text.pwm_lld_start,"ax",%progbits
 170      AFF30080 
 171              		.align	2
 172              		.p2align 4,,15
 173              		.global	pwm_lld_start
 174              		.thumb
 175              		.thumb_func
 176              		.type	pwm_lld_start, %function
 177              	pwm_lld_start:
 178              	.LFB120:
 179              		.loc 1 351 0
 180              		.cfi_startproc
 181              		@ args = 0, pretend = 0, frame = 0
 182              		@ frame_needed = 0, uses_anonymous_args = 0
 183              	.LVL4:
 184              		.loc 1 355 0
 185 0000 0378     		ldrb	r3, [r0, #0]	@ zero_extendqisi2
 186 0002 012B     		cmp	r3, #1
 187              		.loc 1 351 0
 188 0004 70B5     		push	{r4, r5, r6, lr}
 189              	.LCFI2:
 190              		.cfi_def_cfa_offset 16
 191              		.loc 1 351 0
 192 0006 0446     		mov	r4, r0
 193              		.cfi_offset 14, -4
 194              		.cfi_offset 6, -8
 195              		.cfi_offset 5, -12
 196              		.cfi_offset 4, -16
 197              		.loc 1 355 0
 198 0008 61D0     		beq	.L35
 199              		.loc 1 430 0
 200 000a 0369     		ldr	r3, [r0, #16]
 201 000c 0022     		movs	r2, #0
 202 000e 1A80     		strh	r2, [r3, #0]	@ movhi
 203              		.loc 1 431 0
 204 0010 9A81     		strh	r2, [r3, #12]	@ movhi
 205              		.loc 1 432 0
 206 0012 1A82     		strh	r2, [r3, #16]	@ movhi
 207              		.loc 1 433 0
 208 0014 5A63     		str	r2, [r3, #52]
 209              		.loc 1 434 0
 210 0016 9A63     		str	r2, [r3, #56]
 211              		.loc 1 435 0
 212 0018 DA63     		str	r2, [r3, #60]
 213              		.loc 1 436 0
 214 001a 1A64     		str	r2, [r3, #64]
 215              		.loc 1 437 0
 216 001c 5A62     		str	r2, [r3, #36]
 217              	.LVL5:
 218              	.L20:
 219              		.loc 1 441 0
 220 001e 6168     		ldr	r1, [r4, #4]
 221 0020 E668     		ldr	r6, [r4, #12]
 222 0022 0D68     		ldr	r5, [r1, #0]
 223              		.loc 1 446 0
ARM GAS  /tmp/cch8Irwj.s 			page 5


 224 0024 2489     		ldrh	r4, [r4, #8]
 225              	.LVL6:
 226              		.loc 1 451 0
 227 0026 CA68     		ldr	r2, [r1, #12]
 228              		.loc 1 447 0
 229 0028 888D     		ldrh	r0, [r1, #44]
 230              		.loc 1 446 0
 231 002a 013C     		subs	r4, r4, #1
 232              		.loc 1 441 0
 233 002c B6FBF5F5 		udiv	r5, r6, r5
 234              		.loc 1 451 0
 235 0030 02F00F02 		and	r2, r2, #15
 236              		.loc 1 441 0
 237 0034 013D     		subs	r5, r5, #1
 238              		.loc 1 446 0
 239 0036 A4B2     		uxth	r4, r4
 240              		.loc 1 451 0
 241 0038 012A     		cmp	r2, #1
 242              		.loc 1 445 0
 243 003a 1D85     		strh	r5, [r3, #40]	@ movhi
 244              		.loc 1 446 0
 245 003c DC62     		str	r4, [r3, #44]
 246              		.loc 1 447 0
 247 003e 9880     		strh	r0, [r3, #4]	@ movhi
 248              	.LVL7:
 249              		.loc 1 451 0
 250 0040 03D0     		beq	.L21
 251              		.loc 1 450 0
 252 0042 022A     		cmp	r2, #2
 253 0044 0CBF     		ite	eq
 254 0046 0322     		moveq	r2, #3
 255 0048 0022     		movne	r2, #0
 256              	.L21:
 257              	.LVL8:
 258              		.loc 1 459 0
 259 004a 4869     		ldr	r0, [r1, #20]
 260 004c 00F00F00 		and	r0, r0, #15
 261 0050 0128     		cmp	r0, #1
 262 0052 21D0     		beq	.L25
 263 0054 0228     		cmp	r0, #2
 264 0056 1DD0     		beq	.L36
 265              		.loc 1 467 0
 266 0058 C869     		ldr	r0, [r1, #28]
 267 005a 00F00F00 		and	r0, r0, #15
 268 005e 0128     		cmp	r0, #1
 269 0060 21D0     		beq	.L28
 270              	.LVL9:
 271              	.L39:
 272 0062 0228     		cmp	r0, #2
 273 0064 2ED0     		beq	.L37
 274              	.LVL10:
 275              		.loc 1 475 0
 276 0066 486A     		ldr	r0, [r1, #36]
 277 0068 00F00F00 		and	r0, r0, #15
 278 006c 0128     		cmp	r0, #1
 279 006e 21D0     		beq	.L31
 280              	.LVL11:
ARM GAS  /tmp/cch8Irwj.s 			page 6


 281              	.L40:
 282 0070 0228     		cmp	r0, #2
 283 0072 22D0     		beq	.L38
 284              	.L30:
 285              	.LVL12:
 286              		.loc 1 522 0
 287 0074 8968     		ldr	r1, [r1, #8]
 288              	.LVL13:
 289              		.loc 1 520 0
 290 0076 1A84     		strh	r2, [r3, #32]	@ movhi
 291              		.loc 1 522 0
 292 0078 B1F1000C 		subs	ip, r1, #0
 293 007c 18BF     		it	ne
 294 007e 4FF0010C 		movne	ip, #1
 295              		.loc 1 521 0
 296 0082 0120     		movs	r0, #1
 297              		.loc 1 523 0
 298 0084 0022     		movs	r2, #0
 299              	.LVL14:
 300              		.loc 1 532 0
 301 0086 8521     		movs	r1, #133
 302              		.loc 1 521 0
 303 0088 9882     		strh	r0, [r3, #20]	@ movhi
 304              		.loc 1 522 0
 305 008a A3F80CC0 		strh	ip, [r3, #12]	@ movhi
 306              		.loc 1 523 0
 307 008e 1A82     		strh	r2, [r3, #16]	@ movhi
 308              		.loc 1 532 0
 309 0090 1980     		strh	r1, [r3, #0]	@ movhi
 310              		.loc 1 533 0
 311 0092 70BD     		pop	{r4, r5, r6, pc}
 312              	.LVL15:
 313              	.L36:
 314              		.loc 1 461 0
 315 0094 42F02002 		orr	r2, r2, #32
 316              	.LVL16:
 317              	.L25:
 318              		.loc 1 467 0
 319 0098 C869     		ldr	r0, [r1, #28]
 320 009a 00F00F00 		and	r0, r0, #15
 321 009e 0128     		cmp	r0, #1
 322              		.loc 1 463 0
 323 00a0 42F01002 		orr	r2, r2, #16
 324              	.LVL17:
 325              		.loc 1 467 0
 326 00a4 DDD1     		bne	.L39
 327              	.LVL18:
 328              	.L28:
 329              		.loc 1 471 0
 330 00a6 42F48072 		orr	r2, r2, #256
 331              	.LVL19:
 332              	.L41:
 333              		.loc 1 475 0
 334 00aa 486A     		ldr	r0, [r1, #36]
 335 00ac 00F00F00 		and	r0, r0, #15
 336 00b0 0128     		cmp	r0, #1
 337 00b2 DDD1     		bne	.L40
ARM GAS  /tmp/cch8Irwj.s 			page 7


 338              	.LVL20:
 339              	.L31:
 340              		.loc 1 479 0
 341 00b4 42F48052 		orr	r2, r2, #4096
 342              	.LVL21:
 343 00b8 DCE7     		b	.L30
 344              	.LVL22:
 345              	.L38:
 346              		.loc 1 477 0
 347 00ba 42F40052 		orr	r2, r2, #8192
 348              	.LVL23:
 349              		.loc 1 479 0
 350 00be 42F48052 		orr	r2, r2, #4096
 351              	.LVL24:
 352 00c2 D7E7     		b	.L30
 353              	.LVL25:
 354              	.L37:
 355              		.loc 1 469 0
 356 00c4 42F40072 		orr	r2, r2, #512
 357              	.LVL26:
 358              		.loc 1 471 0
 359 00c8 42F48072 		orr	r2, r2, #256
 360              	.LVL27:
 361 00cc EDE7     		b	.L41
 362              	.LVL28:
 363              	.L35:
 364              		.loc 1 387 0
 365 00ce 0E49     		ldr	r1, .L43
 366 00d0 8842     		cmp	r0, r1
 367 00d2 07D0     		beq	.L42
 368              	.LVL29:
 369              	.L19:
 370              		.loc 1 419 0
 371 00d4 2369     		ldr	r3, [r4, #16]
 372 00d6 46F6680C 		movw	ip, 26728	@ movhi
 373 00da A3F818C0 		strh	ip, [r3, #24]	@ movhi
 374              		.loc 1 423 0
 375 00de A3F81CC0 		strh	ip, [r3, #28]	@ movhi
 376 00e2 9CE7     		b	.L20
 377              	.L42:
 378              		.loc 1 388 0
 379 00e4 094D     		ldr	r5, .L43+4
 380 00e6 286C     		ldr	r0, [r5, #64]
 381 00e8 40F00401 		orr	r1, r0, #4
 382 00ec 2964     		str	r1, [r5, #64]
 383              		.loc 1 389 0
 384 00ee 2B6A     		ldr	r3, [r5, #32]
 385 00f0 0022     		movs	r2, #0
 386 00f2 43F00406 		orr	r6, r3, #4
 387              		.loc 1 390 0
 388 00f6 1E20     		movs	r0, #30
 389              		.loc 1 389 0
 390 00f8 2E62     		str	r6, [r5, #32]
 391              		.loc 1 390 0
 392 00fa 7021     		movs	r1, #112
 393              		.loc 1 389 0
 394 00fc 2A62     		str	r2, [r5, #32]
ARM GAS  /tmp/cch8Irwj.s 			page 8


 395              		.loc 1 390 0
 396 00fe FFF7FEFF 		bl	nvicEnableVector
 397              		.loc 1 392 0
 398 0102 0348     		ldr	r0, .L43+8
 399 0104 E060     		str	r0, [r4, #12]
 400 0106 E5E7     		b	.L19
 401              	.L44:
 402              		.align	2
 403              	.L43:
 404 0108 00000000 		.word	.LANCHOR0
 405 010c 00380240 		.word	1073887232
 406 0110 00BD0105 		.word	84000000
 407              		.cfi_endproc
 408              	.LFE120:
 409              		.size	pwm_lld_start, .-pwm_lld_start
 410 0114 AFF30080 		.section	.text.pwm_lld_stop,"ax",%progbits
 410      AFF30080 
 410      AFF30080 
 411              		.align	2
 412              		.p2align 4,,15
 413              		.global	pwm_lld_stop
 414              		.thumb
 415              		.thumb_func
 416              		.type	pwm_lld_stop, %function
 417              	pwm_lld_stop:
 418              	.LFB121:
 419              		.loc 1 542 0
 420              		.cfi_startproc
 421              		@ args = 0, pretend = 0, frame = 0
 422              		@ frame_needed = 0, uses_anonymous_args = 0
 423              	.LVL30:
 424 0000 08B5     		push	{r3, lr}
 425              	.LCFI3:
 426              		.cfi_def_cfa_offset 8
 427              		.loc 1 545 0
 428 0002 0378     		ldrb	r3, [r0, #0]	@ zero_extendqisi2
 429              		.cfi_offset 14, -4
 430              		.cfi_offset 3, -8
 431 0004 022B     		cmp	r3, #2
 432 0006 00D0     		beq	.L47
 433              	.LVL31:
 434              	.L45:
 435 0008 08BD     		pop	{r3, pc}
 436              	.LVL32:
 437              	.L47:
 438              		.loc 1 573 0
 439 000a 0849     		ldr	r1, .L48
 440              		.loc 1 546 0
 441 000c 0369     		ldr	r3, [r0, #16]
 442 000e 0022     		movs	r2, #0
 443              		.loc 1 573 0
 444 0010 8842     		cmp	r0, r1
 445              		.loc 1 546 0
 446 0012 1A80     		strh	r2, [r3, #0]	@ movhi
 447              		.loc 1 547 0
 448 0014 9A81     		strh	r2, [r3, #12]	@ movhi
 449              		.loc 1 548 0
ARM GAS  /tmp/cch8Irwj.s 			page 9


 450 0016 1A82     		strh	r2, [r3, #16]	@ movhi
 451              		.loc 1 573 0
 452 0018 F6D1     		bne	.L45
 453              		.loc 1 574 0
 454 001a 1E20     		movs	r0, #30
 455              	.LVL33:
 456 001c FFF7FEFF 		bl	nvicDisableVector
 457              		.loc 1 575 0
 458 0020 0349     		ldr	r1, .L48+4
 459 0022 0A6C     		ldr	r2, [r1, #64]
 460 0024 22F00400 		bic	r0, r2, #4
 461 0028 0864     		str	r0, [r1, #64]
 462 002a EDE7     		b	.L45
 463              	.L49:
 464              		.align	2
 465              	.L48:
 466 002c 00000000 		.word	.LANCHOR0
 467 0030 00380240 		.word	1073887232
 468              		.cfi_endproc
 469              	.LFE121:
 470              		.size	pwm_lld_stop, .-pwm_lld_stop
 471 0034 AFF30080 		.section	.text.pwm_lld_enable_channel,"ax",%progbits
 471      AFF30080 
 471      AFF30080 
 472              		.align	2
 473              		.p2align 4,,15
 474              		.global	pwm_lld_enable_channel
 475              		.thumb
 476              		.thumb_func
 477              		.type	pwm_lld_enable_channel, %function
 478              	pwm_lld_enable_channel:
 479              	.LFB122:
 480              		.loc 1 608 0
 481              		.cfi_startproc
 482              		@ args = 0, pretend = 0, frame = 0
 483              		@ frame_needed = 0, uses_anonymous_args = 0
 484              		@ link register save eliminated.
 485              	.LVL34:
 486 0000 10B4     		push	{r4}
 487              	.LCFI4:
 488              		.cfi_def_cfa_offset 4
 489              		.loc 1 613 0
 490 0002 4468     		ldr	r4, [r0, #4]
 491              		.cfi_offset 4, -4
 492              		.loc 1 610 0
 493 0004 0369     		ldr	r3, [r0, #16]
 494              		.loc 1 613 0
 495 0006 04EBC10C 		add	ip, r4, r1, lsl #3
 496              		.loc 1 610 0
 497 000a 01F10C04 		add	r4, r1, #12
 498 000e 03EB8404 		add	r4, r3, r4, lsl #2
 499              		.loc 1 613 0
 500 0012 DCF81000 		ldr	r0, [ip, #16]
 501              	.LVL35:
 502              		.loc 1 610 0
 503 0016 6260     		str	r2, [r4, #4]
 504              		.loc 1 613 0
ARM GAS  /tmp/cch8Irwj.s 			page 10


 505 0018 58B1     		cbz	r0, .L50
 506              	.LBB8:
 507              		.loc 1 614 0
 508 001a 9A89     		ldrh	r2, [r3, #12]
 509              	.LVL36:
 510              		.loc 1 617 0
 511 001c 0220     		movs	r0, #2
 512              		.loc 1 614 0
 513 001e 92B2     		uxth	r2, r2
 514              	.LVL37:
 515              		.loc 1 617 0
 516 0020 10FA01F1 		lsls	r1, r0, r1
 517              	.LVL38:
 518 0024 1142     		tst	r1, r2
 519 0026 04D1     		bne	.L50
 520              		.loc 1 618 0
 521 0028 89B2     		uxth	r1, r1
 522              		.loc 1 619 0
 523 002a C843     		mvns	r0, r1
 524              		.loc 1 618 0
 525 002c 1143     		orrs	r1, r1, r2
 526 002e 9981     		strh	r1, [r3, #12]	@ movhi
 527              		.loc 1 619 0
 528 0030 1882     		strh	r0, [r3, #16]	@ movhi
 529              	.LVL39:
 530              	.L50:
 531              	.LBE8:
 532              		.loc 1 622 0
 533 0032 10BC     		pop	{r4}
 534 0034 7047     		bx	lr
 535              		.cfi_endproc
 536              	.LFE122:
 537              		.size	pwm_lld_enable_channel, .-pwm_lld_enable_channel
 538 0036 00BFAFF3 		.section	.text.pwm_lld_disable_channel,"ax",%progbits
 538      0080AFF3 
 538      0080
 539              		.align	2
 540              		.p2align 4,,15
 541              		.global	pwm_lld_disable_channel
 542              		.thumb
 543              		.thumb_func
 544              		.type	pwm_lld_disable_channel, %function
 545              	pwm_lld_disable_channel:
 546              	.LFB123:
 547              		.loc 1 636 0
 548              		.cfi_startproc
 549              		@ args = 0, pretend = 0, frame = 0
 550              		@ frame_needed = 0, uses_anonymous_args = 0
 551              		@ link register save eliminated.
 552              	.LVL40:
 553              		.loc 1 638 0
 554 0000 0369     		ldr	r3, [r0, #16]
 555 0002 01F10C0C 		add	ip, r1, #12
 556 0006 03EB8C02 		add	r2, r3, ip, lsl #2
 557 000a 0020     		movs	r0, #0
 558              	.LVL41:
 559 000c 5060     		str	r0, [r2, #4]
ARM GAS  /tmp/cch8Irwj.s 			page 11


 560              		.loc 1 639 0
 561 000e B3F80CC0 		ldrh	ip, [r3, #12]
 562 0012 0220     		movs	r0, #2
 563 0014 1FFA8CF2 		uxth	r2, ip
 564 0018 8840     		lsls	r0, r0, r1
 565 001a 22EA0001 		bic	r1, r2, r0
 566              	.LVL42:
 567 001e 9981     		strh	r1, [r3, #12]	@ movhi
 568              		.loc 1 640 0
 569 0020 7047     		bx	lr
 570              		.cfi_endproc
 571              	.LFE123:
 572              		.size	pwm_lld_disable_channel, .-pwm_lld_disable_channel
 573              		.global	PWMD4
 574 0022 00BFAFF3 		.section	.bss.PWMD4,"aw",%nobits
 574      0080AFF3 
 574      0080AFF3 
 574      0080
 575              		.align	2
 576              		.set	.LANCHOR0,. + 0
 577              		.type	PWMD4, %object
 578              		.size	PWMD4, 20
 579              	PWMD4:
 580 0000 00000000 		.space	20
 580      00000000 
 580      00000000 
 580      00000000 
 580      00000000 
 581              		.text
 582              	.Letext0: