ARM GAS  /tmp/ccrp9Byk.s 			page 1


   1              		.syntax unified
   2              		.cpu cortex-m4
   3              		.eabi_attribute 27, 3
   4              		.eabi_attribute 28, 1
   5              		.fpu fpv4-sp-d16
   6              		.eabi_attribute 20, 1
   7              		.eabi_attribute 21, 1
   8              		.eabi_attribute 23, 3
   9              		.eabi_attribute 24, 1
  10              		.eabi_attribute 25, 1
  11              		.eabi_attribute 26, 1
  12              		.eabi_attribute 30, 2
  13              		.eabi_attribute 18, 4
  14              		.thumb
  15              		.file	"serial.c"
  22 0000 FD030000 		.text
  22      0200BF02 
  22      00000201 
  22      FB0E0D00 
  22      01010101 
  23              	.Ltext0:
  24              		.cfi_sections	.debug_frame
  25              		.section	.text.putwouldblock,"ax",%progbits
  26              		.align	2
  27              		.p2align 4,,15
  28              		.thumb
  29              		.thumb_func
  30              		.type	putwouldblock, %function
  31              	putwouldblock:
  32              	.LFB119:
  33              		.file 1 "../libs/ChibiOS_2.4.0/os/hal/src/serial.c"
  34              		.loc 1 74 0
  35              		.cfi_startproc
  36              		@ args = 0, pretend = 0, frame = 0
  37              		@ frame_needed = 0, uses_anonymous_args = 0
  38              		@ link register save eliminated.
  39              	.LVL0:
  40              		.loc 1 76 0
  41 0000 806B     		ldr	r0, [r0, #56]
  42              	.LVL1:
  43              		.loc 1 77 0
  44 0002 D0F10100 		rsbs	r0, r0, #1
  45 0006 38BF     		it	cc
  46 0008 0020     		movcc	r0, #0
  47 000a 7047     		bx	lr
  48              		.cfi_endproc
  49              	.LFE119:
  50              		.size	putwouldblock, .-putwouldblock
  51 000c AFF30080 		.section	.text.getwouldblock,"ax",%progbits
  52              		.align	2
  53              		.p2align 4,,15
ARM GAS  /tmp/ccrp9Byk.s 			page 2


  54              		.thumb
  55              		.thumb_func
  56              		.type	getwouldblock, %function
  57              	getwouldblock:
  58              	.LFB120:
  59              		.loc 1 79 0
  60              		.cfi_startproc
  61              		@ args = 0, pretend = 0, frame = 0
  62              		@ frame_needed = 0, uses_anonymous_args = 0
  63              		@ link register save eliminated.
  64              	.LVL2:
  65              		.loc 1 81 0
  66 0000 8069     		ldr	r0, [r0, #24]
  67              	.LVL3:
  68              		.loc 1 82 0
  69 0002 D0F10100 		rsbs	r0, r0, #1
  70 0006 38BF     		it	cc
  71 0008 0020     		movcc	r0, #0
  72 000a 7047     		bx	lr
  73              		.cfi_endproc
  74              	.LFE120:
  75              		.size	getwouldblock, .-getwouldblock
  76 000c AFF30080 		.section	.text.getflags,"ax",%progbits
  77              		.align	2
  78              		.p2align 4,,15
  79              		.thumb
  80              		.thumb_func
  81              		.type	getflags, %function
  82              	getflags:
  83              	.LFB125:
  84              		.loc 1 104 0
  85              		.cfi_startproc
  86              		@ args = 0, pretend = 0, frame = 0
  87              		@ frame_needed = 0, uses_anonymous_args = 0
  88              		@ link register save eliminated.
  89              	.LVL4:
  90              		.loc 1 104 0
  91 0000 0246     		mov	r2, r0
  92              	.LBB2:
  93              		.loc 1 105 0
  94 0002 2023     		movs	r3, #32
  95              	.LVL5:
  96              	@ 105 "../libs/ChibiOS_2.4.0/os/hal/src/serial.c" 1
  97 0004 83F31188 		msr     BASEPRI, r3
  98              	@ 0 "" 2
  99              	.LVL6:
 100              		.thumb
 101              	.LBE2:
 102 0008 0023     		movs	r3, #0
 103              	.LVL7:
 104 000a 8068     		ldr	r0, [r0, #8]
 105              	.LVL8:
 106 000c 9360     		str	r3, [r2, #8]
 107              	.LBB3:
 108              	@ 105 "../libs/ChibiOS_2.4.0/os/hal/src/serial.c" 1
 109 000e 83F31188 		msr     BASEPRI, r3
 110              	@ 0 "" 2
ARM GAS  /tmp/ccrp9Byk.s 			page 3


 111              	.LVL9:
 112              		.thumb
 113              	.LBE3:
 114              		.loc 1 106 0
 115 0012 7047     		bx	lr
 116              		.cfi_endproc
 117              	.LFE125:
 118              		.size	getflags, .-getflags
 119 0014 AFF30080 		.section	.text.readt,"ax",%progbits
 119      AFF30080 
 119      AFF30080 
 120              		.align	2
 121              		.p2align 4,,15
 122              		.thumb
 123              		.thumb_func
 124              		.type	readt, %function
 125              	readt:
 126              	.LFB124:
 127              		.loc 1 99 0
 128              		.cfi_startproc
 129              		@ args = 0, pretend = 0, frame = 0
 130              		@ frame_needed = 0, uses_anonymous_args = 0
 131              		@ link register save eliminated.
 132              	.LVL10:
 133              		.loc 1 101 0
 134 0000 1030     		adds	r0, r0, #16
 135              	.LVL11:
 136              		.loc 1 102 0
 137              		.loc 1 101 0
 138 0002 FFF7FEBF 		b	chIQReadTimeout
 139              		.cfi_endproc
 140              	.LFE124:
 141              		.size	readt, .-readt
 142 0006 00BFAFF3 		.section	.text.reads,"ax",%progbits
 142      0080AFF3 
 142      0080
 143              		.align	2
 144              		.p2align 4,,15
 145              		.thumb
 146              		.thumb_func
 147              		.type	reads, %function
 148              	reads:
 149              	.LFB118:
 150              		.loc 1 68 0
 151              		.cfi_startproc
 152              		@ args = 0, pretend = 0, frame = 0
 153              		@ frame_needed = 0, uses_anonymous_args = 0
 154              		@ link register save eliminated.
 155              	.LVL12:
 156              		.loc 1 70 0
 157 0000 1030     		adds	r0, r0, #16
 158              	.LVL13:
 159 0002 4FF0FF33 		mov	r3, #-1
 160              		.loc 1 72 0
 161              		.loc 1 70 0
 162 0006 FFF7FEBF 		b	chIQReadTimeout
 163              		.cfi_endproc
ARM GAS  /tmp/ccrp9Byk.s 			page 4


 164              	.LFE118:
 165              		.size	reads, .-reads
 166 000a 00BFAFF3 		.section	.text.writet,"ax",%progbits
 166      0080
 167              		.align	2
 168              		.p2align 4,,15
 169              		.thumb
 170              		.thumb_func
 171              		.type	writet, %function
 172              	writet:
 173              	.LFB123:
 174              		.loc 1 94 0
 175              		.cfi_startproc
 176              		@ args = 0, pretend = 0, frame = 0
 177              		@ frame_needed = 0, uses_anonymous_args = 0
 178              		@ link register save eliminated.
 179              	.LVL14:
 180              		.loc 1 96 0
 181 0000 3030     		adds	r0, r0, #48
 182              	.LVL15:
 183              		.loc 1 97 0
 184              		.loc 1 96 0
 185 0002 FFF7FEBF 		b	chOQWriteTimeout
 186              		.cfi_endproc
 187              	.LFE123:
 188              		.size	writet, .-writet
 189 0006 00BFAFF3 		.section	.text.writes,"ax",%progbits
 189      0080AFF3 
 189      0080
 190              		.align	2
 191              		.p2align 4,,15
 192              		.thumb
 193              		.thumb_func
 194              		.type	writes, %function
 195              	writes:
 196              	.LFB117:
 197              		.loc 1 62 0
 198              		.cfi_startproc
 199              		@ args = 0, pretend = 0, frame = 0
 200              		@ frame_needed = 0, uses_anonymous_args = 0
 201              		@ link register save eliminated.
 202              	.LVL16:
 203              		.loc 1 64 0
 204 0000 3030     		adds	r0, r0, #48
 205              	.LVL17:
 206 0002 4FF0FF33 		mov	r3, #-1
 207              		.loc 1 66 0
 208              		.loc 1 64 0
 209 0006 FFF7FEBF 		b	chOQWriteTimeout
 210              		.cfi_endproc
 211              	.LFE117:
 212              		.size	writes, .-writes
 213 000a 00BFAFF3 		.section	.text.gett,"ax",%progbits
 213      0080
 214              		.align	2
 215              		.p2align 4,,15
 216              		.thumb
ARM GAS  /tmp/ccrp9Byk.s 			page 5


 217              		.thumb_func
 218              		.type	gett, %function
 219              	gett:
 220              	.LFB122:
 221              		.loc 1 89 0
 222              		.cfi_startproc
 223              		@ args = 0, pretend = 0, frame = 0
 224              		@ frame_needed = 0, uses_anonymous_args = 0
 225              		@ link register save eliminated.
 226              	.LVL18:
 227              		.loc 1 91 0
 228 0000 1030     		adds	r0, r0, #16
 229              	.LVL19:
 230              		.loc 1 92 0
 231              		.loc 1 91 0
 232 0002 FFF7FEBF 		b	chIQGetTimeout
 233              		.cfi_endproc
 234              	.LFE122:
 235              		.size	gett, .-gett
 236 0006 00BFAFF3 		.section	.text.putt,"ax",%progbits
 236      0080AFF3 
 236      0080
 237              		.align	2
 238              		.p2align 4,,15
 239              		.thumb
 240              		.thumb_func
 241              		.type	putt, %function
 242              	putt:
 243              	.LFB121:
 244              		.loc 1 84 0
 245              		.cfi_startproc
 246              		@ args = 0, pretend = 0, frame = 0
 247              		@ frame_needed = 0, uses_anonymous_args = 0
 248              		@ link register save eliminated.
 249              	.LVL20:
 250              		.loc 1 86 0
 251 0000 3030     		adds	r0, r0, #48
 252              	.LVL21:
 253              		.loc 1 87 0
 254              		.loc 1 86 0
 255 0002 FFF7FEBF 		b	chOQPutTimeout
 256              		.cfi_endproc
 257              	.LFE121:
 258              		.size	putt, .-putt
 259 0006 00BFAFF3 		.section	.text.sdInit,"ax",%progbits
 259      0080AFF3 
 259      0080
 260              		.align	2
 261              		.p2align 4,,15
 262              		.global	sdInit
 263              		.thumb
 264              		.thumb_func
 265              		.type	sdInit, %function
 266              	sdInit:
 267              	.LFB126:
 268              		.loc 1 125 0
 269              		.cfi_startproc
ARM GAS  /tmp/ccrp9Byk.s 			page 6


 270              		@ args = 0, pretend = 0, frame = 0
 271              		@ frame_needed = 0, uses_anonymous_args = 0
 272              		@ link register save eliminated.
 273              		.loc 1 128 0
 274              		.loc 1 127 0
 275 0000 FFF7FEBF 		b	sd_lld_init
 276              		.cfi_endproc
 277              	.LFE126:
 278              		.size	sdInit, .-sdInit
 279 0004 AFF30080 		.section	.text.sdObjectInit,"ax",%progbits
 279      AFF30080 
 279      AFF30080 
 280              		.align	2
 281              		.p2align 4,,15
 282              		.global	sdObjectInit
 283              		.thumb
 284              		.thumb_func
 285              		.type	sdObjectInit, %function
 286              	sdObjectInit:
 287              	.LFB127:
 288              		.loc 1 145 0
 289              		.cfi_startproc
 290              		@ args = 0, pretend = 0, frame = 0
 291              		@ frame_needed = 0, uses_anonymous_args = 0
 292              	.LVL22:
 293 0000 70B5     		push	{r4, r5, r6, lr}
 294              	.LCFI0:
 295              		.cfi_def_cfa_offset 16
 296              		.loc 1 147 0
 297 0002 0E4B     		ldr	r3, .L12
 298 0004 0646     		mov	r6, r0
 299              		.cfi_offset 14, -4
 300              		.cfi_offset 6, -8
 301              		.cfi_offset 5, -12
 302              		.cfi_offset 4, -16
 303              		.loc 1 145 0
 304 0006 0446     		mov	r4, r0
 305              		.loc 1 147 0
 306 0008 46F8043B 		str	r3, [r6], #4
 307              		.loc 1 148 0
 308 000c 6660     		str	r6, [r4, #4]
 309              		.loc 1 149 0
 310 000e 0026     		movs	r6, #0
 311 0010 A660     		str	r6, [r4, #8]
 312              		.loc 1 150 0
 313 0012 0126     		movs	r6, #1
 314              		.loc 1 145 0
 315 0014 0B46     		mov	r3, r1
 316 0016 1546     		mov	r5, r2
 317              		.loc 1 151 0
 318 0018 1030     		adds	r0, r0, #16
 319              	.LVL23:
 320 001a 04F15001 		add	r1, r4, #80
 321              	.LVL24:
 322 001e 1022     		movs	r2, #16
 323              	.LVL25:
 324              		.loc 1 150 0
ARM GAS  /tmp/ccrp9Byk.s 			page 7


 325 0020 2673     		strb	r6, [r4, #12]
 326              		.loc 1 151 0
 327 0022 FFF7FEFF 		bl	chIQInit
 328              	.LVL26:
 329              		.loc 1 152 0
 330 0026 04F13000 		add	r0, r4, #48
 331 002a 04F16001 		add	r1, r4, #96
 332 002e 1022     		movs	r2, #16
 333 0030 2B46     		mov	r3, r5
 334              		.loc 1 153 0
 335 0032 BDE87040 		pop	{r4, r5, r6, lr}
 336              		.loc 1 152 0
 337 0036 FFF7FEBF 		b	chOQInit
 338              	.L13:
 339 003a 00BF     		.align	2
 340              	.L12:
 341 003c 00000000 		.word	.LANCHOR0
 342              		.cfi_endproc
 343              	.LFE127:
 344              		.size	sdObjectInit, .-sdObjectInit
 345              		.section	.text.sdStart,"ax",%progbits
 346              		.align	2
 347              		.p2align 4,,15
 348              		.global	sdStart
 349              		.thumb
 350              		.thumb_func
 351              		.type	sdStart, %function
 352              	sdStart:
 353              	.LFB128:
 354              		.loc 1 165 0
 355              		.cfi_startproc
 356              		@ args = 0, pretend = 0, frame = 0
 357              		@ frame_needed = 0, uses_anonymous_args = 0
 358              	.LVL27:
 359 0000 10B5     		push	{r4, lr}
 360              	.LCFI1:
 361              		.cfi_def_cfa_offset 8
 362              	.LBB4:
 363              		.loc 1 169 0
 364 0002 2023     		movs	r3, #32
 365              	.LVL28:
 366              	.LBE4:
 367              		.loc 1 165 0
 368 0004 0446     		mov	r4, r0
 369              		.cfi_offset 14, -4
 370              		.cfi_offset 4, -8
 371              	.LBB5:
 372              		.loc 1 169 0
 373              	@ 169 "../libs/ChibiOS_2.4.0/os/hal/src/serial.c" 1
 374 0006 83F31188 		msr     BASEPRI, r3
 375              	@ 0 "" 2
 376              	.LVL29:
 377              		.thumb
 378              	.LBE5:
 379              		.loc 1 173 0
 380 000a FFF7FEFF 		bl	sd_lld_start
 381              	.LVL30:
ARM GAS  /tmp/ccrp9Byk.s 			page 8


 382              		.loc 1 174 0
 383 000e 0223     		movs	r3, #2
 384 0010 2373     		strb	r3, [r4, #12]
 385              	.LBB6:
 386              		.loc 1 175 0
 387 0012 0023     		movs	r3, #0
 388              	.LVL31:
 389              	@ 175 "../libs/ChibiOS_2.4.0/os/hal/src/serial.c" 1
 390 0014 83F31188 		msr     BASEPRI, r3
 391              	@ 0 "" 2
 392              	.LVL32:
 393              		.thumb
 394              	.LBE6:
 395              		.loc 1 176 0
 396 0018 10BD     		pop	{r4, pc}
 397              		.cfi_endproc
 398              	.LFE128:
 399              		.size	sdStart, .-sdStart
 400 001a 00BFAFF3 		.section	.text.sdStop,"ax",%progbits
 400      0080
 401              		.align	2
 402              		.p2align 4,,15
 403              		.global	sdStop
 404              		.thumb
 405              		.thumb_func
 406              		.type	sdStop, %function
 407              	sdStop:
 408              	.LFB129:
 409              		.loc 1 187 0
 410              		.cfi_startproc
 411              		@ args = 0, pretend = 0, frame = 0
 412              		@ frame_needed = 0, uses_anonymous_args = 0
 413              	.LVL33:
 414 0000 10B5     		push	{r4, lr}
 415              	.LCFI2:
 416              		.cfi_def_cfa_offset 8
 417              	.LBB7:
 418              		.loc 1 191 0
 419 0002 2023     		movs	r3, #32
 420              	.LVL34:
 421              	.LBE7:
 422              		.loc 1 187 0
 423 0004 0446     		mov	r4, r0
 424              		.cfi_offset 14, -4
 425              		.cfi_offset 4, -8
 426              	.LBB8:
 427              		.loc 1 191 0
 428              	@ 191 "../libs/ChibiOS_2.4.0/os/hal/src/serial.c" 1
 429 0006 83F31188 		msr     BASEPRI, r3
 430              	@ 0 "" 2
 431              	.LVL35:
 432              		.thumb
 433              	.LBE8:
 434              		.loc 1 195 0
 435 000a FFF7FEFF 		bl	sd_lld_stop
 436              	.LVL36:
 437              		.loc 1 196 0
ARM GAS  /tmp/ccrp9Byk.s 			page 9


 438 000e 0123     		movs	r3, #1
 439 0010 2373     		strb	r3, [r4, #12]
 440              		.loc 1 197 0
 441 0012 04F13000 		add	r0, r4, #48
 442 0016 FFF7FEFF 		bl	chOQResetI
 443              		.loc 1 198 0
 444 001a 04F11000 		add	r0, r4, #16
 445 001e FFF7FEFF 		bl	chIQResetI
 446              		.loc 1 199 0
 447 0022 FFF7FEFF 		bl	chSchRescheduleS
 448              	.LBB9:
 449              		.loc 1 200 0
 450 0026 0023     		movs	r3, #0
 451              	.LVL37:
 452              	@ 200 "../libs/ChibiOS_2.4.0/os/hal/src/serial.c" 1
 453 0028 83F31188 		msr     BASEPRI, r3
 454              	@ 0 "" 2
 455              	.LVL38:
 456              		.thumb
 457              	.LBE9:
 458              		.loc 1 201 0
 459 002c 10BD     		pop	{r4, pc}
 460              		.cfi_endproc
 461              	.LFE129:
 462              		.size	sdStop, .-sdStop
 463 002e 00BF     		.section	.text.sdIncomingDataI,"ax",%progbits
 464              		.align	2
 465              		.p2align 4,,15
 466              		.global	sdIncomingDataI
 467              		.thumb
 468              		.thumb_func
 469              		.type	sdIncomingDataI, %function
 470              	sdIncomingDataI:
 471              	.LFB130:
 472              		.loc 1 219 0
 473              		.cfi_startproc
 474              		@ args = 0, pretend = 0, frame = 0
 475              		@ frame_needed = 0, uses_anonymous_args = 0
 476              	.LVL39:
 477 0000 70B5     		push	{r4, r5, r6, lr}
 478              	.LCFI3:
 479              		.cfi_def_cfa_offset 16
 480              		.loc 1 219 0
 481 0002 0D46     		mov	r5, r1
 482              		.cfi_offset 14, -4
 483              		.cfi_offset 6, -8
 484              		.cfi_offset 5, -12
 485              		.cfi_offset 4, -16
 486              		.loc 1 224 0
 487 0004 8169     		ldr	r1, [r0, #24]
 488              	.LVL40:
 489              		.loc 1 219 0
 490 0006 0446     		mov	r4, r0
 491              		.loc 1 224 0
 492 0008 39B1     		cbz	r1, .L20
 493              		.loc 1 226 0
 494 000a 04F11000 		add	r0, r4, #16
ARM GAS  /tmp/ccrp9Byk.s 			page 10


 495              	.LVL41:
 496 000e 2946     		mov	r1, r5
 497 0010 FFF7FEFF 		bl	chIQPutI
 498 0014 0028     		cmp	r0, #0
 499 0016 0EDB     		blt	.L21
 500              	.L16:
 501 0018 70BD     		pop	{r4, r5, r6, pc}
 502              	.L20:
 503              		.loc 1 225 0
 504 001a 8268     		ldr	r2, [r0, #8]
 505 001c 42F00403 		orr	r3, r2, #4
 506 0020 8360     		str	r3, [r0, #8]
 507 0022 0430     		adds	r0, r0, #4
 508 0024 FFF7FEFF 		bl	chEvtBroadcastFlagsI
 509              		.loc 1 226 0
 510 0028 04F11000 		add	r0, r4, #16
 511 002c 2946     		mov	r1, r5
 512 002e FFF7FEFF 		bl	chIQPutI
 513 0032 0028     		cmp	r0, #0
 514 0034 F0DA     		bge	.L16
 515              	.L21:
 516              		.loc 1 227 0
 517 0036 A168     		ldr	r1, [r4, #8]
 518 0038 41F08000 		orr	r0, r1, #128
 519 003c A060     		str	r0, [r4, #8]
 520 003e 0021     		movs	r1, #0
 521 0040 201D     		adds	r0, r4, #4
 522              		.loc 1 228 0
 523 0042 BDE87040 		pop	{r4, r5, r6, lr}
 524              		.loc 1 227 0
 525 0046 FFF7FEBF 		b	chEvtBroadcastFlagsI
 526              		.cfi_endproc
 527              	.LFE130:
 528              		.size	sdIncomingDataI, .-sdIncomingDataI
 529 004a 00BFAFF3 		.section	.text.sdRequestDataI,"ax",%progbits
 529      0080
 530              		.align	2
 531              		.p2align 4,,15
 532              		.global	sdRequestDataI
 533              		.thumb
 534              		.thumb_func
 535              		.type	sdRequestDataI, %function
 536              	sdRequestDataI:
 537              	.LFB131:
 538              		.loc 1 245 0
 539              		.cfi_startproc
 540              		@ args = 0, pretend = 0, frame = 0
 541              		@ frame_needed = 0, uses_anonymous_args = 0
 542              	.LVL42:
 543 0000 38B5     		push	{r3, r4, r5, lr}
 544              	.LCFI4:
 545              		.cfi_def_cfa_offset 16
 546              		.loc 1 245 0
 547 0002 0546     		mov	r5, r0
 548              		.cfi_offset 14, -4
 549              		.cfi_offset 5, -8
 550              		.cfi_offset 4, -12
ARM GAS  /tmp/ccrp9Byk.s 			page 11


 551              		.cfi_offset 3, -16
 552              		.loc 1 251 0
 553 0004 3030     		adds	r0, r0, #48
 554              	.LVL43:
 555 0006 FFF7FEFF 		bl	chOQGetI
 556              	.LVL44:
 557              		.loc 1 252 0
 558 000a 041E     		subs	r4, r0, #0
 559 000c 01DB     		blt	.L24
 560              		.loc 1 255 0
 561 000e 2046     		mov	r0, r4
 562 0010 38BD     		pop	{r3, r4, r5, pc}
 563              	.L24:
 564              		.loc 1 253 0
 565 0012 A868     		ldr	r0, [r5, #8]
 566              	.LVL45:
 567 0014 40F00803 		orr	r3, r0, #8
 568 0018 AB60     		str	r3, [r5, #8]
 569 001a 281D     		adds	r0, r5, #4
 570 001c 0021     		movs	r1, #0
 571 001e FFF7FEFF 		bl	chEvtBroadcastFlagsI
 572              		.loc 1 255 0
 573 0022 2046     		mov	r0, r4
 574 0024 38BD     		pop	{r3, r4, r5, pc}
 575              		.cfi_endproc
 576              	.LFE131:
 577              		.size	sdRequestDataI, .-sdRequestDataI
 578 0026 00BFAFF3 		.section	.rodata.vmt,"a",%progbits
 578      0080AFF3 
 578      0080
 579              		.align	2
 580              		.set	.LANCHOR0,. + 0
 581              		.type	vmt, %object
 582              		.size	vmt, 36
 583              	vmt:
 584 0000 00000000 		.word	writes
 585 0004 00000000 		.word	reads
 586 0008 00000000 		.word	putwouldblock
 587 000c 00000000 		.word	getwouldblock
 588 0010 00000000 		.word	putt
 589 0014 00000000 		.word	gett
 590 0018 00000000 		.word	writet
 591 001c 00000000 		.word	readt
 592 0020 00000000 		.word	getflags
 593              		.text
 594              	.Letext0: