ARM GAS  /tmp/ccrp9Byk.s 			page 1


   1              		.syntax unified
   2              		.cpu cortex-m4
   3              		.eabi_attribute 27, 3
   4              		.eabi_attribute 28, 1
   5              		.fpu fpv4-sp-d16
   6              		.eabi_attribute 20, 1
   7              		.eabi_attribute 21, 1
   8              		.eabi_attribute 23, 3
   9              		.eabi_attribute 24, 1
  10              		.eabi_attribute 25, 1
  11              		.eabi_attribute 26, 1
  12              		.eabi_attribute 30, 2
  13              		.eabi_attribute 18, 4
  14              		.thumb
  15              		.file	"serial.c"
  16              		.section	.debug_abbrev,"",%progbits
  17              	.Ldebug_abbrev0:
  18              		.section	.debug_info,"",%progbits
  19              	.Ldebug_info0:
  20              		.section	.debug_line,"",%progbits
  21              	.Ldebug_line0:
  22 0000 FD030000 		.text
  22      0200BF02 
  22      00000201 
  22      FB0E0D00 
  22      01010101 
  23              	.Ltext0:
  24              		.cfi_sections	.debug_frame
  25              		.section	.text.putwouldblock,"ax",%progbits
  26              		.align	2
  27              		.p2align 4,,15
  28              		.thumb
  29              		.thumb_func
  30              		.type	putwouldblock, %function
  31              	putwouldblock:
  32              	.LFB119:
  33              		.file 1 "../libs/ChibiOS_2.4.0/os/hal/src/serial.c"
  34              		.loc 1 74 0
  35              		.cfi_startproc
  36              		@ args = 0, pretend = 0, frame = 0
  37              		@ frame_needed = 0, uses_anonymous_args = 0
  38              		@ link register save eliminated.
  39              	.LVL0:
  40              		.loc 1 76 0
  41 0000 806B     		ldr	r0, [r0, #56]
  42              	.LVL1:
  43              		.loc 1 77 0
  44 0002 D0F10100 		rsbs	r0, r0, #1
  45 0006 38BF     		it	cc
  46 0008 0020     		movcc	r0, #0
  47 000a 7047     		bx	lr
  48              		.cfi_endproc
  49              	.LFE119:
  50              		.size	putwouldblock, .-putwouldblock
  51 000c AFF30080 		.section	.text.getwouldblock,"ax",%progbits
  52              		.align	2
  53              		.p2align 4,,15
ARM GAS  /tmp/ccrp9Byk.s 			page 2


  54              		.thumb
  55              		.thumb_func
  56              		.type	getwouldblock, %function
  57              	getwouldblock:
  58              	.LFB120:
  59              		.loc 1 79 0
  60              		.cfi_startproc
  61              		@ args = 0, pretend = 0, frame = 0
  62              		@ frame_needed = 0, uses_anonymous_args = 0
  63              		@ link register save eliminated.
  64              	.LVL2:
  65              		.loc 1 81 0
  66 0000 8069     		ldr	r0, [r0, #24]
  67              	.LVL3:
  68              		.loc 1 82 0
  69 0002 D0F10100 		rsbs	r0, r0, #1
  70 0006 38BF     		it	cc
  71 0008 0020     		movcc	r0, #0
  72 000a 7047     		bx	lr
  73              		.cfi_endproc
  74              	.LFE120:
  75              		.size	getwouldblock, .-getwouldblock
  76 000c AFF30080 		.section	.text.getflags,"ax",%progbits
  77              		.align	2
  78              		.p2align 4,,15
  79              		.thumb
  80              		.thumb_func
  81              		.type	getflags, %function
  82              	getflags:
  83              	.LFB125:
  84              		.loc 1 104 0
  85              		.cfi_startproc
  86              		@ args = 0, pretend = 0, frame = 0
  87              		@ frame_needed = 0, uses_anonymous_args = 0
  88              		@ link register save eliminated.
  89              	.LVL4:
  90              		.loc 1 104 0
  91 0000 0246     		mov	r2, r0
  92              	.LBB2:
  93              		.loc 1 105 0
  94 0002 2023     		movs	r3, #32
  95              	.LVL5:
  96              	@ 105 "../libs/ChibiOS_2.4.0/os/hal/src/serial.c" 1
  97 0004 83F31188 		msr     BASEPRI, r3
  98              	@ 0 "" 2
  99              	.LVL6:
 100              		.thumb
 101              	.LBE2:
 102 0008 0023     		movs	r3, #0
 103              	.LVL7:
 104 000a 8068     		ldr	r0, [r0, #8]
 105              	.LVL8:
 106 000c 9360     		str	r3, [r2, #8]
 107              	.LBB3:
 108              	@ 105 "../libs/ChibiOS_2.4.0/os/hal/src/serial.c" 1
 109 000e 83F31188 		msr     BASEPRI, r3
 110              	@ 0 "" 2
ARM GAS  /tmp/ccrp9Byk.s 			page 3


 111              	.LVL9:
 112              		.thumb
 113              	.LBE3:
 114              		.loc 1 106 0
 115 0012 7047     		bx	lr
 116              		.cfi_endproc
 117              	.LFE125:
 118              		.size	getflags, .-getflags
 119 0014 AFF30080 		.section	.text.readt,"ax",%progbits
 119      AFF30080 
 119      AFF30080 
 120              		.align	2
 121              		.p2align 4,,15
 122              		.thumb
 123              		.thumb_func
 124              		.type	readt, %function
 125              	readt:
 126              	.LFB124:
 127              		.loc 1 99 0
 128              		.cfi_startproc
 129              		@ args = 0, pretend = 0, frame = 0
 130              		@ frame_needed = 0, uses_anonymous_args = 0
 131              		@ link register save eliminated.
 132              	.LVL10:
 133              		.loc 1 101 0
 134 0000 1030     		adds	r0, r0, #16
 135              	.LVL11:
 136              		.loc 1 102 0
 137              		.loc 1 101 0
 138 0002 FFF7FEBF 		b	chIQReadTimeout
 139              		.cfi_endproc
 140              	.LFE124:
 141              		.size	readt, .-readt
 142 0006 00BFAFF3 		.section	.text.reads,"ax",%progbits
 142      0080AFF3 
 142      0080
 143              		.align	2
 144              		.p2align 4,,15
 145              		.thumb
 146              		.thumb_func
 147              		.type	reads, %function
 148              	reads:
 149              	.LFB118:
 150              		.loc 1 68 0
 151              		.cfi_startproc
 152              		@ args = 0, pretend = 0, frame = 0
 153              		@ frame_needed = 0, uses_anonymous_args = 0
 154              		@ link register save eliminated.
 155              	.LVL12:
 156              		.loc 1 70 0
 157 0000 1030     		adds	r0, r0, #16
 158              	.LVL13:
 159 0002 4FF0FF33 		mov	r3, #-1
 160              		.loc 1 72 0
 161              		.loc 1 70 0
 162 0006 FFF7FEBF 		b	chIQReadTimeout
 163              		.cfi_endproc
ARM GAS  /tmp/ccrp9Byk.s 			page 4


 164              	.LFE118:
 165              		.size	reads, .-reads
 166 000a 00BFAFF3 		.section	.text.writet,"ax",%progbits
 166      0080
 167              		.align	2
 168              		.p2align 4,,15
 169              		.thumb
 170              		.thumb_func
 171              		.type	writet, %function
 172              	writet:
 173              	.LFB123:
 174              		.loc 1 94 0
 175              		.cfi_startproc
 176              		@ args = 0, pretend = 0, frame = 0
 177              		@ frame_needed = 0, uses_anonymous_args = 0
 178              		@ link register save eliminated.
 179              	.LVL14:
 180              		.loc 1 96 0
 181 0000 3030     		adds	r0, r0, #48
 182              	.LVL15:
 183              		.loc 1 97 0
 184              		.loc 1 96 0
 185 0002 FFF7FEBF 		b	chOQWriteTimeout
 186              		.cfi_endproc
 187              	.LFE123:
 188              		.size	writet, .-writet
 189 0006 00BFAFF3 		.section	.text.writes,"ax",%progbits
 189      0080AFF3 
 189      0080
 190              		.align	2
 191              		.p2align 4,,15
 192              		.thumb
 193              		.thumb_func
 194              		.type	writes, %function
 195              	writes:
 196              	.LFB117:
 197              		.loc 1 62 0
 198              		.cfi_startproc
 199              		@ args = 0, pretend = 0, frame = 0
 200              		@ frame_needed = 0, uses_anonymous_args = 0
 201              		@ link register save eliminated.
 202              	.LVL16:
 203              		.loc 1 64 0
 204 0000 3030     		adds	r0, r0, #48
 205              	.LVL17:
 206 0002 4FF0FF33 		mov	r3, #-1
 207              		.loc 1 66 0
 208              		.loc 1 64 0
 209 0006 FFF7FEBF 		b	chOQWriteTimeout
 210              		.cfi_endproc
 211              	.LFE117:
 212              		.size	writes, .-writes
 213 000a 00BFAFF3 		.section	.text.gett,"ax",%progbits
 213      0080
 214              		.align	2
 215              		.p2align 4,,15
 216              		.thumb
ARM GAS  /tmp/ccrp9Byk.s 			page 5


 217              		.thumb_func
 218              		.type	gett, %function
 219              	gett:
 220              	.LFB122:
 221              		.loc 1 89 0
 222              		.cfi_startproc
 223              		@ args = 0, pretend = 0, frame = 0
 224              		@ frame_needed = 0, uses_anonymous_args = 0
 225              		@ link register save eliminated.
 226              	.LVL18:
 227              		.loc 1 91 0
 228 0000 1030     		adds	r0, r0, #16
 229              	.LVL19:
 230              		.loc 1 92 0
 231              		.loc 1 91 0
 232 0002 FFF7FEBF 		b	chIQGetTimeout
 233              		.cfi_endproc
 234              	.LFE122:
 235              		.size	gett, .-gett
 236 0006 00BFAFF3 		.section	.text.putt,"ax",%progbits
 236      0080AFF3 
 236      0080
 237              		.align	2
 238              		.p2align 4,,15
 239              		.thumb
 240              		.thumb_func
 241              		.type	putt, %function
 242              	putt:
 243              	.LFB121:
 244              		.loc 1 84 0
 245              		.cfi_startproc
 246              		@ args = 0, pretend = 0, frame = 0
 247              		@ frame_needed = 0, uses_anonymous_args = 0
 248              		@ link register save eliminated.
 249              	.LVL20:
 250              		.loc 1 86 0
 251 0000 3030     		adds	r0, r0, #48
 252              	.LVL21:
 253              		.loc 1 87 0
 254              		.loc 1 86 0
 255 0002 FFF7FEBF 		b	chOQPutTimeout
 256              		.cfi_endproc
 257              	.LFE121:
 258              		.size	putt, .-putt
 259 0006 00BFAFF3 		.section	.text.sdInit,"ax",%progbits
 259      0080AFF3 
 259      0080
 260              		.align	2
 261              		.p2align 4,,15
 262              		.global	sdInit
 263              		.thumb
 264              		.thumb_func
 265              		.type	sdInit, %function
 266              	sdInit:
 267              	.LFB126:
 268              		.loc 1 125 0
 269              		.cfi_startproc
ARM GAS  /tmp/ccrp9Byk.s 			page 6


 270              		@ args = 0, pretend = 0, frame = 0
 271              		@ frame_needed = 0, uses_anonymous_args = 0
 272              		@ link register save eliminated.
 273              		.loc 1 128 0
 274              		.loc 1 127 0
 275 0000 FFF7FEBF 		b	sd_lld_init
 276              		.cfi_endproc
 277              	.LFE126:
 278              		.size	sdInit, .-sdInit
 279 0004 AFF30080 		.section	.text.sdObjectInit,"ax",%progbits
 279      AFF30080 
 279      AFF30080 
 280              		.align	2
 281              		.p2align 4,,15
 282              		.global	sdObjectInit
 283              		.thumb
 284              		.thumb_func
 285              		.type	sdObjectInit, %function
 286              	sdObjectInit:
 287              	.LFB127:
 288              		.loc 1 145 0
 289              		.cfi_startproc
 290              		@ args = 0, pretend = 0, frame = 0
 291              		@ frame_needed = 0, uses_anonymous_args = 0
 292              	.LVL22:
 293 0000 70B5     		push	{r4, r5, r6, lr}
 294              	.LCFI0:
 295              		.cfi_def_cfa_offset 16
 296              		.loc 1 147 0
 297 0002 0E4B     		ldr	r3, .L12
 298 0004 0646     		mov	r6, r0
 299              		.cfi_offset 14, -4
 300              		.cfi_offset 6, -8
 301              		.cfi_offset 5, -12
 302              		.cfi_offset 4, -16
 303              		.loc 1 145 0
 304 0006 0446     		mov	r4, r0
 305              		.loc 1 147 0
 306 0008 46F8043B 		str	r3, [r6], #4
 307              		.loc 1 148 0
 308 000c 6660     		str	r6, [r4, #4]
 309              		.loc 1 149 0
 310 000e 0026     		movs	r6, #0
 311 0010 A660     		str	r6, [r4, #8]
 312              		.loc 1 150 0
 313 0012 0126     		movs	r6, #1
 314              		.loc 1 145 0
 315 0014 0B46     		mov	r3, r1
 316 0016 1546     		mov	r5, r2
 317              		.loc 1 151 0
 318 0018 1030     		adds	r0, r0, #16
 319              	.LVL23:
 320 001a 04F15001 		add	r1, r4, #80
 321              	.LVL24:
 322 001e 1022     		movs	r2, #16
 323              	.LVL25:
 324              		.loc 1 150 0
ARM GAS  /tmp/ccrp9Byk.s 			page 7


 325 0020 2673     		strb	r6, [r4, #12]
 326              		.loc 1 151 0
 327 0022 FFF7FEFF 		bl	chIQInit
 328              	.LVL26:
 329              		.loc 1 152 0
 330 0026 04F13000 		add	r0, r4, #48
 331 002a 04F16001 		add	r1, r4, #96
 332 002e 1022     		movs	r2, #16
 333 0030 2B46     		mov	r3, r5
 334              		.loc 1 153 0
 335 0032 BDE87040 		pop	{r4, r5, r6, lr}
 336              		.loc 1 152 0
 337 0036 FFF7FEBF 		b	chOQInit
 338              	.L13:
 339 003a 00BF     		.align	2
 340              	.L12:
 341 003c 00000000 		.word	.LANCHOR0
 342              		.cfi_endproc
 343              	.LFE127:
 344              		.size	sdObjectInit, .-sdObjectInit
 345              		.section	.text.sdStart,"ax",%progbits
 346              		.align	2
 347              		.p2align 4,,15
 348              		.global	sdStart
 349              		.thumb
 350              		.thumb_func
 351              		.type	sdStart, %function
 352              	sdStart:
 353              	.LFB128:
 354              		.loc 1 165 0
 355              		.cfi_startproc
 356              		@ args = 0, pretend = 0, frame = 0
 357              		@ frame_needed = 0, uses_anonymous_args = 0
 358              	.LVL27:
 359 0000 10B5     		push	{r4, lr}
 360              	.LCFI1:
 361              		.cfi_def_cfa_offset 8
 362              	.LBB4:
 363              		.loc 1 169 0
 364 0002 2023     		movs	r3, #32
 365              	.LVL28:
 366              	.LBE4:
 367              		.loc 1 165 0
 368 0004 0446     		mov	r4, r0
 369              		.cfi_offset 14, -4
 370              		.cfi_offset 4, -8
 371              	.LBB5:
 372              		.loc 1 169 0
 373              	@ 169 "../libs/ChibiOS_2.4.0/os/hal/src/serial.c" 1
 374 0006 83F31188 		msr     BASEPRI, r3
 375              	@ 0 "" 2
 376              	.LVL29:
 377              		.thumb
 378              	.LBE5:
 379              		.loc 1 173 0
 380 000a FFF7FEFF 		bl	sd_lld_start
 381              	.LVL30:
ARM GAS  /tmp/ccrp9Byk.s 			page 8


 382              		.loc 1 174 0
 383 000e 0223     		movs	r3, #2
 384 0010 2373     		strb	r3, [r4, #12]
 385              	.LBB6:
 386              		.loc 1 175 0
 387 0012 0023     		movs	r3, #0
 388              	.LVL31:
 389              	@ 175 "../libs/ChibiOS_2.4.0/os/hal/src/serial.c" 1
 390 0014 83F31188 		msr     BASEPRI, r3
 391              	@ 0 "" 2
 392              	.LVL32:
 393              		.thumb
 394              	.LBE6:
 395              		.loc 1 176 0
 396 0018 10BD     		pop	{r4, pc}
 397              		.cfi_endproc
 398              	.LFE128:
 399              		.size	sdStart, .-sdStart
 400 001a 00BFAFF3 		.section	.text.sdStop,"ax",%progbits
 400      0080
 401              		.align	2
 402              		.p2align 4,,15
 403              		.global	sdStop
 404              		.thumb
 405              		.thumb_func
 406              		.type	sdStop, %function
 407              	sdStop:
 408              	.LFB129:
 409              		.loc 1 187 0
 410              		.cfi_startproc
 411              		@ args = 0, pretend = 0, frame = 0
 412              		@ frame_needed = 0, uses_anonymous_args = 0
 413              	.LVL33:
 414 0000 10B5     		push	{r4, lr}
 415              	.LCFI2:
 416              		.cfi_def_cfa_offset 8
 417              	.LBB7:
 418              		.loc 1 191 0
 419 0002 2023     		movs	r3, #32
 420              	.LVL34:
 421              	.LBE7:
 422              		.loc 1 187 0
 423 0004 0446     		mov	r4, r0
 424              		.cfi_offset 14, -4
 425              		.cfi_offset 4, -8
 426              	.LBB8:
 427              		.loc 1 191 0
 428              	@ 191 "../libs/ChibiOS_2.4.0/os/hal/src/serial.c" 1
 429 0006 83F31188 		msr     BASEPRI, r3
 430              	@ 0 "" 2
 431              	.LVL35:
 432              		.thumb
 433              	.LBE8:
 434              		.loc 1 195 0
 435 000a FFF7FEFF 		bl	sd_lld_stop
 436              	.LVL36:
 437              		.loc 1 196 0
ARM GAS  /tmp/ccrp9Byk.s 			page 9


 438 000e 0123     		movs	r3, #1
 439 0010 2373     		strb	r3, [r4, #12]
 440              		.loc 1 197 0
 441 0012 04F13000 		add	r0, r4, #48
 442 0016 FFF7FEFF 		bl	chOQResetI
 443              		.loc 1 198 0
 444 001a 04F11000 		add	r0, r4, #16
 445 001e FFF7FEFF 		bl	chIQResetI
 446              		.loc 1 199 0
 447 0022 FFF7FEFF 		bl	chSchRescheduleS
 448              	.LBB9:
 449              		.loc 1 200 0
 450 0026 0023     		movs	r3, #0
 451              	.LVL37:
 452              	@ 200 "../libs/ChibiOS_2.4.0/os/hal/src/serial.c" 1
 453 0028 83F31188 		msr     BASEPRI, r3
 454              	@ 0 "" 2
 455              	.LVL38:
 456              		.thumb
 457              	.LBE9:
 458              		.loc 1 201 0
 459 002c 10BD     		pop	{r4, pc}
 460              		.cfi_endproc
 461              	.LFE129:
 462              		.size	sdStop, .-sdStop
 463 002e 00BF     		.section	.text.sdIncomingDataI,"ax",%progbits
 464              		.align	2
 465              		.p2align 4,,15
 466              		.global	sdIncomingDataI
 467              		.thumb
 468              		.thumb_func
 469              		.type	sdIncomingDataI, %function
 470              	sdIncomingDataI:
 471              	.LFB130:
 472              		.loc 1 219 0
 473              		.cfi_startproc
 474              		@ args = 0, pretend = 0, frame = 0
 475              		@ frame_needed = 0, uses_anonymous_args = 0
 476              	.LVL39:
 477 0000 70B5     		push	{r4, r5, r6, lr}
 478              	.LCFI3:
 479              		.cfi_def_cfa_offset 16
 480              		.loc 1 219 0
 481 0002 0D46     		mov	r5, r1
 482              		.cfi_offset 14, -4
 483              		.cfi_offset 6, -8
 484              		.cfi_offset 5, -12
 485              		.cfi_offset 4, -16
 486              		.loc 1 224 0
 487 0004 8169     		ldr	r1, [r0, #24]
 488              	.LVL40:
 489              		.loc 1 219 0
 490 0006 0446     		mov	r4, r0
 491              		.loc 1 224 0
 492 0008 39B1     		cbz	r1, .L20
 493              		.loc 1 226 0
 494 000a 04F11000 		add	r0, r4, #16
ARM GAS  /tmp/ccrp9Byk.s 			page 10


 495              	.LVL41:
 496 000e 2946     		mov	r1, r5
 497 0010 FFF7FEFF 		bl	chIQPutI
 498 0014 0028     		cmp	r0, #0
 499 0016 0EDB     		blt	.L21
 500              	.L16:
 501 0018 70BD     		pop	{r4, r5, r6, pc}
 502              	.L20:
 503              		.loc 1 225 0
 504 001a 8268     		ldr	r2, [r0, #8]
 505 001c 42F00403 		orr	r3, r2, #4
 506 0020 8360     		str	r3, [r0, #8]
 507 0022 0430     		adds	r0, r0, #4
 508 0024 FFF7FEFF 		bl	chEvtBroadcastFlagsI
 509              		.loc 1 226 0
 510 0028 04F11000 		add	r0, r4, #16
 511 002c 2946     		mov	r1, r5
 512 002e FFF7FEFF 		bl	chIQPutI
 513 0032 0028     		cmp	r0, #0
 514 0034 F0DA     		bge	.L16
 515              	.L21:
 516              		.loc 1 227 0
 517 0036 A168     		ldr	r1, [r4, #8]
 518 0038 41F08000 		orr	r0, r1, #128
 519 003c A060     		str	r0, [r4, #8]
 520 003e 0021     		movs	r1, #0
 521 0040 201D     		adds	r0, r4, #4
 522              		.loc 1 228 0
 523 0042 BDE87040 		pop	{r4, r5, r6, lr}
 524              		.loc 1 227 0
 525 0046 FFF7FEBF 		b	chEvtBroadcastFlagsI
 526              		.cfi_endproc
 527              	.LFE130:
 528              		.size	sdIncomingDataI, .-sdIncomingDataI
 529 004a 00BFAFF3 		.section	.text.sdRequestDataI,"ax",%progbits
 529      0080
 530              		.align	2
 531              		.p2align 4,,15
 532              		.global	sdRequestDataI
 533              		.thumb
 534              		.thumb_func
 535              		.type	sdRequestDataI, %function
 536              	sdRequestDataI:
 537              	.LFB131:
 538              		.loc 1 245 0
 539              		.cfi_startproc
 540              		@ args = 0, pretend = 0, frame = 0
 541              		@ frame_needed = 0, uses_anonymous_args = 0
 542              	.LVL42:
 543 0000 38B5     		push	{r3, r4, r5, lr}
 544              	.LCFI4:
 545              		.cfi_def_cfa_offset 16
 546              		.loc 1 245 0
 547 0002 0546     		mov	r5, r0
 548              		.cfi_offset 14, -4
 549              		.cfi_offset 5, -8
 550              		.cfi_offset 4, -12
ARM GAS  /tmp/ccrp9Byk.s 			page 11


 551              		.cfi_offset 3, -16
 552              		.loc 1 251 0
 553 0004 3030     		adds	r0, r0, #48
 554              	.LVL43:
 555 0006 FFF7FEFF 		bl	chOQGetI
 556              	.LVL44:
 557              		.loc 1 252 0
 558 000a 041E     		subs	r4, r0, #0
 559 000c 01DB     		blt	.L24
 560              		.loc 1 255 0
 561 000e 2046     		mov	r0, r4
 562 0010 38BD     		pop	{r3, r4, r5, pc}
 563              	.L24:
 564              		.loc 1 253 0
 565 0012 A868     		ldr	r0, [r5, #8]
 566              	.LVL45:
 567 0014 40F00803 		orr	r3, r0, #8
 568 0018 AB60     		str	r3, [r5, #8]
 569 001a 281D     		adds	r0, r5, #4
 570 001c 0021     		movs	r1, #0
 571 001e FFF7FEFF 		bl	chEvtBroadcastFlagsI
 572              		.loc 1 255 0
 573 0022 2046     		mov	r0, r4
 574 0024 38BD     		pop	{r3, r4, r5, pc}
 575              		.cfi_endproc
 576              	.LFE131:
 577              		.size	sdRequestDataI, .-sdRequestDataI
 578 0026 00BFAFF3 		.section	.rodata.vmt,"a",%progbits
 578      0080AFF3 
 578      0080
 579              		.align	2
 580              		.set	.LANCHOR0,. + 0
 581              		.type	vmt, %object
 582              		.size	vmt, 36
 583              	vmt:
 584 0000 00000000 		.word	writes
 585 0004 00000000 		.word	reads
 586 0008 00000000 		.word	putwouldblock
 587 000c 00000000 		.word	getwouldblock
 588 0010 00000000 		.word	putt
 589 0014 00000000 		.word	gett
 590 0018 00000000 		.word	writet
 591 001c 00000000 		.word	readt
 592 0020 00000000 		.word	getflags
 593              		.text
 594              	.Letext0:
 595              		.section	.debug_loc,"",%progbits
 596              	.Ldebug_loc0:
 597              	.LLST0:
 598 0000 00000000 		.4byte	.LVL0
 599 0004 02000000 		.4byte	.LVL1
 600 0008 0100     		.2byte	0x1
 601 000a 50       		.byte	0x50
 602 000b 00000000 		.4byte	0x0
 603 000f 00000000 		.4byte	0x0
 604              	.LLST1:
 605 0013 00000000 		.4byte	.LVL2
ARM GAS  /tmp/ccrp9Byk.s 			page 12


 606 0017 02000000 		.4byte	.LVL3
 607 001b 0100     		.2byte	0x1
 608 001d 50       		.byte	0x50
 609 001e 00000000 		.4byte	0x0
 610 0022 00000000 		.4byte	0x0
 611              	.LLST2:
 612 0026 00000000 		.4byte	.LVL4
 613 002a 0C000000 		.4byte	.LVL8
 614 002e 0100     		.2byte	0x1
 615 0030 50       		.byte	0x50
 616 0031 0C000000 		.4byte	.LVL8
 617 0035 14000000 		.4byte	.LFE125
 618 0039 0100     		.2byte	0x1
 619 003b 52       		.byte	0x52
 620 003c 00000000 		.4byte	0x0
 621 0040 00000000 		.4byte	0x0
 622              	.LLST3:
 623 0044 08000000 		.4byte	.LVL6
 624 0048 0A000000 		.4byte	.LVL7
 625 004c 0100     		.2byte	0x1
 626 004e 53       		.byte	0x53
 627 004f 00000000 		.4byte	0x0
 628 0053 00000000 		.4byte	0x0
 629              	.LLST4:
 630 0057 00000000 		.4byte	.LVL10
 631 005b 02000000 		.4byte	.LVL11
 632 005f 0100     		.2byte	0x1
 633 0061 50       		.byte	0x50
 634 0062 02000000 		.4byte	.LVL11
 635 0066 06000000 		.4byte	.LFE124
 636 006a 0300     		.2byte	0x3
 637 006c 70       		.byte	0x70
 638 006d 70       		.sleb128 -16
 639 006e 9F       		.byte	0x9f
 640 006f 00000000 		.4byte	0x0
 641 0073 00000000 		.4byte	0x0
 642              	.LLST5:
 643 0077 00000000 		.4byte	.LVL12
 644 007b 02000000 		.4byte	.LVL13
 645 007f 0100     		.2byte	0x1
 646 0081 50       		.byte	0x50
 647 0082 02000000 		.4byte	.LVL13
 648 0086 0A000000 		.4byte	.LFE118
 649 008a 0300     		.2byte	0x3
 650 008c 70       		.byte	0x70
 651 008d 70       		.sleb128 -16
 652 008e 9F       		.byte	0x9f
 653 008f 00000000 		.4byte	0x0
 654 0093 00000000 		.4byte	0x0
 655              	.LLST6:
 656 0097 00000000 		.4byte	.LVL14
 657 009b 02000000 		.4byte	.LVL15
 658 009f 0100     		.2byte	0x1
 659 00a1 50       		.byte	0x50
 660 00a2 02000000 		.4byte	.LVL15
 661 00a6 06000000 		.4byte	.LFE123
 662 00aa 0300     		.2byte	0x3
ARM GAS  /tmp/ccrp9Byk.s 			page 13


 663 00ac 70       		.byte	0x70
 664 00ad 50       		.sleb128 -48
 665 00ae 9F       		.byte	0x9f
 666 00af 00000000 		.4byte	0x0
 667 00b3 00000000 		.4byte	0x0
 668              	.LLST7:
 669 00b7 00000000 		.4byte	.LVL16
 670 00bb 02000000 		.4byte	.LVL17
 671 00bf 0100     		.2byte	0x1
 672 00c1 50       		.byte	0x50
 673 00c2 02000000 		.4byte	.LVL17
 674 00c6 0A000000 		.4byte	.LFE117
 675 00ca 0300     		.2byte	0x3
 676 00cc 70       		.byte	0x70
 677 00cd 50       		.sleb128 -48
 678 00ce 9F       		.byte	0x9f
 679 00cf 00000000 		.4byte	0x0
 680 00d3 00000000 		.4byte	0x0
 681              	.LLST8:
 682 00d7 00000000 		.4byte	.LVL18
 683 00db 02000000 		.4byte	.LVL19
 684 00df 0100     		.2byte	0x1
 685 00e1 50       		.byte	0x50
 686 00e2 02000000 		.4byte	.LVL19
 687 00e6 06000000 		.4byte	.LFE122
 688 00ea 0300     		.2byte	0x3
 689 00ec 70       		.byte	0x70
 690 00ed 70       		.sleb128 -16
 691 00ee 9F       		.byte	0x9f
 692 00ef 00000000 		.4byte	0x0
 693 00f3 00000000 		.4byte	0x0
 694              	.LLST9:
 695 00f7 00000000 		.4byte	.LVL20
 696 00fb 02000000 		.4byte	.LVL21
 697 00ff 0100     		.2byte	0x1
 698 0101 50       		.byte	0x50
 699 0102 02000000 		.4byte	.LVL21
 700 0106 06000000 		.4byte	.LFE121
 701 010a 0300     		.2byte	0x3
 702 010c 70       		.byte	0x70
 703 010d 50       		.sleb128 -48
 704 010e 9F       		.byte	0x9f
 705 010f 00000000 		.4byte	0x0
 706 0113 00000000 		.4byte	0x0
 707              	.LLST10:
 708 0117 00000000 		.4byte	.LFB127
 709 011b 02000000 		.4byte	.LCFI0
 710 011f 0200     		.2byte	0x2
 711 0121 7D       		.byte	0x7d
 712 0122 00       		.sleb128 0
 713 0123 02000000 		.4byte	.LCFI0
 714 0127 40000000 		.4byte	.LFE127
 715 012b 0200     		.2byte	0x2
 716 012d 7D       		.byte	0x7d
 717 012e 10       		.sleb128 16
 718 012f 00000000 		.4byte	0x0
 719 0133 00000000 		.4byte	0x0
ARM GAS  /tmp/ccrp9Byk.s 			page 14


 720              	.LLST11:
 721 0137 00000000 		.4byte	.LVL22
 722 013b 1A000000 		.4byte	.LVL23
 723 013f 0100     		.2byte	0x1
 724 0141 50       		.byte	0x50
 725 0142 1A000000 		.4byte	.LVL23
 726 0146 40000000 		.4byte	.LFE127
 727 014a 0100     		.2byte	0x1
 728 014c 54       		.byte	0x54
 729 014d 00000000 		.4byte	0x0
 730 0151 00000000 		.4byte	0x0
 731              	.LLST12:
 732 0155 00000000 		.4byte	.LVL22
 733 0159 1E000000 		.4byte	.LVL24
 734 015d 0100     		.2byte	0x1
 735 015f 51       		.byte	0x51
 736 0160 1E000000 		.4byte	.LVL24
 737 0164 25000000 		.4byte	.LVL26-1
 738 0168 0100     		.2byte	0x1
 739 016a 53       		.byte	0x53
 740 016b 00000000 		.4byte	0x0
 741 016f 00000000 		.4byte	0x0
 742              	.LLST13:
 743 0173 00000000 		.4byte	.LVL22
 744 0177 20000000 		.4byte	.LVL25
 745 017b 0100     		.2byte	0x1
 746 017d 52       		.byte	0x52
 747 017e 20000000 		.4byte	.LVL25
 748 0182 40000000 		.4byte	.LFE127
 749 0186 0100     		.2byte	0x1
 750 0188 55       		.byte	0x55
 751 0189 00000000 		.4byte	0x0
 752 018d 00000000 		.4byte	0x0
 753              	.LLST14:
 754 0191 00000000 		.4byte	.LFB128
 755 0195 02000000 		.4byte	.LCFI1
 756 0199 0200     		.2byte	0x2
 757 019b 7D       		.byte	0x7d
 758 019c 00       		.sleb128 0
 759 019d 02000000 		.4byte	.LCFI1
 760 01a1 1A000000 		.4byte	.LFE128
 761 01a5 0200     		.2byte	0x2
 762 01a7 7D       		.byte	0x7d
 763 01a8 08       		.sleb128 8
 764 01a9 00000000 		.4byte	0x0
 765 01ad 00000000 		.4byte	0x0
 766              	.LLST15:
 767 01b1 00000000 		.4byte	.LVL27
 768 01b5 0D000000 		.4byte	.LVL30-1
 769 01b9 0100     		.2byte	0x1
 770 01bb 50       		.byte	0x50
 771 01bc 0D000000 		.4byte	.LVL30-1
 772 01c0 1A000000 		.4byte	.LFE128
 773 01c4 0100     		.2byte	0x1
 774 01c6 54       		.byte	0x54
 775 01c7 00000000 		.4byte	0x0
 776 01cb 00000000 		.4byte	0x0
ARM GAS  /tmp/ccrp9Byk.s 			page 15


 777              	.LLST16:
 778 01cf 00000000 		.4byte	.LVL27
 779 01d3 0D000000 		.4byte	.LVL30-1
 780 01d7 0100     		.2byte	0x1
 781 01d9 51       		.byte	0x51
 782 01da 00000000 		.4byte	0x0
 783 01de 00000000 		.4byte	0x0
 784              	.LLST17:
 785 01e2 0A000000 		.4byte	.LVL29
 786 01e6 0D000000 		.4byte	.LVL30-1
 787 01ea 0100     		.2byte	0x1
 788 01ec 53       		.byte	0x53
 789 01ed 00000000 		.4byte	0x0
 790 01f1 00000000 		.4byte	0x0
 791              	.LLST18:
 792 01f5 18000000 		.4byte	.LVL32
 793 01f9 1A000000 		.4byte	.LFE128
 794 01fd 0100     		.2byte	0x1
 795 01ff 53       		.byte	0x53
 796 0200 00000000 		.4byte	0x0
 797 0204 00000000 		.4byte	0x0
 798              	.LLST19:
 799 0208 00000000 		.4byte	.LFB129
 800 020c 02000000 		.4byte	.LCFI2
 801 0210 0200     		.2byte	0x2
 802 0212 7D       		.byte	0x7d
 803 0213 00       		.sleb128 0
 804 0214 02000000 		.4byte	.LCFI2
 805 0218 2E000000 		.4byte	.LFE129
 806 021c 0200     		.2byte	0x2
 807 021e 7D       		.byte	0x7d
 808 021f 08       		.sleb128 8
 809 0220 00000000 		.4byte	0x0
 810 0224 00000000 		.4byte	0x0
 811              	.LLST20:
 812 0228 00000000 		.4byte	.LVL33
 813 022c 0D000000 		.4byte	.LVL36-1
 814 0230 0100     		.2byte	0x1
 815 0232 50       		.byte	0x50
 816 0233 0D000000 		.4byte	.LVL36-1
 817 0237 2E000000 		.4byte	.LFE129
 818 023b 0100     		.2byte	0x1
 819 023d 54       		.byte	0x54
 820 023e 00000000 		.4byte	0x0
 821 0242 00000000 		.4byte	0x0
 822              	.LLST21:
 823 0246 0A000000 		.4byte	.LVL35
 824 024a 0D000000 		.4byte	.LVL36-1
 825 024e 0100     		.2byte	0x1
 826 0250 53       		.byte	0x53
 827 0251 00000000 		.4byte	0x0
 828 0255 00000000 		.4byte	0x0
 829              	.LLST22:
 830 0259 2C000000 		.4byte	.LVL38
 831 025d 2E000000 		.4byte	.LFE129
 832 0261 0100     		.2byte	0x1
 833 0263 53       		.byte	0x53
ARM GAS  /tmp/ccrp9Byk.s 			page 16


 834 0264 00000000 		.4byte	0x0
 835 0268 00000000 		.4byte	0x0
 836              	.LLST23:
 837 026c 00000000 		.4byte	.LFB130
 838 0270 02000000 		.4byte	.LCFI3
 839 0274 0200     		.2byte	0x2
 840 0276 7D       		.byte	0x7d
 841 0277 00       		.sleb128 0
 842 0278 02000000 		.4byte	.LCFI3
 843 027c 4A000000 		.4byte	.LFE130
 844 0280 0200     		.2byte	0x2
 845 0282 7D       		.byte	0x7d
 846 0283 10       		.sleb128 16
 847 0284 00000000 		.4byte	0x0
 848 0288 00000000 		.4byte	0x0
 849              	.LLST24:
 850 028c 00000000 		.4byte	.LVL39
 851 0290 0E000000 		.4byte	.LVL41
 852 0294 0100     		.2byte	0x1
 853 0296 50       		.byte	0x50
 854 0297 0E000000 		.4byte	.LVL41
 855 029b 4A000000 		.4byte	.LFE130
 856 029f 0100     		.2byte	0x1
 857 02a1 54       		.byte	0x54
 858 02a2 00000000 		.4byte	0x0
 859 02a6 00000000 		.4byte	0x0
 860              	.LLST25:
 861 02aa 00000000 		.4byte	.LVL39
 862 02ae 06000000 		.4byte	.LVL40
 863 02b2 0100     		.2byte	0x1
 864 02b4 51       		.byte	0x51
 865 02b5 00000000 		.4byte	0x0
 866 02b9 00000000 		.4byte	0x0
 867              	.LLST26:
 868 02bd 00000000 		.4byte	.LFB131
 869 02c1 02000000 		.4byte	.LCFI4
 870 02c5 0200     		.2byte	0x2
 871 02c7 7D       		.byte	0x7d
 872 02c8 00       		.sleb128 0
 873 02c9 02000000 		.4byte	.LCFI4
 874 02cd 26000000 		.4byte	.LFE131
 875 02d1 0200     		.2byte	0x2
 876 02d3 7D       		.byte	0x7d
 877 02d4 10       		.sleb128 16
 878 02d5 00000000 		.4byte	0x0
 879 02d9 00000000 		.4byte	0x0
 880              	.LLST27:
 881 02dd 00000000 		.4byte	.LVL42
 882 02e1 06000000 		.4byte	.LVL43
 883 02e5 0100     		.2byte	0x1
 884 02e7 50       		.byte	0x50
 885 02e8 06000000 		.4byte	.LVL43
 886 02ec 26000000 		.4byte	.LFE131
 887 02f0 0100     		.2byte	0x1
 888 02f2 55       		.byte	0x55
 889 02f3 00000000 		.4byte	0x0
 890 02f7 00000000 		.4byte	0x0
ARM GAS  /tmp/ccrp9Byk.s 			page 17


 891              	.LLST28:
 892 02fb 0A000000 		.4byte	.LVL44
 893 02ff 14000000 		.4byte	.LVL45
 894 0303 0100     		.2byte	0x1
 895 0305 50       		.byte	0x50
 896 0306 14000000 		.4byte	.LVL45
 897 030a 26000000 		.4byte	.LFE131
 898 030e 0100     		.2byte	0x1
 899 0310 54       		.byte	0x54
 900 0311 00000000 		.4byte	0x0
 901 0315 00000000 		.4byte	0x0
 902              		.file 2 "/opt/stm32/arm-none-eabi-2011.03/bin/../lib/gcc/arm-none-eabi/4.5.2/include/stddef.h"
 903              		.file 3 "/opt/stm32/arm-none-eabi-2011.03/bin/../lib/gcc/arm-none-eabi/4.5.2/../../../../arm-none-
 904              		.file 4 "../libs/ChibiOS_2.4.0/os/ports/GCC/ARMCMx/chtypes.h"
 905              		.file 5 "../libs/ChibiOS_2.4.0/os/kernel/include/chlists.h"
 906              		.file 6 "../libs/ChibiOS_2.4.0/os/kernel/include/chthreads.h"
 907              		.file 7 "../libs/ChibiOS_2.4.0/os/ports/GCC/ARMCMx/chcore_v7m.h"
 908              		.file 8 "../libs/ChibiOS_2.4.0/os/kernel/include/chmtx.h"
 909              		.file 9 "../libs/ChibiOS_2.4.0/os/kernel/include/chevents.h"
 910              		.file 10 "../libs/ChibiOS_2.4.0/os/kernel/include/chqueues.h"
 911              		.file 11 "../libs/ChibiOS_2.4.0/os/kernel/include/chioch.h"
 912              		.file 12 "../libs/ChibiOS_2.4.0/os/hal/platforms/STM32F4xx/stm32f4xx.h"
 913              		.file 13 "../libs/ChibiOS_2.4.0/os/hal/include/serial.h"
 914              		.file 14 "../libs/ChibiOS_2.4.0/os/hal/platforms/STM32/serial_lld.h"
 915              		.file 15 "../libs/ChibiOS_2.4.0/os/ports/common/ARMCMx/CMSIS/include/core_cm4.h"
 916              		.section	.debug_info
 917 0000 B00D0000 		.4byte	0xdb0
 918 0004 0200     		.2byte	0x2
 919 0006 00000000 		.4byte	.Ldebug_abbrev0
 920 000a 04       		.byte	0x4
 921 000b 01       		.uleb128 0x1
 922 000c E9000000 		.4byte	.LASF124
 923 0010 01       		.byte	0x1
 924 0011 2A030000 		.4byte	.LASF125
 925 0015 A7000000 		.4byte	.LASF126
 926 0019 00000000 		.4byte	0x0
 927 001d 00000000 		.4byte	0x0
 928 0021 30000000 		.4byte	.Ldebug_ranges0+0x30
 929 0025 00000000 		.4byte	.Ldebug_line0
 930 0029 02       		.uleb128 0x2
 931 002a 04       		.byte	0x4
 932 002b 05       		.byte	0x5
 933 002c 696E7400 		.ascii	"int\000"
 934 0030 03       		.uleb128 0x3
 935 0031 09000000 		.4byte	.LASF2
 936 0035 02       		.byte	0x2
 937 0036 D3       		.byte	0xd3
 938 0037 3B000000 		.4byte	0x3b
 939 003b 04       		.uleb128 0x4
 940 003c 04       		.byte	0x4
 941 003d 07       		.byte	0x7
 942 003e 70010000 		.4byte	.LASF0
 943 0042 04       		.uleb128 0x4
 944 0043 01       		.byte	0x1
 945 0044 06       		.byte	0x6
 946 0045 9B000000 		.4byte	.LASF1
 947 0049 03       		.uleb128 0x3
ARM GAS  /tmp/ccrp9Byk.s 			page 18


 948 004a 8E040000 		.4byte	.LASF3
 949 004e 03       		.byte	0x3
 950 004f 2A       		.byte	0x2a
 951 0050 54000000 		.4byte	0x54
 952 0054 04       		.uleb128 0x4
 953 0055 01       		.byte	0x1
 954 0056 08       		.byte	0x8
 955 0057 02030000 		.4byte	.LASF4
 956 005b 04       		.uleb128 0x4
 957 005c 02       		.byte	0x2
 958 005d 05       		.byte	0x5
 959 005e 5E030000 		.4byte	.LASF5
 960 0062 03       		.uleb128 0x3
 961 0063 7D010000 		.4byte	.LASF6
 962 0067 03       		.byte	0x3
 963 0068 36       		.byte	0x36
 964 0069 6D000000 		.4byte	0x6d
 965 006d 04       		.uleb128 0x4
 966 006e 02       		.byte	0x2
 967 006f 07       		.byte	0x7
 968 0070 CA010000 		.4byte	.LASF7
 969 0074 03       		.uleb128 0x3
 970 0075 FA020000 		.4byte	.LASF8
 971 0079 03       		.byte	0x3
 972 007a 4F       		.byte	0x4f
 973 007b 7F000000 		.4byte	0x7f
 974 007f 04       		.uleb128 0x4
 975 0080 04       		.byte	0x4
 976 0081 05       		.byte	0x5
 977 0082 FB000000 		.4byte	.LASF9
 978 0086 03       		.uleb128 0x3
 979 0087 B4030000 		.4byte	.LASF10
 980 008b 03       		.byte	0x3
 981 008c 50       		.byte	0x50
 982 008d 91000000 		.4byte	0x91
 983 0091 04       		.uleb128 0x4
 984 0092 04       		.byte	0x4
 985 0093 07       		.byte	0x7
 986 0094 D4030000 		.4byte	.LASF11
 987 0098 04       		.uleb128 0x4
 988 0099 08       		.byte	0x8
 989 009a 05       		.byte	0x5
 990 009b 8D000000 		.4byte	.LASF12
 991 009f 04       		.uleb128 0x4
 992 00a0 08       		.byte	0x8
 993 00a1 07       		.byte	0x7
 994 00a2 3D000000 		.4byte	.LASF13
 995 00a6 03       		.uleb128 0x3
 996 00a7 2F000000 		.4byte	.LASF14
 997 00ab 03       		.byte	0x3
 998 00ac A6       		.byte	0xa6
 999 00ad 3B000000 		.4byte	0x3b
 1000 00b1 03       		.uleb128 0x3
 1001 00b2 DA000000 		.4byte	.LASF15
 1002 00b6 04       		.byte	0x4
 1003 00b7 2E       		.byte	0x2e
 1004 00b8 74000000 		.4byte	0x74
ARM GAS  /tmp/ccrp9Byk.s 			page 19


 1005 00bc 03       		.uleb128 0x3
 1006 00bd F8010000 		.4byte	.LASF16
 1007 00c1 04       		.byte	0x4
 1008 00c2 2F       		.byte	0x2f
 1009 00c3 49000000 		.4byte	0x49
 1010 00c7 03       		.uleb128 0x3
 1011 00c8 04010000 		.4byte	.LASF17
 1012 00cc 04       		.byte	0x4
 1013 00cd 30       		.byte	0x30
 1014 00ce 49000000 		.4byte	0x49
 1015 00d2 03       		.uleb128 0x3
 1016 00d3 9F020000 		.4byte	.LASF18
 1017 00d7 04       		.byte	0x4
 1018 00d8 31       		.byte	0x31
 1019 00d9 49000000 		.4byte	0x49
 1020 00dd 03       		.uleb128 0x3
 1021 00de EA020000 		.4byte	.LASF19
 1022 00e2 04       		.byte	0x4
 1023 00e3 32       		.byte	0x32
 1024 00e4 86000000 		.4byte	0x86
 1025 00e8 03       		.uleb128 0x3
 1026 00e9 DD010000 		.4byte	.LASF20
 1027 00ed 04       		.byte	0x4
 1028 00ee 33       		.byte	0x33
 1029 00ef 74000000 		.4byte	0x74
 1030 00f3 03       		.uleb128 0x3
 1031 00f4 23000000 		.4byte	.LASF21
 1032 00f8 04       		.byte	0x4
 1033 00f9 35       		.byte	0x35
 1034 00fa 86000000 		.4byte	0x86
 1035 00fe 03       		.uleb128 0x3
 1036 00ff 16040000 		.4byte	.LASF22
 1037 0103 04       		.byte	0x4
 1038 0104 36       		.byte	0x36
 1039 0105 86000000 		.4byte	0x86
 1040 0109 03       		.uleb128 0x3
 1041 010a 8E030000 		.4byte	.LASF23
 1042 010e 05       		.byte	0x5
 1043 010f 2A       		.byte	0x2a
 1044 0110 14010000 		.4byte	0x114
 1045 0114 05       		.uleb128 0x5
 1046 0115 8E030000 		.4byte	.LASF23
 1047 0119 48       		.byte	0x48
 1048 011a 06       		.byte	0x6
 1049 011b 5E       		.byte	0x5e
 1050 011c 2B020000 		.4byte	0x22b
 1051 0120 06       		.uleb128 0x6
 1052 0121 6F030000 		.4byte	.LASF24
 1053 0125 06       		.byte	0x6
 1054 0126 5F       		.byte	0x5f
 1055 0127 50020000 		.4byte	0x250
 1056 012b 02       		.byte	0x2
 1057 012c 23       		.byte	0x23
 1058 012d 00       		.uleb128 0x0
 1059 012e 06       		.uleb128 0x6
 1060 012f D9020000 		.4byte	.LASF25
 1061 0133 06       		.byte	0x6
ARM GAS  /tmp/ccrp9Byk.s 			page 20


 1062 0134 61       		.byte	0x61
 1063 0135 50020000 		.4byte	0x250
 1064 0139 02       		.byte	0x2
 1065 013a 23       		.byte	0x23
 1066 013b 04       		.uleb128 0x4
 1067 013c 06       		.uleb128 0x6
 1068 013d 4F020000 		.4byte	.LASF26
 1069 0141 06       		.byte	0x6
 1070 0142 63       		.byte	0x63
 1071 0143 DD000000 		.4byte	0xdd
 1072 0147 02       		.byte	0x2
 1073 0148 23       		.byte	0x23
 1074 0149 08       		.uleb128 0x8
 1075 014a 06       		.uleb128 0x6
 1076 014b EB040000 		.4byte	.LASF27
 1077 014f 06       		.byte	0x6
 1078 0150 64       		.byte	0x64
 1079 0151 1D030000 		.4byte	0x31d
 1080 0155 02       		.byte	0x2
 1081 0156 23       		.byte	0x23
 1082 0157 0C       		.uleb128 0xc
 1083 0158 06       		.uleb128 0x6
 1084 0159 25010000 		.4byte	.LASF28
 1085 015d 06       		.byte	0x6
 1086 015e 66       		.byte	0x66
 1087 015f 50020000 		.4byte	0x250
 1088 0163 02       		.byte	0x2
 1089 0164 23       		.byte	0x23
 1090 0165 10       		.uleb128 0x10
 1091 0166 06       		.uleb128 0x6
 1092 0167 5E020000 		.4byte	.LASF29
 1093 016b 06       		.byte	0x6
 1094 016c 67       		.byte	0x67
 1095 016d 50020000 		.4byte	0x250
 1096 0171 02       		.byte	0x2
 1097 0172 23       		.byte	0x23
 1098 0173 14       		.uleb128 0x14
 1099 0174 06       		.uleb128 0x6
 1100 0175 61040000 		.4byte	.LASF30
 1101 0179 06       		.byte	0x6
 1102 017a 6E       		.byte	0x6e
 1103 017b 30040000 		.4byte	0x430
 1104 017f 02       		.byte	0x2
 1105 0180 23       		.byte	0x23
 1106 0181 18       		.uleb128 0x18
 1107 0182 06       		.uleb128 0x6
 1108 0183 CA000000 		.4byte	.LASF31
 1109 0187 06       		.byte	0x6
 1110 0188 79       		.byte	0x79
 1111 0189 C7000000 		.4byte	0xc7
 1112 018d 02       		.byte	0x2
 1113 018e 23       		.byte	0x23
 1114 018f 1C       		.uleb128 0x1c
 1115 0190 06       		.uleb128 0x6
 1116 0191 76030000 		.4byte	.LASF32
 1117 0195 06       		.byte	0x6
 1118 0196 7D       		.byte	0x7d
ARM GAS  /tmp/ccrp9Byk.s 			page 21


 1119 0197 BC000000 		.4byte	0xbc
 1120 019b 02       		.byte	0x2
 1121 019c 23       		.byte	0x23
 1122 019d 1D       		.uleb128 0x1d
 1123 019e 06       		.uleb128 0x6
 1124 019f 0D010000 		.4byte	.LASF33
 1125 01a3 06       		.byte	0x6
 1126 01a4 82       		.byte	0x82
 1127 01a5 D2000000 		.4byte	0xd2
 1128 01a9 02       		.byte	0x2
 1129 01aa 23       		.byte	0x23
 1130 01ab 1E       		.uleb128 0x1e
 1131 01ac 06       		.uleb128 0x6
 1132 01ad 96010000 		.4byte	.LASF34
 1133 01b1 06       		.byte	0x6
 1134 01b2 89       		.byte	0x89
 1135 01b3 40030000 		.4byte	0x340
 1136 01b7 02       		.byte	0x2
 1137 01b8 23       		.byte	0x23
 1138 01b9 20       		.uleb128 0x20
 1139 01ba 07       		.uleb128 0x7
 1140 01bb 705F7500 		.ascii	"p_u\000"
 1141 01bf 06       		.byte	0x6
 1142 01c0 AE       		.byte	0xae
 1143 01c1 FB030000 		.4byte	0x3fb
 1144 01c5 02       		.byte	0x2
 1145 01c6 23       		.byte	0x23
 1146 01c7 24       		.uleb128 0x24
 1147 01c8 06       		.uleb128 0x6
 1148 01c9 F1040000 		.4byte	.LASF35
 1149 01cd 06       		.byte	0x6
 1150 01ce B3       		.byte	0xb3
 1151 01cf 78020000 		.4byte	0x278
 1152 01d3 02       		.byte	0x2
 1153 01d4 23       		.byte	0x23
 1154 01d5 28       		.uleb128 0x28
 1155 01d6 06       		.uleb128 0x6
 1156 01d7 AC010000 		.4byte	.LASF36
 1157 01db 06       		.byte	0x6
 1158 01dc B9       		.byte	0xb9
 1159 01dd 56020000 		.4byte	0x256
 1160 01e1 02       		.byte	0x2
 1161 01e2 23       		.byte	0x23
 1162 01e3 2C       		.uleb128 0x2c
 1163 01e4 06       		.uleb128 0x6
 1164 01e5 79040000 		.4byte	.LASF37
 1165 01e9 06       		.byte	0x6
 1166 01ea BD       		.byte	0xbd
 1167 01eb E8000000 		.4byte	0xe8
 1168 01ef 02       		.byte	0x2
 1169 01f0 23       		.byte	0x23
 1170 01f1 34       		.uleb128 0x34
 1171 01f2 06       		.uleb128 0x6
 1172 01f3 95030000 		.4byte	.LASF38
 1173 01f7 06       		.byte	0x6
 1174 01f8 C3       		.byte	0xc3
 1175 01f9 F3000000 		.4byte	0xf3
ARM GAS  /tmp/ccrp9Byk.s 			page 22


 1176 01fd 02       		.byte	0x2
 1177 01fe 23       		.byte	0x23
 1178 01ff 38       		.uleb128 0x38
 1179 0200 06       		.uleb128 0x6
 1180 0201 54030000 		.4byte	.LASF39
 1181 0205 06       		.byte	0x6
 1182 0206 CA       		.byte	0xca
 1183 0207 42040000 		.4byte	0x442
 1184 020b 02       		.byte	0x2
 1185 020c 23       		.byte	0x23
 1186 020d 3C       		.uleb128 0x3c
 1187 020e 06       		.uleb128 0x6
 1188 020f 20040000 		.4byte	.LASF40
 1189 0213 06       		.byte	0x6
 1190 0214 CE       		.byte	0xce
 1191 0215 DD000000 		.4byte	0xdd
 1192 0219 02       		.byte	0x2
 1193 021a 23       		.byte	0x23
 1194 021b 40       		.uleb128 0x40
 1195 021c 06       		.uleb128 0x6
 1196 021d D2000000 		.4byte	.LASF41
 1197 0221 06       		.byte	0x6
 1198 0222 D4       		.byte	0xd4
 1199 0223 8E020000 		.4byte	0x28e
 1200 0227 02       		.byte	0x2
 1201 0228 23       		.byte	0x23
 1202 0229 44       		.uleb128 0x44
 1203 022a 00       		.byte	0x0
 1204 022b 08       		.uleb128 0x8
 1205 022c 08       		.byte	0x8
 1206 022d 05       		.byte	0x5
 1207 022e 61       		.byte	0x61
 1208 022f 50020000 		.4byte	0x250
 1209 0233 06       		.uleb128 0x6
 1210 0234 6F030000 		.4byte	.LASF24
 1211 0238 05       		.byte	0x5
 1212 0239 62       		.byte	0x62
 1213 023a 50020000 		.4byte	0x250
 1214 023e 02       		.byte	0x2
 1215 023f 23       		.byte	0x23
 1216 0240 00       		.uleb128 0x0
 1217 0241 06       		.uleb128 0x6
 1218 0242 D9020000 		.4byte	.LASF25
 1219 0246 05       		.byte	0x5
 1220 0247 64       		.byte	0x64
 1221 0248 50020000 		.4byte	0x250
 1222 024c 02       		.byte	0x2
 1223 024d 23       		.byte	0x23
 1224 024e 04       		.uleb128 0x4
 1225 024f 00       		.byte	0x0
 1226 0250 09       		.uleb128 0x9
 1227 0251 04       		.byte	0x4
 1228 0252 09010000 		.4byte	0x109
 1229 0256 03       		.uleb128 0x3
 1230 0257 79020000 		.4byte	.LASF42
 1231 025b 05       		.byte	0x5
 1232 025c 66       		.byte	0x66
ARM GAS  /tmp/ccrp9Byk.s 			page 23


 1233 025d 2B020000 		.4byte	0x22b
 1234 0261 08       		.uleb128 0x8
 1235 0262 04       		.byte	0x4
 1236 0263 05       		.byte	0x5
 1237 0264 6B       		.byte	0x6b
 1238 0265 78020000 		.4byte	0x278
 1239 0269 06       		.uleb128 0x6
 1240 026a 6F030000 		.4byte	.LASF24
 1241 026e 05       		.byte	0x5
 1242 026f 6D       		.byte	0x6d
 1243 0270 50020000 		.4byte	0x250
 1244 0274 02       		.byte	0x2
 1245 0275 23       		.byte	0x23
 1246 0276 00       		.uleb128 0x0
 1247 0277 00       		.byte	0x0
 1248 0278 03       		.uleb128 0x3
 1249 0279 00020000 		.4byte	.LASF43
 1250 027d 05       		.byte	0x5
 1251 027e 70       		.byte	0x70
 1252 027f 61020000 		.4byte	0x261
 1253 0283 03       		.uleb128 0x3
 1254 0284 40010000 		.4byte	.LASF44
 1255 0288 07       		.byte	0x7
 1256 0289 D7       		.byte	0xd7
 1257 028a 8E020000 		.4byte	0x28e
 1258 028e 0A       		.uleb128 0xa
 1259 028f 04       		.byte	0x4
 1260 0290 05       		.uleb128 0x5
 1261 0291 4B040000 		.4byte	.LASF45
 1262 0295 24       		.byte	0x24
 1263 0296 07       		.byte	0x7
 1264 0297 FE       		.byte	0xfe
 1265 0298 1D030000 		.4byte	0x31d
 1266 029c 0B       		.uleb128 0xb
 1267 029d 723400   		.ascii	"r4\000"
 1268 02a0 07       		.byte	0x7
 1269 02a1 1101     		.2byte	0x111
 1270 02a3 83020000 		.4byte	0x283
 1271 02a7 02       		.byte	0x2
 1272 02a8 23       		.byte	0x23
 1273 02a9 00       		.uleb128 0x0
 1274 02aa 0B       		.uleb128 0xb
 1275 02ab 723500   		.ascii	"r5\000"
 1276 02ae 07       		.byte	0x7
 1277 02af 1201     		.2byte	0x112
 1278 02b1 83020000 		.4byte	0x283
 1279 02b5 02       		.byte	0x2
 1280 02b6 23       		.byte	0x23
 1281 02b7 04       		.uleb128 0x4
 1282 02b8 0B       		.uleb128 0xb
 1283 02b9 723600   		.ascii	"r6\000"
 1284 02bc 07       		.byte	0x7
 1285 02bd 1301     		.2byte	0x113
 1286 02bf 83020000 		.4byte	0x283
 1287 02c3 02       		.byte	0x2
 1288 02c4 23       		.byte	0x23
 1289 02c5 08       		.uleb128 0x8
ARM GAS  /tmp/ccrp9Byk.s 			page 24


 1290 02c6 0B       		.uleb128 0xb
 1291 02c7 723700   		.ascii	"r7\000"
 1292 02ca 07       		.byte	0x7
 1293 02cb 1401     		.2byte	0x114
 1294 02cd 83020000 		.4byte	0x283
 1295 02d1 02       		.byte	0x2
 1296 02d2 23       		.byte	0x23
 1297 02d3 0C       		.uleb128 0xc
 1298 02d4 0B       		.uleb128 0xb
 1299 02d5 723800   		.ascii	"r8\000"
 1300 02d8 07       		.byte	0x7
 1301 02d9 1501     		.2byte	0x115
 1302 02db 83020000 		.4byte	0x283
 1303 02df 02       		.byte	0x2
 1304 02e0 23       		.byte	0x23
 1305 02e1 10       		.uleb128 0x10
 1306 02e2 0B       		.uleb128 0xb
 1307 02e3 723900   		.ascii	"r9\000"
 1308 02e6 07       		.byte	0x7
 1309 02e7 1601     		.2byte	0x116
 1310 02e9 83020000 		.4byte	0x283
 1311 02ed 02       		.byte	0x2
 1312 02ee 23       		.byte	0x23
 1313 02ef 14       		.uleb128 0x14
 1314 02f0 0B       		.uleb128 0xb
 1315 02f1 72313000 		.ascii	"r10\000"
 1316 02f5 07       		.byte	0x7
 1317 02f6 1701     		.2byte	0x117
 1318 02f8 83020000 		.4byte	0x283
 1319 02fc 02       		.byte	0x2
 1320 02fd 23       		.byte	0x23
 1321 02fe 18       		.uleb128 0x18
 1322 02ff 0B       		.uleb128 0xb
 1323 0300 72313100 		.ascii	"r11\000"
 1324 0304 07       		.byte	0x7
 1325 0305 1801     		.2byte	0x118
 1326 0307 83020000 		.4byte	0x283
 1327 030b 02       		.byte	0x2
 1328 030c 23       		.byte	0x23
 1329 030d 1C       		.uleb128 0x1c
 1330 030e 0B       		.uleb128 0xb
 1331 030f 6C7200   		.ascii	"lr\000"
 1332 0312 07       		.byte	0x7
 1333 0313 1901     		.2byte	0x119
 1334 0315 83020000 		.4byte	0x283
 1335 0319 02       		.byte	0x2
 1336 031a 23       		.byte	0x23
 1337 031b 20       		.uleb128 0x20
 1338 031c 00       		.byte	0x0
 1339 031d 0C       		.uleb128 0xc
 1340 031e 43040000 		.4byte	.LASF46
 1341 0322 04       		.byte	0x4
 1342 0323 07       		.byte	0x7
 1343 0324 2301     		.2byte	0x123
 1344 0326 3A030000 		.4byte	0x33a
 1345 032a 0B       		.uleb128 0xb
 1346 032b 72313300 		.ascii	"r13\000"
ARM GAS  /tmp/ccrp9Byk.s 			page 25


 1347 032f 07       		.byte	0x7
 1348 0330 2401     		.2byte	0x124
 1349 0332 3A030000 		.4byte	0x33a
 1350 0336 02       		.byte	0x2
 1351 0337 23       		.byte	0x23
 1352 0338 00       		.uleb128 0x0
 1353 0339 00       		.byte	0x0
 1354 033a 09       		.uleb128 0x9
 1355 033b 04       		.byte	0x4
 1356 033c 90020000 		.4byte	0x290
 1357 0340 0D       		.uleb128 0xd
 1358 0341 FE000000 		.4byte	0xfe
 1359 0345 05       		.uleb128 0x5
 1360 0346 49020000 		.4byte	.LASF47
 1361 034a 10       		.byte	0x10
 1362 034b 08       		.byte	0x8
 1363 034c 2C       		.byte	0x2c
 1364 034d 7C030000 		.4byte	0x37c
 1365 0351 06       		.uleb128 0x6
 1366 0352 E1000000 		.4byte	.LASF48
 1367 0356 08       		.byte	0x8
 1368 0357 2D       		.byte	0x2d
 1369 0358 56020000 		.4byte	0x256
 1370 035c 02       		.byte	0x2
 1371 035d 23       		.byte	0x23
 1372 035e 00       		.uleb128 0x0
 1373 035f 06       		.uleb128 0x6
 1374 0360 E3040000 		.4byte	.LASF49
 1375 0364 08       		.byte	0x8
 1376 0365 2F       		.byte	0x2f
 1377 0366 50020000 		.4byte	0x250
 1378 036a 02       		.byte	0x2
 1379 036b 23       		.byte	0x23
 1380 036c 08       		.uleb128 0x8
 1381 036d 06       		.uleb128 0x6
 1382 036e 0F040000 		.4byte	.LASF50
 1383 0372 08       		.byte	0x8
 1384 0373 31       		.byte	0x31
 1385 0374 7C030000 		.4byte	0x37c
 1386 0378 02       		.byte	0x2
 1387 0379 23       		.byte	0x23
 1388 037a 0C       		.uleb128 0xc
 1389 037b 00       		.byte	0x0
 1390 037c 09       		.uleb128 0x9
 1391 037d 04       		.byte	0x4
 1392 037e 45030000 		.4byte	0x345
 1393 0382 03       		.uleb128 0x3
 1394 0383 49020000 		.4byte	.LASF47
 1395 0387 08       		.byte	0x8
 1396 0388 33       		.byte	0x33
 1397 0389 45030000 		.4byte	0x345
 1398 038d 03       		.uleb128 0x3
 1399 038e A4040000 		.4byte	.LASF51
 1400 0392 09       		.byte	0x9
 1401 0393 29       		.byte	0x29
 1402 0394 98030000 		.4byte	0x398
 1403 0398 05       		.uleb128 0x5
ARM GAS  /tmp/ccrp9Byk.s 			page 26


 1404 0399 A4040000 		.4byte	.LASF51
 1405 039d 0C       		.byte	0xc
 1406 039e 09       		.byte	0x9
 1407 039f 2E       		.byte	0x2e
 1408 03a0 CF030000 		.4byte	0x3cf
 1409 03a4 06       		.uleb128 0x6
 1410 03a5 7E030000 		.4byte	.LASF52
 1411 03a9 09       		.byte	0x9
 1412 03aa 2F       		.byte	0x2f
 1413 03ab CF030000 		.4byte	0x3cf
 1414 03af 02       		.byte	0x2
 1415 03b0 23       		.byte	0x23
 1416 03b1 00       		.uleb128 0x0
 1417 03b2 06       		.uleb128 0x6
 1418 03b3 1E030000 		.4byte	.LASF53
 1419 03b7 09       		.byte	0x9
 1420 03b8 32       		.byte	0x32
 1421 03b9 50020000 		.4byte	0x250
 1422 03bd 02       		.byte	0x2
 1423 03be 23       		.byte	0x23
 1424 03bf 04       		.uleb128 0x4
 1425 03c0 06       		.uleb128 0x6
 1426 03c1 56020000 		.4byte	.LASF54
 1427 03c5 09       		.byte	0x9
 1428 03c6 34       		.byte	0x34
 1429 03c7 F3000000 		.4byte	0xf3
 1430 03cb 02       		.byte	0x2
 1431 03cc 23       		.byte	0x23
 1432 03cd 08       		.uleb128 0x8
 1433 03ce 00       		.byte	0x0
 1434 03cf 09       		.uleb128 0x9
 1435 03d0 04       		.byte	0x4
 1436 03d1 8D030000 		.4byte	0x38d
 1437 03d5 05       		.uleb128 0x5
 1438 03d6 49010000 		.4byte	.LASF55
 1439 03da 04       		.byte	0x4
 1440 03db 09       		.byte	0x9
 1441 03dc 3C       		.byte	0x3c
 1442 03dd F0030000 		.4byte	0x3f0
 1443 03e1 06       		.uleb128 0x6
 1444 03e2 68040000 		.4byte	.LASF56
 1445 03e6 09       		.byte	0x9
 1446 03e7 3D       		.byte	0x3d
 1447 03e8 CF030000 		.4byte	0x3cf
 1448 03ec 02       		.byte	0x2
 1449 03ed 23       		.byte	0x23
 1450 03ee 00       		.uleb128 0x0
 1451 03ef 00       		.byte	0x0
 1452 03f0 03       		.uleb128 0x3
 1453 03f1 49010000 		.4byte	.LASF55
 1454 03f5 09       		.byte	0x9
 1455 03f6 40       		.byte	0x40
 1456 03f7 D5030000 		.4byte	0x3d5
 1457 03fb 0E       		.uleb128 0xe
 1458 03fc 04       		.byte	0x4
 1459 03fd 06       		.byte	0x6
 1460 03fe 90       		.byte	0x90
ARM GAS  /tmp/ccrp9Byk.s 			page 27


 1461 03ff 30040000 		.4byte	0x430
 1462 0403 0F       		.uleb128 0xf
 1463 0404 10000000 		.4byte	.LASF57
 1464 0408 06       		.byte	0x6
 1465 0409 97       		.byte	0x97
 1466 040a E8000000 		.4byte	0xe8
 1467 040e 0F       		.uleb128 0xf
 1468 040f 54000000 		.4byte	.LASF58
 1469 0413 06       		.byte	0x6
 1470 0414 9E       		.byte	0x9e
 1471 0415 E8000000 		.4byte	0xe8
 1472 0419 0F       		.uleb128 0xf
 1473 041a B2040000 		.4byte	.LASF59
 1474 041e 06       		.byte	0x6
 1475 041f A5       		.byte	0xa5
 1476 0420 8E020000 		.4byte	0x28e
 1477 0424 0F       		.uleb128 0xf
 1478 0425 68030000 		.4byte	.LASF60
 1479 0429 06       		.byte	0x6
 1480 042a AC       		.byte	0xac
 1481 042b F3000000 		.4byte	0xf3
 1482 042f 00       		.byte	0x0
 1483 0430 09       		.uleb128 0x9
 1484 0431 04       		.byte	0x4
 1485 0432 36040000 		.4byte	0x436
 1486 0436 10       		.uleb128 0x10
 1487 0437 3B040000 		.4byte	0x43b
 1488 043b 04       		.uleb128 0x4
 1489 043c 01       		.byte	0x1
 1490 043d 08       		.byte	0x8
 1491 043e EB030000 		.4byte	.LASF61
 1492 0442 09       		.uleb128 0x9
 1493 0443 04       		.byte	0x4
 1494 0444 82030000 		.4byte	0x382
 1495 0448 03       		.uleb128 0x3
 1496 0449 27020000 		.4byte	.LASF62
 1497 044d 0A       		.byte	0xa
 1498 044e 37       		.byte	0x37
 1499 044f 53040000 		.4byte	0x453
 1500 0453 05       		.uleb128 0x5
 1501 0454 27020000 		.4byte	.LASF62
 1502 0458 20       		.byte	0x20
 1503 0459 0A       		.byte	0xa
 1504 045a 45       		.byte	0x45
 1505 045b C2040000 		.4byte	0x4c2
 1506 045f 06       		.uleb128 0x6
 1507 0460 83000000 		.4byte	.LASF63
 1508 0464 0A       		.byte	0xa
 1509 0465 46       		.byte	0x46
 1510 0466 56020000 		.4byte	0x256
 1511 046a 02       		.byte	0x2
 1512 046b 23       		.byte	0x23
 1513 046c 00       		.uleb128 0x0
 1514 046d 06       		.uleb128 0x6
 1515 046e 3F020000 		.4byte	.LASF64
 1516 0472 0A       		.byte	0xa
 1517 0473 47       		.byte	0x47
ARM GAS  /tmp/ccrp9Byk.s 			page 28


 1518 0474 30000000 		.4byte	0x30
 1519 0478 02       		.byte	0x2
 1520 0479 23       		.byte	0x23
 1521 047a 08       		.uleb128 0x8
 1522 047b 06       		.uleb128 0x6
 1523 047c 14010000 		.4byte	.LASF65
 1524 0480 0A       		.byte	0xa
 1525 0481 48       		.byte	0x48
 1526 0482 E5040000 		.4byte	0x4e5
 1527 0486 02       		.byte	0x2
 1528 0487 23       		.byte	0x23
 1529 0488 0C       		.uleb128 0xc
 1530 0489 06       		.uleb128 0x6
 1531 048a 5B040000 		.4byte	.LASF66
 1532 048e 0A       		.byte	0xa
 1533 048f 49       		.byte	0x49
 1534 0490 E5040000 		.4byte	0x4e5
 1535 0494 02       		.byte	0x2
 1536 0495 23       		.byte	0x23
 1537 0496 10       		.uleb128 0x10
 1538 0497 06       		.uleb128 0x6
 1539 0498 1D010000 		.4byte	.LASF67
 1540 049c 0A       		.byte	0xa
 1541 049d 4B       		.byte	0x4b
 1542 049e E5040000 		.4byte	0x4e5
 1543 04a2 02       		.byte	0x2
 1544 04a3 23       		.byte	0x23
 1545 04a4 14       		.uleb128 0x14
 1546 04a5 06       		.uleb128 0x6
 1547 04a6 F2020000 		.4byte	.LASF68
 1548 04aa 0A       		.byte	0xa
 1549 04ab 4C       		.byte	0x4c
 1550 04ac E5040000 		.4byte	0x4e5
 1551 04b0 02       		.byte	0x2
 1552 04b1 23       		.byte	0x23
 1553 04b2 18       		.uleb128 0x18
 1554 04b3 06       		.uleb128 0x6
 1555 04b4 70040000 		.4byte	.LASF69
 1556 04b8 0A       		.byte	0xa
 1557 04b9 4D       		.byte	0x4d
 1558 04ba C2040000 		.4byte	0x4c2
 1559 04be 02       		.byte	0x2
 1560 04bf 23       		.byte	0x23
 1561 04c0 1C       		.uleb128 0x1c
 1562 04c1 00       		.byte	0x0
 1563 04c2 03       		.uleb128 0x3
 1564 04c3 1D020000 		.4byte	.LASF70
 1565 04c7 0A       		.byte	0xa
 1566 04c8 3A       		.byte	0x3a
 1567 04c9 CD040000 		.4byte	0x4cd
 1568 04cd 09       		.uleb128 0x9
 1569 04ce 04       		.byte	0x4
 1570 04cf D3040000 		.4byte	0x4d3
 1571 04d3 11       		.uleb128 0x11
 1572 04d4 01       		.byte	0x1
 1573 04d5 DF040000 		.4byte	0x4df
 1574 04d9 12       		.uleb128 0x12
ARM GAS  /tmp/ccrp9Byk.s 			page 29


 1575 04da DF040000 		.4byte	0x4df
 1576 04de 00       		.byte	0x0
 1577 04df 09       		.uleb128 0x9
 1578 04e0 04       		.byte	0x4
 1579 04e1 48040000 		.4byte	0x448
 1580 04e5 09       		.uleb128 0x9
 1581 04e6 04       		.byte	0x4
 1582 04e7 49000000 		.4byte	0x49
 1583 04eb 03       		.uleb128 0x3
 1584 04ec 12020000 		.4byte	.LASF71
 1585 04f0 0A       		.byte	0xa
 1586 04f1 76       		.byte	0x76
 1587 04f2 48040000 		.4byte	0x448
 1588 04f6 03       		.uleb128 0x3
 1589 04f7 17000000 		.4byte	.LASF72
 1590 04fb 0A       		.byte	0xa
 1591 04fc E6       		.byte	0xe6
 1592 04fd 48040000 		.4byte	0x448
 1593 0501 13       		.uleb128 0x13
 1594 0502 01       		.byte	0x1
 1595 0503 30000000 		.4byte	0x30
 1596 0507 1B050000 		.4byte	0x51b
 1597 050b 12       		.uleb128 0x12
 1598 050c 8E020000 		.4byte	0x28e
 1599 0510 12       		.uleb128 0x12
 1600 0511 1B050000 		.4byte	0x51b
 1601 0515 12       		.uleb128 0x12
 1602 0516 30000000 		.4byte	0x30
 1603 051a 00       		.byte	0x0
 1604 051b 09       		.uleb128 0x9
 1605 051c 04       		.byte	0x4
 1606 051d 21050000 		.4byte	0x521
 1607 0521 10       		.uleb128 0x10
 1608 0522 49000000 		.4byte	0x49
 1609 0526 09       		.uleb128 0x9
 1610 0527 04       		.byte	0x4
 1611 0528 01050000 		.4byte	0x501
 1612 052c 13       		.uleb128 0x13
 1613 052d 01       		.byte	0x1
 1614 052e 30000000 		.4byte	0x30
 1615 0532 46050000 		.4byte	0x546
 1616 0536 12       		.uleb128 0x12
 1617 0537 8E020000 		.4byte	0x28e
 1618 053b 12       		.uleb128 0x12
 1619 053c E5040000 		.4byte	0x4e5
 1620 0540 12       		.uleb128 0x12
 1621 0541 30000000 		.4byte	0x30
 1622 0545 00       		.byte	0x0
 1623 0546 09       		.uleb128 0x9
 1624 0547 04       		.byte	0x4
 1625 0548 2C050000 		.4byte	0x52c
 1626 054c 13       		.uleb128 0x13
 1627 054d 01       		.byte	0x1
 1628 054e B1000000 		.4byte	0xb1
 1629 0552 5C050000 		.4byte	0x55c
 1630 0556 12       		.uleb128 0x12
 1631 0557 8E020000 		.4byte	0x28e
ARM GAS  /tmp/ccrp9Byk.s 			page 30


 1632 055b 00       		.byte	0x0
 1633 055c 09       		.uleb128 0x9
 1634 055d 04       		.byte	0x4
 1635 055e 4C050000 		.4byte	0x54c
 1636 0562 13       		.uleb128 0x13
 1637 0563 01       		.byte	0x1
 1638 0564 E8000000 		.4byte	0xe8
 1639 0568 7C050000 		.4byte	0x57c
 1640 056c 12       		.uleb128 0x12
 1641 056d 8E020000 		.4byte	0x28e
 1642 0571 12       		.uleb128 0x12
 1643 0572 49000000 		.4byte	0x49
 1644 0576 12       		.uleb128 0x12
 1645 0577 FE000000 		.4byte	0xfe
 1646 057b 00       		.byte	0x0
 1647 057c 09       		.uleb128 0x9
 1648 057d 04       		.byte	0x4
 1649 057e 62050000 		.4byte	0x562
 1650 0582 13       		.uleb128 0x13
 1651 0583 01       		.byte	0x1
 1652 0584 E8000000 		.4byte	0xe8
 1653 0588 97050000 		.4byte	0x597
 1654 058c 12       		.uleb128 0x12
 1655 058d 8E020000 		.4byte	0x28e
 1656 0591 12       		.uleb128 0x12
 1657 0592 FE000000 		.4byte	0xfe
 1658 0596 00       		.byte	0x0
 1659 0597 09       		.uleb128 0x9
 1660 0598 04       		.byte	0x4
 1661 0599 82050000 		.4byte	0x582
 1662 059d 13       		.uleb128 0x13
 1663 059e 01       		.byte	0x1
 1664 059f 30000000 		.4byte	0x30
 1665 05a3 BC050000 		.4byte	0x5bc
 1666 05a7 12       		.uleb128 0x12
 1667 05a8 8E020000 		.4byte	0x28e
 1668 05ac 12       		.uleb128 0x12
 1669 05ad 1B050000 		.4byte	0x51b
 1670 05b1 12       		.uleb128 0x12
 1671 05b2 30000000 		.4byte	0x30
 1672 05b6 12       		.uleb128 0x12
 1673 05b7 FE000000 		.4byte	0xfe
 1674 05bb 00       		.byte	0x0
 1675 05bc 09       		.uleb128 0x9
 1676 05bd 04       		.byte	0x4
 1677 05be 9D050000 		.4byte	0x59d
 1678 05c2 13       		.uleb128 0x13
 1679 05c3 01       		.byte	0x1
 1680 05c4 30000000 		.4byte	0x30
 1681 05c8 E1050000 		.4byte	0x5e1
 1682 05cc 12       		.uleb128 0x12
 1683 05cd 8E020000 		.4byte	0x28e
 1684 05d1 12       		.uleb128 0x12
 1685 05d2 E5040000 		.4byte	0x4e5
 1686 05d6 12       		.uleb128 0x12
 1687 05d7 30000000 		.4byte	0x30
 1688 05db 12       		.uleb128 0x12
ARM GAS  /tmp/ccrp9Byk.s 			page 31


 1689 05dc FE000000 		.4byte	0xfe
 1690 05e0 00       		.byte	0x0
 1691 05e1 09       		.uleb128 0x9
 1692 05e2 04       		.byte	0x4
 1693 05e3 C2050000 		.4byte	0x5c2
 1694 05e7 14       		.uleb128 0x14
 1695 05e8 6F020000 		.4byte	.LASF73
 1696 05ec 0B       		.byte	0xb
 1697 05ed 0B01     		.2byte	0x10b
 1698 05ef A6000000 		.4byte	0xa6
 1699 05f3 0C       		.uleb128 0xc
 1700 05f4 55010000 		.4byte	.LASF74
 1701 05f8 24       		.byte	0x24
 1702 05f9 0B       		.byte	0xb
 1703 05fa 2401     		.2byte	0x124
 1704 05fc 88060000 		.4byte	0x688
 1705 0600 15       		.uleb128 0x15
 1706 0601 34020000 		.4byte	.LASF75
 1707 0605 0B       		.byte	0xb
 1708 0606 2501     		.2byte	0x125
 1709 0608 26050000 		.4byte	0x526
 1710 060c 02       		.byte	0x2
 1711 060d 23       		.byte	0x23
 1712 060e 00       		.uleb128 0x0
 1713 060f 15       		.uleb128 0x15
 1714 0610 E6030000 		.4byte	.LASF76
 1715 0614 0B       		.byte	0xb
 1716 0615 2501     		.2byte	0x125
 1717 0617 46050000 		.4byte	0x546
 1718 061b 02       		.byte	0x2
 1719 061c 23       		.byte	0x23
 1720 061d 04       		.uleb128 0x4
 1721 061e 15       		.uleb128 0x15
 1722 061f 2D010000 		.4byte	.LASF77
 1723 0623 0B       		.byte	0xb
 1724 0624 2501     		.2byte	0x125
 1725 0626 5C050000 		.4byte	0x55c
 1726 062a 02       		.byte	0x2
 1727 062b 23       		.byte	0x23
 1728 062c 08       		.uleb128 0x8
 1729 062d 15       		.uleb128 0x15
 1730 062e B9040000 		.4byte	.LASF78
 1731 0632 0B       		.byte	0xb
 1732 0633 2501     		.2byte	0x125
 1733 0635 5C050000 		.4byte	0x55c
 1734 0639 02       		.byte	0x2
 1735 063a 23       		.byte	0x23
 1736 063b 0C       		.uleb128 0xc
 1737 063c 0B       		.uleb128 0xb
 1738 063d 70757400 		.ascii	"put\000"
 1739 0641 0B       		.byte	0xb
 1740 0642 2501     		.2byte	0x125
 1741 0644 7C050000 		.4byte	0x57c
 1742 0648 02       		.byte	0x2
 1743 0649 23       		.byte	0x23
 1744 064a 10       		.uleb128 0x10
 1745 064b 0B       		.uleb128 0xb
ARM GAS  /tmp/ccrp9Byk.s 			page 32


 1746 064c 67657400 		.ascii	"get\000"
 1747 0650 0B       		.byte	0xb
 1748 0651 2501     		.2byte	0x125
 1749 0653 97050000 		.4byte	0x597
 1750 0657 02       		.byte	0x2
 1751 0658 23       		.byte	0x23
 1752 0659 14       		.uleb128 0x14
 1753 065a 15       		.uleb128 0x15
 1754 065b F1010000 		.4byte	.LASF79
 1755 065f 0B       		.byte	0xb
 1756 0660 2501     		.2byte	0x125
 1757 0662 BC050000 		.4byte	0x5bc
 1758 0666 02       		.byte	0x2
 1759 0667 23       		.byte	0x23
 1760 0668 18       		.uleb128 0x18
 1761 0669 15       		.uleb128 0x15
 1762 066a 7D000000 		.4byte	.LASF80
 1763 066e 0B       		.byte	0xb
 1764 066f 2501     		.2byte	0x125
 1765 0671 E1050000 		.4byte	0x5e1
 1766 0675 02       		.byte	0x2
 1767 0676 23       		.byte	0x23
 1768 0677 1C       		.uleb128 0x1c
 1769 0678 15       		.uleb128 0x15
 1770 0679 66020000 		.4byte	.LASF81
 1771 067d 0B       		.byte	0xb
 1772 067e 2501     		.2byte	0x125
 1773 0680 98060000 		.4byte	0x698
 1774 0684 02       		.byte	0x2
 1775 0685 23       		.byte	0x23
 1776 0686 20       		.uleb128 0x20
 1777 0687 00       		.byte	0x0
 1778 0688 13       		.uleb128 0x13
 1779 0689 01       		.byte	0x1
 1780 068a E7050000 		.4byte	0x5e7
 1781 068e 98060000 		.4byte	0x698
 1782 0692 12       		.uleb128 0x12
 1783 0693 8E020000 		.4byte	0x28e
 1784 0697 00       		.byte	0x0
 1785 0698 09       		.uleb128 0x9
 1786 0699 04       		.byte	0x4
 1787 069a 88060000 		.4byte	0x688
 1788 069e 16       		.uleb128 0x16
 1789 069f 0C       		.byte	0xc
 1790 06a0 0B       		.byte	0xb
 1791 06a1 2F01     		.2byte	0x12f
 1792 06a3 D5060000 		.4byte	0x6d5
 1793 06a7 0B       		.uleb128 0xb
 1794 06a8 766D7400 		.ascii	"vmt\000"
 1795 06ac 0B       		.byte	0xb
 1796 06ad 3101     		.2byte	0x131
 1797 06af D5060000 		.4byte	0x6d5
 1798 06b3 02       		.byte	0x2
 1799 06b4 23       		.byte	0x23
 1800 06b5 00       		.uleb128 0x0
 1801 06b6 15       		.uleb128 0x15
 1802 06b7 C4010000 		.4byte	.LASF82
ARM GAS  /tmp/ccrp9Byk.s 			page 33


 1803 06bb 0B       		.byte	0xb
 1804 06bc 3201     		.2byte	0x132
 1805 06be F0030000 		.4byte	0x3f0
 1806 06c2 02       		.byte	0x2
 1807 06c3 23       		.byte	0x23
 1808 06c4 04       		.uleb128 0x4
 1809 06c5 15       		.uleb128 0x15
 1810 06c6 96040000 		.4byte	.LASF83
 1811 06ca 0B       		.byte	0xb
 1812 06cb 3201     		.2byte	0x132
 1813 06cd E7050000 		.4byte	0x5e7
 1814 06d1 02       		.byte	0x2
 1815 06d2 23       		.byte	0x23
 1816 06d3 08       		.uleb128 0x8
 1817 06d4 00       		.byte	0x0
 1818 06d5 09       		.uleb128 0x9
 1819 06d6 04       		.byte	0x4
 1820 06d7 DB060000 		.4byte	0x6db
 1821 06db 10       		.uleb128 0x10
 1822 06dc F3050000 		.4byte	0x5f3
 1823 06e0 14       		.uleb128 0x14
 1824 06e1 2B040000 		.4byte	.LASF84
 1825 06e5 0B       		.byte	0xb
 1826 06e6 3301     		.2byte	0x133
 1827 06e8 9E060000 		.4byte	0x69e
 1828 06ec 0D       		.uleb128 0xd
 1829 06ed 62000000 		.4byte	0x62
 1830 06f1 0D       		.uleb128 0xd
 1831 06f2 74000000 		.4byte	0x74
 1832 06f6 16       		.uleb128 0x16
 1833 06f7 1C       		.byte	0x1c
 1834 06f8 0C       		.byte	0xc
 1835 06f9 9303     		.2byte	0x393
 1836 06fb D0070000 		.4byte	0x7d0
 1837 06ff 0B       		.uleb128 0xb
 1838 0700 535200   		.ascii	"SR\000"
 1839 0703 0C       		.byte	0xc
 1840 0704 9503     		.2byte	0x395
 1841 0706 EC060000 		.4byte	0x6ec
 1842 070a 02       		.byte	0x2
 1843 070b 23       		.byte	0x23
 1844 070c 00       		.uleb128 0x0
 1845 070d 15       		.uleb128 0x15
 1846 070e A7020000 		.4byte	.LASF85
 1847 0712 0C       		.byte	0xc
 1848 0713 9603     		.2byte	0x396
 1849 0715 62000000 		.4byte	0x62
 1850 0719 02       		.byte	0x2
 1851 071a 23       		.byte	0x23
 1852 071b 02       		.uleb128 0x2
 1853 071c 0B       		.uleb128 0xb
 1854 071d 445200   		.ascii	"DR\000"
 1855 0720 0C       		.byte	0xc
 1856 0721 9703     		.2byte	0x397
 1857 0723 EC060000 		.4byte	0x6ec
 1858 0727 02       		.byte	0x2
 1859 0728 23       		.byte	0x23
ARM GAS  /tmp/ccrp9Byk.s 			page 34


 1860 0729 04       		.uleb128 0x4
 1861 072a 15       		.uleb128 0x15
 1862 072b B1020000 		.4byte	.LASF86
 1863 072f 0C       		.byte	0xc
 1864 0730 9803     		.2byte	0x398
 1865 0732 62000000 		.4byte	0x62
 1866 0736 02       		.byte	0x2
 1867 0737 23       		.byte	0x23
 1868 0738 06       		.uleb128 0x6
 1869 0739 0B       		.uleb128 0xb
 1870 073a 42525200 		.ascii	"BRR\000"
 1871 073e 0C       		.byte	0xc
 1872 073f 9903     		.2byte	0x399
 1873 0741 EC060000 		.4byte	0x6ec
 1874 0745 02       		.byte	0x2
 1875 0746 23       		.byte	0x23
 1876 0747 08       		.uleb128 0x8
 1877 0748 15       		.uleb128 0x15
 1878 0749 BB020000 		.4byte	.LASF87
 1879 074d 0C       		.byte	0xc
 1880 074e 9A03     		.2byte	0x39a
 1881 0750 62000000 		.4byte	0x62
 1882 0754 02       		.byte	0x2
 1883 0755 23       		.byte	0x23
 1884 0756 0A       		.uleb128 0xa
 1885 0757 0B       		.uleb128 0xb
 1886 0758 43523100 		.ascii	"CR1\000"
 1887 075c 0C       		.byte	0xc
 1888 075d 9B03     		.2byte	0x39b
 1889 075f EC060000 		.4byte	0x6ec
 1890 0763 02       		.byte	0x2
 1891 0764 23       		.byte	0x23
 1892 0765 0C       		.uleb128 0xc
 1893 0766 15       		.uleb128 0x15
 1894 0767 C5020000 		.4byte	.LASF88
 1895 076b 0C       		.byte	0xc
 1896 076c 9C03     		.2byte	0x39c
 1897 076e 62000000 		.4byte	0x62
 1898 0772 02       		.byte	0x2
 1899 0773 23       		.byte	0x23
 1900 0774 0E       		.uleb128 0xe
 1901 0775 0B       		.uleb128 0xb
 1902 0776 43523200 		.ascii	"CR2\000"
 1903 077a 0C       		.byte	0xc
 1904 077b 9D03     		.2byte	0x39d
 1905 077d EC060000 		.4byte	0x6ec
 1906 0781 02       		.byte	0x2
 1907 0782 23       		.byte	0x23
 1908 0783 10       		.uleb128 0x10
 1909 0784 15       		.uleb128 0x15
 1910 0785 CF020000 		.4byte	.LASF89
 1911 0789 0C       		.byte	0xc
 1912 078a 9E03     		.2byte	0x39e
 1913 078c 62000000 		.4byte	0x62
 1914 0790 02       		.byte	0x2
 1915 0791 23       		.byte	0x23
 1916 0792 12       		.uleb128 0x12
ARM GAS  /tmp/ccrp9Byk.s 			page 35


 1917 0793 0B       		.uleb128 0xb
 1918 0794 43523300 		.ascii	"CR3\000"
 1919 0798 0C       		.byte	0xc
 1920 0799 9F03     		.2byte	0x39f
 1921 079b EC060000 		.4byte	0x6ec
 1922 079f 02       		.byte	0x2
 1923 07a0 23       		.byte	0x23
 1924 07a1 14       		.uleb128 0x14
 1925 07a2 15       		.uleb128 0x15
 1926 07a3 AA030000 		.4byte	.LASF90
 1927 07a7 0C       		.byte	0xc
 1928 07a8 A003     		.2byte	0x3a0
 1929 07aa 62000000 		.4byte	0x62
 1930 07ae 02       		.byte	0x2
 1931 07af 23       		.byte	0x23
 1932 07b0 16       		.uleb128 0x16
 1933 07b1 15       		.uleb128 0x15
 1934 07b2 C5000000 		.4byte	.LASF91
 1935 07b6 0C       		.byte	0xc
 1936 07b7 A103     		.2byte	0x3a1
 1937 07b9 EC060000 		.4byte	0x6ec
 1938 07bd 02       		.byte	0x2
 1939 07be 23       		.byte	0x23
 1940 07bf 18       		.uleb128 0x18
 1941 07c0 15       		.uleb128 0x15
 1942 07c1 E0020000 		.4byte	.LASF92
 1943 07c5 0C       		.byte	0xc
 1944 07c6 A203     		.2byte	0x3a2
 1945 07c8 62000000 		.4byte	0x62
 1946 07cc 02       		.byte	0x2
 1947 07cd 23       		.byte	0x23
 1948 07ce 1A       		.uleb128 0x1a
 1949 07cf 00       		.byte	0x0
 1950 07d0 14       		.uleb128 0x14
 1951 07d1 10030000 		.4byte	.LASF93
 1952 07d5 0C       		.byte	0xc
 1953 07d6 A303     		.2byte	0x3a3
 1954 07d8 F6060000 		.4byte	0x6f6
 1955 07dc 17       		.uleb128 0x17
 1956 07dd 01       		.byte	0x1
 1957 07de 0D       		.byte	0xd
 1958 07df 64       		.byte	0x64
 1959 07e0 F7070000 		.4byte	0x7f7
 1960 07e4 18       		.uleb128 0x18
 1961 07e5 A0030000 		.4byte	.LASF94
 1962 07e9 00       		.sleb128 0
 1963 07ea 18       		.uleb128 0x18
 1964 07eb 86030000 		.4byte	.LASF95
 1965 07ef 01       		.sleb128 1
 1966 07f0 18       		.uleb128 0x18
 1967 07f1 52040000 		.4byte	.LASF96
 1968 07f5 02       		.sleb128 2
 1969 07f6 00       		.byte	0x0
 1970 07f7 03       		.uleb128 0x3
 1971 07f8 BD030000 		.4byte	.LASF97
 1972 07fc 0D       		.byte	0xd
 1973 07fd 68       		.byte	0x68
ARM GAS  /tmp/ccrp9Byk.s 			page 36


 1974 07fe DC070000 		.4byte	0x7dc
 1975 0802 03       		.uleb128 0x3
 1976 0803 C7030000 		.4byte	.LASF98
 1977 0807 0D       		.byte	0xd
 1978 0808 6D       		.byte	0x6d
 1979 0809 0D080000 		.4byte	0x80d
 1980 080d 05       		.uleb128 0x5
 1981 080e C7030000 		.4byte	.LASF98
 1982 0812 74       		.byte	0x74
 1983 0813 0D       		.byte	0xd
 1984 0814 87       		.byte	0x87
 1985 0815 96080000 		.4byte	0x896
 1986 0819 07       		.uleb128 0x7
 1987 081a 766D7400 		.ascii	"vmt\000"
 1988 081e 0D       		.byte	0xd
 1989 081f 89       		.byte	0x89
 1990 0820 6D090000 		.4byte	0x96d
 1991 0824 02       		.byte	0x2
 1992 0825 23       		.byte	0x23
 1993 0826 00       		.uleb128 0x0
 1994 0827 06       		.uleb128 0x6
 1995 0828 C4010000 		.4byte	.LASF82
 1996 082c 0D       		.byte	0xd
 1997 082d 8A       		.byte	0x8a
 1998 082e F0030000 		.4byte	0x3f0
 1999 0832 02       		.byte	0x2
 2000 0833 23       		.byte	0x23
 2001 0834 04       		.uleb128 0x4
 2002 0835 06       		.uleb128 0x6
 2003 0836 96040000 		.4byte	.LASF83
 2004 083a 0D       		.byte	0xd
 2005 083b 8A       		.byte	0x8a
 2006 083c E7050000 		.4byte	0x5e7
 2007 0840 02       		.byte	0x2
 2008 0841 23       		.byte	0x23
 2009 0842 08       		.uleb128 0x8
 2010 0843 06       		.uleb128 0x6
 2011 0844 F5000000 		.4byte	.LASF99
 2012 0848 0D       		.byte	0xd
 2013 0849 8A       		.byte	0x8a
 2014 084a F7070000 		.4byte	0x7f7
 2015 084e 02       		.byte	0x2
 2016 084f 23       		.byte	0x23
 2017 0850 0C       		.uleb128 0xc
 2018 0851 06       		.uleb128 0x6
 2019 0852 A5010000 		.4byte	.LASF100
 2020 0856 0D       		.byte	0xd
 2021 0857 8A       		.byte	0x8a
 2022 0858 EB040000 		.4byte	0x4eb
 2023 085c 02       		.byte	0x2
 2024 085d 23       		.byte	0x23
 2025 085e 10       		.uleb128 0x10
 2026 085f 06       		.uleb128 0x6
 2027 0860 E3010000 		.4byte	.LASF101
 2028 0864 0D       		.byte	0xd
 2029 0865 8A       		.byte	0x8a
 2030 0866 F6040000 		.4byte	0x4f6
ARM GAS  /tmp/ccrp9Byk.s 			page 37


 2031 086a 02       		.byte	0x2
 2032 086b 23       		.byte	0x23
 2033 086c 30       		.uleb128 0x30
 2034 086d 07       		.uleb128 0x7
 2035 086e 696200   		.ascii	"ib\000"
 2036 0871 0D       		.byte	0xd
 2037 0872 8A       		.byte	0x8a
 2038 0873 78090000 		.4byte	0x978
 2039 0877 02       		.byte	0x2
 2040 0878 23       		.byte	0x23
 2041 0879 50       		.uleb128 0x50
 2042 087a 07       		.uleb128 0x7
 2043 087b 6F6200   		.ascii	"ob\000"
 2044 087e 0D       		.byte	0xd
 2045 087f 8A       		.byte	0x8a
 2046 0880 78090000 		.4byte	0x978
 2047 0884 02       		.byte	0x2
 2048 0885 23       		.byte	0x23
 2049 0886 60       		.uleb128 0x60
 2050 0887 06       		.uleb128 0x6
 2051 0888 0C020000 		.4byte	.LASF102
 2052 088c 0D       		.byte	0xd
 2053 088d 8A       		.byte	0x8a
 2054 088e 88090000 		.4byte	0x988
 2055 0892 02       		.byte	0x2
 2056 0893 23       		.byte	0x23
 2057 0894 70       		.uleb128 0x70
 2058 0895 00       		.byte	0x0
 2059 0896 08       		.uleb128 0x8
 2060 0897 0C       		.byte	0xc
 2061 0898 0E       		.byte	0xe
 2062 0899 C4       		.byte	0xc4
 2063 089a D7080000 		.4byte	0x8d7
 2064 089e 06       		.uleb128 0x6
 2065 089f 00000000 		.4byte	.LASF103
 2066 08a3 0E       		.byte	0xe
 2067 08a4 C8       		.byte	0xc8
 2068 08a5 86000000 		.4byte	0x86
 2069 08a9 02       		.byte	0x2
 2070 08aa 23       		.byte	0x23
 2071 08ab 00       		.uleb128 0x0
 2072 08ac 06       		.uleb128 0x6
 2073 08ad C7040000 		.4byte	.LASF104
 2074 08b1 0E       		.byte	0xe
 2075 08b2 CC       		.byte	0xcc
 2076 08b3 62000000 		.4byte	0x62
 2077 08b7 02       		.byte	0x2
 2078 08b8 23       		.byte	0x23
 2079 08b9 04       		.uleb128 0x4
 2080 08ba 06       		.uleb128 0x6
 2081 08bb CE040000 		.4byte	.LASF105
 2082 08bf 0E       		.byte	0xe
 2083 08c0 D0       		.byte	0xd0
 2084 08c1 62000000 		.4byte	0x62
 2085 08c5 02       		.byte	0x2
 2086 08c6 23       		.byte	0x23
 2087 08c7 06       		.uleb128 0x6
ARM GAS  /tmp/ccrp9Byk.s 			page 38


 2088 08c8 06       		.uleb128 0x6
 2089 08c9 D5040000 		.4byte	.LASF106
 2090 08cd 0E       		.byte	0xe
 2091 08ce D4       		.byte	0xd4
 2092 08cf 62000000 		.4byte	0x62
 2093 08d3 02       		.byte	0x2
 2094 08d4 23       		.byte	0x23
 2095 08d5 08       		.uleb128 0x8
 2096 08d6 00       		.byte	0x0
 2097 08d7 03       		.uleb128 0x3
 2098 08d8 92020000 		.4byte	.LASF107
 2099 08dc 0E       		.byte	0xe
 2100 08dd D5       		.byte	0xd5
 2101 08de 96080000 		.4byte	0x896
 2102 08e2 05       		.uleb128 0x5
 2103 08e3 86010000 		.4byte	.LASF108
 2104 08e7 24       		.byte	0x24
 2105 08e8 0D       		.byte	0xd
 2106 08e9 7C       		.byte	0x7c
 2107 08ea 6D090000 		.4byte	0x96d
 2108 08ee 06       		.uleb128 0x6
 2109 08ef 34020000 		.4byte	.LASF75
 2110 08f3 0D       		.byte	0xd
 2111 08f4 7D       		.byte	0x7d
 2112 08f5 26050000 		.4byte	0x526
 2113 08f9 02       		.byte	0x2
 2114 08fa 23       		.byte	0x23
 2115 08fb 00       		.uleb128 0x0
 2116 08fc 06       		.uleb128 0x6
 2117 08fd E6030000 		.4byte	.LASF76
 2118 0901 0D       		.byte	0xd
 2119 0902 7D       		.byte	0x7d
 2120 0903 46050000 		.4byte	0x546
 2121 0907 02       		.byte	0x2
 2122 0908 23       		.byte	0x23
 2123 0909 04       		.uleb128 0x4
 2124 090a 06       		.uleb128 0x6
 2125 090b 2D010000 		.4byte	.LASF77
 2126 090f 0D       		.byte	0xd
 2127 0910 7D       		.byte	0x7d
 2128 0911 5C050000 		.4byte	0x55c
 2129 0915 02       		.byte	0x2
 2130 0916 23       		.byte	0x23
 2131 0917 08       		.uleb128 0x8
 2132 0918 06       		.uleb128 0x6
 2133 0919 B9040000 		.4byte	.LASF78
 2134 091d 0D       		.byte	0xd
 2135 091e 7D       		.byte	0x7d
 2136 091f 5C050000 		.4byte	0x55c
 2137 0923 02       		.byte	0x2
 2138 0924 23       		.byte	0x23
 2139 0925 0C       		.uleb128 0xc
 2140 0926 07       		.uleb128 0x7
 2141 0927 70757400 		.ascii	"put\000"
 2142 092b 0D       		.byte	0xd
 2143 092c 7D       		.byte	0x7d
 2144 092d 7C050000 		.4byte	0x57c
ARM GAS  /tmp/ccrp9Byk.s 			page 39


 2145 0931 02       		.byte	0x2
 2146 0932 23       		.byte	0x23
 2147 0933 10       		.uleb128 0x10
 2148 0934 07       		.uleb128 0x7
 2149 0935 67657400 		.ascii	"get\000"
 2150 0939 0D       		.byte	0xd
 2151 093a 7D       		.byte	0x7d
 2152 093b 97050000 		.4byte	0x597
 2153 093f 02       		.byte	0x2
 2154 0940 23       		.byte	0x23
 2155 0941 14       		.uleb128 0x14
 2156 0942 06       		.uleb128 0x6
 2157 0943 F1010000 		.4byte	.LASF79
 2158 0947 0D       		.byte	0xd
 2159 0948 7D       		.byte	0x7d
 2160 0949 BC050000 		.4byte	0x5bc
 2161 094d 02       		.byte	0x2
 2162 094e 23       		.byte	0x23
 2163 094f 18       		.uleb128 0x18
 2164 0950 06       		.uleb128 0x6
 2165 0951 7D000000 		.4byte	.LASF80
 2166 0955 0D       		.byte	0xd
 2167 0956 7D       		.byte	0x7d
 2168 0957 E1050000 		.4byte	0x5e1
 2169 095b 02       		.byte	0x2
 2170 095c 23       		.byte	0x23
 2171 095d 1C       		.uleb128 0x1c
 2172 095e 06       		.uleb128 0x6
 2173 095f 66020000 		.4byte	.LASF81
 2174 0963 0D       		.byte	0xd
 2175 0964 7D       		.byte	0x7d
 2176 0965 98060000 		.4byte	0x698
 2177 0969 02       		.byte	0x2
 2178 096a 23       		.byte	0x23
 2179 096b 20       		.uleb128 0x20
 2180 096c 00       		.byte	0x0
 2181 096d 09       		.uleb128 0x9
 2182 096e 04       		.byte	0x4
 2183 096f 73090000 		.4byte	0x973
 2184 0973 10       		.uleb128 0x10
 2185 0974 E2080000 		.4byte	0x8e2
 2186 0978 19       		.uleb128 0x19
 2187 0979 49000000 		.4byte	0x49
 2188 097d 88090000 		.4byte	0x988
 2189 0981 1A       		.uleb128 0x1a
 2190 0982 3B000000 		.4byte	0x3b
 2191 0986 0F       		.byte	0xf
 2192 0987 00       		.byte	0x0
 2193 0988 09       		.uleb128 0x9
 2194 0989 04       		.byte	0x4
 2195 098a D0070000 		.4byte	0x7d0
 2196 098e 1B       		.uleb128 0x1b
 2197 098f 2D010000 		.4byte	.LASF77
 2198 0993 01       		.byte	0x1
 2199 0994 4A       		.byte	0x4a
 2200 0995 01       		.byte	0x1
 2201 0996 B1000000 		.4byte	0xb1
ARM GAS  /tmp/ccrp9Byk.s 			page 40


 2202 099a 00000000 		.4byte	.LFB119
 2203 099e 0C000000 		.4byte	.LFE119
 2204 09a2 02       		.byte	0x2
 2205 09a3 7D       		.byte	0x7d
 2206 09a4 00       		.sleb128 0
 2207 09a5 B8090000 		.4byte	0x9b8
 2208 09a9 1C       		.uleb128 0x1c
 2209 09aa 697000   		.ascii	"ip\000"
 2210 09ad 01       		.byte	0x1
 2211 09ae 4A       		.byte	0x4a
 2212 09af 8E020000 		.4byte	0x28e
 2213 09b3 00000000 		.4byte	.LLST0
 2214 09b7 00       		.byte	0x0
 2215 09b8 1B       		.uleb128 0x1b
 2216 09b9 B9040000 		.4byte	.LASF78
 2217 09bd 01       		.byte	0x1
 2218 09be 4F       		.byte	0x4f
 2219 09bf 01       		.byte	0x1
 2220 09c0 B1000000 		.4byte	0xb1
 2221 09c4 00000000 		.4byte	.LFB120
 2222 09c8 0C000000 		.4byte	.LFE120
 2223 09cc 02       		.byte	0x2
 2224 09cd 7D       		.byte	0x7d
 2225 09ce 00       		.sleb128 0
 2226 09cf E2090000 		.4byte	0x9e2
 2227 09d3 1C       		.uleb128 0x1c
 2228 09d4 697000   		.ascii	"ip\000"
 2229 09d7 01       		.byte	0x1
 2230 09d8 4F       		.byte	0x4f
 2231 09d9 8E020000 		.4byte	0x28e
 2232 09dd 13000000 		.4byte	.LLST1
 2233 09e1 00       		.byte	0x0
 2234 09e2 1B       		.uleb128 0x1b
 2235 09e3 66020000 		.4byte	.LASF81
 2236 09e7 01       		.byte	0x1
 2237 09e8 68       		.byte	0x68
 2238 09e9 01       		.byte	0x1
 2239 09ea E7050000 		.4byte	0x5e7
 2240 09ee 00000000 		.4byte	.LFB125
 2241 09f2 14000000 		.4byte	.LFE125
 2242 09f6 02       		.byte	0x2
 2243 09f7 7D       		.byte	0x7d
 2244 09f8 00       		.sleb128 0
 2245 09f9 4E0A0000 		.4byte	0xa4e
 2246 09fd 1C       		.uleb128 0x1c
 2247 09fe 697000   		.ascii	"ip\000"
 2248 0a01 01       		.byte	0x1
 2249 0a02 68       		.byte	0x68
 2250 0a03 8E020000 		.4byte	0x28e
 2251 0a07 26000000 		.4byte	.LLST2
 2252 0a0b 1D       		.uleb128 0x1d
 2253 0a0c 3B010000 		.4byte	.LASF109
 2254 0a10 01       		.byte	0x1
 2255 0a11 69       		.byte	0x69
 2256 0a12 E7050000 		.4byte	0x5e7
 2257 0a16 02       		.byte	0x2
 2258 0a17 72       		.byte	0x72
ARM GAS  /tmp/ccrp9Byk.s 			page 41


 2259 0a18 08       		.sleb128 8
 2260 0a19 1E       		.uleb128 0x1e
 2261 0a1a 02000000 		.4byte	.LBB2
 2262 0a1e 08000000 		.4byte	.LBE2
 2263 0a22 360A0000 		.4byte	0xa36
 2264 0a26 1F       		.uleb128 0x1f
 2265 0a27 746D7000 		.ascii	"tmp\000"
 2266 0a2b 01       		.byte	0x1
 2267 0a2c 69       		.byte	0x69
 2268 0a2d 86000000 		.4byte	0x86
 2269 0a31 44000000 		.4byte	.LLST3
 2270 0a35 00       		.byte	0x0
 2271 0a36 20       		.uleb128 0x20
 2272 0a37 0E000000 		.4byte	.LBB3
 2273 0a3b 12000000 		.4byte	.LBE3
 2274 0a3f 21       		.uleb128 0x21
 2275 0a40 746D7000 		.ascii	"tmp\000"
 2276 0a44 01       		.byte	0x1
 2277 0a45 69       		.byte	0x69
 2278 0a46 86000000 		.4byte	0x86
 2279 0a4a 01       		.byte	0x1
 2280 0a4b 53       		.byte	0x53
 2281 0a4c 00       		.byte	0x0
 2282 0a4d 00       		.byte	0x0
 2283 0a4e 1B       		.uleb128 0x1b
 2284 0a4f 7D000000 		.4byte	.LASF80
 2285 0a53 01       		.byte	0x1
 2286 0a54 63       		.byte	0x63
 2287 0a55 01       		.byte	0x1
 2288 0a56 30000000 		.4byte	0x30
 2289 0a5a 00000000 		.4byte	.LFB124
 2290 0a5e 06000000 		.4byte	.LFE124
 2291 0a62 02       		.byte	0x2
 2292 0a63 7D       		.byte	0x7d
 2293 0a64 00       		.sleb128 0
 2294 0a65 9C0A0000 		.4byte	0xa9c
 2295 0a69 1C       		.uleb128 0x1c
 2296 0a6a 697000   		.ascii	"ip\000"
 2297 0a6d 01       		.byte	0x1
 2298 0a6e 63       		.byte	0x63
 2299 0a6f 8E020000 		.4byte	0x28e
 2300 0a73 57000000 		.4byte	.LLST4
 2301 0a77 22       		.uleb128 0x22
 2302 0a78 627000   		.ascii	"bp\000"
 2303 0a7b 01       		.byte	0x1
 2304 0a7c 63       		.byte	0x63
 2305 0a7d E5040000 		.4byte	0x4e5
 2306 0a81 01       		.byte	0x1
 2307 0a82 51       		.byte	0x51
 2308 0a83 22       		.uleb128 0x22
 2309 0a84 6E00     		.ascii	"n\000"
 2310 0a86 01       		.byte	0x1
 2311 0a87 63       		.byte	0x63
 2312 0a88 30000000 		.4byte	0x30
 2313 0a8c 01       		.byte	0x1
 2314 0a8d 52       		.byte	0x52
 2315 0a8e 23       		.uleb128 0x23
ARM GAS  /tmp/ccrp9Byk.s 			page 42


 2316 0a8f 8D020000 		.4byte	.LASF110
 2317 0a93 01       		.byte	0x1
 2318 0a94 63       		.byte	0x63
 2319 0a95 FE000000 		.4byte	0xfe
 2320 0a99 01       		.byte	0x1
 2321 0a9a 53       		.byte	0x53
 2322 0a9b 00       		.byte	0x0
 2323 0a9c 1B       		.uleb128 0x1b
 2324 0a9d 77000000 		.4byte	.LASF111
 2325 0aa1 01       		.byte	0x1
 2326 0aa2 44       		.byte	0x44
 2327 0aa3 01       		.byte	0x1
 2328 0aa4 30000000 		.4byte	0x30
 2329 0aa8 00000000 		.4byte	.LFB118
 2330 0aac 0A000000 		.4byte	.LFE118
 2331 0ab0 02       		.byte	0x2
 2332 0ab1 7D       		.byte	0x7d
 2333 0ab2 00       		.sleb128 0
 2334 0ab3 DD0A0000 		.4byte	0xadd
 2335 0ab7 1C       		.uleb128 0x1c
 2336 0ab8 697000   		.ascii	"ip\000"
 2337 0abb 01       		.byte	0x1
 2338 0abc 44       		.byte	0x44
 2339 0abd 8E020000 		.4byte	0x28e
 2340 0ac1 77000000 		.4byte	.LLST5
 2341 0ac5 22       		.uleb128 0x22
 2342 0ac6 627000   		.ascii	"bp\000"
 2343 0ac9 01       		.byte	0x1
 2344 0aca 44       		.byte	0x44
 2345 0acb E5040000 		.4byte	0x4e5
 2346 0acf 01       		.byte	0x1
 2347 0ad0 51       		.byte	0x51
 2348 0ad1 22       		.uleb128 0x22
 2349 0ad2 6E00     		.ascii	"n\000"
 2350 0ad4 01       		.byte	0x1
 2351 0ad5 44       		.byte	0x44
 2352 0ad6 30000000 		.4byte	0x30
 2353 0ada 01       		.byte	0x1
 2354 0adb 52       		.byte	0x52
 2355 0adc 00       		.byte	0x0
 2356 0add 1B       		.uleb128 0x1b
 2357 0ade F1010000 		.4byte	.LASF79
 2358 0ae2 01       		.byte	0x1
 2359 0ae3 5E       		.byte	0x5e
 2360 0ae4 01       		.byte	0x1
 2361 0ae5 30000000 		.4byte	0x30
 2362 0ae9 00000000 		.4byte	.LFB123
 2363 0aed 06000000 		.4byte	.LFE123
 2364 0af1 02       		.byte	0x2
 2365 0af2 7D       		.byte	0x7d
 2366 0af3 00       		.sleb128 0
 2367 0af4 2B0B0000 		.4byte	0xb2b
 2368 0af8 1C       		.uleb128 0x1c
 2369 0af9 697000   		.ascii	"ip\000"
 2370 0afc 01       		.byte	0x1
 2371 0afd 5E       		.byte	0x5e
 2372 0afe 8E020000 		.4byte	0x28e
ARM GAS  /tmp/ccrp9Byk.s 			page 43


 2373 0b02 97000000 		.4byte	.LLST6
 2374 0b06 22       		.uleb128 0x22
 2375 0b07 627000   		.ascii	"bp\000"
 2376 0b0a 01       		.byte	0x1
 2377 0b0b 5E       		.byte	0x5e
 2378 0b0c 1B050000 		.4byte	0x51b
 2379 0b10 01       		.byte	0x1
 2380 0b11 51       		.byte	0x51
 2381 0b12 22       		.uleb128 0x22
 2382 0b13 6E00     		.ascii	"n\000"
 2383 0b15 01       		.byte	0x1
 2384 0b16 5E       		.byte	0x5e
 2385 0b17 30000000 		.4byte	0x30
 2386 0b1b 01       		.byte	0x1
 2387 0b1c 52       		.byte	0x52
 2388 0b1d 23       		.uleb128 0x23
 2389 0b1e 8D020000 		.4byte	.LASF110
 2390 0b22 01       		.byte	0x1
 2391 0b23 5E       		.byte	0x5e
 2392 0b24 FE000000 		.4byte	0xfe
 2393 0b28 01       		.byte	0x1
 2394 0b29 53       		.byte	0x53
 2395 0b2a 00       		.byte	0x0
 2396 0b2b 1B       		.uleb128 0x1b
 2397 0b2c EA010000 		.4byte	.LASF112
 2398 0b30 01       		.byte	0x1
 2399 0b31 3E       		.byte	0x3e
 2400 0b32 01       		.byte	0x1
 2401 0b33 30000000 		.4byte	0x30
 2402 0b37 00000000 		.4byte	.LFB117
 2403 0b3b 0A000000 		.4byte	.LFE117
 2404 0b3f 02       		.byte	0x2
 2405 0b40 7D       		.byte	0x7d
 2406 0b41 00       		.sleb128 0
 2407 0b42 6C0B0000 		.4byte	0xb6c
 2408 0b46 1C       		.uleb128 0x1c
 2409 0b47 697000   		.ascii	"ip\000"
 2410 0b4a 01       		.byte	0x1
 2411 0b4b 3E       		.byte	0x3e
 2412 0b4c 8E020000 		.4byte	0x28e
 2413 0b50 B7000000 		.4byte	.LLST7
 2414 0b54 22       		.uleb128 0x22
 2415 0b55 627000   		.ascii	"bp\000"
 2416 0b58 01       		.byte	0x1
 2417 0b59 3E       		.byte	0x3e
 2418 0b5a 1B050000 		.4byte	0x51b
 2419 0b5e 01       		.byte	0x1
 2420 0b5f 51       		.byte	0x51
 2421 0b60 22       		.uleb128 0x22
 2422 0b61 6E00     		.ascii	"n\000"
 2423 0b63 01       		.byte	0x1
 2424 0b64 3E       		.byte	0x3e
 2425 0b65 30000000 		.4byte	0x30
 2426 0b69 01       		.byte	0x1
 2427 0b6a 52       		.byte	0x52
 2428 0b6b 00       		.byte	0x0
 2429 0b6c 1B       		.uleb128 0x1b
ARM GAS  /tmp/ccrp9Byk.s 			page 44


 2430 0b6d BF010000 		.4byte	.LASF113
 2431 0b71 01       		.byte	0x1
 2432 0b72 59       		.byte	0x59
 2433 0b73 01       		.byte	0x1
 2434 0b74 E8000000 		.4byte	0xe8
 2435 0b78 00000000 		.4byte	.LFB122
 2436 0b7c 06000000 		.4byte	.LFE122
 2437 0b80 02       		.byte	0x2
 2438 0b81 7D       		.byte	0x7d
 2439 0b82 00       		.sleb128 0
 2440 0b83 A30B0000 		.4byte	0xba3
 2441 0b87 1C       		.uleb128 0x1c
 2442 0b88 697000   		.ascii	"ip\000"
 2443 0b8b 01       		.byte	0x1
 2444 0b8c 59       		.byte	0x59
 2445 0b8d 8E020000 		.4byte	0x28e
 2446 0b91 D7000000 		.4byte	.LLST8
 2447 0b95 23       		.uleb128 0x23
 2448 0b96 B7010000 		.4byte	.LASF114
 2449 0b9a 01       		.byte	0x1
 2450 0b9b 59       		.byte	0x59
 2451 0b9c FE000000 		.4byte	0xfe
 2452 0ba0 01       		.byte	0x1
 2453 0ba1 51       		.byte	0x51
 2454 0ba2 00       		.byte	0x0
 2455 0ba3 1B       		.uleb128 0x1b
 2456 0ba4 3A020000 		.4byte	.LASF115
 2457 0ba8 01       		.byte	0x1
 2458 0ba9 54       		.byte	0x54
 2459 0baa 01       		.byte	0x1
 2460 0bab E8000000 		.4byte	0xe8
 2461 0baf 00000000 		.4byte	.LFB121
 2462 0bb3 06000000 		.4byte	.LFE121
 2463 0bb7 02       		.byte	0x2
 2464 0bb8 7D       		.byte	0x7d
 2465 0bb9 00       		.sleb128 0
 2466 0bba E50B0000 		.4byte	0xbe5
 2467 0bbe 1C       		.uleb128 0x1c
 2468 0bbf 697000   		.ascii	"ip\000"
 2469 0bc2 01       		.byte	0x1
 2470 0bc3 54       		.byte	0x54
 2471 0bc4 8E020000 		.4byte	0x28e
 2472 0bc8 F7000000 		.4byte	.LLST9
 2473 0bcc 22       		.uleb128 0x22
 2474 0bcd 6200     		.ascii	"b\000"
 2475 0bcf 01       		.byte	0x1
 2476 0bd0 54       		.byte	0x54
 2477 0bd1 49000000 		.4byte	0x49
 2478 0bd5 01       		.byte	0x1
 2479 0bd6 51       		.byte	0x51
 2480 0bd7 23       		.uleb128 0x23
 2481 0bd8 B7010000 		.4byte	.LASF114
 2482 0bdc 01       		.byte	0x1
 2483 0bdd 54       		.byte	0x54
 2484 0bde FE000000 		.4byte	0xfe
 2485 0be2 01       		.byte	0x1
 2486 0be3 52       		.byte	0x52
ARM GAS  /tmp/ccrp9Byk.s 			page 45


 2487 0be4 00       		.byte	0x0
 2488 0be5 24       		.uleb128 0x24
 2489 0be6 01       		.byte	0x1
 2490 0be7 DC040000 		.4byte	.LASF127
 2491 0beb 01       		.byte	0x1
 2492 0bec 7D       		.byte	0x7d
 2493 0bed 01       		.byte	0x1
 2494 0bee 00000000 		.4byte	.LFB126
 2495 0bf2 04000000 		.4byte	.LFE126
 2496 0bf6 02       		.byte	0x2
 2497 0bf7 7D       		.byte	0x7d
 2498 0bf8 00       		.sleb128 0
 2499 0bf9 25       		.uleb128 0x25
 2500 0bfa 01       		.byte	0x1
 2501 0bfb 6A000000 		.4byte	.LASF118
 2502 0bff 01       		.byte	0x1
 2503 0c00 91       		.byte	0x91
 2504 0c01 01       		.byte	0x1
 2505 0c02 00000000 		.4byte	.LFB127
 2506 0c06 40000000 		.4byte	.LFE127
 2507 0c0a 17010000 		.4byte	.LLST10
 2508 0c0e 400C0000 		.4byte	0xc40
 2509 0c12 1C       		.uleb128 0x1c
 2510 0c13 73647000 		.ascii	"sdp\000"
 2511 0c17 01       		.byte	0x1
 2512 0c18 91       		.byte	0x91
 2513 0c19 400C0000 		.4byte	0xc40
 2514 0c1d 37010000 		.4byte	.LLST11
 2515 0c21 26       		.uleb128 0x26
 2516 0c22 9D010000 		.4byte	.LASF116
 2517 0c26 01       		.byte	0x1
 2518 0c27 91       		.byte	0x91
 2519 0c28 C2040000 		.4byte	0x4c2
 2520 0c2c 55010000 		.4byte	.LLST12
 2521 0c30 26       		.uleb128 0x26
 2522 0c31 9C040000 		.4byte	.LASF117
 2523 0c35 01       		.byte	0x1
 2524 0c36 91       		.byte	0x91
 2525 0c37 C2040000 		.4byte	0x4c2
 2526 0c3b 73010000 		.4byte	.LLST13
 2527 0c3f 00       		.byte	0x0
 2528 0c40 09       		.uleb128 0x9
 2529 0c41 04       		.byte	0x4
 2530 0c42 02080000 		.4byte	0x802
 2531 0c46 25       		.uleb128 0x25
 2532 0c47 01       		.byte	0x1
 2533 0c48 07040000 		.4byte	.LASF119
 2534 0c4c 01       		.byte	0x1
 2535 0c4d A5       		.byte	0xa5
 2536 0c4e 01       		.byte	0x1
 2537 0c4f 00000000 		.4byte	.LFB128
 2538 0c53 1A000000 		.4byte	.LFE128
 2539 0c57 91010000 		.4byte	.LLST14
 2540 0c5b B00C0000 		.4byte	0xcb0
 2541 0c5f 1C       		.uleb128 0x1c
 2542 0c60 73647000 		.ascii	"sdp\000"
 2543 0c64 01       		.byte	0x1
ARM GAS  /tmp/ccrp9Byk.s 			page 46


 2544 0c65 A5       		.byte	0xa5
 2545 0c66 400C0000 		.4byte	0xc40
 2546 0c6a B1010000 		.4byte	.LLST15
 2547 0c6e 26       		.uleb128 0x26
 2548 0c6f 00040000 		.4byte	.LASF120
 2549 0c73 01       		.byte	0x1
 2550 0c74 A5       		.byte	0xa5
 2551 0c75 B00C0000 		.4byte	0xcb0
 2552 0c79 CF010000 		.4byte	.LLST16
 2553 0c7d 27       		.uleb128 0x27
 2554 0c7e 00000000 		.4byte	.Ldebug_ranges0+0x0
 2555 0c82 960C0000 		.4byte	0xc96
 2556 0c86 1F       		.uleb128 0x1f
 2557 0c87 746D7000 		.ascii	"tmp\000"
 2558 0c8b 01       		.byte	0x1
 2559 0c8c A9       		.byte	0xa9
 2560 0c8d 86000000 		.4byte	0x86
 2561 0c91 E2010000 		.4byte	.LLST17
 2562 0c95 00       		.byte	0x0
 2563 0c96 20       		.uleb128 0x20
 2564 0c97 12000000 		.4byte	.LBB6
 2565 0c9b 18000000 		.4byte	.LBE6
 2566 0c9f 1F       		.uleb128 0x1f
 2567 0ca0 746D7000 		.ascii	"tmp\000"
 2568 0ca4 01       		.byte	0x1
 2569 0ca5 AF       		.byte	0xaf
 2570 0ca6 86000000 		.4byte	0x86
 2571 0caa F5010000 		.4byte	.LLST18
 2572 0cae 00       		.byte	0x0
 2573 0caf 00       		.byte	0x0
 2574 0cb0 09       		.uleb128 0x9
 2575 0cb1 04       		.byte	0x4
 2576 0cb2 B60C0000 		.4byte	0xcb6
 2577 0cb6 10       		.uleb128 0x10
 2578 0cb7 D7080000 		.4byte	0x8d7
 2579 0cbb 25       		.uleb128 0x25
 2580 0cbc 01       		.byte	0x1
 2581 0cbd 86020000 		.4byte	.LASF121
 2582 0cc1 01       		.byte	0x1
 2583 0cc2 BB       		.byte	0xbb
 2584 0cc3 01       		.byte	0x1
 2585 0cc4 00000000 		.4byte	.LFB129
 2586 0cc8 2E000000 		.4byte	.LFE129
 2587 0ccc 08020000 		.4byte	.LLST19
 2588 0cd0 160D0000 		.4byte	0xd16
 2589 0cd4 1C       		.uleb128 0x1c
 2590 0cd5 73647000 		.ascii	"sdp\000"
 2591 0cd9 01       		.byte	0x1
 2592 0cda BB       		.byte	0xbb
 2593 0cdb 400C0000 		.4byte	0xc40
 2594 0cdf 28020000 		.4byte	.LLST20
 2595 0ce3 27       		.uleb128 0x27
 2596 0ce4 18000000 		.4byte	.Ldebug_ranges0+0x18
 2597 0ce8 FC0C0000 		.4byte	0xcfc
 2598 0cec 1F       		.uleb128 0x1f
 2599 0ced 746D7000 		.ascii	"tmp\000"
 2600 0cf1 01       		.byte	0x1
ARM GAS  /tmp/ccrp9Byk.s 			page 47


 2601 0cf2 BF       		.byte	0xbf
 2602 0cf3 86000000 		.4byte	0x86
 2603 0cf7 46020000 		.4byte	.LLST21
 2604 0cfb 00       		.byte	0x0
 2605 0cfc 20       		.uleb128 0x20
 2606 0cfd 26000000 		.4byte	.LBB9
 2607 0d01 2C000000 		.4byte	.LBE9
 2608 0d05 1F       		.uleb128 0x1f
 2609 0d06 746D7000 		.ascii	"tmp\000"
 2610 0d0a 01       		.byte	0x1
 2611 0d0b C8       		.byte	0xc8
 2612 0d0c 86000000 		.4byte	0x86
 2613 0d10 59020000 		.4byte	.LLST22
 2614 0d14 00       		.byte	0x0
 2615 0d15 00       		.byte	0x0
 2616 0d16 25       		.uleb128 0x25
 2617 0d17 01       		.byte	0x1
 2618 0d18 F0030000 		.4byte	.LASF122
 2619 0d1c 01       		.byte	0x1
 2620 0d1d DB       		.byte	0xdb
 2621 0d1e 01       		.byte	0x1
 2622 0d1f 00000000 		.4byte	.LFB130
 2623 0d23 4A000000 		.4byte	.LFE130
 2624 0d27 6C020000 		.4byte	.LLST23
 2625 0d2b 4C0D0000 		.4byte	0xd4c
 2626 0d2f 1C       		.uleb128 0x1c
 2627 0d30 73647000 		.ascii	"sdp\000"
 2628 0d34 01       		.byte	0x1
 2629 0d35 DB       		.byte	0xdb
 2630 0d36 400C0000 		.4byte	0xc40
 2631 0d3a 8C020000 		.4byte	.LLST24
 2632 0d3e 1C       		.uleb128 0x1c
 2633 0d3f 6200     		.ascii	"b\000"
 2634 0d41 01       		.byte	0x1
 2635 0d42 DB       		.byte	0xdb
 2636 0d43 49000000 		.4byte	0x49
 2637 0d47 AA020000 		.4byte	.LLST25
 2638 0d4b 00       		.byte	0x0
 2639 0d4c 28       		.uleb128 0x28
 2640 0d4d 01       		.byte	0x1
 2641 0d4e 7F040000 		.4byte	.LASF128
 2642 0d52 01       		.byte	0x1
 2643 0d53 F5       		.byte	0xf5
 2644 0d54 01       		.byte	0x1
 2645 0d55 E8000000 		.4byte	0xe8
 2646 0d59 00000000 		.4byte	.LFB131
 2647 0d5d 26000000 		.4byte	.LFE131
 2648 0d61 BD020000 		.4byte	.LLST26
 2649 0d65 860D0000 		.4byte	0xd86
 2650 0d69 1C       		.uleb128 0x1c
 2651 0d6a 73647000 		.ascii	"sdp\000"
 2652 0d6e 01       		.byte	0x1
 2653 0d6f F5       		.byte	0xf5
 2654 0d70 400C0000 		.4byte	0xc40
 2655 0d74 DD020000 		.4byte	.LLST27
 2656 0d78 1F       		.uleb128 0x1f
 2657 0d79 6200     		.ascii	"b\000"
ARM GAS  /tmp/ccrp9Byk.s 			page 48


 2658 0d7b 01       		.byte	0x1
 2659 0d7c F6       		.byte	0xf6
 2660 0d7d E8000000 		.4byte	0xe8
 2661 0d81 FB020000 		.4byte	.LLST28
 2662 0d85 00       		.byte	0x0
 2663 0d86 29       		.uleb128 0x29
 2664 0d87 5D000000 		.4byte	.LASF123
 2665 0d8b 0F       		.byte	0xf
 2666 0d8c 1A05     		.2byte	0x51a
 2667 0d8e F1060000 		.4byte	0x6f1
 2668 0d92 01       		.byte	0x1
 2669 0d93 01       		.byte	0x1
 2670 0d94 21       		.uleb128 0x21
 2671 0d95 766D7400 		.ascii	"vmt\000"
 2672 0d99 01       		.byte	0x1
 2673 0d9a 6C       		.byte	0x6c
 2674 0d9b 73090000 		.4byte	0x973
 2675 0d9f 05       		.byte	0x5
 2676 0da0 03       		.byte	0x3
 2677 0da1 00000000 		.4byte	vmt
 2678 0da5 29       		.uleb128 0x29
 2679 0da6 5D000000 		.4byte	.LASF123
 2680 0daa 0F       		.byte	0xf
 2681 0dab 1A05     		.2byte	0x51a
 2682 0dad F1060000 		.4byte	0x6f1
 2683 0db1 01       		.byte	0x1
 2684 0db2 01       		.byte	0x1
 2685 0db3 00       		.byte	0x0
 2686              		.section	.debug_abbrev
 2687 0000 01       		.uleb128 0x1
 2688 0001 11       		.uleb128 0x11
 2689 0002 01       		.byte	0x1
 2690 0003 25       		.uleb128 0x25
 2691 0004 0E       		.uleb128 0xe
 2692 0005 13       		.uleb128 0x13
 2693 0006 0B       		.uleb128 0xb
 2694 0007 03       		.uleb128 0x3
 2695 0008 0E       		.uleb128 0xe
 2696 0009 1B       		.uleb128 0x1b
 2697 000a 0E       		.uleb128 0xe
 2698 000b 11       		.uleb128 0x11
 2699 000c 01       		.uleb128 0x1
 2700 000d 52       		.uleb128 0x52
 2701 000e 01       		.uleb128 0x1
 2702 000f 55       		.uleb128 0x55
 2703 0010 06       		.uleb128 0x6
 2704 0011 10       		.uleb128 0x10
 2705 0012 06       		.uleb128 0x6
 2706 0013 00       		.byte	0x0
 2707 0014 00       		.byte	0x0
 2708 0015 02       		.uleb128 0x2
 2709 0016 24       		.uleb128 0x24
 2710 0017 00       		.byte	0x0
 2711 0018 0B       		.uleb128 0xb
 2712 0019 0B       		.uleb128 0xb
 2713 001a 3E       		.uleb128 0x3e
 2714 001b 0B       		.uleb128 0xb
ARM GAS  /tmp/ccrp9Byk.s 			page 49


 2715 001c 03       		.uleb128 0x3
 2716 001d 08       		.uleb128 0x8
 2717 001e 00       		.byte	0x0
 2718 001f 00       		.byte	0x0
 2719 0020 03       		.uleb128 0x3
 2720 0021 16       		.uleb128 0x16
 2721 0022 00       		.byte	0x0
 2722 0023 03       		.uleb128 0x3
 2723 0024 0E       		.uleb128 0xe
 2724 0025 3A       		.uleb128 0x3a
 2725 0026 0B       		.uleb128 0xb
 2726 0027 3B       		.uleb128 0x3b
 2727 0028 0B       		.uleb128 0xb
 2728 0029 49       		.uleb128 0x49
 2729 002a 13       		.uleb128 0x13
 2730 002b 00       		.byte	0x0
 2731 002c 00       		.byte	0x0
 2732 002d 04       		.uleb128 0x4
 2733 002e 24       		.uleb128 0x24
 2734 002f 00       		.byte	0x0
 2735 0030 0B       		.uleb128 0xb
 2736 0031 0B       		.uleb128 0xb
 2737 0032 3E       		.uleb128 0x3e
 2738 0033 0B       		.uleb128 0xb
 2739 0034 03       		.uleb128 0x3
 2740 0035 0E       		.uleb128 0xe
 2741 0036 00       		.byte	0x0
 2742 0037 00       		.byte	0x0
 2743 0038 05       		.uleb128 0x5
 2744 0039 13       		.uleb128 0x13
 2745 003a 01       		.byte	0x1
 2746 003b 03       		.uleb128 0x3
 2747 003c 0E       		.uleb128 0xe
 2748 003d 0B       		.uleb128 0xb
 2749 003e 0B       		.uleb128 0xb
 2750 003f 3A       		.uleb128 0x3a
 2751 0040 0B       		.uleb128 0xb
 2752 0041 3B       		.uleb128 0x3b
 2753 0042 0B       		.uleb128 0xb
 2754 0043 01       		.uleb128 0x1
 2755 0044 13       		.uleb128 0x13
 2756 0045 00       		.byte	0x0
 2757 0046 00       		.byte	0x0
 2758 0047 06       		.uleb128 0x6
 2759 0048 0D       		.uleb128 0xd
 2760 0049 00       		.byte	0x0
 2761 004a 03       		.uleb128 0x3
 2762 004b 0E       		.uleb128 0xe
 2763 004c 3A       		.uleb128 0x3a
 2764 004d 0B       		.uleb128 0xb
 2765 004e 3B       		.uleb128 0x3b
 2766 004f 0B       		.uleb128 0xb
 2767 0050 49       		.uleb128 0x49
 2768 0051 13       		.uleb128 0x13
 2769 0052 38       		.uleb128 0x38
 2770 0053 0A       		.uleb128 0xa
 2771 0054 00       		.byte	0x0
ARM GAS  /tmp/ccrp9Byk.s 			page 50


 2772 0055 00       		.byte	0x0
 2773 0056 07       		.uleb128 0x7
 2774 0057 0D       		.uleb128 0xd
 2775 0058 00       		.byte	0x0
 2776 0059 03       		.uleb128 0x3
 2777 005a 08       		.uleb128 0x8
 2778 005b 3A       		.uleb128 0x3a
 2779 005c 0B       		.uleb128 0xb
 2780 005d 3B       		.uleb128 0x3b
 2781 005e 0B       		.uleb128 0xb
 2782 005f 49       		.uleb128 0x49
 2783 0060 13       		.uleb128 0x13
 2784 0061 38       		.uleb128 0x38
 2785 0062 0A       		.uleb128 0xa
 2786 0063 00       		.byte	0x0
 2787 0064 00       		.byte	0x0
 2788 0065 08       		.uleb128 0x8
 2789 0066 13       		.uleb128 0x13
 2790 0067 01       		.byte	0x1
 2791 0068 0B       		.uleb128 0xb
 2792 0069 0B       		.uleb128 0xb
 2793 006a 3A       		.uleb128 0x3a
 2794 006b 0B       		.uleb128 0xb
 2795 006c 3B       		.uleb128 0x3b
 2796 006d 0B       		.uleb128 0xb
 2797 006e 01       		.uleb128 0x1
 2798 006f 13       		.uleb128 0x13
 2799 0070 00       		.byte	0x0
 2800 0071 00       		.byte	0x0
 2801 0072 09       		.uleb128 0x9
 2802 0073 0F       		.uleb128 0xf
 2803 0074 00       		.byte	0x0
 2804 0075 0B       		.uleb128 0xb
 2805 0076 0B       		.uleb128 0xb
 2806 0077 49       		.uleb128 0x49
 2807 0078 13       		.uleb128 0x13
 2808 0079 00       		.byte	0x0
 2809 007a 00       		.byte	0x0
 2810 007b 0A       		.uleb128 0xa
 2811 007c 0F       		.uleb128 0xf
 2812 007d 00       		.byte	0x0
 2813 007e 0B       		.uleb128 0xb
 2814 007f 0B       		.uleb128 0xb
 2815 0080 00       		.byte	0x0
 2816 0081 00       		.byte	0x0
 2817 0082 0B       		.uleb128 0xb
 2818 0083 0D       		.uleb128 0xd
 2819 0084 00       		.byte	0x0
 2820 0085 03       		.uleb128 0x3
 2821 0086 08       		.uleb128 0x8
 2822 0087 3A       		.uleb128 0x3a
 2823 0088 0B       		.uleb128 0xb
 2824 0089 3B       		.uleb128 0x3b
 2825 008a 05       		.uleb128 0x5
 2826 008b 49       		.uleb128 0x49
 2827 008c 13       		.uleb128 0x13
 2828 008d 38       		.uleb128 0x38
ARM GAS  /tmp/ccrp9Byk.s 			page 51


 2829 008e 0A       		.uleb128 0xa
 2830 008f 00       		.byte	0x0
 2831 0090 00       		.byte	0x0
 2832 0091 0C       		.uleb128 0xc
 2833 0092 13       		.uleb128 0x13
 2834 0093 01       		.byte	0x1
 2835 0094 03       		.uleb128 0x3
 2836 0095 0E       		.uleb128 0xe
 2837 0096 0B       		.uleb128 0xb
 2838 0097 0B       		.uleb128 0xb
 2839 0098 3A       		.uleb128 0x3a
 2840 0099 0B       		.uleb128 0xb
 2841 009a 3B       		.uleb128 0x3b
 2842 009b 05       		.uleb128 0x5
 2843 009c 01       		.uleb128 0x1
 2844 009d 13       		.uleb128 0x13
 2845 009e 00       		.byte	0x0
 2846 009f 00       		.byte	0x0
 2847 00a0 0D       		.uleb128 0xd
 2848 00a1 35       		.uleb128 0x35
 2849 00a2 00       		.byte	0x0
 2850 00a3 49       		.uleb128 0x49
 2851 00a4 13       		.uleb128 0x13
 2852 00a5 00       		.byte	0x0
 2853 00a6 00       		.byte	0x0
 2854 00a7 0E       		.uleb128 0xe
 2855 00a8 17       		.uleb128 0x17
 2856 00a9 01       		.byte	0x1
 2857 00aa 0B       		.uleb128 0xb
 2858 00ab 0B       		.uleb128 0xb
 2859 00ac 3A       		.uleb128 0x3a
 2860 00ad 0B       		.uleb128 0xb
 2861 00ae 3B       		.uleb128 0x3b
 2862 00af 0B       		.uleb128 0xb
 2863 00b0 01       		.uleb128 0x1
 2864 00b1 13       		.uleb128 0x13
 2865 00b2 00       		.byte	0x0
 2866 00b3 00       		.byte	0x0
 2867 00b4 0F       		.uleb128 0xf
 2868 00b5 0D       		.uleb128 0xd
 2869 00b6 00       		.byte	0x0
 2870 00b7 03       		.uleb128 0x3
 2871 00b8 0E       		.uleb128 0xe
 2872 00b9 3A       		.uleb128 0x3a
 2873 00ba 0B       		.uleb128 0xb
 2874 00bb 3B       		.uleb128 0x3b
 2875 00bc 0B       		.uleb128 0xb
 2876 00bd 49       		.uleb128 0x49
 2877 00be 13       		.uleb128 0x13
 2878 00bf 00       		.byte	0x0
 2879 00c0 00       		.byte	0x0
 2880 00c1 10       		.uleb128 0x10
 2881 00c2 26       		.uleb128 0x26
 2882 00c3 00       		.byte	0x0
 2883 00c4 49       		.uleb128 0x49
 2884 00c5 13       		.uleb128 0x13
 2885 00c6 00       		.byte	0x0
ARM GAS  /tmp/ccrp9Byk.s 			page 52


 2886 00c7 00       		.byte	0x0
 2887 00c8 11       		.uleb128 0x11
 2888 00c9 15       		.uleb128 0x15
 2889 00ca 01       		.byte	0x1
 2890 00cb 27       		.uleb128 0x27
 2891 00cc 0C       		.uleb128 0xc
 2892 00cd 01       		.uleb128 0x1
 2893 00ce 13       		.uleb128 0x13
 2894 00cf 00       		.byte	0x0
 2895 00d0 00       		.byte	0x0
 2896 00d1 12       		.uleb128 0x12
 2897 00d2 05       		.uleb128 0x5
 2898 00d3 00       		.byte	0x0
 2899 00d4 49       		.uleb128 0x49
 2900 00d5 13       		.uleb128 0x13
 2901 00d6 00       		.byte	0x0
 2902 00d7 00       		.byte	0x0
 2903 00d8 13       		.uleb128 0x13
 2904 00d9 15       		.uleb128 0x15
 2905 00da 01       		.byte	0x1
 2906 00db 27       		.uleb128 0x27
 2907 00dc 0C       		.uleb128 0xc
 2908 00dd 49       		.uleb128 0x49
 2909 00de 13       		.uleb128 0x13
 2910 00df 01       		.uleb128 0x1
 2911 00e0 13       		.uleb128 0x13
 2912 00e1 00       		.byte	0x0
 2913 00e2 00       		.byte	0x0
 2914 00e3 14       		.uleb128 0x14
 2915 00e4 16       		.uleb128 0x16
 2916 00e5 00       		.byte	0x0
 2917 00e6 03       		.uleb128 0x3
 2918 00e7 0E       		.uleb128 0xe
 2919 00e8 3A       		.uleb128 0x3a
 2920 00e9 0B       		.uleb128 0xb
 2921 00ea 3B       		.uleb128 0x3b
 2922 00eb 05       		.uleb128 0x5
 2923 00ec 49       		.uleb128 0x49
 2924 00ed 13       		.uleb128 0x13
 2925 00ee 00       		.byte	0x0
 2926 00ef 00       		.byte	0x0
 2927 00f0 15       		.uleb128 0x15
 2928 00f1 0D       		.uleb128 0xd
 2929 00f2 00       		.byte	0x0
 2930 00f3 03       		.uleb128 0x3
 2931 00f4 0E       		.uleb128 0xe
 2932 00f5 3A       		.uleb128 0x3a
 2933 00f6 0B       		.uleb128 0xb
 2934 00f7 3B       		.uleb128 0x3b
 2935 00f8 05       		.uleb128 0x5
 2936 00f9 49       		.uleb128 0x49
 2937 00fa 13       		.uleb128 0x13
 2938 00fb 38       		.uleb128 0x38
 2939 00fc 0A       		.uleb128 0xa
 2940 00fd 00       		.byte	0x0
 2941 00fe 00       		.byte	0x0
 2942 00ff 16       		.uleb128 0x16
ARM GAS  /tmp/ccrp9Byk.s 			page 53


 2943 0100 13       		.uleb128 0x13
 2944 0101 01       		.byte	0x1
 2945 0102 0B       		.uleb128 0xb
 2946 0103 0B       		.uleb128 0xb
 2947 0104 3A       		.uleb128 0x3a
 2948 0105 0B       		.uleb128 0xb
 2949 0106 3B       		.uleb128 0x3b
 2950 0107 05       		.uleb128 0x5
 2951 0108 01       		.uleb128 0x1
 2952 0109 13       		.uleb128 0x13
 2953 010a 00       		.byte	0x0
 2954 010b 00       		.byte	0x0
 2955 010c 17       		.uleb128 0x17
 2956 010d 04       		.uleb128 0x4
 2957 010e 01       		.byte	0x1
 2958 010f 0B       		.uleb128 0xb
 2959 0110 0B       		.uleb128 0xb
 2960 0111 3A       		.uleb128 0x3a
 2961 0112 0B       		.uleb128 0xb
 2962 0113 3B       		.uleb128 0x3b
 2963 0114 0B       		.uleb128 0xb
 2964 0115 01       		.uleb128 0x1
 2965 0116 13       		.uleb128 0x13
 2966 0117 00       		.byte	0x0
 2967 0118 00       		.byte	0x0
 2968 0119 18       		.uleb128 0x18
 2969 011a 28       		.uleb128 0x28
 2970 011b 00       		.byte	0x0
 2971 011c 03       		.uleb128 0x3
 2972 011d 0E       		.uleb128 0xe
 2973 011e 1C       		.uleb128 0x1c
 2974 011f 0D       		.uleb128 0xd
 2975 0120 00       		.byte	0x0
 2976 0121 00       		.byte	0x0
 2977 0122 19       		.uleb128 0x19
 2978 0123 01       		.uleb128 0x1
 2979 0124 01       		.byte	0x1
 2980 0125 49       		.uleb128 0x49
 2981 0126 13       		.uleb128 0x13
 2982 0127 01       		.uleb128 0x1
 2983 0128 13       		.uleb128 0x13
 2984 0129 00       		.byte	0x0
 2985 012a 00       		.byte	0x0
 2986 012b 1A       		.uleb128 0x1a
 2987 012c 21       		.uleb128 0x21
 2988 012d 00       		.byte	0x0
 2989 012e 49       		.uleb128 0x49
 2990 012f 13       		.uleb128 0x13
 2991 0130 2F       		.uleb128 0x2f
 2992 0131 0B       		.uleb128 0xb
 2993 0132 00       		.byte	0x0
 2994 0133 00       		.byte	0x0
 2995 0134 1B       		.uleb128 0x1b
 2996 0135 2E       		.uleb128 0x2e
 2997 0136 01       		.byte	0x1
 2998 0137 03       		.uleb128 0x3
 2999 0138 0E       		.uleb128 0xe
ARM GAS  /tmp/ccrp9Byk.s 			page 54


 3000 0139 3A       		.uleb128 0x3a
 3001 013a 0B       		.uleb128 0xb
 3002 013b 3B       		.uleb128 0x3b
 3003 013c 0B       		.uleb128 0xb
 3004 013d 27       		.uleb128 0x27
 3005 013e 0C       		.uleb128 0xc
 3006 013f 49       		.uleb128 0x49
 3007 0140 13       		.uleb128 0x13
 3008 0141 11       		.uleb128 0x11
 3009 0142 01       		.uleb128 0x1
 3010 0143 12       		.uleb128 0x12
 3011 0144 01       		.uleb128 0x1
 3012 0145 40       		.uleb128 0x40
 3013 0146 0A       		.uleb128 0xa
 3014 0147 01       		.uleb128 0x1
 3015 0148 13       		.uleb128 0x13
 3016 0149 00       		.byte	0x0
 3017 014a 00       		.byte	0x0
 3018 014b 1C       		.uleb128 0x1c
 3019 014c 05       		.uleb128 0x5
 3020 014d 00       		.byte	0x0
 3021 014e 03       		.uleb128 0x3
 3022 014f 08       		.uleb128 0x8
 3023 0150 3A       		.uleb128 0x3a
 3024 0151 0B       		.uleb128 0xb
 3025 0152 3B       		.uleb128 0x3b
 3026 0153 0B       		.uleb128 0xb
 3027 0154 49       		.uleb128 0x49
 3028 0155 13       		.uleb128 0x13
 3029 0156 02       		.uleb128 0x2
 3030 0157 06       		.uleb128 0x6
 3031 0158 00       		.byte	0x0
 3032 0159 00       		.byte	0x0
 3033 015a 1D       		.uleb128 0x1d
 3034 015b 34       		.uleb128 0x34
 3035 015c 00       		.byte	0x0
 3036 015d 03       		.uleb128 0x3
 3037 015e 0E       		.uleb128 0xe
 3038 015f 3A       		.uleb128 0x3a
 3039 0160 0B       		.uleb128 0xb
 3040 0161 3B       		.uleb128 0x3b
 3041 0162 0B       		.uleb128 0xb
 3042 0163 49       		.uleb128 0x49
 3043 0164 13       		.uleb128 0x13
 3044 0165 02       		.uleb128 0x2
 3045 0166 0A       		.uleb128 0xa
 3046 0167 00       		.byte	0x0
 3047 0168 00       		.byte	0x0
 3048 0169 1E       		.uleb128 0x1e
 3049 016a 0B       		.uleb128 0xb
 3050 016b 01       		.byte	0x1
 3051 016c 11       		.uleb128 0x11
 3052 016d 01       		.uleb128 0x1
 3053 016e 12       		.uleb128 0x12
 3054 016f 01       		.uleb128 0x1
 3055 0170 01       		.uleb128 0x1
 3056 0171 13       		.uleb128 0x13
ARM GAS  /tmp/ccrp9Byk.s 			page 55


 3057 0172 00       		.byte	0x0
 3058 0173 00       		.byte	0x0
 3059 0174 1F       		.uleb128 0x1f
 3060 0175 34       		.uleb128 0x34
 3061 0176 00       		.byte	0x0
 3062 0177 03       		.uleb128 0x3
 3063 0178 08       		.uleb128 0x8
 3064 0179 3A       		.uleb128 0x3a
 3065 017a 0B       		.uleb128 0xb
 3066 017b 3B       		.uleb128 0x3b
 3067 017c 0B       		.uleb128 0xb
 3068 017d 49       		.uleb128 0x49
 3069 017e 13       		.uleb128 0x13
 3070 017f 02       		.uleb128 0x2
 3071 0180 06       		.uleb128 0x6
 3072 0181 00       		.byte	0x0
 3073 0182 00       		.byte	0x0
 3074 0183 20       		.uleb128 0x20
 3075 0184 0B       		.uleb128 0xb
 3076 0185 01       		.byte	0x1
 3077 0186 11       		.uleb128 0x11
 3078 0187 01       		.uleb128 0x1
 3079 0188 12       		.uleb128 0x12
 3080 0189 01       		.uleb128 0x1
 3081 018a 00       		.byte	0x0
 3082 018b 00       		.byte	0x0
 3083 018c 21       		.uleb128 0x21
 3084 018d 34       		.uleb128 0x34
 3085 018e 00       		.byte	0x0
 3086 018f 03       		.uleb128 0x3
 3087 0190 08       		.uleb128 0x8
 3088 0191 3A       		.uleb128 0x3a
 3089 0192 0B       		.uleb128 0xb
 3090 0193 3B       		.uleb128 0x3b
 3091 0194 0B       		.uleb128 0xb
 3092 0195 49       		.uleb128 0x49
 3093 0196 13       		.uleb128 0x13
 3094 0197 02       		.uleb128 0x2
 3095 0198 0A       		.uleb128 0xa
 3096 0199 00       		.byte	0x0
 3097 019a 00       		.byte	0x0
 3098 019b 22       		.uleb128 0x22
 3099 019c 05       		.uleb128 0x5
 3100 019d 00       		.byte	0x0
 3101 019e 03       		.uleb128 0x3
 3102 019f 08       		.uleb128 0x8
 3103 01a0 3A       		.uleb128 0x3a
 3104 01a1 0B       		.uleb128 0xb
 3105 01a2 3B       		.uleb128 0x3b
 3106 01a3 0B       		.uleb128 0xb
 3107 01a4 49       		.uleb128 0x49
 3108 01a5 13       		.uleb128 0x13
 3109 01a6 02       		.uleb128 0x2
 3110 01a7 0A       		.uleb128 0xa
 3111 01a8 00       		.byte	0x0
 3112 01a9 00       		.byte	0x0
 3113 01aa 23       		.uleb128 0x23
ARM GAS  /tmp/ccrp9Byk.s 			page 56


 3114 01ab 05       		.uleb128 0x5
 3115 01ac 00       		.byte	0x0
 3116 01ad 03       		.uleb128 0x3
 3117 01ae 0E       		.uleb128 0xe
 3118 01af 3A       		.uleb128 0x3a
 3119 01b0 0B       		.uleb128 0xb
 3120 01b1 3B       		.uleb128 0x3b
 3121 01b2 0B       		.uleb128 0xb
 3122 01b3 49       		.uleb128 0x49
 3123 01b4 13       		.uleb128 0x13
 3124 01b5 02       		.uleb128 0x2
 3125 01b6 0A       		.uleb128 0xa
 3126 01b7 00       		.byte	0x0
 3127 01b8 00       		.byte	0x0
 3128 01b9 24       		.uleb128 0x24
 3129 01ba 2E       		.uleb128 0x2e
 3130 01bb 00       		.byte	0x0
 3131 01bc 3F       		.uleb128 0x3f
 3132 01bd 0C       		.uleb128 0xc
 3133 01be 03       		.uleb128 0x3
 3134 01bf 0E       		.uleb128 0xe
 3135 01c0 3A       		.uleb128 0x3a
 3136 01c1 0B       		.uleb128 0xb
 3137 01c2 3B       		.uleb128 0x3b
 3138 01c3 0B       		.uleb128 0xb
 3139 01c4 27       		.uleb128 0x27
 3140 01c5 0C       		.uleb128 0xc
 3141 01c6 11       		.uleb128 0x11
 3142 01c7 01       		.uleb128 0x1
 3143 01c8 12       		.uleb128 0x12
 3144 01c9 01       		.uleb128 0x1
 3145 01ca 40       		.uleb128 0x40
 3146 01cb 0A       		.uleb128 0xa
 3147 01cc 00       		.byte	0x0
 3148 01cd 00       		.byte	0x0
 3149 01ce 25       		.uleb128 0x25
 3150 01cf 2E       		.uleb128 0x2e
 3151 01d0 01       		.byte	0x1
 3152 01d1 3F       		.uleb128 0x3f
 3153 01d2 0C       		.uleb128 0xc
 3154 01d3 03       		.uleb128 0x3
 3155 01d4 0E       		.uleb128 0xe
 3156 01d5 3A       		.uleb128 0x3a
 3157 01d6 0B       		.uleb128 0xb
 3158 01d7 3B       		.uleb128 0x3b
 3159 01d8 0B       		.uleb128 0xb
 3160 01d9 27       		.uleb128 0x27
 3161 01da 0C       		.uleb128 0xc
 3162 01db 11       		.uleb128 0x11
 3163 01dc 01       		.uleb128 0x1
 3164 01dd 12       		.uleb128 0x12
 3165 01de 01       		.uleb128 0x1
 3166 01df 40       		.uleb128 0x40
 3167 01e0 06       		.uleb128 0x6
 3168 01e1 01       		.uleb128 0x1
 3169 01e2 13       		.uleb128 0x13
 3170 01e3 00       		.byte	0x0
ARM GAS  /tmp/ccrp9Byk.s 			page 57


 3171 01e4 00       		.byte	0x0
 3172 01e5 26       		.uleb128 0x26
 3173 01e6 05       		.uleb128 0x5
 3174 01e7 00       		.byte	0x0
 3175 01e8 03       		.uleb128 0x3
 3176 01e9 0E       		.uleb128 0xe
 3177 01ea 3A       		.uleb128 0x3a
 3178 01eb 0B       		.uleb128 0xb
 3179 01ec 3B       		.uleb128 0x3b
 3180 01ed 0B       		.uleb128 0xb
 3181 01ee 49       		.uleb128 0x49
 3182 01ef 13       		.uleb128 0x13
 3183 01f0 02       		.uleb128 0x2
 3184 01f1 06       		.uleb128 0x6
 3185 01f2 00       		.byte	0x0
 3186 01f3 00       		.byte	0x0
 3187 01f4 27       		.uleb128 0x27
 3188 01f5 0B       		.uleb128 0xb
 3189 01f6 01       		.byte	0x1
 3190 01f7 55       		.uleb128 0x55
 3191 01f8 06       		.uleb128 0x6
 3192 01f9 01       		.uleb128 0x1
 3193 01fa 13       		.uleb128 0x13
 3194 01fb 00       		.byte	0x0
 3195 01fc 00       		.byte	0x0
 3196 01fd 28       		.uleb128 0x28
 3197 01fe 2E       		.uleb128 0x2e
 3198 01ff 01       		.byte	0x1
 3199 0200 3F       		.uleb128 0x3f
 3200 0201 0C       		.uleb128 0xc
 3201 0202 03       		.uleb128 0x3
 3202 0203 0E       		.uleb128 0xe
 3203 0204 3A       		.uleb128 0x3a
 3204 0205 0B       		.uleb128 0xb
 3205 0206 3B       		.uleb128 0x3b
 3206 0207 0B       		.uleb128 0xb
 3207 0208 27       		.uleb128 0x27
 3208 0209 0C       		.uleb128 0xc
 3209 020a 49       		.uleb128 0x49
 3210 020b 13       		.uleb128 0x13
 3211 020c 11       		.uleb128 0x11
 3212 020d 01       		.uleb128 0x1
 3213 020e 12       		.uleb128 0x12
 3214 020f 01       		.uleb128 0x1
 3215 0210 40       		.uleb128 0x40
 3216 0211 06       		.uleb128 0x6
 3217 0212 01       		.uleb128 0x1
 3218 0213 13       		.uleb128 0x13
 3219 0214 00       		.byte	0x0
 3220 0215 00       		.byte	0x0
 3221 0216 29       		.uleb128 0x29
 3222 0217 34       		.uleb128 0x34
 3223 0218 00       		.byte	0x0
 3224 0219 03       		.uleb128 0x3
 3225 021a 0E       		.uleb128 0xe
 3226 021b 3A       		.uleb128 0x3a
 3227 021c 0B       		.uleb128 0xb
ARM GAS  /tmp/ccrp9Byk.s 			page 58


 3228 021d 3B       		.uleb128 0x3b
 3229 021e 05       		.uleb128 0x5
 3230 021f 49       		.uleb128 0x49
 3231 0220 13       		.uleb128 0x13
 3232 0221 3F       		.uleb128 0x3f
 3233 0222 0C       		.uleb128 0xc
 3234 0223 3C       		.uleb128 0x3c
 3235 0224 0C       		.uleb128 0xc
 3236 0225 00       		.byte	0x0
 3237 0226 00       		.byte	0x0
 3238 0227 00       		.byte	0x0
 3239              		.section	.debug_pubnames,"",%progbits
 3240 0000 68000000 		.4byte	0x68
 3241 0004 0200     		.2byte	0x2
 3242 0006 00000000 		.4byte	.Ldebug_info0
 3243 000a B40D0000 		.4byte	0xdb4
 3244 000e E50B0000 		.4byte	0xbe5
 3245 0012 7364496E 		.ascii	"sdInit\000"
 3245      697400
 3246 0019 F90B0000 		.4byte	0xbf9
 3247 001d 73644F62 		.ascii	"sdObjectInit\000"
 3247      6A656374 
 3247      496E6974 
 3247      00
 3248 002a 460C0000 		.4byte	0xc46
 3249 002e 73645374 		.ascii	"sdStart\000"
 3249      61727400 
 3250 0036 BB0C0000 		.4byte	0xcbb
 3251 003a 73645374 		.ascii	"sdStop\000"
 3251      6F7000
 3252 0041 160D0000 		.4byte	0xd16
 3253 0045 7364496E 		.ascii	"sdIncomingDataI\000"
 3253      636F6D69 
 3253      6E674461 
 3253      74614900 
 3254 0055 4C0D0000 		.4byte	0xd4c
 3255 0059 73645265 		.ascii	"sdRequestDataI\000"
 3255      71756573 
 3255      74446174 
 3255      614900
 3256 0068 00000000 		.4byte	0x0
 3257              		.section	.debug_pubtypes,"",%progbits
 3258 0000 73020000 		.4byte	0x273
 3259 0004 0200     		.2byte	0x2
 3260 0006 00000000 		.4byte	.Ldebug_info0
 3261 000a B40D0000 		.4byte	0xdb4
 3262 000e 30000000 		.4byte	0x30
 3263 0012 73697A65 		.ascii	"size_t\000"
 3263      5F7400
 3264 0019 49000000 		.4byte	0x49
 3265 001d 75696E74 		.ascii	"uint8_t\000"
 3265      385F7400 
 3266 0025 62000000 		.4byte	0x62
 3267 0029 75696E74 		.ascii	"uint16_t\000"
 3267      31365F74 
 3267      00
 3268 0032 74000000 		.4byte	0x74
ARM GAS  /tmp/ccrp9Byk.s 			page 59


 3269 0036 696E7433 		.ascii	"int32_t\000"
 3269      325F7400 
 3270 003e 86000000 		.4byte	0x86
 3271 0042 75696E74 		.ascii	"uint32_t\000"
 3271      33325F74 
 3271      00
 3272 004b A6000000 		.4byte	0xa6
 3273 004f 75696E74 		.ascii	"uint_fast16_t\000"
 3273      5F666173 
 3273      7431365F 
 3273      7400
 3274 005d B1000000 		.4byte	0xb1
 3275 0061 626F6F6C 		.ascii	"bool_t\000"
 3275      5F7400
 3276 0068 BC000000 		.4byte	0xbc
 3277 006c 746D6F64 		.ascii	"tmode_t\000"
 3277      655F7400 
 3278 0074 C7000000 		.4byte	0xc7
 3279 0078 74737461 		.ascii	"tstate_t\000"
 3279      74655F74 
 3279      00
 3280 0081 D2000000 		.4byte	0xd2
 3281 0085 74726566 		.ascii	"trefs_t\000"
 3281      735F7400 
 3282 008d DD000000 		.4byte	0xdd
 3283 0091 74707269 		.ascii	"tprio_t\000"
 3283      6F5F7400 
 3284 0099 E8000000 		.4byte	0xe8
 3285 009d 6D73675F 		.ascii	"msg_t\000"
 3285      7400
 3286 00a3 F3000000 		.4byte	0xf3
 3287 00a7 6576656E 		.ascii	"eventmask_t\000"
 3287      746D6173 
 3287      6B5F7400 
 3288 00b3 FE000000 		.4byte	0xfe
 3289 00b7 73797374 		.ascii	"systime_t\000"
 3289      696D655F 
 3289      7400
 3290 00c1 09010000 		.4byte	0x109
 3291 00c5 54687265 		.ascii	"Thread\000"
 3291      616400
 3292 00cc 56020000 		.4byte	0x256
 3293 00d0 54687265 		.ascii	"ThreadsQueue\000"
 3293      61647351 
 3293      75657565 
 3293      00
 3294 00dd 78020000 		.4byte	0x278
 3295 00e1 54687265 		.ascii	"ThreadsList\000"
 3295      6164734C 
 3295      69737400 
 3296 00ed 83020000 		.4byte	0x283
 3297 00f1 72656761 		.ascii	"regarm_t\000"
 3297      726D5F74 
 3297      00
 3298 00fa 90020000 		.4byte	0x290
 3299 00fe 696E7463 		.ascii	"intctx\000"
 3299      747800
ARM GAS  /tmp/ccrp9Byk.s 			page 60


 3300 0105 1D030000 		.4byte	0x31d
 3301 0109 636F6E74 		.ascii	"context\000"
 3301      65787400 
 3302 0111 45030000 		.4byte	0x345
 3303 0115 4D757465 		.ascii	"Mutex\000"
 3303      7800
 3304 011b 82030000 		.4byte	0x382
 3305 011f 4D757465 		.ascii	"Mutex\000"
 3305      7800
 3306 0125 8D030000 		.4byte	0x38d
 3307 0129 4576656E 		.ascii	"EventListener\000"
 3307      744C6973 
 3307      74656E65 
 3307      7200
 3308 0137 98030000 		.4byte	0x398
 3309 013b 4576656E 		.ascii	"EventListener\000"
 3309      744C6973 
 3309      74656E65 
 3309      7200
 3310 0149 D5030000 		.4byte	0x3d5
 3311 014d 4576656E 		.ascii	"EventSource\000"
 3311      74536F75 
 3311      72636500 
 3312 0159 F0030000 		.4byte	0x3f0
 3313 015d 4576656E 		.ascii	"EventSource\000"
 3313      74536F75 
 3313      72636500 
 3314 0169 14010000 		.4byte	0x114
 3315 016d 54687265 		.ascii	"Thread\000"
 3315      616400
 3316 0174 48040000 		.4byte	0x448
 3317 0178 47656E65 		.ascii	"GenericQueue\000"
 3317      72696351 
 3317      75657565 
 3317      00
 3318 0185 C2040000 		.4byte	0x4c2
 3319 0189 716E6F74 		.ascii	"qnotify_t\000"
 3319      6966795F 
 3319      7400
 3320 0193 53040000 		.4byte	0x453
 3321 0197 47656E65 		.ascii	"GenericQueue\000"
 3321      72696351 
 3321      75657565 
 3321      00
 3322 01a4 EB040000 		.4byte	0x4eb
 3323 01a8 496E7075 		.ascii	"InputQueue\000"
 3323      74517565 
 3323      756500
 3324 01b3 F6040000 		.4byte	0x4f6
 3325 01b7 4F757470 		.ascii	"OutputQueue\000"
 3325      75745175 
 3325      65756500 
 3326 01c3 E7050000 		.4byte	0x5e7
 3327 01c7 696F666C 		.ascii	"ioflags_t\000"
 3327      6167735F 
 3327      7400
 3328 01d1 F3050000 		.4byte	0x5f3
ARM GAS  /tmp/ccrp9Byk.s 			page 61


 3329 01d5 42617365 		.ascii	"BaseAsynchronousChannelVMT\000"
 3329      4173796E 
 3329      6368726F 
 3329      6E6F7573 
 3329      4368616E 
 3330 01f0 E0060000 		.4byte	0x6e0
 3331 01f4 42617365 		.ascii	"BaseAsynchronousChannel\000"
 3331      4173796E 
 3331      6368726F 
 3331      6E6F7573 
 3331      4368616E 
 3332 020c D0070000 		.4byte	0x7d0
 3333 0210 55534152 		.ascii	"USART_TypeDef\000"
 3333      545F5479 
 3333      70654465 
 3333      6600
 3334 021e F7070000 		.4byte	0x7f7
 3335 0222 73647374 		.ascii	"sdstate_t\000"
 3335      6174655F 
 3335      7400
 3336 022c 02080000 		.4byte	0x802
 3337 0230 53657269 		.ascii	"SerialDriver\000"
 3337      616C4472 
 3337      69766572 
 3337      00
 3338 023d D7080000 		.4byte	0x8d7
 3339 0241 53657269 		.ascii	"SerialConfig\000"
 3339      616C436F 
 3339      6E666967 
 3339      00
 3340 024e E2080000 		.4byte	0x8e2
 3341 0252 53657269 		.ascii	"SerialDriverVMT\000"
 3341      616C4472 
 3341      69766572 
 3341      564D5400 
 3342 0262 0D080000 		.4byte	0x80d
 3343 0266 53657269 		.ascii	"SerialDriver\000"
 3343      616C4472 
 3343      69766572 
 3343      00
 3344 0273 00000000 		.4byte	0x0
 3345              		.section	.debug_aranges,"",%progbits
 3346 0000 8C000000 		.4byte	0x8c
 3347 0004 0200     		.2byte	0x2
 3348 0006 00000000 		.4byte	.Ldebug_info0
 3349 000a 04       		.byte	0x4
 3350 000b 00       		.byte	0x0
 3351 000c 0000     		.2byte	0x0
 3352 000e 0000     		.2byte	0x0
 3353 0010 00000000 		.4byte	.LFB119
 3354 0014 0C000000 		.4byte	.LFE119-.LFB119
 3355 0018 00000000 		.4byte	.LFB120
 3356 001c 0C000000 		.4byte	.LFE120-.LFB120
 3357 0020 00000000 		.4byte	.LFB125
 3358 0024 14000000 		.4byte	.LFE125-.LFB125
 3359 0028 00000000 		.4byte	.LFB124
 3360 002c 06000000 		.4byte	.LFE124-.LFB124
ARM GAS  /tmp/ccrp9Byk.s 			page 62


 3361 0030 00000000 		.4byte	.LFB118
 3362 0034 0A000000 		.4byte	.LFE118-.LFB118
 3363 0038 00000000 		.4byte	.LFB123
 3364 003c 06000000 		.4byte	.LFE123-.LFB123
 3365 0040 00000000 		.4byte	.LFB117
 3366 0044 0A000000 		.4byte	.LFE117-.LFB117
 3367 0048 00000000 		.4byte	.LFB122
 3368 004c 06000000 		.4byte	.LFE122-.LFB122
 3369 0050 00000000 		.4byte	.LFB121
 3370 0054 06000000 		.4byte	.LFE121-.LFB121
 3371 0058 00000000 		.4byte	.LFB126
 3372 005c 04000000 		.4byte	.LFE126-.LFB126
 3373 0060 00000000 		.4byte	.LFB127
 3374 0064 40000000 		.4byte	.LFE127-.LFB127
 3375 0068 00000000 		.4byte	.LFB128
 3376 006c 1A000000 		.4byte	.LFE128-.LFB128
 3377 0070 00000000 		.4byte	.LFB129
 3378 0074 2E000000 		.4byte	.LFE129-.LFB129
 3379 0078 00000000 		.4byte	.LFB130
 3380 007c 4A000000 		.4byte	.LFE130-.LFB130
 3381 0080 00000000 		.4byte	.LFB131
 3382 0084 26000000 		.4byte	.LFE131-.LFB131
 3383 0088 00000000 		.4byte	0x0
 3384 008c 00000000 		.4byte	0x0
 3385              		.section	.debug_ranges,"",%progbits
 3386              	.Ldebug_ranges0:
 3387 0000 02000000 		.4byte	.LBB4
 3388 0004 04000000 		.4byte	.LBE4
 3389 0008 06000000 		.4byte	.LBB5
 3390 000c 0A000000 		.4byte	.LBE5
 3391 0010 00000000 		.4byte	0x0
 3392 0014 00000000 		.4byte	0x0
 3393 0018 02000000 		.4byte	.LBB7
 3394 001c 04000000 		.4byte	.LBE7
 3395 0020 06000000 		.4byte	.LBB8
 3396 0024 0A000000 		.4byte	.LBE8
 3397 0028 00000000 		.4byte	0x0
 3398 002c 00000000 		.4byte	0x0
 3399 0030 00000000 		.4byte	.LFB119
 3400 0034 0C000000 		.4byte	.LFE119
 3401 0038 00000000 		.4byte	.LFB120
 3402 003c 0C000000 		.4byte	.LFE120
 3403 0040 00000000 		.4byte	.LFB125
 3404 0044 14000000 		.4byte	.LFE125
 3405 0048 00000000 		.4byte	.LFB124
 3406 004c 06000000 		.4byte	.LFE124
 3407 0050 00000000 		.4byte	.LFB118
 3408 0054 0A000000 		.4byte	.LFE118
 3409 0058 00000000 		.4byte	.LFB123
 3410 005c 06000000 		.4byte	.LFE123
 3411 0060 00000000 		.4byte	.LFB117
 3412 0064 0A000000 		.4byte	.LFE117
 3413 0068 00000000 		.4byte	.LFB122
 3414 006c 06000000 		.4byte	.LFE122
 3415 0070 00000000 		.4byte	.LFB121
 3416 0074 06000000 		.4byte	.LFE121
 3417 0078 00000000 		.4byte	.LFB126
ARM GAS  /tmp/ccrp9Byk.s 			page 63


 3418 007c 04000000 		.4byte	.LFE126
 3419 0080 00000000 		.4byte	.LFB127
 3420 0084 40000000 		.4byte	.LFE127
 3421 0088 00000000 		.4byte	.LFB128
 3422 008c 1A000000 		.4byte	.LFE128
 3423 0090 00000000 		.4byte	.LFB129
 3424 0094 2E000000 		.4byte	.LFE129
 3425 0098 00000000 		.4byte	.LFB130
 3426 009c 4A000000 		.4byte	.LFE130
 3427 00a0 00000000 		.4byte	.LFB131
 3428 00a4 26000000 		.4byte	.LFE131
 3429 00a8 00000000 		.4byte	0x0
 3430 00ac 00000000 		.4byte	0x0
 3431              		.section	.debug_str,"MS",%progbits,1
 3432              	.LASF103:
 3433 0000 73635F73 		.ascii	"sc_speed\000"
 3433      70656564 
 3433      00
 3434              	.LASF2:
 3435 0009 73697A65 		.ascii	"size_t\000"
 3435      5F7400
 3436              	.LASF57:
 3437 0010 7264796D 		.ascii	"rdymsg\000"
 3437      736700
 3438              	.LASF72:
 3439 0017 4F757470 		.ascii	"OutputQueue\000"
 3439      75745175 
 3439      65756500 
 3440              	.LASF21:
 3441 0023 6576656E 		.ascii	"eventmask_t\000"
 3441      746D6173 
 3441      6B5F7400 
 3442              	.LASF14:
 3443 002f 75696E74 		.ascii	"uint_fast16_t\000"
 3443      5F666173 
 3443      7431365F 
 3443      7400
 3444              	.LASF13:
 3445 003d 6C6F6E67 		.ascii	"long long unsigned int\000"
 3445      206C6F6E 
 3445      6720756E 
 3445      7369676E 
 3445      65642069 
 3446              	.LASF58:
 3447 0054 65786974 		.ascii	"exitcode\000"
 3447      636F6465 
 3447      00
 3448              	.LASF123:
 3449 005d 49544D5F 		.ascii	"ITM_RxBuffer\000"
 3449      52784275 
 3449      66666572 
 3449      00
 3450              	.LASF118:
 3451 006a 73644F62 		.ascii	"sdObjectInit\000"
 3451      6A656374 
 3451      496E6974 
 3451      00
ARM GAS  /tmp/ccrp9Byk.s 			page 64


 3452              	.LASF111:
 3453 0077 72656164 		.ascii	"reads\000"
 3453      7300
 3454              	.LASF80:
 3455 007d 72656164 		.ascii	"readt\000"
 3455      7400
 3456              	.LASF63:
 3457 0083 715F7761 		.ascii	"q_waiting\000"
 3457      6974696E 
 3457      6700
 3458              	.LASF12:
 3459 008d 6C6F6E67 		.ascii	"long long int\000"
 3459      206C6F6E 
 3459      6720696E 
 3459      7400
 3460              	.LASF1:
 3461 009b 7369676E 		.ascii	"signed char\000"
 3461      65642063 
 3461      68617200 
 3462              	.LASF126:
 3463 00a7 2F686F6D 		.ascii	"/home/stm32/Workspace/demoarm\000"
 3463      652F7374 
 3463      6D33322F 
 3463      576F726B 
 3463      73706163 
 3464              	.LASF91:
 3465 00c5 47545052 		.ascii	"GTPR\000"
 3465      00
 3466              	.LASF31:
 3467 00ca 705F7374 		.ascii	"p_state\000"
 3467      61746500 
 3468              	.LASF41:
 3469 00d2 705F6D70 		.ascii	"p_mpool\000"
 3469      6F6F6C00 
 3470              	.LASF15:
 3471 00da 626F6F6C 		.ascii	"bool_t\000"
 3471      5F7400
 3472              	.LASF48:
 3473 00e1 6D5F7175 		.ascii	"m_queue\000"
 3473      65756500 
 3474              	.LASF124:
 3475 00e9 474E5520 		.ascii	"GNU C 4.5.2\000"
 3475      4320342E 
 3475      352E3200 
 3476              	.LASF99:
 3477 00f5 73746174 		.ascii	"state\000"
 3477      6500
 3478              	.LASF9:
 3479 00fb 6C6F6E67 		.ascii	"long int\000"
 3479      20696E74 
 3479      00
 3480              	.LASF17:
 3481 0104 74737461 		.ascii	"tstate_t\000"
 3481      74655F74 
 3481      00
 3482              	.LASF33:
 3483 010d 705F7265 		.ascii	"p_refs\000"
ARM GAS  /tmp/ccrp9Byk.s 			page 65


 3483      667300
 3484              	.LASF65:
 3485 0114 715F6275 		.ascii	"q_buffer\000"
 3485      66666572 
 3485      00
 3486              	.LASF67:
 3487 011d 715F7772 		.ascii	"q_wrptr\000"
 3487      70747200 
 3488              	.LASF28:
 3489 0125 705F6E65 		.ascii	"p_newer\000"
 3489      77657200 
 3490              	.LASF77:
 3491 012d 70757477 		.ascii	"putwouldblock\000"
 3491      6F756C64 
 3491      626C6F63 
 3491      6B00
 3492              	.LASF109:
 3493 013b 6D61736B 		.ascii	"mask\000"
 3493      00
 3494              	.LASF44:
 3495 0140 72656761 		.ascii	"regarm_t\000"
 3495      726D5F74 
 3495      00
 3496              	.LASF55:
 3497 0149 4576656E 		.ascii	"EventSource\000"
 3497      74536F75 
 3497      72636500 
 3498              	.LASF74:
 3499 0155 42617365 		.ascii	"BaseAsynchronousChannelVMT\000"
 3499      4173796E 
 3499      6368726F 
 3499      6E6F7573 
 3499      4368616E 
 3500              	.LASF0:
 3501 0170 756E7369 		.ascii	"unsigned int\000"
 3501      676E6564 
 3501      20696E74 
 3501      00
 3502              	.LASF6:
 3503 017d 75696E74 		.ascii	"uint16_t\000"
 3503      31365F74 
 3503      00
 3504              	.LASF108:
 3505 0186 53657269 		.ascii	"SerialDriverVMT\000"
 3505      616C4472 
 3505      69766572 
 3505      564D5400 
 3506              	.LASF34:
 3507 0196 705F7469 		.ascii	"p_time\000"
 3507      6D6500
 3508              	.LASF116:
 3509 019d 696E6F74 		.ascii	"inotify\000"
 3509      69667900 
 3510              	.LASF100:
 3511 01a5 69717565 		.ascii	"iqueue\000"
 3511      756500
 3512              	.LASF36:
ARM GAS  /tmp/ccrp9Byk.s 			page 66


 3513 01ac 705F6D73 		.ascii	"p_msgqueue\000"
 3513      67717565 
 3513      756500
 3514              	.LASF114:
 3515 01b7 74696D65 		.ascii	"timeout\000"
 3515      6F757400 
 3516              	.LASF113:
 3517 01bf 67657474 		.ascii	"gett\000"
 3517      00
 3518              	.LASF82:
 3519 01c4 6576656E 		.ascii	"event\000"
 3519      7400
 3520              	.LASF7:
 3521 01ca 73686F72 		.ascii	"short unsigned int\000"
 3521      7420756E 
 3521      7369676E 
 3521      65642069 
 3521      6E7400
 3522              	.LASF20:
 3523 01dd 6D73675F 		.ascii	"msg_t\000"
 3523      7400
 3524              	.LASF101:
 3525 01e3 6F717565 		.ascii	"oqueue\000"
 3525      756500
 3526              	.LASF112:
 3527 01ea 77726974 		.ascii	"writes\000"
 3527      657300
 3528              	.LASF79:
 3529 01f1 77726974 		.ascii	"writet\000"
 3529      657400
 3530              	.LASF16:
 3531 01f8 746D6F64 		.ascii	"tmode_t\000"
 3531      655F7400 
 3532              	.LASF43:
 3533 0200 54687265 		.ascii	"ThreadsList\000"
 3533      6164734C 
 3533      69737400 
 3534              	.LASF102:
 3535 020c 75736172 		.ascii	"usart\000"
 3535      7400
 3536              	.LASF71:
 3537 0212 496E7075 		.ascii	"InputQueue\000"
 3537      74517565 
 3537      756500
 3538              	.LASF70:
 3539 021d 716E6F74 		.ascii	"qnotify_t\000"
 3539      6966795F 
 3539      7400
 3540              	.LASF62:
 3541 0227 47656E65 		.ascii	"GenericQueue\000"
 3541      72696351 
 3541      75657565 
 3541      00
 3542              	.LASF75:
 3543 0234 77726974 		.ascii	"write\000"
 3543      6500
 3544              	.LASF115:
ARM GAS  /tmp/ccrp9Byk.s 			page 67


 3545 023a 70757474 		.ascii	"putt\000"
 3545      00
 3546              	.LASF64:
 3547 023f 715F636F 		.ascii	"q_counter\000"
 3547      756E7465 
 3547      7200
 3548              	.LASF47:
 3549 0249 4D757465 		.ascii	"Mutex\000"
 3549      7800
 3550              	.LASF26:
 3551 024f 705F7072 		.ascii	"p_prio\000"
 3551      696F00
 3552              	.LASF54:
 3553 0256 656C5F6D 		.ascii	"el_mask\000"
 3553      61736B00 
 3554              	.LASF29:
 3555 025e 705F6F6C 		.ascii	"p_older\000"
 3555      64657200 
 3556              	.LASF81:
 3557 0266 67657466 		.ascii	"getflags\000"
 3557      6C616773 
 3557      00
 3558              	.LASF73:
 3559 026f 696F666C 		.ascii	"ioflags_t\000"
 3559      6167735F 
 3559      7400
 3560              	.LASF42:
 3561 0279 54687265 		.ascii	"ThreadsQueue\000"
 3561      61647351 
 3561      75657565 
 3561      00
 3562              	.LASF121:
 3563 0286 73645374 		.ascii	"sdStop\000"
 3563      6F7000
 3564              	.LASF110:
 3565 028d 74696D65 		.ascii	"time\000"
 3565      00
 3566              	.LASF107:
 3567 0292 53657269 		.ascii	"SerialConfig\000"
 3567      616C436F 
 3567      6E666967 
 3567      00
 3568              	.LASF18:
 3569 029f 74726566 		.ascii	"trefs_t\000"
 3569      735F7400 
 3570              	.LASF85:
 3571 02a7 52455345 		.ascii	"RESERVED0\000"
 3571      52564544 
 3571      3000
 3572              	.LASF86:
 3573 02b1 52455345 		.ascii	"RESERVED1\000"
 3573      52564544 
 3573      3100
 3574              	.LASF87:
 3575 02bb 52455345 		.ascii	"RESERVED2\000"
 3575      52564544 
 3575      3200
ARM GAS  /tmp/ccrp9Byk.s 			page 68


 3576              	.LASF88:
 3577 02c5 52455345 		.ascii	"RESERVED3\000"
 3577      52564544 
 3577      3300
 3578              	.LASF89:
 3579 02cf 52455345 		.ascii	"RESERVED4\000"
 3579      52564544 
 3579      3400
 3580              	.LASF25:
 3581 02d9 705F7072 		.ascii	"p_prev\000"
 3581      657600
 3582              	.LASF92:
 3583 02e0 52455345 		.ascii	"RESERVED6\000"
 3583      52564544 
 3583      3600
 3584              	.LASF19:
 3585 02ea 74707269 		.ascii	"tprio_t\000"
 3585      6F5F7400 
 3586              	.LASF68:
 3587 02f2 715F7264 		.ascii	"q_rdptr\000"
 3587      70747200 
 3588              	.LASF8:
 3589 02fa 696E7433 		.ascii	"int32_t\000"
 3589      325F7400 
 3590              	.LASF4:
 3591 0302 756E7369 		.ascii	"unsigned char\000"
 3591      676E6564 
 3591      20636861 
 3591      7200
 3592              	.LASF93:
 3593 0310 55534152 		.ascii	"USART_TypeDef\000"
 3593      545F5479 
 3593      70654465 
 3593      6600
 3594              	.LASF53:
 3595 031e 656C5F6C 		.ascii	"el_listener\000"
 3595      69737465 
 3595      6E657200 
 3596              	.LASF125:
 3597 032a 2E2E2F6C 		.ascii	"../libs/ChibiOS_2.4.0/os/hal/src/serial.c\000"
 3597      6962732F 
 3597      43686962 
 3597      694F535F 
 3597      322E342E 
 3598              	.LASF39:
 3599 0354 705F6D74 		.ascii	"p_mtxlist\000"
 3599      786C6973 
 3599      7400
 3600              	.LASF5:
 3601 035e 73686F72 		.ascii	"short int\000"
 3601      7420696E 
 3601      7400
 3602              	.LASF60:
 3603 0368 65776D61 		.ascii	"ewmask\000"
 3603      736B00
 3604              	.LASF24:
 3605 036f 705F6E65 		.ascii	"p_next\000"
ARM GAS  /tmp/ccrp9Byk.s 			page 69


 3605      787400
 3606              	.LASF32:
 3607 0376 705F666C 		.ascii	"p_flags\000"
 3607      61677300 
 3608              	.LASF52:
 3609 037e 656C5F6E 		.ascii	"el_next\000"
 3609      65787400 
 3610              	.LASF95:
 3611 0386 53445F53 		.ascii	"SD_STOP\000"
 3611      544F5000 
 3612              	.LASF23:
 3613 038e 54687265 		.ascii	"Thread\000"
 3613      616400
 3614              	.LASF38:
 3615 0395 705F6570 		.ascii	"p_epending\000"
 3615      656E6469 
 3615      6E6700
 3616              	.LASF94:
 3617 03a0 53445F55 		.ascii	"SD_UNINIT\000"
 3617      4E494E49 
 3617      5400
 3618              	.LASF90:
 3619 03aa 52455345 		.ascii	"RESERVED5\000"
 3619      52564544 
 3619      3500
 3620              	.LASF10:
 3621 03b4 75696E74 		.ascii	"uint32_t\000"
 3621      33325F74 
 3621      00
 3622              	.LASF97:
 3623 03bd 73647374 		.ascii	"sdstate_t\000"
 3623      6174655F 
 3623      7400
 3624              	.LASF98:
 3625 03c7 53657269 		.ascii	"SerialDriver\000"
 3625      616C4472 
 3625      69766572 
 3625      00
 3626              	.LASF11:
 3627 03d4 6C6F6E67 		.ascii	"long unsigned int\000"
 3627      20756E73 
 3627      69676E65 
 3627      6420696E 
 3627      7400
 3628              	.LASF76:
 3629 03e6 72656164 		.ascii	"read\000"
 3629      00
 3630              	.LASF61:
 3631 03eb 63686172 		.ascii	"char\000"
 3631      00
 3632              	.LASF122:
 3633 03f0 7364496E 		.ascii	"sdIncomingDataI\000"
 3633      636F6D69 
 3633      6E674461 
 3633      74614900 
 3634              	.LASF120:
 3635 0400 636F6E66 		.ascii	"config\000"
ARM GAS  /tmp/ccrp9Byk.s 			page 70


 3635      696700
 3636              	.LASF119:
 3637 0407 73645374 		.ascii	"sdStart\000"
 3637      61727400 
 3638              	.LASF50:
 3639 040f 6D5F6E65 		.ascii	"m_next\000"
 3639      787400
 3640              	.LASF22:
 3641 0416 73797374 		.ascii	"systime_t\000"
 3641      696D655F 
 3641      7400
 3642              	.LASF40:
 3643 0420 705F7265 		.ascii	"p_realprio\000"
 3643      616C7072 
 3643      696F00
 3644              	.LASF84:
 3645 042b 42617365 		.ascii	"BaseAsynchronousChannel\000"
 3645      4173796E 
 3645      6368726F 
 3645      6E6F7573 
 3645      4368616E 
 3646              	.LASF46:
 3647 0443 636F6E74 		.ascii	"context\000"
 3647      65787400 
 3648              	.LASF45:
 3649 044b 696E7463 		.ascii	"intctx\000"
 3649      747800
 3650              	.LASF96:
 3651 0452 53445F52 		.ascii	"SD_READY\000"
 3651      45414459 
 3651      00
 3652              	.LASF66:
 3653 045b 715F746F 		.ascii	"q_top\000"
 3653      7000
 3654              	.LASF30:
 3655 0461 705F6E61 		.ascii	"p_name\000"
 3655      6D6500
 3656              	.LASF56:
 3657 0468 65735F6E 		.ascii	"es_next\000"
 3657      65787400 
 3658              	.LASF69:
 3659 0470 715F6E6F 		.ascii	"q_notify\000"
 3659      74696679 
 3659      00
 3660              	.LASF37:
 3661 0479 705F6D73 		.ascii	"p_msg\000"
 3661      6700
 3662              	.LASF128:
 3663 047f 73645265 		.ascii	"sdRequestDataI\000"
 3663      71756573 
 3663      74446174 
 3663      614900
 3664              	.LASF3:
 3665 048e 75696E74 		.ascii	"uint8_t\000"
 3665      385F7400 
 3666              	.LASF83:
 3667 0496 666C6167 		.ascii	"flags\000"
ARM GAS  /tmp/ccrp9Byk.s 			page 71


 3667      7300
 3668              	.LASF117:
 3669 049c 6F6E6F74 		.ascii	"onotify\000"
 3669      69667900 
 3670              	.LASF51:
 3671 04a4 4576656E 		.ascii	"EventListener\000"
 3671      744C6973 
 3671      74656E65 
 3671      7200
 3672              	.LASF59:
 3673 04b2 77746F62 		.ascii	"wtobjp\000"
 3673      6A7000
 3674              	.LASF78:
 3675 04b9 67657477 		.ascii	"getwouldblock\000"
 3675      6F756C64 
 3675      626C6F63 
 3675      6B00
 3676              	.LASF104:
 3677 04c7 73635F63 		.ascii	"sc_cr1\000"
 3677      723100
 3678              	.LASF105:
 3679 04ce 73635F63 		.ascii	"sc_cr2\000"
 3679      723200
 3680              	.LASF106:
 3681 04d5 73635F63 		.ascii	"sc_cr3\000"
 3681      723300
 3682              	.LASF127:
 3683 04dc 7364496E 		.ascii	"sdInit\000"
 3683      697400
 3684              	.LASF49:
 3685 04e3 6D5F6F77 		.ascii	"m_owner\000"
 3685      6E657200 
 3686              	.LASF27:
 3687 04eb 705F6374 		.ascii	"p_ctx\000"
 3687      7800
 3688              	.LASF35:
 3689 04f1 705F7761 		.ascii	"p_waiting\000"
 3689      6974696E 
 3689      6700
 3690              		.ident	"GCC: (Sourcery G++ Lite 2011.03-42) 4.5.2"
ARM GAS  /tmp/ccrp9Byk.s 			page 72


DEFINED SYMBOLS
                            *ABS*:00000000 serial.c
     /tmp/ccrp9Byk.s:26     .text.putwouldblock:00000000 $t
     /tmp/ccrp9Byk.s:31     .text.putwouldblock:00000000 putwouldblock
     /tmp/ccrp9Byk.s:52     .text.getwouldblock:00000000 $t
     /tmp/ccrp9Byk.s:57     .text.getwouldblock:00000000 getwouldblock
     /tmp/ccrp9Byk.s:77     .text.getflags:00000000 $t
     /tmp/ccrp9Byk.s:82     .text.getflags:00000000 getflags
     /tmp/ccrp9Byk.s:120    .text.readt:00000000 $t
     /tmp/ccrp9Byk.s:125    .text.readt:00000000 readt
     /tmp/ccrp9Byk.s:143    .text.reads:00000000 $t
     /tmp/ccrp9Byk.s:148    .text.reads:00000000 reads
     /tmp/ccrp9Byk.s:167    .text.writet:00000000 $t
     /tmp/ccrp9Byk.s:172    .text.writet:00000000 writet
     /tmp/ccrp9Byk.s:190    .text.writes:00000000 $t
     /tmp/ccrp9Byk.s:195    .text.writes:00000000 writes
     /tmp/ccrp9Byk.s:214    .text.gett:00000000 $t
     /tmp/ccrp9Byk.s:219    .text.gett:00000000 gett
     /tmp/ccrp9Byk.s:237    .text.putt:00000000 $t
     /tmp/ccrp9Byk.s:242    .text.putt:00000000 putt
     /tmp/ccrp9Byk.s:260    .text.sdInit:00000000 $t
     /tmp/ccrp9Byk.s:266    .text.sdInit:00000000 sdInit
     /tmp/ccrp9Byk.s:280    .text.sdObjectInit:00000000 $t
     /tmp/ccrp9Byk.s:286    .text.sdObjectInit:00000000 sdObjectInit
     /tmp/ccrp9Byk.s:341    .text.sdObjectInit:0000003c $d
     /tmp/ccrp9Byk.s:346    .text.sdStart:00000000 $t
     /tmp/ccrp9Byk.s:352    .text.sdStart:00000000 sdStart
     /tmp/ccrp9Byk.s:401    .text.sdStop:00000000 $t
     /tmp/ccrp9Byk.s:407    .text.sdStop:00000000 sdStop
     /tmp/ccrp9Byk.s:464    .text.sdIncomingDataI:00000000 $t
     /tmp/ccrp9Byk.s:470    .text.sdIncomingDataI:00000000 sdIncomingDataI
     /tmp/ccrp9Byk.s:530    .text.sdRequestDataI:00000000 $t
     /tmp/ccrp9Byk.s:536    .text.sdRequestDataI:00000000 sdRequestDataI
     /tmp/ccrp9Byk.s:579    .rodata.vmt:00000000 $d
     /tmp/ccrp9Byk.s:583    .rodata.vmt:00000000 vmt
                     .debug_frame:00000010 $d

UNDEFINED SYMBOLS
chIQReadTimeout
chOQWriteTimeout
chIQGetTimeout
chOQPutTimeout
sd_lld_init
chIQInit
chOQInit
sd_lld_start
sd_lld_stop
chOQResetI
chIQResetI
chSchRescheduleS
chIQPutI
chEvtBroadcastFlagsI
chOQGetI
