ARM GAS  /tmp/ccoSedKc.s 			page 1


   1              		.syntax unified
   2              		.cpu cortex-m4
   3              		.eabi_attribute 27, 3
   4              		.eabi_attribute 28, 1
   5              		.fpu fpv4-sp-d16
   6              		.eabi_attribute 20, 1
   7              		.eabi_attribute 21, 1
   8              		.eabi_attribute 23, 3
   9              		.eabi_attribute 24, 1
  10              		.eabi_attribute 25, 1
  11              		.eabi_attribute 26, 1
  12              		.eabi_attribute 30, 2
  13              		.eabi_attribute 18, 4
  14              		.thumb
  15              		.file	"shell.c"
  22 0000 B1030000 		.text
  22      02002302 
  22      00000201 
  22      FB0E0D00 
  22      01010101 
  23              	.Ltext0:
  24              		.cfi_sections	.debug_frame
  25              		.section	.text.cmd_systime,"ax",%progbits
  26              		.align	2
  27              		.p2align 4,,15
  28              		.thumb
  29              		.thumb_func
  30              		.type	cmd_systime, %function
  31              	cmd_systime:
  32              	.LFB121:
  33              		.file 1 "../libs/ChibiOS_2.4.0/os/various/shell.c"
  34              		.loc 1 110 0
  35              		.cfi_startproc
  36              		@ args = 0, pretend = 0, frame = 0
  37              		@ frame_needed = 0, uses_anonymous_args = 0
  38              		@ link register save eliminated.
  39              	.LVL0:
  40              		.loc 1 113 0
  41 0000 0029     		cmp	r1, #0
  42 0002 03DD     		ble	.L2
  43              	.LVL1:
  44              	.LBB11:
  45              	.LBB12:
  46              		.loc 1 67 0
  47 0004 0449     		ldr	r1, .L4
  48              	.LVL2:
  49 0006 054A     		ldr	r2, .L4+4
  50              	.LVL3:
  51              	.LBE12:
  52              	.LBE11:
  53              		.loc 1 118 0
ARM GAS  /tmp/ccoSedKc.s 			page 2


  54              	.LBB14:
  55              	.LBB13:
  56              		.loc 1 67 0
  57 0008 FFF7FEBF 		b	chprintf
  58              	.LVL4:
  59              	.L2:
  60              	.LBE13:
  61              	.LBE14:
  62              		.loc 1 117 0
  63 000c 044B     		ldr	r3, .L4+8
  64 000e 0549     		ldr	r1, .L4+12
  65              	.LVL5:
  66 0010 DA68     		ldr	r2, [r3, #12]
  67              	.LVL6:
  68              		.loc 1 118 0
  69              		.loc 1 117 0
  70 0012 FFF7FEBF 		b	chprintf
  71              	.LVL7:
  72              	.L5:
  73 0016 00BF     		.align	2
  74              	.L4:
  75 0018 00000000 		.word	.LC0
  76 001c 0C000000 		.word	.LC1
  77 0020 00000000 		.word	vtlist
  78 0024 14000000 		.word	.LC2
  79              		.cfi_endproc
  80              	.LFE121:
  81              		.size	cmd_systime, .-cmd_systime
  82 0028 AFF30080 		.section	.text.cmd_info,"ax",%progbits
  82      AFF30080 
  83              		.align	2
  84              		.p2align 4,,15
  85              		.thumb
  86              		.thumb_func
  87              		.type	cmd_info, %function
  88              	cmd_info:
  89              	.LFB120:
  90              		.loc 1 78 0
  91              		.cfi_startproc
  92              		@ args = 0, pretend = 0, frame = 0
  93              		@ frame_needed = 0, uses_anonymous_args = 0
  94              	.LVL8:
  95 0000 10B5     		push	{r4, lr}
  96              	.LCFI0:
  97              		.cfi_def_cfa_offset 8
  98              		.loc 1 81 0
  99 0002 0029     		cmp	r1, #0
 100              		.loc 1 78 0
 101 0004 82B0     		sub	sp, sp, #8
 102              	.LCFI1:
 103              		.cfi_def_cfa_offset 16
 104              		.loc 1 78 0
 105 0006 0446     		mov	r4, r0
 106              		.cfi_offset 14, -4
 107              		.cfi_offset 4, -8
 108              		.loc 1 81 0
 109 0008 06DD     		ble	.L7
ARM GAS  /tmp/ccoSedKc.s 			page 3


 110              	.LVL9:
 111              	.LBB15:
 112              	.LBB16:
 113              		.loc 1 67 0
 114 000a 1949     		ldr	r1, .L8
 115              	.LVL10:
 116 000c 194A     		ldr	r2, .L8+4
 117              	.LVL11:
 118              	.LBE16:
 119              	.LBE15:
 120              		.loc 1 108 0
 121 000e 02B0     		add	sp, sp, #8
 122 0010 BDE81040 		pop	{r4, lr}
 123              	.LBB18:
 124              	.LBB17:
 125              		.loc 1 67 0
 126 0014 FFF7FEBF 		b	chprintf
 127              	.LVL12:
 128              	.L7:
 129              	.LBE17:
 130              	.LBE18:
 131              		.loc 1 86 0
 132 0018 1749     		ldr	r1, .L8+8
 133              	.LVL13:
 134 001a 184A     		ldr	r2, .L8+12
 135              	.LVL14:
 136 001c FFF7FEFF 		bl	chprintf
 137              		.loc 1 88 0
 138 0020 2046     		mov	r0, r4
 139 0022 1749     		ldr	r1, .L8+16
 140 0024 174A     		ldr	r2, .L8+20
 141 0026 FFF7FEFF 		bl	chprintf
 142              		.loc 1 90 0
 143 002a 2046     		mov	r0, r4
 144 002c 1649     		ldr	r1, .L8+24
 145 002e 174A     		ldr	r2, .L8+28
 146 0030 FFF7FEFF 		bl	chprintf
 147              		.loc 1 92 0
 148 0034 2046     		mov	r0, r4
 149 0036 1649     		ldr	r1, .L8+32
 150 0038 164A     		ldr	r2, .L8+36
 151 003a FFF7FEFF 		bl	chprintf
 152              		.loc 1 95 0
 153 003e 2046     		mov	r0, r4
 154 0040 1549     		ldr	r1, .L8+40
 155 0042 164A     		ldr	r2, .L8+44
 156 0044 FFF7FEFF 		bl	chprintf
 157              		.loc 1 98 0
 158 0048 2046     		mov	r0, r4
 159 004a 1549     		ldr	r1, .L8+48
 160 004c 154A     		ldr	r2, .L8+52
 161 004e FFF7FEFF 		bl	chprintf
 162              		.loc 1 101 0
 163 0052 2046     		mov	r0, r4
 164 0054 1449     		ldr	r1, .L8+56
 165 0056 154A     		ldr	r2, .L8+60
 166 0058 FFF7FEFF 		bl	chprintf
ARM GAS  /tmp/ccoSedKc.s 			page 4


 167              		.loc 1 105 0
 168 005c 1448     		ldr	r0, .L8+64
 169 005e 1549     		ldr	r1, .L8+68
 170 0060 0090     		str	r0, [sp, #0]
 171 0062 154A     		ldr	r2, .L8+72
 172 0064 154B     		ldr	r3, .L8+76
 173 0066 2046     		mov	r0, r4
 174 0068 FFF7FEFF 		bl	chprintf
 175              		.loc 1 108 0
 176 006c 02B0     		add	sp, sp, #8
 177 006e 10BD     		pop	{r4, pc}
 178              	.L9:
 179              		.align	2
 180              	.L8:
 181 0070 00000000 		.word	.LC0
 182 0074 1C000000 		.word	.LC3
 183 0078 24000000 		.word	.LC4
 184 007c 38000000 		.word	.LC5
 185 0080 40000000 		.word	.LC6
 186 0084 54000000 		.word	.LC7
 187 0088 60000000 		.word	.LC8
 188 008c 74000000 		.word	.LC9
 189 0090 80000000 		.word	.LC10
 190 0094 94000000 		.word	.LC11
 191 0098 A0000000 		.word	.LC12
 192 009c B4000000 		.word	.LC13
 193 00a0 CC000000 		.word	.LC14
 194 00a4 E0000000 		.word	.LC15
 195 00a8 00010000 		.word	.LC16
 196 00ac 14010000 		.word	.LC17
 197 00b0 54010000 		.word	.LC21
 198 00b4 2C010000 		.word	.LC18
 199 00b8 44010000 		.word	.LC19
 200 00bc 50010000 		.word	.LC20
 201              		.cfi_endproc
 202              	.LFE120:
 203              		.size	cmd_info, .-cmd_info
 204              		.section	.text.list_commands,"ax",%progbits
 205              		.align	2
 206              		.p2align 4,,15
 207              		.thumb
 208              		.thumb_func
 209              		.type	list_commands, %function
 210              	list_commands:
 211              	.LFB119:
 212              		.loc 1 70 0
 213              		.cfi_startproc
 214              		@ args = 0, pretend = 0, frame = 0
 215              		@ frame_needed = 0, uses_anonymous_args = 0
 216              	.LVL15:
 217              		.loc 1 72 0
 218 0000 0A68     		ldr	r2, [r1, #0]
 219              		.loc 1 70 0
 220 0002 38B5     		push	{r3, r4, r5, lr}
 221              	.LCFI2:
 222              		.cfi_def_cfa_offset 16
 223              		.loc 1 70 0
ARM GAS  /tmp/ccoSedKc.s 			page 5


 224 0004 0546     		mov	r5, r0
 225              		.cfi_offset 14, -4
 226              		.cfi_offset 5, -8
 227              		.cfi_offset 4, -12
 228              		.cfi_offset 3, -16
 229              		.loc 1 72 0
 230 0006 42B1     		cbz	r2, .L10
 231 0008 0C46     		mov	r4, r1
 232              	.LVL16:
 233              	.L12:
 234              		.loc 1 73 0
 235 000a 2846     		mov	r0, r5
 236 000c 0349     		ldr	r1, .L14
 237 000e FFF7FEFF 		bl	chprintf
 238              		.loc 1 72 0
 239 0012 54F8082F 		ldr	r2, [r4, #8]!
 240 0016 002A     		cmp	r2, #0
 241 0018 F7D1     		bne	.L12
 242              	.L10:
 243 001a 38BD     		pop	{r3, r4, r5, pc}
 244              	.L15:
 245              		.align	2
 246              	.L14:
 247 001c 60010000 		.word	.LC22
 248              		.cfi_endproc
 249              	.LFE119:
 250              		.size	list_commands, .-list_commands
 251              		.section	.text.cmdexec,"ax",%progbits
 252              		.align	2
 253              		.p2align 4,,15
 254              		.thumb
 255              		.thumb_func
 256              		.type	cmdexec, %function
 257              	cmdexec:
 258              	.LFB122:
 259              		.loc 1 130 0
 260              		.cfi_startproc
 261              		@ args = 4, pretend = 0, frame = 0
 262              		@ frame_needed = 0, uses_anonymous_args = 0
 263              	.LVL17:
 264 0000 2DE9F041 		push	{r4, r5, r6, r7, r8, lr}
 265              	.LCFI3:
 266              		.cfi_def_cfa_offset 24
 267              		.loc 1 130 0
 268 0004 0546     		mov	r5, r0
 269              		.cfi_offset 14, -4
 270              		.cfi_offset 8, -8
 271              		.cfi_offset 7, -12
 272              		.cfi_offset 6, -16
 273              		.cfi_offset 5, -20
 274              		.cfi_offset 4, -24
 275              		.loc 1 132 0
 276 0006 0068     		ldr	r0, [r0, #0]
 277              	.LVL18:
 278              		.loc 1 130 0
 279 0008 0C46     		mov	r4, r1
 280 000a 1646     		mov	r6, r2
ARM GAS  /tmp/ccoSedKc.s 			page 6


 281 000c 9846     		mov	r8, r3
 282              		.loc 1 132 0
 283 000e A8B1     		cbz	r0, .L20
 284 0010 2F46     		mov	r7, r5
 285 0012 02E0     		b	.L19
 286              	.LVL19:
 287              	.L18:
 288 0014 57F8080F 		ldr	r0, [r7, #8]!
 289              	.LVL20:
 290 0018 68B1     		cbz	r0, .L22
 291              	.LVL21:
 292              	.L19:
 293              		.loc 1 133 0
 294 001a 3146     		mov	r1, r6
 295 001c FFF7FEFF 		bl	strcasecmp
 296 0020 0546     		mov	r5, r0
 297 0022 0028     		cmp	r0, #0
 298 0024 F6D1     		bne	.L18
 299              		.loc 1 134 0
 300 0026 2046     		mov	r0, r4
 301 0028 7E68     		ldr	r6, [r7, #4]
 302              	.LVL22:
 303 002a 069A     		ldr	r2, [sp, #24]
 304 002c 4146     		mov	r1, r8
 305 002e B047     		blx	r6
 306              		.loc 1 135 0
 307 0030 2846     		mov	r0, r5
 308 0032 BDE8F081 		pop	{r4, r5, r6, r7, r8, pc}
 309              	.LVL23:
 310              	.L22:
 311              		.loc 1 139 0
 312 0036 0120     		movs	r0, #1
 313 0038 BDE8F081 		pop	{r4, r5, r6, r7, r8, pc}
 314              	.LVL24:
 315              	.L20:
 316 003c 0120     		movs	r0, #1
 317              		.loc 1 140 0
 318 003e BDE8F081 		pop	{r4, r5, r6, r7, r8, pc}
 319              		.cfi_endproc
 320              	.LFE122:
 321              		.size	cmdexec, .-cmdexec
 322 0042 00BFAFF3 		.section	.text._strtok.clone.0,"ax",%progbits
 322      0080AFF3 
 322      0080AFF3 
 322      0080
 323              		.align	2
 324              		.p2align 4,,15
 325              		.thumb
 326              		.thumb_func
 327              		.type	_strtok.clone.0, %function
 328              	_strtok.clone.0:
 329              	.LFB128:
 330              		.loc 1 48 0
 331              		.cfi_startproc
 332              		@ args = 0, pretend = 0, frame = 0
 333              		@ frame_needed = 0, uses_anonymous_args = 0
 334              	.LVL25:
ARM GAS  /tmp/ccoSedKc.s 			page 7


 335 0000 38B5     		push	{r3, r4, r5, lr}
 336              	.LCFI4:
 337              		.cfi_def_cfa_offset 16
 338              		.loc 1 50 0
 339 0002 0446     		mov	r4, r0
 340              		.cfi_offset 14, -4
 341              		.cfi_offset 5, -8
 342              		.cfi_offset 4, -12
 343              		.cfi_offset 3, -16
 344              		.loc 1 48 0
 345 0004 0D46     		mov	r5, r1
 346              		.loc 1 50 0
 347 0006 A8B1     		cbz	r0, .L24
 348              		.loc 1 51 0
 349 0008 0860     		str	r0, [r1, #0]
 350              	.LVL26:
 351              	.L25:
 352              		.loc 1 57 0
 353 000a 0D49     		ldr	r1, .L29
 354              	.LVL27:
 355 000c 2046     		mov	r0, r4
 356              	.LVL28:
 357 000e FFF7FEFF 		bl	strspn
 358 0012 2418     		adds	r4, r4, r0
 359              	.LVL29:
 360              		.loc 1 58 0
 361 0014 2046     		mov	r0, r4
 362 0016 2021     		movs	r1, #32
 363 0018 FFF7FEFF 		bl	strchr
 364 001c 2860     		str	r0, [r5, #0]
 365              		.loc 1 59 0
 366 001e 18B1     		cbz	r0, .L27
 367              		.loc 1 60 0
 368 0020 0023     		movs	r3, #0
 369 0022 00F8013B 		strb	r3, [r0], #1
 370 0026 2860     		str	r0, [r5, #0]
 371              	.L27:
 372              		.loc 1 62 0
 373 0028 2078     		ldrb	r0, [r4, #0]	@ zero_extendqisi2
 374 002a 0028     		cmp	r0, #0
 375 002c 14BF     		ite	ne
 376 002e 2046     		movne	r0, r4
 377 0030 0020     		moveq	r0, #0
 378 0032 38BD     		pop	{r3, r4, r5, pc}
 379              	.LVL30:
 380              	.L24:
 381              		.loc 1 52 0
 382 0034 0C68     		ldr	r4, [r1, #0]
 383              	.LVL31:
 384              		.loc 1 54 0
 385 0036 002C     		cmp	r4, #0
 386 0038 E7D1     		bne	.L25
 387              		.loc 1 55 0
 388 003a 2046     		mov	r0, r4
 389              	.LVL32:
 390              		.loc 1 63 0
 391 003c 38BD     		pop	{r3, r4, r5, pc}
ARM GAS  /tmp/ccoSedKc.s 			page 8


 392              	.L30:
 393 003e 00BF     		.align	2
 394              	.L29:
 395 0040 00000000 		.word	.LANCHOR0
 396              		.cfi_endproc
 397              	.LFE128:
 398              		.size	_strtok.clone.0, .-_strtok.clone.0
 399 0044 AFF30080 		.section	.text.shellInit,"ax",%progbits
 399      AFF30080 
 399      AFF30080 
 400              		.align	2
 401              		.p2align 4,,15
 402              		.global	shellInit
 403              		.thumb
 404              		.thumb_func
 405              		.type	shellInit, %function
 406              	shellInit:
 407              	.LFB124:
 408              		.loc 1 215 0
 409              		.cfi_startproc
 410              		@ args = 0, pretend = 0, frame = 0
 411              		@ frame_needed = 0, uses_anonymous_args = 0
 412              		@ link register save eliminated.
 413              		.loc 1 217 0
 414 0000 014B     		ldr	r3, .L32
 415 0002 1B60     		str	r3, [r3, #0]
 416              		.loc 1 218 0
 417 0004 7047     		bx	lr
 418              	.L33:
 419 0006 00BF     		.align	2
 420              	.L32:
 421 0008 00000000 		.word	.LANCHOR1
 422              		.cfi_endproc
 423              	.LFE124:
 424              		.size	shellInit, .-shellInit
 425 000c AFF30080 		.section	.text.shellCreate,"ax",%progbits
 426              		.align	2
 427              		.p2align 4,,15
 428              		.global	shellCreate
 429              		.thumb
 430              		.thumb_func
 431              		.type	shellCreate, %function
 432              	shellCreate:
 433              	.LFB125:
 434              		.loc 1 231 0
 435              		.cfi_startproc
 436              		@ args = 0, pretend = 0, frame = 0
 437              		@ frame_needed = 0, uses_anonymous_args = 0
 438              	.LVL33:
 439 0000 00B5     		push	{lr}
 440              	.LCFI5:
 441              		.cfi_def_cfa_offset 4
 442 0002 83B0     		sub	sp, sp, #12
 443              	.LCFI6:
 444              		.cfi_def_cfa_offset 16
 445              		.loc 1 233 0
 446 0004 034B     		ldr	r3, .L35
ARM GAS  /tmp/ccoSedKc.s 			page 9


 447 0006 0090     		str	r0, [sp, #0]
 448 0008 0020     		movs	r0, #0
 449              	.LVL34:
 450              		.cfi_offset 14, -4
 451 000a FFF7FEFF 		bl	chThdCreateFromHeap
 452              	.LVL35:
 453              		.loc 1 234 0
 454 000e 03B0     		add	sp, sp, #12
 455 0010 00BD     		pop	{pc}
 456              	.L36:
 457 0012 00BF     		.align	2
 458              	.L35:
 459 0014 00000000 		.word	shell_thread
 460              		.cfi_endproc
 461              	.LFE125:
 462              		.size	shellCreate, .-shellCreate
 463 0018 AFF30080 		.section	.text.shellCreateStatic,"ax",%progbits
 463      AFF30080 
 464              		.align	2
 465              		.p2align 4,,15
 466              		.global	shellCreateStatic
 467              		.thumb
 468              		.thumb_func
 469              		.type	shellCreateStatic, %function
 470              	shellCreateStatic:
 471              	.LFB126:
 472              		.loc 1 247 0
 473              		.cfi_startproc
 474              		@ args = 0, pretend = 0, frame = 0
 475              		@ frame_needed = 0, uses_anonymous_args = 0
 476              	.LVL36:
 477 0000 00B5     		push	{lr}
 478              	.LCFI7:
 479              		.cfi_def_cfa_offset 4
 480 0002 83B0     		sub	sp, sp, #12
 481              	.LCFI8:
 482              		.cfi_def_cfa_offset 16
 483              		.loc 1 249 0
 484 0004 0090     		str	r0, [sp, #0]
 485 0006 0846     		mov	r0, r1
 486              	.LVL37:
 487 0008 1146     		mov	r1, r2
 488              	.LVL38:
 489 000a 1A46     		mov	r2, r3
 490              	.LVL39:
 491 000c 024B     		ldr	r3, .L38
 492              	.LVL40:
 493              		.cfi_offset 14, -4
 494 000e FFF7FEFF 		bl	chThdCreateStatic
 495              	.LVL41:
 496              		.loc 1 250 0
 497 0012 03B0     		add	sp, sp, #12
 498 0014 00BD     		pop	{pc}
 499              	.L39:
 500 0016 00BF     		.align	2
 501              	.L38:
 502 0018 00000000 		.word	shell_thread
ARM GAS  /tmp/ccoSedKc.s 			page 10


 503              		.cfi_endproc
 504              	.LFE126:
 505              		.size	shellCreateStatic, .-shellCreateStatic
 506 001c AFF30080 		.section	.text.shellGetLine,"ax",%progbits
 507              		.align	2
 508              		.p2align 4,,15
 509              		.global	shellGetLine
 510              		.thumb
 511              		.thumb_func
 512              		.type	shellGetLine, %function
 513              	shellGetLine:
 514              	.LFB127:
 515              		.loc 1 262 0
 516              		.cfi_startproc
 517              		@ args = 0, pretend = 0, frame = 0
 518              		@ frame_needed = 0, uses_anonymous_args = 0
 519              	.LVL42:
 520              	.LBB19:
 521              		.loc 1 289 0
 522 0000 013A     		subs	r2, r2, #1
 523              	.LVL43:
 524              	.LBE19:
 525              		.loc 1 262 0
 526 0002 2DE9F843 		push	{r3, r4, r5, r6, r7, r8, r9, lr}
 527              	.LCFI9:
 528              		.cfi_def_cfa_offset 32
 529              		.loc 1 262 0
 530 0006 8846     		mov	r8, r1
 531              		.cfi_offset 14, -4
 532              		.cfi_offset 9, -8
 533              		.cfi_offset 8, -12
 534              		.cfi_offset 7, -16
 535              		.cfi_offset 6, -20
 536              		.cfi_offset 5, -24
 537              		.cfi_offset 4, -28
 538              		.cfi_offset 3, -32
 539              	.LVL44:
 540 0008 0546     		mov	r5, r0
 541              		.loc 1 263 0
 542 000a 0F46     		mov	r7, r1
 543              	.LBB20:
 544              		.loc 1 289 0
 545 000c 01EB0209 		add	r9, r1, r2
 546              	.LVL45:
 547              	.L50:
 548              		.loc 1 266 0
 549 0010 2968     		ldr	r1, [r5, #0]
 550 0012 2846     		mov	r0, r5
 551 0014 4B69     		ldr	r3, [r1, #20]
 552 0016 4FF0FF31 		mov	r1, #-1
 553 001a 9847     		blx	r3
 554              		.loc 1 267 0
 555 001c 04B2     		sxth	r4, r0
 556 001e 002C     		cmp	r4, #0
 557              		.loc 1 266 0
 558 0020 0646     		mov	r6, r0	@ movhi
 559              	.LVL46:
ARM GAS  /tmp/ccoSedKc.s 			page 11


 560              		.loc 1 267 0
 561 0022 2CDB     		blt	.L47
 562              		.loc 1 269 0
 563 0024 042C     		cmp	r4, #4
 564 0026 2DD0     		beq	.L51
 565              		.loc 1 273 0
 566 0028 082C     		cmp	r4, #8
 567 002a 0FD0     		beq	.L52
 568              		.loc 1 282 0
 569 002c 0D2C     		cmp	r4, #13
 570 002e 30D0     		beq	.L53
 571              		.loc 1 287 0
 572 0030 1F2C     		cmp	r4, #31
 573 0032 EDDD     		ble	.L50
 574              		.loc 1 289 0
 575 0034 4F45     		cmp	r7, r9
 576 0036 EBD2     		bcs	.L50
 577              		.loc 1 290 0
 578 0038 2968     		ldr	r1, [r5, #0]
 579 003a 2846     		mov	r0, r5
 580 003c 0C69     		ldr	r4, [r1, #16]
 581 003e 4FF0FF32 		mov	r2, #-1
 582 0042 F1B2     		uxtb	r1, r6
 583 0044 A047     		blx	r4
 584              		.loc 1 291 0
 585 0046 07F8016B 		strb	r6, [r7], #1
 586              	.LVL47:
 587 004a E1E7     		b	.L50
 588              	.L52:
 589              		.loc 1 274 0
 590 004c 4745     		cmp	r7, r8
 591 004e DFD0     		beq	.L50
 592              		.loc 1 275 0
 593 0050 2B68     		ldr	r3, [r5, #0]
 594 0052 2146     		mov	r1, r4
 595 0054 1E69     		ldr	r6, [r3, #16]
 596              	.LVL48:
 597 0056 4FF0FF32 		mov	r2, #-1
 598 005a 2846     		mov	r0, r5
 599 005c B047     		blx	r6
 600              		.loc 1 276 0
 601 005e 2868     		ldr	r0, [r5, #0]
 602 0060 2021     		movs	r1, #32
 603 0062 0369     		ldr	r3, [r0, #16]
 604 0064 4FF0FF32 		mov	r2, #-1
 605 0068 2846     		mov	r0, r5
 606 006a 9847     		blx	r3
 607              		.loc 1 277 0
 608 006c 2A68     		ldr	r2, [r5, #0]
 609 006e 2846     		mov	r0, r5
 610 0070 1669     		ldr	r6, [r2, #16]
 611 0072 2146     		mov	r1, r4
 612 0074 4FF0FF32 		mov	r2, #-1
 613 0078 B047     		blx	r6
 614              		.loc 1 278 0
 615 007a 013F     		subs	r7, r7, #1
 616              	.LVL49:
ARM GAS  /tmp/ccoSedKc.s 			page 12


 617 007c C8E7     		b	.L50
 618              	.LVL50:
 619              	.L47:
 620              		.loc 1 268 0
 621 007e 0120     		movs	r0, #1
 622              	.LBE20:
 623              		.loc 1 294 0
 624 0080 BDE8F883 		pop	{r3, r4, r5, r6, r7, r8, r9, pc}
 625              	.L51:
 626              	.LBB21:
 627              		.loc 1 270 0
 628 0084 2846     		mov	r0, r5
 629 0086 0749     		ldr	r1, .L54
 630 0088 FFF7FEFF 		bl	chprintf
 631              		.loc 1 271 0
 632 008c 0120     		movs	r0, #1
 633 008e BDE8F883 		pop	{r3, r4, r5, r6, r7, r8, r9, pc}
 634              	.L53:
 635              		.loc 1 283 0
 636 0092 2846     		mov	r0, r5
 637 0094 0449     		ldr	r1, .L54+4
 638 0096 FFF7FEFF 		bl	chprintf
 639              		.loc 1 284 0
 640 009a 0020     		movs	r0, #0
 641 009c 3870     		strb	r0, [r7, #0]
 642              		.loc 1 285 0
 643 009e BDE8F883 		pop	{r3, r4, r5, r6, r7, r8, r9, pc}
 644              	.L55:
 645 00a2 00BF     		.align	2
 646              	.L54:
 647 00a4 64010000 		.word	.LC24
 648 00a8 68010000 		.word	.LC25
 649              	.LBE21:
 650              		.cfi_endproc
 651              	.LFE127:
 652              		.size	shellGetLine, .-shellGetLine
 653 00ac AFF30080 		.section	.text.shell_thread,"ax",%progbits
 654              		.align	2
 655              		.p2align 4,,15
 656              		.thumb
 657              		.thumb_func
 658              		.type	shell_thread, %function
 659              	shell_thread:
 660              	.LFB123:
 661              		.loc 1 150 0
 662              		.cfi_startproc
 663              		@ args = 0, pretend = 0, frame = 88
 664              		@ frame_needed = 0, uses_anonymous_args = 0
 665              	.LVL51:
 666 0000 2DE9F041 		push	{r4, r5, r6, r7, r8, lr}
 667              	.LCFI10:
 668              		.cfi_def_cfa_offset 24
 669              		.loc 1 158 0
 670 0004 6449     		ldr	r1, .L78
 671              		.loc 1 153 0
 672 0006 0468     		ldr	r4, [r0, #0]
 673              		.cfi_offset 14, -4
ARM GAS  /tmp/ccoSedKc.s 			page 13


 674              		.cfi_offset 8, -8
 675              		.cfi_offset 7, -12
 676              		.cfi_offset 6, -16
 677              		.cfi_offset 5, -20
 678              		.cfi_offset 4, -24
 679              	.LVL52:
 680              		.loc 1 158 0
 681 0008 CB69     		ldr	r3, [r1, #28]
 682 000a 644A     		ldr	r2, .L78+4
 683              		.loc 1 154 0
 684 000c D0F80480 		ldr	r8, [r0, #4]
 685              	.LVL53:
 686              		.loc 1 159 0
 687 0010 6349     		ldr	r1, .L78+8
 688              		.loc 1 158 0
 689 0012 9A61     		str	r2, [r3, #24]
 690              		.loc 1 150 0
 691 0014 98B0     		sub	sp, sp, #96
 692              	.LCFI11:
 693              		.cfi_def_cfa_offset 120
 694              		.loc 1 159 0
 695 0016 2046     		mov	r0, r4
 696              	.LVL54:
 697 0018 FFF7FEFF 		bl	chprintf
 698              	.LVL55:
 699              		.loc 1 177 0
 700 001c 0027     		movs	r7, #0
 701              	.L76:
 702              		.loc 1 161 0
 703 001e 2046     		mov	r0, r4
 704 0020 6049     		ldr	r1, .L78+12
 705 0022 FFF7FEFF 		bl	chprintf
 706              		.loc 1 162 0
 707 0026 2046     		mov	r0, r4
 708 0028 02A9     		add	r1, sp, #8
 709 002a 4022     		movs	r2, #64
 710 002c FFF7FEFF 		bl	shellGetLine
 711 0030 0646     		mov	r6, r0
 712 0032 0028     		cmp	r0, #0
 713 0034 3BD1     		bne	.L77
 714              	.L59:
 715              		.loc 1 166 0
 716 0036 17A9     		add	r1, sp, #92
 717 0038 02A8     		add	r0, sp, #8
 718 003a FFF7FEFF 		bl	_strtok.clone.0
 719              		.loc 1 169 0
 720 003e 17A9     		add	r1, sp, #92
 721              		.loc 1 166 0
 722 0040 0546     		mov	r5, r0
 723              	.LVL56:
 724              		.loc 1 169 0
 725 0042 3046     		mov	r0, r6
 726              	.LVL57:
 727 0044 FFF7FEFF 		bl	_strtok.clone.0
 728              	.LVL58:
 729 0048 0346     		mov	r3, r0
 730 004a 0028     		cmp	r0, #0
ARM GAS  /tmp/ccoSedKc.s 			page 14


 731 004c 41D0     		beq	.L69
 732 004e 3046     		mov	r0, r6
 733              	.LVL59:
 734 0050 17A9     		add	r1, sp, #92
 735              		.loc 1 175 0
 736 0052 1293     		str	r3, [sp, #72]
 737              	.LVL60:
 738              		.loc 1 169 0
 739 0054 FFF7FEFF 		bl	_strtok.clone.0
 740              	.LVL61:
 741 0058 0346     		mov	r3, r0
 742 005a 0028     		cmp	r0, #0
 743 005c 5CD0     		beq	.L70
 744 005e 3046     		mov	r0, r6
 745              	.LVL62:
 746 0060 17A9     		add	r1, sp, #92
 747              		.loc 1 175 0
 748 0062 1393     		str	r3, [sp, #76]
 749              	.LVL63:
 750              		.loc 1 169 0
 751 0064 FFF7FEFF 		bl	_strtok.clone.0
 752              	.LVL64:
 753 0068 0346     		mov	r3, r0
 754 006a 0028     		cmp	r0, #0
 755 006c 56D0     		beq	.L71
 756 006e 3046     		mov	r0, r6
 757              	.LVL65:
 758 0070 17A9     		add	r1, sp, #92
 759              		.loc 1 175 0
 760 0072 1493     		str	r3, [sp, #80]
 761              	.LVL66:
 762              		.loc 1 169 0
 763 0074 FFF7FEFF 		bl	_strtok.clone.0
 764              	.LVL67:
 765 0078 0346     		mov	r3, r0
 766 007a 0028     		cmp	r0, #0
 767 007c 50D0     		beq	.L72
 768 007e 3046     		mov	r0, r6
 769              	.LVL68:
 770 0080 17A9     		add	r1, sp, #92
 771              		.loc 1 175 0
 772 0082 1593     		str	r3, [sp, #84]
 773              	.LVL69:
 774              		.loc 1 169 0
 775 0084 FFF7FEFF 		bl	_strtok.clone.0
 776              	.LVL70:
 777 0088 0028     		cmp	r0, #0
 778 008a 4BD0     		beq	.L73
 779              		.loc 1 171 0
 780 008c 2046     		mov	r0, r4
 781              	.LVL71:
 782 008e 4649     		ldr	r1, .L78+16
 783 0090 FFF7FEFF 		bl	chprintf
 784              	.LVL72:
 785              		.loc 1 161 0
 786 0094 2046     		mov	r0, r4
 787 0096 4349     		ldr	r1, .L78+12
ARM GAS  /tmp/ccoSedKc.s 			page 15


 788              		.loc 1 177 0
 789 0098 1696     		str	r6, [sp, #88]
 790              		.loc 1 161 0
 791 009a FFF7FEFF 		bl	chprintf
 792              		.loc 1 162 0
 793 009e 2046     		mov	r0, r4
 794 00a0 02A9     		add	r1, sp, #8
 795 00a2 4022     		movs	r2, #64
 796 00a4 FFF7FEFF 		bl	shellGetLine
 797 00a8 0646     		mov	r6, r0
 798 00aa 0028     		cmp	r0, #0
 799 00ac C3D0     		beq	.L59
 800              	.LVL73:
 801              	.L77:
 802              		.loc 1 163 0
 803 00ae 2046     		mov	r0, r4
 804 00b0 3E49     		ldr	r1, .L78+20
 805 00b2 FFF7FEFF 		bl	chprintf
 806              	.L60:
 807              	.LBB22:
 808              		.loc 1 206 0
 809 00b6 2023     		movs	r3, #32
 810              	.LVL74:
 811              	@ 206 "../libs/ChibiOS_2.4.0/os/various/shell.c" 1
 812 00b8 83F31188 		msr     BASEPRI, r3
 813              	@ 0 "" 2
 814              	.LVL75:
 815              		.thumb
 816              	.LBE22:
 817              		.loc 1 207 0
 818 00bc 0021     		movs	r1, #0
 819 00be 3C48     		ldr	r0, .L78+24
 820 00c0 FFF7FEFF 		bl	chEvtBroadcastFlagsI
 821              	.LVL76:
 822              		.loc 1 208 0
 823 00c4 0020     		movs	r0, #0
 824 00c6 FFF7FEFF 		bl	chThdExitS
 825              		.loc 1 210 0
 826 00ca 0020     		movs	r0, #0
 827 00cc 18B0     		add	sp, sp, #96
 828 00ce BDE8F081 		pop	{r4, r5, r6, r7, r8, pc}
 829              	.LVL77:
 830              	.L69:
 831              		.loc 1 168 0
 832 00d2 0646     		mov	r6, r0
 833              	.LVL78:
 834              	.L61:
 835              		.loc 1 177 0
 836 00d4 0DF1600C 		add	ip, sp, #96
 837 00d8 0CEB8600 		add	r0, ip, r6, lsl #2
 838              	.LVL79:
 839 00dc 40F8187C 		str	r7, [r0, #-24]
 840              		.loc 1 178 0
 841 00e0 002D     		cmp	r5, #0
 842 00e2 9CD0     		beq	.L76
 843              		.loc 1 179 0
 844 00e4 2846     		mov	r0, r5
ARM GAS  /tmp/ccoSedKc.s 			page 16


 845 00e6 3349     		ldr	r1, .L78+28
 846 00e8 FFF7FEFF 		bl	strcasecmp
 847 00ec 38B9     		cbnz	r0, .L63
 848              		.loc 1 180 0
 849 00ee 002E     		cmp	r6, #0
 850 00f0 E1D0     		beq	.L60
 851              	.LVL80:
 852              	.LBB23:
 853              	.LBB24:
 854              		.loc 1 67 0
 855 00f2 2046     		mov	r0, r4
 856 00f4 3049     		ldr	r1, .L78+32
 857 00f6 2F4A     		ldr	r2, .L78+28
 858 00f8 FFF7FEFF 		bl	chprintf
 859              	.LBE24:
 860              	.LBE23:
 861              		.loc 1 182 0
 862 00fc 8FE7     		b	.L76
 863              	.LVL81:
 864              	.L63:
 865              		.loc 1 186 0
 866 00fe 2846     		mov	r0, r5
 867 0100 2E49     		ldr	r1, .L78+36
 868 0102 FFF7FEFF 		bl	strcasecmp
 869 0106 78B9     		cbnz	r0, .L65
 870              		.loc 1 187 0
 871 0108 002E     		cmp	r6, #0
 872 010a 30D0     		beq	.L66
 873              	.LVL82:
 874              	.LBB25:
 875              	.LBB26:
 876              		.loc 1 67 0
 877 010c 2046     		mov	r0, r4
 878 010e 2A49     		ldr	r1, .L78+32
 879 0110 2A4A     		ldr	r2, .L78+36
 880 0112 FFF7FEFF 		bl	chprintf
 881              	.LBE26:
 882              	.LBE25:
 883              		.loc 1 189 0
 884 0116 82E7     		b	.L76
 885              	.LVL83:
 886              	.L70:
 887              		.loc 1 175 0
 888 0118 0126     		movs	r6, #1
 889 011a DBE7     		b	.L61
 890              	.LVL84:
 891              	.L71:
 892 011c 0226     		movs	r6, #2
 893 011e D9E7     		b	.L61
 894              	.LVL85:
 895              	.L72:
 896 0120 0326     		movs	r6, #3
 897 0122 D7E7     		b	.L61
 898              	.LVL86:
 899              	.L73:
 900              		.loc 1 169 0
 901 0124 0426     		movs	r6, #4
ARM GAS  /tmp/ccoSedKc.s 			page 17


 902 0126 D5E7     		b	.L61
 903              	.LVL87:
 904              	.L65:
 905              		.loc 1 197 0
 906 0128 12AA     		add	r2, sp, #72
 907 012a 0092     		str	r2, [sp, #0]
 908 012c 2448     		ldr	r0, .L78+40
 909 012e 2146     		mov	r1, r4
 910 0130 2A46     		mov	r2, r5
 911 0132 3346     		mov	r3, r6
 912 0134 FFF7FEFF 		bl	cmdexec
 913 0138 0028     		cmp	r0, #0
 914 013a 3FF470AF 		beq	.L76
 915              		.loc 1 197 0 is_stmt 0 discriminator 1
 916 013e B8F1000F 		cmp	r8, #0
 917 0142 0AD0     		beq	.L68
 918              		.loc 1 198 0 is_stmt 1
 919 0144 3346     		mov	r3, r6
 920 0146 4046     		mov	r0, r8
 921 0148 12AE     		add	r6, sp, #72
 922 014a 2146     		mov	r1, r4
 923 014c 2A46     		mov	r2, r5
 924 014e 0096     		str	r6, [sp, #0]
 925 0150 FFF7FEFF 		bl	cmdexec
 926 0154 0028     		cmp	r0, #0
 927 0156 3FF462AF 		beq	.L76
 928              	.L68:
 929              		.loc 1 199 0
 930 015a 2046     		mov	r0, r4
 931 015c 1949     		ldr	r1, .L78+44
 932 015e 2A46     		mov	r2, r5
 933 0160 FFF7FEFF 		bl	chprintf
 934              		.loc 1 200 0
 935 0164 2046     		mov	r0, r4
 936 0166 1849     		ldr	r1, .L78+48
 937 0168 FFF7FEFF 		bl	chprintf
 938 016c 57E7     		b	.L76
 939              	.L66:
 940              		.loc 1 191 0
 941 016e 1749     		ldr	r1, .L78+52
 942 0170 2046     		mov	r0, r4
 943 0172 FFF7FEFF 		bl	chprintf
 944              		.loc 1 192 0
 945 0176 2046     		mov	r0, r4
 946 0178 1149     		ldr	r1, .L78+40
 947 017a FFF7FEFF 		bl	list_commands
 948              		.loc 1 193 0
 949 017e B8F1000F 		cmp	r8, #0
 950 0182 03D0     		beq	.L67
 951              		.loc 1 194 0
 952 0184 2046     		mov	r0, r4
 953 0186 4146     		mov	r1, r8
 954 0188 FFF7FEFF 		bl	list_commands
 955              	.L67:
 956              		.loc 1 195 0
 957 018c 2046     		mov	r0, r4
 958 018e 1049     		ldr	r1, .L78+56
ARM GAS  /tmp/ccoSedKc.s 			page 18


 959 0190 FFF7FEFF 		bl	chprintf
 960 0194 43E7     		b	.L76
 961              	.L79:
 962 0196 00BF     		.align	2
 963              	.L78:
 964 0198 00000000 		.word	rlist
 965 019c 6C010000 		.word	.LC26
 966 01a0 74010000 		.word	.LC27
 967 01a4 8C010000 		.word	.LC28
 968 01a8 A0010000 		.word	.LC30
 969 01ac 94010000 		.word	.LC29
 970 01b0 00000000 		.word	.LANCHOR1
 971 01b4 B8010000 		.word	.LC31
 972 01b8 00000000 		.word	.LC0
 973 01bc C0010000 		.word	.LC32
 974 01c0 00000000 		.word	.LANCHOR2
 975 01c4 E0010000 		.word	.LC34
 976 01c8 E4010000 		.word	.LC35
 977 01cc C8010000 		.word	.LC33
 978 01d0 68010000 		.word	.LC25
 979              		.cfi_endproc
 980              	.LFE123:
 981              		.size	shell_thread, .-shell_thread
 982              		.global	shell_terminated
 983 01d4 AFF30080 		.section	.rodata
 983      AFF30080 
 983      AFF30080 
 984              		.align	2
 985              		.set	.LANCHOR0,. + 0
 986              	.LC23:
 987 0000 20003900 		.ascii	" \0009\000"
 988              		.section	.data.local_commands,"aw",%progbits
 989              		.align	2
 990              		.set	.LANCHOR2,. + 0
 991              		.type	local_commands, %object
 992              		.size	local_commands, 24
 993              	local_commands:
 994 0000 1C000000 		.word	.LC3
 995 0004 00000000 		.word	cmd_info
 996 0008 0C000000 		.word	.LC1
 997 000c 00000000 		.word	cmd_systime
 998 0010 00000000 		.word	0
 999 0014 00000000 		.word	0
 1000              		.section	.rodata.str1.4,"aMS",%progbits,1
 1001              		.align	2
 1002              	.LC0:
 1003 0000 55736167 		.ascii	"Usage: %s\015\012\000"
 1003      653A2025 
 1003      730D0A00 
 1004              	.LC1:
 1005 000c 73797374 		.ascii	"systime\000"
 1005      696D6500 
 1006              	.LC2:
 1007 0014 256C750D 		.ascii	"%lu\015\012\000"
 1007      0A00
 1008 001a 0000     		.space	2
 1009              	.LC3:
ARM GAS  /tmp/ccoSedKc.s 			page 19


 1010 001c 696E666F 		.ascii	"info\000"
 1010      00
 1011 0021 000000   		.space	3
 1012              	.LC4:
 1013 0024 4B65726E 		.ascii	"Kernel:       %s\015\012\000"
 1013      656C3A20 
 1013      20202020 
 1013      20202573 
 1013      0D0A00
 1014 0037 00       		.space	1
 1015              	.LC5:
 1016 0038 322E342E 		.ascii	"2.4.0\000"
 1016      3000
 1017 003e 0000     		.space	2
 1018              	.LC6:
 1019 0040 436F6D70 		.ascii	"Compiler:     %s\015\012\000"
 1019      696C6572 
 1019      3A202020 
 1019      20202573 
 1019      0D0A00
 1020 0053 00       		.space	1
 1021              	.LC7:
 1022 0054 47434320 		.ascii	"GCC 4.5.2\000"
 1022      342E352E 
 1022      3200
 1023 005e 0000     		.space	2
 1024              	.LC8:
 1025 0060 41726368 		.ascii	"Architecture: %s\015\012\000"
 1025      69746563 
 1025      74757265 
 1025      3A202573 
 1025      0D0A00
 1026 0073 00       		.space	1
 1027              	.LC9:
 1028 0074 41524D76 		.ascii	"ARMv7-ME\000"
 1028      372D4D45 
 1028      00
 1029 007d 000000   		.space	3
 1030              	.LC10:
 1031 0080 436F7265 		.ascii	"Core Variant: %s\015\012\000"
 1031      20566172 
 1031      69616E74 
 1031      3A202573 
 1031      0D0A00
 1032 0093 00       		.space	1
 1033              	.LC11:
 1034 0094 436F7274 		.ascii	"Cortex-M4\000"
 1034      65782D4D 
 1034      3400
 1035 009e 0000     		.space	2
 1036              	.LC12:
 1037 00a0 506F7274 		.ascii	"Port Info:    %s\015\012\000"
 1037      20496E66 
 1037      6F3A2020 
 1037      20202573 
 1037      0D0A00
 1038 00b3 00       		.space	1
ARM GAS  /tmp/ccoSedKc.s 			page 20


 1039              	.LC13:
 1040 00b4 41647661 		.ascii	"Advanced kernel mode\000"
 1040      6E636564 
 1040      206B6572 
 1040      6E656C20 
 1040      6D6F6465 
 1041 00c9 000000   		.space	3
 1042              	.LC14:
 1043 00cc 506C6174 		.ascii	"Platform:     %s\015\012\000"
 1043      666F726D 
 1043      3A202020 
 1043      20202573 
 1043      0D0A00
 1044 00df 00       		.space	1
 1045              	.LC15:
 1046 00e0 53544D33 		.ascii	"STM32F4 High Performance & DSP\000"
 1046      32463420 
 1046      48696768 
 1046      20506572 
 1046      666F726D 
 1047 00ff 00       		.space	1
 1048              	.LC16:
 1049 0100 426F6172 		.ascii	"Board:        %s\015\012\000"
 1049      643A2020 
 1049      20202020 
 1049      20202573 
 1049      0D0A00
 1050 0113 00       		.space	1
 1051              	.LC17:
 1052 0114 53542053 		.ascii	"ST STM32F4-Discovery\000"
 1052      544D3332 
 1052      46342D44 
 1052      6973636F 
 1052      76657279 
 1053 0129 000000   		.space	3
 1054              	.LC18:
 1055 012c 4275696C 		.ascii	"Build time:   %s%s%s\015\012\000"
 1055      64207469 
 1055      6D653A20 
 1055      20202573 
 1055      25732573 
 1056 0143 00       		.space	1
 1057              	.LC19:
 1058 0144 4A756E20 		.ascii	"Jun  8 2012\000"
 1058      20382032 
 1058      30313200 
 1059              	.LC20:
 1060 0150 202D2000 		.ascii	" - \000"
 1061              	.LC21:
 1062 0154 31363A30 		.ascii	"16:04:54\000"
 1062      343A3534 
 1062      00
 1063 015d 000000   		.space	3
 1064              	.LC22:
 1065 0160 25732000 		.ascii	"%s \000"
 1066              	.LC24:
 1067 0164 5E4400   		.ascii	"^D\000"
ARM GAS  /tmp/ccoSedKc.s 			page 21


 1068 0167 00       		.space	1
 1069              	.LC25:
 1070 0168 0D0A00   		.ascii	"\015\012\000"
 1071 016b 00       		.space	1
 1072              	.LC26:
 1073 016c 7368656C 		.ascii	"shell\000"
 1073      6C00
 1074 0172 0000     		.space	2
 1075              	.LC27:
 1076 0174 0D0A4368 		.ascii	"\015\012ChibiOS/RT Shell\015\012\000"
 1076      6962694F 
 1076      532F5254 
 1076      20536865 
 1076      6C6C0D0A 
 1077 0189 000000   		.space	3
 1078              	.LC28:
 1079 018c 63683E20 		.ascii	"ch> \000"
 1079      00
 1080 0191 000000   		.space	3
 1081              	.LC29:
 1082 0194 0D0A6C6F 		.ascii	"\015\012logout\000"
 1082      676F7574 
 1082      00
 1083 019d 000000   		.space	3
 1084              	.LC30:
 1085 01a0 746F6F20 		.ascii	"too many arguments\015\012\000"
 1085      6D616E79 
 1085      20617267 
 1085      756D656E 
 1085      74730D0A 
 1086 01b5 000000   		.space	3
 1087              	.LC31:
 1088 01b8 65786974 		.ascii	"exit\000"
 1088      00
 1089 01bd 000000   		.space	3
 1090              	.LC32:
 1091 01c0 68656C70 		.ascii	"help\000"
 1091      00
 1092 01c5 000000   		.space	3
 1093              	.LC33:
 1094 01c8 436F6D6D 		.ascii	"Commands: help exit \000"
 1094      616E6473 
 1094      3A206865 
 1094      6C702065 
 1094      78697420 
 1095 01dd 000000   		.space	3
 1096              	.LC34:
 1097 01e0 257300   		.ascii	"%s\000"
 1098 01e3 00       		.space	1
 1099              	.LC35:
 1100 01e4 203F0D0A 		.ascii	" ?\015\012\000"
 1100      00
 1101 01e9 000000   		.section	.bss.shell_terminated,"aw",%nobits
 1102              		.align	2
 1103              		.set	.LANCHOR1,. + 0
 1104              		.type	shell_terminated, %object
 1105              		.size	shell_terminated, 4
ARM GAS  /tmp/ccoSedKc.s 			page 22


 1106              	shell_terminated:
 1107 0000 00000000 		.space	4
 1108              		.text
 1109              	.Letext0: