ARM GAS  /tmp/ccchMRGn.s 			page 1


   1              		.syntax unified
   2              		.cpu cortex-m4
   3              		.eabi_attribute 27, 3
   4              		.eabi_attribute 28, 1
   5              		.fpu fpv4-sp-d16
   6              		.eabi_attribute 20, 1
   7              		.eabi_attribute 21, 1
   8              		.eabi_attribute 23, 3
   9              		.eabi_attribute 24, 1
  10              		.eabi_attribute 25, 1
  11              		.eabi_attribute 26, 1
  12              		.eabi_attribute 30, 2
  13              		.eabi_attribute 18, 4
  14              		.thumb
  15              		.file	"spi.c"
  22 0000 46040000 		.text
  22      0200EA02 
  22      00000201 
  22      FB0E0D00 
  22      01010101 
  23              	.Ltext0:
  24              		.cfi_sections	.debug_frame
  25              		.section	.text.spiInit,"ax",%progbits
  26              		.align	2
  27              		.p2align 4,,15
  28              		.global	spiInit
  29              		.thumb
  30              		.thumb_func
  31              		.type	spiInit, %function
  32              	spiInit:
  33              	.LFB117:
  34              		.file 1 "../libs/ChibiOS_2.4.0/os/hal/src/spi.c"
  35              		.loc 1 68 0
  36              		.cfi_startproc
  37              		@ args = 0, pretend = 0, frame = 0
  38              		@ frame_needed = 0, uses_anonymous_args = 0
  39              		@ link register save eliminated.
  40              		.loc 1 71 0
  41              		.loc 1 70 0
  42 0000 FFF7FEBF 		b	spi_lld_init
  43              		.cfi_endproc
  44              	.LFE117:
  45              		.size	spiInit, .-spiInit
  46 0004 AFF30080 		.section	.text.spiObjectInit,"ax",%progbits
  46      AFF30080 
  46      AFF30080 
  47              		.align	2
  48              		.p2align 4,,15
  49              		.global	spiObjectInit
  50              		.thumb
  51              		.thumb_func
ARM GAS  /tmp/ccchMRGn.s 			page 2


  52              		.type	spiObjectInit, %function
  53              	spiObjectInit:
  54              	.LFB118:
  55              		.loc 1 80 0
  56              		.cfi_startproc
  57              		@ args = 0, pretend = 0, frame = 0
  58              		@ frame_needed = 0, uses_anonymous_args = 0
  59              		@ link register save eliminated.
  60              	.LVL0:
  61              		.loc 1 83 0
  62 0000 0023     		movs	r3, #0
  63              		.loc 1 82 0
  64 0002 0122     		movs	r2, #1
  65 0004 0270     		strb	r2, [r0, #0]
  66              		.loc 1 83 0
  67 0006 4360     		str	r3, [r0, #4]
  68              		.loc 1 85 0
  69 0008 8360     		str	r3, [r0, #8]
  70              		.loc 1 89 0
  71 000a 0C30     		adds	r0, r0, #12
  72              	.LVL1:
  73              		.loc 1 97 0
  74              		.loc 1 89 0
  75 000c FFF7FEBF 		b	chMtxInit
  76              		.cfi_endproc
  77              	.LFE118:
  78              		.size	spiObjectInit, .-spiObjectInit
  79              		.section	.text.spiStart,"ax",%progbits
  80              		.align	2
  81              		.p2align 4,,15
  82              		.global	spiStart
  83              		.thumb
  84              		.thumb_func
  85              		.type	spiStart, %function
  86              	spiStart:
  87              	.LFB119:
  88              		.loc 1 107 0
  89              		.cfi_startproc
  90              		@ args = 0, pretend = 0, frame = 0
  91              		@ frame_needed = 0, uses_anonymous_args = 0
  92              	.LVL2:
  93 0000 10B5     		push	{r4, lr}
  94              	.LCFI0:
  95              		.cfi_def_cfa_offset 8
  96              	.LBB2:
  97              		.loc 1 111 0
  98 0002 2023     		movs	r3, #32
  99              	.LVL3:
 100              	.LBE2:
 101              		.loc 1 107 0
 102 0004 0446     		mov	r4, r0
 103              		.cfi_offset 14, -4
 104              		.cfi_offset 4, -8
 105              	.LBB3:
 106              		.loc 1 111 0
 107              	@ 111 "../libs/ChibiOS_2.4.0/os/hal/src/spi.c" 1
 108 0006 83F31188 		msr     BASEPRI, r3
ARM GAS  /tmp/ccchMRGn.s 			page 3


 109              	@ 0 "" 2
 110              	.LVL4:
 111              		.thumb
 112              	.LBE3:
 113              		.loc 1 114 0
 114 000a 4160     		str	r1, [r0, #4]
 115              		.loc 1 115 0
 116 000c FFF7FEFF 		bl	spi_lld_start
 117              	.LVL5:
 118              		.loc 1 116 0
 119 0010 0223     		movs	r3, #2
 120 0012 2370     		strb	r3, [r4, #0]
 121              	.LBB4:
 122              		.loc 1 117 0
 123 0014 0023     		movs	r3, #0
 124              	.LVL6:
 125              	@ 117 "../libs/ChibiOS_2.4.0/os/hal/src/spi.c" 1
 126 0016 83F31188 		msr     BASEPRI, r3
 127              	@ 0 "" 2
 128              	.LVL7:
 129              		.thumb
 130              	.LBE4:
 131              		.loc 1 118 0
 132 001a 10BD     		pop	{r4, pc}
 133              		.cfi_endproc
 134              	.LFE119:
 135              		.size	spiStart, .-spiStart
 136 001c AFF30080 		.section	.text.spiStop,"ax",%progbits
 137              		.align	2
 138              		.p2align 4,,15
 139              		.global	spiStop
 140              		.thumb
 141              		.thumb_func
 142              		.type	spiStop, %function
 143              	spiStop:
 144              	.LFB120:
 145              		.loc 1 129 0
 146              		.cfi_startproc
 147              		@ args = 0, pretend = 0, frame = 0
 148              		@ frame_needed = 0, uses_anonymous_args = 0
 149              	.LVL8:
 150 0000 10B5     		push	{r4, lr}
 151              	.LCFI1:
 152              		.cfi_def_cfa_offset 8
 153              	.LBB5:
 154              		.loc 1 133 0
 155 0002 2023     		movs	r3, #32
 156              	.LVL9:
 157              	.LBE5:
 158              		.loc 1 129 0
 159 0004 0446     		mov	r4, r0
 160              		.cfi_offset 14, -4
 161              		.cfi_offset 4, -8
 162              	.LBB6:
 163              		.loc 1 133 0
 164              	@ 133 "../libs/ChibiOS_2.4.0/os/hal/src/spi.c" 1
 165 0006 83F31188 		msr     BASEPRI, r3
ARM GAS  /tmp/ccchMRGn.s 			page 4


 166              	@ 0 "" 2
 167              	.LVL10:
 168              		.thumb
 169              	.LBE6:
 170              		.loc 1 136 0
 171 000a FFF7FEFF 		bl	spi_lld_unselect
 172              	.LVL11:
 173              		.loc 1 137 0
 174 000e 2046     		mov	r0, r4
 175 0010 FFF7FEFF 		bl	spi_lld_stop
 176              		.loc 1 138 0
 177 0014 0123     		movs	r3, #1
 178 0016 2370     		strb	r3, [r4, #0]
 179              	.LBB7:
 180              		.loc 1 139 0
 181 0018 0023     		movs	r3, #0
 182              	.LVL12:
 183              	@ 139 "../libs/ChibiOS_2.4.0/os/hal/src/spi.c" 1
 184 001a 83F31188 		msr     BASEPRI, r3
 185              	@ 0 "" 2
 186              	.LVL13:
 187              		.thumb
 188              	.LBE7:
 189              		.loc 1 140 0
 190 001e 10BD     		pop	{r4, pc}
 191              		.cfi_endproc
 192              	.LFE120:
 193              		.size	spiStop, .-spiStop
 194              		.section	.text.spiSelect,"ax",%progbits
 195              		.align	2
 196              		.p2align 4,,15
 197              		.global	spiSelect
 198              		.thumb
 199              		.thumb_func
 200              		.type	spiSelect, %function
 201              	spiSelect:
 202              	.LFB121:
 203              		.loc 1 149 0
 204              		.cfi_startproc
 205              		@ args = 0, pretend = 0, frame = 0
 206              		@ frame_needed = 0, uses_anonymous_args = 0
 207              	.LVL14:
 208 0000 08B5     		push	{r3, lr}
 209              	.LCFI2:
 210              		.cfi_def_cfa_offset 8
 211              	.LBB8:
 212              		.loc 1 153 0
 213 0002 2023     		movs	r3, #32
 214              		.cfi_offset 14, -4
 215              		.cfi_offset 3, -8
 216              	.LVL15:
 217              	@ 153 "../libs/ChibiOS_2.4.0/os/hal/src/spi.c" 1
 218 0004 83F31188 		msr     BASEPRI, r3
 219              	@ 0 "" 2
 220              	.LVL16:
 221              		.thumb
 222              	.LBE8:
ARM GAS  /tmp/ccchMRGn.s 			page 5


 223              		.loc 1 155 0
 224 0008 FFF7FEFF 		bl	spi_lld_select
 225              	.LVL17:
 226              	.LBB9:
 227              		.loc 1 156 0
 228 000c 0023     		movs	r3, #0
 229              	.LVL18:
 230              	@ 156 "../libs/ChibiOS_2.4.0/os/hal/src/spi.c" 1
 231 000e 83F31188 		msr     BASEPRI, r3
 232              	@ 0 "" 2
 233              	.LVL19:
 234              		.thumb
 235              	.LBE9:
 236              		.loc 1 157 0
 237 0012 08BD     		pop	{r3, pc}
 238              		.cfi_endproc
 239              	.LFE121:
 240              		.size	spiSelect, .-spiSelect
 241 0014 AFF30080 		.section	.text.spiUnselect,"ax",%progbits
 241      AFF30080 
 241      AFF30080 
 242              		.align	2
 243              		.p2align 4,,15
 244              		.global	spiUnselect
 245              		.thumb
 246              		.thumb_func
 247              		.type	spiUnselect, %function
 248              	spiUnselect:
 249              	.LFB122:
 250              		.loc 1 167 0
 251              		.cfi_startproc
 252              		@ args = 0, pretend = 0, frame = 0
 253              		@ frame_needed = 0, uses_anonymous_args = 0
 254              	.LVL20:
 255 0000 08B5     		push	{r3, lr}
 256              	.LCFI3:
 257              		.cfi_def_cfa_offset 8
 258              	.LBB10:
 259              		.loc 1 171 0
 260 0002 2023     		movs	r3, #32
 261              		.cfi_offset 14, -4
 262              		.cfi_offset 3, -8
 263              	.LVL21:
 264              	@ 171 "../libs/ChibiOS_2.4.0/os/hal/src/spi.c" 1
 265 0004 83F31188 		msr     BASEPRI, r3
 266              	@ 0 "" 2
 267              	.LVL22:
 268              		.thumb
 269              	.LBE10:
 270              		.loc 1 173 0
 271 0008 FFF7FEFF 		bl	spi_lld_unselect
 272              	.LVL23:
 273              	.LBB11:
 274              		.loc 1 174 0
 275 000c 0023     		movs	r3, #0
 276              	.LVL24:
 277              	@ 174 "../libs/ChibiOS_2.4.0/os/hal/src/spi.c" 1
ARM GAS  /tmp/ccchMRGn.s 			page 6


 278 000e 83F31188 		msr     BASEPRI, r3
 279              	@ 0 "" 2
 280              	.LVL25:
 281              		.thumb
 282              	.LBE11:
 283              		.loc 1 175 0
 284 0012 08BD     		pop	{r3, pc}
 285              		.cfi_endproc
 286              	.LFE122:
 287              		.size	spiUnselect, .-spiUnselect
 288 0014 AFF30080 		.section	.text.spiStartIgnore,"ax",%progbits
 288      AFF30080 
 288      AFF30080 
 289              		.align	2
 290              		.p2align 4,,15
 291              		.global	spiStartIgnore
 292              		.thumb
 293              		.thumb_func
 294              		.type	spiStartIgnore, %function
 295              	spiStartIgnore:
 296              	.LFB123:
 297              		.loc 1 190 0
 298              		.cfi_startproc
 299              		@ args = 0, pretend = 0, frame = 0
 300              		@ frame_needed = 0, uses_anonymous_args = 0
 301              	.LVL26:
 302 0000 08B5     		push	{r3, lr}
 303              	.LCFI4:
 304              		.cfi_def_cfa_offset 8
 305              	.LBB12:
 306              		.loc 1 194 0
 307 0002 2023     		movs	r3, #32
 308              		.cfi_offset 14, -4
 309              		.cfi_offset 3, -8
 310              	.LVL27:
 311              	@ 194 "../libs/ChibiOS_2.4.0/os/hal/src/spi.c" 1
 312 0004 83F31188 		msr     BASEPRI, r3
 313              	@ 0 "" 2
 314              	.LVL28:
 315              		.thumb
 316              	.LBE12:
 317              		.loc 1 196 0
 318 0008 0323     		movs	r3, #3
 319              	.LVL29:
 320 000a 0370     		strb	r3, [r0, #0]
 321 000c FFF7FEFF 		bl	spi_lld_ignore
 322              	.LVL30:
 323              	.LBB13:
 324              		.loc 1 197 0
 325 0010 0023     		movs	r3, #0
 326              	.LVL31:
 327              	@ 197 "../libs/ChibiOS_2.4.0/os/hal/src/spi.c" 1
 328 0012 83F31188 		msr     BASEPRI, r3
 329              	@ 0 "" 2
 330              	.LVL32:
 331              		.thumb
 332              	.LBE13:
ARM GAS  /tmp/ccchMRGn.s 			page 7


 333              		.loc 1 198 0
 334 0016 08BD     		pop	{r3, pc}
 335              		.cfi_endproc
 336              	.LFE123:
 337              		.size	spiStartIgnore, .-spiStartIgnore
 338 0018 AFF30080 		.section	.text.spiStartExchange,"ax",%progbits
 338      AFF30080 
 339              		.align	2
 340              		.p2align 4,,15
 341              		.global	spiStartExchange
 342              		.thumb
 343              		.thumb_func
 344              		.type	spiStartExchange, %function
 345              	spiStartExchange:
 346              	.LFB124:
 347              		.loc 1 218 0
 348              		.cfi_startproc
 349              		@ args = 0, pretend = 0, frame = 0
 350              		@ frame_needed = 0, uses_anonymous_args = 0
 351              	.LVL33:
 352 0000 38B5     		push	{r3, r4, r5, lr}
 353              	.LCFI5:
 354              		.cfi_def_cfa_offset 16
 355              		.loc 1 218 0
 356 0002 1D46     		mov	r5, r3
 357              		.cfi_offset 14, -4
 358              		.cfi_offset 5, -8
 359              		.cfi_offset 4, -12
 360              		.cfi_offset 3, -16
 361              	.LBB14:
 362              		.loc 1 223 0
 363 0004 2023     		movs	r3, #32
 364              	.LVL34:
 365              	@ 223 "../libs/ChibiOS_2.4.0/os/hal/src/spi.c" 1
 366 0006 83F31188 		msr     BASEPRI, r3
 367              	@ 0 "" 2
 368              	.LVL35:
 369              		.thumb
 370              	.LBE14:
 371              		.loc 1 225 0
 372 000a 2B46     		mov	r3, r5
 373              	.LVL36:
 374 000c 0325     		movs	r5, #3
 375              	.LVL37:
 376 000e 0570     		strb	r5, [r0, #0]
 377 0010 FFF7FEFF 		bl	spi_lld_exchange
 378              	.LVL38:
 379              	.LBB15:
 380              		.loc 1 226 0
 381 0014 0023     		movs	r3, #0
 382              	.LVL39:
 383              	@ 226 "../libs/ChibiOS_2.4.0/os/hal/src/spi.c" 1
 384 0016 83F31188 		msr     BASEPRI, r3
 385              	@ 0 "" 2
 386              	.LVL40:
 387              		.thumb
 388              	.LBE15:
ARM GAS  /tmp/ccchMRGn.s 			page 8


 389              		.loc 1 227 0
 390 001a 38BD     		pop	{r3, r4, r5, pc}
 391              		.cfi_endproc
 392              	.LFE124:
 393              		.size	spiStartExchange, .-spiStartExchange
 394 001c AFF30080 		.section	.text.spiStartSend,"ax",%progbits
 395              		.align	2
 396              		.p2align 4,,15
 397              		.global	spiStartSend
 398              		.thumb
 399              		.thumb_func
 400              		.type	spiStartSend, %function
 401              	spiStartSend:
 402              	.LFB125:
 403              		.loc 1 244 0
 404              		.cfi_startproc
 405              		@ args = 0, pretend = 0, frame = 0
 406              		@ frame_needed = 0, uses_anonymous_args = 0
 407              	.LVL41:
 408 0000 10B5     		push	{r4, lr}
 409              	.LCFI6:
 410              		.cfi_def_cfa_offset 8
 411              	.LBB16:
 412              		.loc 1 249 0
 413 0002 2023     		movs	r3, #32
 414              	.LVL42:
 415              	@ 249 "../libs/ChibiOS_2.4.0/os/hal/src/spi.c" 1
 416 0004 83F31188 		msr     BASEPRI, r3
 417              	@ 0 "" 2
 418              	.LVL43:
 419              		.thumb
 420              	.LBE16:
 421              		.loc 1 251 0
 422 0008 0323     		movs	r3, #3
 423              	.LVL44:
 424 000a 0370     		strb	r3, [r0, #0]
 425              		.cfi_offset 14, -4
 426              		.cfi_offset 4, -8
 427 000c FFF7FEFF 		bl	spi_lld_send
 428              	.LVL45:
 429              	.LBB17:
 430              		.loc 1 252 0
 431 0010 0023     		movs	r3, #0
 432              	.LVL46:
 433              	@ 252 "../libs/ChibiOS_2.4.0/os/hal/src/spi.c" 1
 434 0012 83F31188 		msr     BASEPRI, r3
 435              	@ 0 "" 2
 436              	.LVL47:
 437              		.thumb
 438              	.LBE17:
 439              		.loc 1 253 0
 440 0016 10BD     		pop	{r4, pc}
 441              		.cfi_endproc
 442              	.LFE125:
 443              		.size	spiStartSend, .-spiStartSend
 444 0018 AFF30080 		.section	.text.spiStartReceive,"ax",%progbits
 444      AFF30080 
ARM GAS  /tmp/ccchMRGn.s 			page 9


 445              		.align	2
 446              		.p2align 4,,15
 447              		.global	spiStartReceive
 448              		.thumb
 449              		.thumb_func
 450              		.type	spiStartReceive, %function
 451              	spiStartReceive:
 452              	.LFB126:
 453              		.loc 1 270 0
 454              		.cfi_startproc
 455              		@ args = 0, pretend = 0, frame = 0
 456              		@ frame_needed = 0, uses_anonymous_args = 0
 457              	.LVL48:
 458 0000 10B5     		push	{r4, lr}
 459              	.LCFI7:
 460              		.cfi_def_cfa_offset 8
 461              	.LBB18:
 462              		.loc 1 275 0
 463 0002 2023     		movs	r3, #32
 464              	.LVL49:
 465              	@ 275 "../libs/ChibiOS_2.4.0/os/hal/src/spi.c" 1
 466 0004 83F31188 		msr     BASEPRI, r3
 467              	@ 0 "" 2
 468              	.LVL50:
 469              		.thumb
 470              	.LBE18:
 471              		.loc 1 277 0
 472 0008 0323     		movs	r3, #3
 473              	.LVL51:
 474 000a 0370     		strb	r3, [r0, #0]
 475              		.cfi_offset 14, -4
 476              		.cfi_offset 4, -8
 477 000c FFF7FEFF 		bl	spi_lld_receive
 478              	.LVL52:
 479              	.LBB19:
 480              		.loc 1 278 0
 481 0010 0023     		movs	r3, #0
 482              	.LVL53:
 483              	@ 278 "../libs/ChibiOS_2.4.0/os/hal/src/spi.c" 1
 484 0012 83F31188 		msr     BASEPRI, r3
 485              	@ 0 "" 2
 486              	.LVL54:
 487              		.thumb
 488              	.LBE19:
 489              		.loc 1 279 0
 490 0016 10BD     		pop	{r4, pc}
 491              		.cfi_endproc
 492              	.LFE126:
 493              		.size	spiStartReceive, .-spiStartReceive
 494 0018 AFF30080 		.section	.text.spiIgnore,"ax",%progbits
 494      AFF30080 
 495              		.align	2
 496              		.p2align 4,,15
 497              		.global	spiIgnore
 498              		.thumb
 499              		.thumb_func
 500              		.type	spiIgnore, %function
ARM GAS  /tmp/ccchMRGn.s 			page 10


 501              	spiIgnore:
 502              	.LFB127:
 503              		.loc 1 296 0
 504              		.cfi_startproc
 505              		@ args = 0, pretend = 0, frame = 0
 506              		@ frame_needed = 0, uses_anonymous_args = 0
 507              	.LVL55:
 508 0000 10B5     		push	{r4, lr}
 509              	.LCFI8:
 510              		.cfi_def_cfa_offset 8
 511              	.LBB20:
 512              		.loc 1 300 0
 513 0002 2023     		movs	r3, #32
 514              	.LVL56:
 515              	.LBE20:
 516              		.loc 1 296 0
 517 0004 0446     		mov	r4, r0
 518              		.cfi_offset 14, -4
 519              		.cfi_offset 4, -8
 520              	.LBB21:
 521              		.loc 1 300 0
 522              	@ 300 "../libs/ChibiOS_2.4.0/os/hal/src/spi.c" 1
 523 0006 83F31188 		msr     BASEPRI, r3
 524              	@ 0 "" 2
 525              	.LVL57:
 526              		.thumb
 527              	.LBE21:
 528              		.loc 1 303 0
 529 000a 0322     		movs	r2, #3
 530 000c 0270     		strb	r2, [r0, #0]
 531 000e FFF7FEFF 		bl	spi_lld_ignore
 532              	.LVL58:
 533              		.loc 1 304 0
 534 0012 0548     		ldr	r0, .L12
 535 0014 C369     		ldr	r3, [r0, #28]
 536 0016 0220     		movs	r0, #2
 537 0018 A360     		str	r3, [r4, #8]
 538 001a FFF7FEFF 		bl	chSchGoSleepS
 539              	.LBB22:
 540              		.loc 1 305 0
 541 001e 0023     		movs	r3, #0
 542              	.LVL59:
 543              	@ 305 "../libs/ChibiOS_2.4.0/os/hal/src/spi.c" 1
 544 0020 83F31188 		msr     BASEPRI, r3
 545              	@ 0 "" 2
 546              	.LVL60:
 547              		.thumb
 548              	.LBE22:
 549              		.loc 1 306 0
 550 0024 10BD     		pop	{r4, pc}
 551              	.L13:
 552 0026 00BF     		.align	2
 553              	.L12:
 554 0028 00000000 		.word	rlist
 555              		.cfi_endproc
 556              	.LFE127:
 557              		.size	spiIgnore, .-spiIgnore
ARM GAS  /tmp/ccchMRGn.s 			page 11


 558 002c AFF30080 		.section	.text.spiExchange,"ax",%progbits
 559              		.align	2
 560              		.p2align 4,,15
 561              		.global	spiExchange
 562              		.thumb
 563              		.thumb_func
 564              		.type	spiExchange, %function
 565              	spiExchange:
 566              	.LFB128:
 567              		.loc 1 327 0
 568              		.cfi_startproc
 569              		@ args = 0, pretend = 0, frame = 0
 570              		@ frame_needed = 0, uses_anonymous_args = 0
 571              	.LVL61:
 572 0000 38B5     		push	{r3, r4, r5, lr}
 573              	.LCFI9:
 574              		.cfi_def_cfa_offset 16
 575              		.loc 1 327 0
 576 0002 1D46     		mov	r5, r3
 577              		.cfi_offset 14, -4
 578              		.cfi_offset 5, -8
 579              		.cfi_offset 4, -12
 580              		.cfi_offset 3, -16
 581 0004 0446     		mov	r4, r0
 582              	.LBB23:
 583              		.loc 1 332 0
 584 0006 2023     		movs	r3, #32
 585              	.LVL62:
 586              	@ 332 "../libs/ChibiOS_2.4.0/os/hal/src/spi.c" 1
 587 0008 83F31188 		msr     BASEPRI, r3
 588              	@ 0 "" 2
 589              	.LVL63:
 590              		.thumb
 591              	.LBE23:
 592              		.loc 1 336 0
 593 000c 2B46     		mov	r3, r5
 594              	.LVL64:
 595 000e 0325     		movs	r5, #3
 596              	.LVL65:
 597 0010 0570     		strb	r5, [r0, #0]
 598 0012 FFF7FEFF 		bl	spi_lld_exchange
 599              	.LVL66:
 600              		.loc 1 337 0
 601 0016 0548     		ldr	r0, .L15
 602 0018 C369     		ldr	r3, [r0, #28]
 603 001a 0220     		movs	r0, #2
 604 001c A360     		str	r3, [r4, #8]
 605 001e FFF7FEFF 		bl	chSchGoSleepS
 606              	.LBB24:
 607              		.loc 1 338 0
 608 0022 0023     		movs	r3, #0
 609              	.LVL67:
 610              	@ 338 "../libs/ChibiOS_2.4.0/os/hal/src/spi.c" 1
 611 0024 83F31188 		msr     BASEPRI, r3
 612              	@ 0 "" 2
 613              	.LVL68:
 614              		.thumb
ARM GAS  /tmp/ccchMRGn.s 			page 12


 615              	.LBE24:
 616              		.loc 1 339 0
 617 0028 38BD     		pop	{r3, r4, r5, pc}
 618              	.L16:
 619 002a 00BF     		.align	2
 620              	.L15:
 621 002c 00000000 		.word	rlist
 622              		.cfi_endproc
 623              	.LFE128:
 624              		.size	spiExchange, .-spiExchange
 625              		.section	.text.spiSend,"ax",%progbits
 626              		.align	2
 627              		.p2align 4,,15
 628              		.global	spiSend
 629              		.thumb
 630              		.thumb_func
 631              		.type	spiSend, %function
 632              	spiSend:
 633              	.LFB129:
 634              		.loc 1 357 0
 635              		.cfi_startproc
 636              		@ args = 0, pretend = 0, frame = 0
 637              		@ frame_needed = 0, uses_anonymous_args = 0
 638              	.LVL69:
 639 0000 10B5     		push	{r4, lr}
 640              	.LCFI10:
 641              		.cfi_def_cfa_offset 8
 642              	.LBB25:
 643              		.loc 1 361 0
 644 0002 2023     		movs	r3, #32
 645              	.LVL70:
 646              	.LBE25:
 647              		.loc 1 357 0
 648 0004 0446     		mov	r4, r0
 649              		.cfi_offset 14, -4
 650              		.cfi_offset 4, -8
 651              	.LBB26:
 652              		.loc 1 361 0
 653              	@ 361 "../libs/ChibiOS_2.4.0/os/hal/src/spi.c" 1
 654 0006 83F31188 		msr     BASEPRI, r3
 655              	@ 0 "" 2
 656              	.LVL71:
 657              		.thumb
 658              	.LBE26:
 659              		.loc 1 364 0
 660 000a 0323     		movs	r3, #3
 661              	.LVL72:
 662 000c 0370     		strb	r3, [r0, #0]
 663 000e FFF7FEFF 		bl	spi_lld_send
 664              	.LVL73:
 665              		.loc 1 365 0
 666 0012 0548     		ldr	r0, .L18
 667 0014 C369     		ldr	r3, [r0, #28]
 668 0016 0220     		movs	r0, #2
 669 0018 A360     		str	r3, [r4, #8]
 670 001a FFF7FEFF 		bl	chSchGoSleepS
 671              	.LBB27:
ARM GAS  /tmp/ccchMRGn.s 			page 13


 672              		.loc 1 366 0
 673 001e 0023     		movs	r3, #0
 674              	.LVL74:
 675              	@ 366 "../libs/ChibiOS_2.4.0/os/hal/src/spi.c" 1
 676 0020 83F31188 		msr     BASEPRI, r3
 677              	@ 0 "" 2
 678              	.LVL75:
 679              		.thumb
 680              	.LBE27:
 681              		.loc 1 367 0
 682 0024 10BD     		pop	{r4, pc}
 683              	.L19:
 684 0026 00BF     		.align	2
 685              	.L18:
 686 0028 00000000 		.word	rlist
 687              		.cfi_endproc
 688              	.LFE129:
 689              		.size	spiSend, .-spiSend
 690 002c AFF30080 		.section	.text.spiReceive,"ax",%progbits
 691              		.align	2
 692              		.p2align 4,,15
 693              		.global	spiReceive
 694              		.thumb
 695              		.thumb_func
 696              		.type	spiReceive, %function
 697              	spiReceive:
 698              	.LFB130:
 699              		.loc 1 385 0
 700              		.cfi_startproc
 701              		@ args = 0, pretend = 0, frame = 0
 702              		@ frame_needed = 0, uses_anonymous_args = 0
 703              	.LVL76:
 704 0000 10B5     		push	{r4, lr}
 705              	.LCFI11:
 706              		.cfi_def_cfa_offset 8
 707              	.LBB28:
 708              		.loc 1 390 0
 709 0002 2023     		movs	r3, #32
 710              	.LVL77:
 711              	.LBE28:
 712              		.loc 1 385 0
 713 0004 0446     		mov	r4, r0
 714              		.cfi_offset 14, -4
 715              		.cfi_offset 4, -8
 716              	.LBB29:
 717              		.loc 1 390 0
 718              	@ 390 "../libs/ChibiOS_2.4.0/os/hal/src/spi.c" 1
 719 0006 83F31188 		msr     BASEPRI, r3
 720              	@ 0 "" 2
 721              	.LVL78:
 722              		.thumb
 723              	.LBE29:
 724              		.loc 1 394 0
 725 000a 0323     		movs	r3, #3
 726              	.LVL79:
 727 000c 0370     		strb	r3, [r0, #0]
 728 000e FFF7FEFF 		bl	spi_lld_receive
ARM GAS  /tmp/ccchMRGn.s 			page 14


 729              	.LVL80:
 730              		.loc 1 395 0
 731 0012 0548     		ldr	r0, .L21
 732 0014 C369     		ldr	r3, [r0, #28]
 733 0016 0220     		movs	r0, #2
 734 0018 A360     		str	r3, [r4, #8]
 735 001a FFF7FEFF 		bl	chSchGoSleepS
 736              	.LBB30:
 737              		.loc 1 396 0
 738 001e 0023     		movs	r3, #0
 739              	.LVL81:
 740              	@ 396 "../libs/ChibiOS_2.4.0/os/hal/src/spi.c" 1
 741 0020 83F31188 		msr     BASEPRI, r3
 742              	@ 0 "" 2
 743              	.LVL82:
 744              		.thumb
 745              	.LBE30:
 746              		.loc 1 397 0
 747 0024 10BD     		pop	{r4, pc}
 748              	.L22:
 749 0026 00BF     		.align	2
 750              	.L21:
 751 0028 00000000 		.word	rlist
 752              		.cfi_endproc
 753              	.LFE130:
 754              		.size	spiReceive, .-spiReceive
 755 002c AFF30080 		.section	.text.spiAcquireBus,"ax",%progbits
 756              		.align	2
 757              		.p2align 4,,15
 758              		.global	spiAcquireBus
 759              		.thumb
 760              		.thumb_func
 761              		.type	spiAcquireBus, %function
 762              	spiAcquireBus:
 763              	.LFB131:
 764              		.loc 1 412 0
 765              		.cfi_startproc
 766              		@ args = 0, pretend = 0, frame = 0
 767              		@ frame_needed = 0, uses_anonymous_args = 0
 768              		@ link register save eliminated.
 769              	.LVL83:
 770              		.loc 1 417 0
 771 0000 0C30     		adds	r0, r0, #12
 772              	.LVL84:
 773              		.loc 1 421 0
 774              		.loc 1 417 0
 775 0002 FFF7FEBF 		b	chMtxLock
 776              		.cfi_endproc
 777              	.LFE131:
 778              		.size	spiAcquireBus, .-spiAcquireBus
 779 0006 00BFAFF3 		.section	.text.spiReleaseBus,"ax",%progbits
 779      0080AFF3 
 779      0080
 780              		.align	2
 781              		.p2align 4,,15
 782              		.global	spiReleaseBus
 783              		.thumb
ARM GAS  /tmp/ccchMRGn.s 			page 15


 784              		.thumb_func
 785              		.type	spiReleaseBus, %function
 786              	spiReleaseBus:
 787              	.LFB132:
 788              		.loc 1 432 0
 789              		.cfi_startproc
 790              		@ args = 0, pretend = 0, frame = 0
 791              		@ frame_needed = 0, uses_anonymous_args = 0
 792              		@ link register save eliminated.
 793              	.LVL85:
 794              		.loc 1 442 0
 795              		.loc 1 438 0
 796 0000 FFF7FEBF 		b	chMtxUnlock
 797              		.cfi_endproc
 798              	.LFE132:
 799              		.size	spiReleaseBus, .-spiReleaseBus
 800 0004 AFF30080 		.text
 800      AFF30080 
 800      AFF30080 
 801              	.Letext0: