ARM GAS  /tmp/ccYQq7hX.s 			page 1


   1              		.syntax unified
   2              		.cpu cortex-m4
   3              		.eabi_attribute 27, 3
   4              		.eabi_attribute 28, 1
   5              		.fpu fpv4-sp-d16
   6              		.eabi_attribute 20, 1
   7              		.eabi_attribute 21, 1
   8              		.eabi_attribute 23, 3
   9              		.eabi_attribute 24, 1
  10              		.eabi_attribute 25, 1
  11              		.eabi_attribute 26, 1
  12              		.eabi_attribute 30, 2
  13              		.eabi_attribute 18, 4
  14              		.thumb
  15              		.file	"spi_lld.c"
  16              		.section	.debug_abbrev,"",%progbits
  17              	.Ldebug_abbrev0:
  18              		.section	.debug_info,"",%progbits
  19              	.Ldebug_info0:
  20              		.section	.debug_line,"",%progbits
  21              	.Ldebug_line0:
  22 0000 B1040000 		.text
  22      0200C102 
  22      00000201 
  22      FB0E0D00 
  22      01010101 
  23              	.Ltext0:
  24              		.cfi_sections	.debug_frame
  25              		.section	.text.spi_lld_serve_tx_interrupt,"ax",%progbits
  26              		.align	2
  27              		.p2align 4,,15
  28              		.thumb
  29              		.thumb_func
  30              		.type	spi_lld_serve_tx_interrupt, %function
  31              	spi_lld_serve_tx_interrupt:
  32              	.LFB118:
  33              		.file 1 "../libs/ChibiOS_2.4.0/os/hal/platforms/STM32/spi_lld.c"
  34              		.loc 1 131 0
  35              		.cfi_startproc
  36              		@ args = 0, pretend = 0, frame = 0
  37              		@ frame_needed = 0, uses_anonymous_args = 0
  38              		@ link register save eliminated.
  39              	.LVL0:
  40              		.loc 1 136 0
  41 0000 11F00C0F 		tst	r1, #12
  42 0004 00D1     		bne	.L4
  43 0006 7047     		bx	lr
  44              	.L4:
  45              		.loc 1 143 0
  46              		.loc 1 137 0
  47 0008 FFF7FEBF 		b	port_halt
  48              		.cfi_endproc
  49              	.LFE118:
  50              		.size	spi_lld_serve_tx_interrupt, .-spi_lld_serve_tx_interrupt
  51 000c AFF30080 		.section	.text.spi_lld_serve_rx_interrupt,"ax",%progbits
  52              		.align	2
  53              		.p2align 4,,15
ARM GAS  /tmp/ccYQq7hX.s 			page 2


  54              		.thumb
  55              		.thumb_func
  56              		.type	spi_lld_serve_rx_interrupt, %function
  57              	spi_lld_serve_rx_interrupt:
  58              	.LFB117:
  59              		.loc 1 105 0
  60              		.cfi_startproc
  61              		@ args = 0, pretend = 0, frame = 0
  62              		@ frame_needed = 0, uses_anonymous_args = 0
  63              	.LVL1:
  64              		.loc 1 109 0
  65 0000 11F00C0F 		tst	r1, #12
  66              		.loc 1 105 0
  67 0004 38B5     		push	{r3, r4, r5, lr}
  68              	.LCFI0:
  69              		.cfi_def_cfa_offset 16
  70              		.loc 1 105 0
  71 0006 0446     		mov	r4, r0
  72              		.cfi_offset 14, -4
  73              		.cfi_offset 5, -8
  74              		.cfi_offset 4, -12
  75              		.cfi_offset 3, -16
  76              		.loc 1 109 0
  77 0008 39D1     		bne	.L14
  78              	.LVL2:
  79              	.L6:
  80              		.loc 1 117 0
  81 000a 606A     		ldr	r0, [r4, #36]
  82 000c 0268     		ldr	r2, [r0, #0]
  83 000e 1168     		ldr	r1, [r2, #0]
  84 0010 21F00103 		bic	r3, r1, #1
  85 0014 1360     		str	r3, [r2, #0]
  86              	.L7:
  87              		.loc 1 117 0 is_stmt 0 discriminator 1
  88 0016 1568     		ldr	r5, [r2, #0]
  89 0018 15F0010F 		tst	r5, #1
  90 001c FBD1     		bne	.L7
  91              		.loc 1 117 0 discriminator 2
  92 001e 057A     		ldrb	r5, [r0, #8]	@ zero_extendqisi2
  93              		.loc 1 118 0 is_stmt 1 discriminator 2
  94 0020 216A     		ldr	r1, [r4, #32]
  95              		.loc 1 117 0 discriminator 2
  96 0022 4368     		ldr	r3, [r0, #4]
  97              		.loc 1 118 0 discriminator 2
  98 0024 0A68     		ldr	r2, [r1, #0]
  99              		.loc 1 117 0 discriminator 2
 100 0026 3D20     		movs	r0, #61
 101 0028 A840     		lsls	r0, r0, r5
 102 002a 1860     		str	r0, [r3, #0]
 103              		.loc 1 118 0 discriminator 2
 104 002c 1368     		ldr	r3, [r2, #0]
 105 002e 23F00100 		bic	r0, r3, #1
 106 0032 1060     		str	r0, [r2, #0]
 107              	.L8:
 108              		.loc 1 118 0 is_stmt 0 discriminator 1
 109 0034 1368     		ldr	r3, [r2, #0]
 110 0036 13F0010F 		tst	r3, #1
ARM GAS  /tmp/ccYQq7hX.s 			page 3


 111 003a FBD1     		bne	.L8
 112              		.loc 1 122 0 is_stmt 1 discriminator 2
 113 003c 6368     		ldr	r3, [r4, #4]
 114              		.loc 1 118 0 discriminator 2
 115 003e 087A     		ldrb	r0, [r1, #8]	@ zero_extendqisi2
 116 0040 4A68     		ldr	r2, [r1, #4]
 117              		.loc 1 122 0 discriminator 2
 118 0042 1B68     		ldr	r3, [r3, #0]
 119              		.loc 1 118 0 discriminator 2
 120 0044 3D21     		movs	r1, #61
 121 0046 8140     		lsls	r1, r1, r0
 122 0048 1160     		str	r1, [r2, #0]
 123              		.loc 1 122 0 discriminator 2
 124 004a ABB1     		cbz	r3, .L9
 125              		.loc 1 122 0 is_stmt 0 discriminator 1
 126 004c 0422     		movs	r2, #4
 127 004e 2270     		strb	r2, [r4, #0]
 128 0050 2046     		mov	r0, r4
 129 0052 9847     		blx	r3
 130 0054 94F800C0 		ldrb	ip, [r4, #0]	@ zero_extendqisi2
 131 0058 BCF1040F 		cmp	ip, #4
 132 005c 0CD0     		beq	.L9
 133              	.L10:
 134              		.loc 1 122 0 discriminator 4
 135 005e A068     		ldr	r0, [r4, #8]
 136 0060 48B1     		cbz	r0, .L5
 137              	.LVL3:
 138              	.LBB2:
 139              		.loc 1 122 0 discriminator 5
 140 0062 0025     		movs	r5, #0
 141 0064 A560     		str	r5, [r4, #8]
 142              	.LBB3:
 143 0066 2023     		movs	r3, #32
 144              	.LVL4:
 145              	@ 122 "../libs/ChibiOS_2.4.0/os/hal/platforms/STM32/spi_lld.c" 1
 146 0068 83F31188 		msr     BASEPRI, r3
 147              	@ 0 "" 2
 148              	.LVL5:
 149              		.thumb
 150              	.LBE3:
 151 006c FFF7FEFF 		bl	chSchReadyI
 152              	.LVL6:
 153              	.LBB4:
 154 0070 2B46     		mov	r3, r5
 155              	.LVL7:
 156              	@ 122 "../libs/ChibiOS_2.4.0/os/hal/platforms/STM32/spi_lld.c" 1
 157 0072 83F31188 		msr     BASEPRI, r3
 158              	@ 0 "" 2
 159              	.LVL8:
 160              		.thumb
 161              	.L5:
 162 0076 38BD     		pop	{r3, r4, r5, pc}
 163              	.LVL9:
 164              	.L9:
 165              	.LBE4:
 166              	.LBE2:
 167              		.loc 1 122 0 discriminator 2
ARM GAS  /tmp/ccYQq7hX.s 			page 4


 168 0078 0221     		movs	r1, #2
 169 007a 2170     		strb	r1, [r4, #0]
 170 007c EFE7     		b	.L10
 171              	.LVL10:
 172              	.L14:
 173              		.loc 1 110 0 is_stmt 1
 174 007e FFF7FEFF 		bl	port_halt
 175              	.LVL11:
 176 0082 C2E7     		b	.L6
 177              		.cfi_endproc
 178              	.LFE117:
 179              		.size	spi_lld_serve_rx_interrupt, .-spi_lld_serve_rx_interrupt
 180 0084 AFF30080 		.section	.text.spi_lld_init,"ax",%progbits
 180      AFF30080 
 180      AFF30080 
 181              		.align	2
 182              		.p2align 4,,15
 183              		.global	spi_lld_init
 184              		.thumb
 185              		.thumb_func
 186              		.type	spi_lld_init, %function
 187              	spi_lld_init:
 188              	.LFB119:
 189              		.loc 1 158 0
 190              		.cfi_startproc
 191              		@ args = 0, pretend = 0, frame = 0
 192              		@ frame_needed = 0, uses_anonymous_args = 0
 193 0000 70B5     		push	{r4, r5, r6, lr}
 194              	.LCFI1:
 195              		.cfi_def_cfa_offset 16
 196              		.loc 1 160 0
 197 0002 1249     		ldr	r1, .L16
 198              		.loc 1 163 0
 199 0004 124D     		ldr	r5, .L16+4
 200              		.cfi_offset 14, -4
 201              		.cfi_offset 6, -8
 202              		.cfi_offset 5, -12
 203              		.cfi_offset 4, -16
 204              		.loc 1 181 0
 205 0006 134C     		ldr	r4, .L16+8
 206              		.loc 1 165 0
 207 0008 134E     		ldr	r6, .L16+12
 208              		.loc 1 160 0
 209 000a 4FF0FF3C 		mov	ip, #-1	@ movhi
 210 000e A1F800C0 		strh	ip, [r1, #0]	@ movhi
 211              		.loc 1 163 0
 212 0012 2846     		mov	r0, r5
 213 0014 FFF7FEFF 		bl	spiObjectInit
 214              		.loc 1 164 0
 215 0018 1048     		ldr	r0, .L16+16
 216              		.loc 1 167 0
 217 001a 114A     		ldr	r2, .L16+20
 218              		.loc 1 164 0
 219 001c E861     		str	r0, [r5, #28]
 220              		.loc 1 166 0
 221 001e 06F12403 		add	r3, r6, #36
 222              		.loc 1 181 0
ARM GAS  /tmp/ccYQq7hX.s 			page 5


 223 0022 2046     		mov	r0, r4
 224              		.loc 1 167 0
 225 0024 AA62     		str	r2, [r5, #40]
 226              		.loc 1 173 0
 227 0026 3032     		adds	r2, r2, #48
 228              		.loc 1 165 0
 229 0028 2E62     		str	r6, [r5, #32]
 230              		.loc 1 166 0
 231 002a 6B62     		str	r3, [r5, #36]
 232              		.loc 1 173 0
 233 002c EA62     		str	r2, [r5, #44]
 234              		.loc 1 181 0
 235 002e FFF7FEFF 		bl	spiObjectInit
 236              		.loc 1 185 0
 237 0032 0C4B     		ldr	r3, .L16+24
 238              		.loc 1 182 0
 239 0034 0C49     		ldr	r1, .L16+28
 240              		.loc 1 185 0
 241 0036 A362     		str	r3, [r4, #40]
 242              		.loc 1 183 0
 243 0038 A6F13C00 		sub	r0, r6, #60
 244              		.loc 1 191 0
 245 003c 3033     		adds	r3, r3, #48
 246              		.loc 1 184 0
 247 003e 303E     		subs	r6, r6, #48
 248              		.loc 1 182 0
 249 0040 E161     		str	r1, [r4, #28]
 250              		.loc 1 183 0
 251 0042 2062     		str	r0, [r4, #32]
 252              		.loc 1 184 0
 253 0044 6662     		str	r6, [r4, #36]
 254              		.loc 1 191 0
 255 0046 E362     		str	r3, [r4, #44]
 256              		.loc 1 215 0
 257 0048 70BD     		pop	{r4, r5, r6, pc}
 258              	.L17:
 259 004a 00BF     		.align	2
 260              	.L16:
 261 004c 00000000 		.word	.LANCHOR0
 262 0050 00000000 		.word	.LANCHOR1
 263 0054 00000000 		.word	.LANCHOR2
 264 0058 60000000 		.word	_stm32_dma_streams+96
 265 005c 00300140 		.word	1073819648
 266 0060 16000106 		.word	100728854
 267 0064 16000100 		.word	65558
 268 0068 00380040 		.word	1073756160
 269              		.cfi_endproc
 270              	.LFE119:
 271              		.size	spi_lld_init, .-spi_lld_init
 272 006c AFF30080 		.section	.text.spi_lld_start,"ax",%progbits
 273              		.align	2
 274              		.p2align 4,,15
 275              		.global	spi_lld_start
 276              		.thumb
 277              		.thumb_func
 278              		.type	spi_lld_start, %function
 279              	spi_lld_start:
ARM GAS  /tmp/ccYQq7hX.s 			page 6


 280              	.LFB120:
 281              		.loc 1 224 0
 282              		.cfi_startproc
 283              		@ args = 0, pretend = 0, frame = 0
 284              		@ frame_needed = 0, uses_anonymous_args = 0
 285              	.LVL12:
 286              		.loc 1 227 0
 287 0000 0378     		ldrb	r3, [r0, #0]	@ zero_extendqisi2
 288 0002 012B     		cmp	r3, #1
 289              		.loc 1 224 0
 290 0004 10B5     		push	{r4, lr}
 291              	.LCFI2:
 292              		.cfi_def_cfa_offset 8
 293              		.loc 1 224 0
 294 0006 0446     		mov	r4, r0
 295              		.cfi_offset 14, -4
 296              		.cfi_offset 4, -8
 297              		.loc 1 227 0
 298 0008 28D0     		beq	.L25
 299 000a C369     		ldr	r3, [r0, #28]
 300              	.LVL13:
 301              	.L19:
 302              		.loc 1 283 0
 303 000c 6068     		ldr	r0, [r4, #4]
 304 000e 4289     		ldrh	r2, [r0, #10]
 305 0010 12F4006F 		tst	r2, #2048
 306 0014 19D0     		beq	.L26
 307              		.loc 1 292 0
 308 0016 E16A     		ldr	r1, [r4, #44]
 309              		.loc 1 290 0
 310 0018 A06A     		ldr	r0, [r4, #40]
 311              		.loc 1 292 0
 312 001a 21F4D04C 		bic	ip, r1, #26624
 313              		.loc 1 290 0
 314 001e 20F4D040 		bic	r0, r0, #26624
 315              		.loc 1 291 0
 316 0022 40F42050 		orr	r0, r0, #10240
 317              		.loc 1 293 0
 318 0026 4CF42051 		orr	r1, ip, #10240
 319              		.loc 1 290 0
 320 002a A062     		str	r0, [r4, #40]
 321              		.loc 1 292 0
 322 002c E162     		str	r1, [r4, #44]
 323              	.L23:
 324              		.loc 1 297 0
 325 002e 42F44172 		orr	r2, r2, #772
 326              		.loc 1 296 0
 327 0032 0021     		movs	r1, #0
 328              		.loc 1 299 0
 329 0034 0720     		movs	r0, #7
 330              		.loc 1 296 0
 331 0036 1980     		strh	r1, [r3, #0]	@ movhi
 332              		.loc 1 297 0
 333 0038 1A80     		strh	r2, [r3, #0]	@ movhi
 334              		.loc 1 299 0
 335 003a 9880     		strh	r0, [r3, #4]	@ movhi
 336              		.loc 1 300 0
ARM GAS  /tmp/ccYQq7hX.s 			page 7


 337 003c 1988     		ldrh	r1, [r3, #0]
 338 003e 1FFA81FC 		uxth	ip, r1
 339 0042 4CF04002 		orr	r2, ip, #64
 340 0046 1A80     		strh	r2, [r3, #0]	@ movhi
 341              		.loc 1 301 0
 342 0048 10BD     		pop	{r4, pc}
 343              	.L26:
 344              		.loc 1 285 0
 345 004a A06A     		ldr	r0, [r4, #40]
 346              		.loc 1 287 0
 347 004c E16A     		ldr	r1, [r4, #44]
 348              		.loc 1 285 0
 349 004e 20F4C040 		bic	r0, r0, #24576
 350              		.loc 1 287 0
 351 0052 21F4C041 		bic	r1, r1, #24576
 352              		.loc 1 284 0
 353 0056 A062     		str	r0, [r4, #40]
 354              		.loc 1 286 0
 355 0058 E162     		str	r1, [r4, #44]
 356 005a E8E7     		b	.L23
 357              	.L25:
 358              		.loc 1 229 0
 359 005c 1949     		ldr	r1, .L29
 360 005e 8842     		cmp	r0, r1
 361 0060 0CD0     		beq	.L27
 362              		.loc 1 245 0
 363 0062 1949     		ldr	r1, .L29+4
 364 0064 8842     		cmp	r0, r1
 365 0066 1BD0     		beq	.L28
 366              	.L21:
 367              		.loc 1 278 0
 368 0068 216A     		ldr	r1, [r4, #32]
 369              		.loc 1 279 0
 370 006a 626A     		ldr	r2, [r4, #36]
 371              		.loc 1 278 0
 372 006c E369     		ldr	r3, [r4, #28]
 373 006e 0868     		ldr	r0, [r1, #0]
 374              		.loc 1 279 0
 375 0070 1168     		ldr	r1, [r2, #0]
 376              		.loc 1 278 0
 377 0072 03F10C02 		add	r2, r3, #12
 378 0076 8260     		str	r2, [r0, #8]
 379              		.loc 1 279 0
 380 0078 8A60     		str	r2, [r1, #8]
 381 007a C7E7     		b	.L19
 382              	.L27:
 383              	.LBB5:
 384              		.loc 1 231 0
 385 007c 0A21     		movs	r1, #10
 386 007e 134A     		ldr	r2, .L29+8
 387 0080 006A     		ldr	r0, [r0, #32]
 388 0082 2346     		mov	r3, r4
 389 0084 FFF7FEFF 		bl	dmaStreamAllocate
 390              		.loc 1 236 0
 391 0088 114A     		ldr	r2, .L29+12
 392 008a 606A     		ldr	r0, [r4, #36]
 393 008c 2346     		mov	r3, r4
ARM GAS  /tmp/ccYQq7hX.s 			page 8


 394 008e 0A21     		movs	r1, #10
 395 0090 FFF7FEFF 		bl	dmaStreamAllocate
 396              		.loc 1 241 0
 397 0094 0F48     		ldr	r0, .L29+16
 398 0096 436C     		ldr	r3, [r0, #68]
 399 0098 43F48052 		orr	r2, r3, #4096
 400 009c 4264     		str	r2, [r0, #68]
 401 009e E3E7     		b	.L21
 402              	.L28:
 403              	.LBE5:
 404              	.LBB6:
 405              		.loc 1 247 0
 406 00a0 0A21     		movs	r1, #10
 407 00a2 0A4A     		ldr	r2, .L29+8
 408 00a4 006A     		ldr	r0, [r0, #32]
 409 00a6 2346     		mov	r3, r4
 410 00a8 FFF7FEFF 		bl	dmaStreamAllocate
 411              		.loc 1 252 0
 412 00ac 084A     		ldr	r2, .L29+12
 413 00ae 606A     		ldr	r0, [r4, #36]
 414 00b0 2346     		mov	r3, r4
 415 00b2 0A21     		movs	r1, #10
 416 00b4 FFF7FEFF 		bl	dmaStreamAllocate
 417              		.loc 1 257 0
 418 00b8 0648     		ldr	r0, .L29+16
 419 00ba 036C     		ldr	r3, [r0, #64]
 420 00bc 43F48042 		orr	r2, r3, #16384
 421 00c0 0264     		str	r2, [r0, #64]
 422 00c2 D1E7     		b	.L21
 423              	.L30:
 424              		.align	2
 425              	.L29:
 426 00c4 00000000 		.word	.LANCHOR1
 427 00c8 00000000 		.word	.LANCHOR2
 428 00cc 00000000 		.word	spi_lld_serve_rx_interrupt
 429 00d0 00000000 		.word	spi_lld_serve_tx_interrupt
 430 00d4 00380240 		.word	1073887232
 431              	.LBE6:
 432              		.cfi_endproc
 433              	.LFE120:
 434              		.size	spi_lld_start, .-spi_lld_start
 435 00d8 AFF30080 		.section	.text.spi_lld_stop,"ax",%progbits
 435      AFF30080 
 436              		.align	2
 437              		.p2align 4,,15
 438              		.global	spi_lld_stop
 439              		.thumb
 440              		.thumb_func
 441              		.type	spi_lld_stop, %function
 442              	spi_lld_stop:
 443              	.LFB121:
 444              		.loc 1 310 0
 445              		.cfi_startproc
 446              		@ args = 0, pretend = 0, frame = 0
 447              		@ frame_needed = 0, uses_anonymous_args = 0
 448              	.LVL14:
 449              		.loc 1 313 0
ARM GAS  /tmp/ccYQq7hX.s 			page 9


 450 0000 0378     		ldrb	r3, [r0, #0]	@ zero_extendqisi2
 451 0002 022B     		cmp	r3, #2
 452              		.loc 1 310 0
 453 0004 10B5     		push	{r4, lr}
 454              	.LCFI3:
 455              		.cfi_def_cfa_offset 8
 456              		.loc 1 310 0
 457 0006 0446     		mov	r4, r0
 458              		.cfi_offset 14, -4
 459              		.cfi_offset 4, -8
 460              		.loc 1 313 0
 461 0008 00D0     		beq	.L34
 462              	.LVL15:
 463              	.L31:
 464 000a 10BD     		pop	{r4, pc}
 465              	.L34:
 466              		.loc 1 316 0
 467 000c C169     		ldr	r1, [r0, #28]
 468              		.loc 1 317 0
 469 000e 006A     		ldr	r0, [r0, #32]
 470              		.loc 1 316 0
 471 0010 0022     		movs	r2, #0
 472 0012 0A80     		strh	r2, [r1, #0]	@ movhi
 473              		.loc 1 317 0
 474 0014 FFF7FEFF 		bl	dmaStreamRelease
 475              		.loc 1 318 0
 476 0018 606A     		ldr	r0, [r4, #36]
 477 001a FFF7FEFF 		bl	dmaStreamRelease
 478              		.loc 1 321 0
 479 001e 0948     		ldr	r0, .L36
 480 0020 8442     		cmp	r4, r0
 481 0022 08D0     		beq	.L35
 482              		.loc 1 325 0
 483 0024 0849     		ldr	r1, .L36+4
 484 0026 8C42     		cmp	r4, r1
 485 0028 EFD1     		bne	.L31
 486              		.loc 1 326 0
 487 002a 084B     		ldr	r3, .L36+8
 488 002c 1A6C     		ldr	r2, [r3, #64]
 489 002e 22F48040 		bic	r0, r2, #16384
 490 0032 1864     		str	r0, [r3, #64]
 491 0034 E9E7     		b	.L31
 492              	.L35:
 493              		.loc 1 322 0
 494 0036 054B     		ldr	r3, .L36+8
 495 0038 5A6C     		ldr	r2, [r3, #68]
 496 003a 22F48050 		bic	r0, r2, #4096
 497 003e 5864     		str	r0, [r3, #68]
 498 0040 10BD     		pop	{r4, pc}
 499              	.L37:
 500 0042 00BF     		.align	2
 501              	.L36:
 502 0044 00000000 		.word	.LANCHOR1
 503 0048 00000000 		.word	.LANCHOR2
 504 004c 00380240 		.word	1073887232
 505              		.cfi_endproc
 506              	.LFE121:
ARM GAS  /tmp/ccYQq7hX.s 			page 10


 507              		.size	spi_lld_stop, .-spi_lld_stop
 508              		.section	.text.spi_lld_select,"ax",%progbits
 509              		.align	2
 510              		.p2align 4,,15
 511              		.global	spi_lld_select
 512              		.thumb
 513              		.thumb_func
 514              		.type	spi_lld_select, %function
 515              	spi_lld_select:
 516              	.LFB122:
 517              		.loc 1 342 0
 518              		.cfi_startproc
 519              		@ args = 0, pretend = 0, frame = 0
 520              		@ frame_needed = 0, uses_anonymous_args = 0
 521              		@ link register save eliminated.
 522              	.LVL16:
 523              		.loc 1 344 0
 524 0000 4268     		ldr	r2, [r0, #4]
 525 0002 1089     		ldrh	r0, [r2, #8]
 526              	.LVL17:
 527 0004 5368     		ldr	r3, [r2, #4]
 528 0006 0121     		movs	r1, #1
 529 0008 11FA00F2 		lsls	r2, r1, r0
 530 000c 5A83     		strh	r2, [r3, #26]	@ movhi
 531              		.loc 1 345 0
 532 000e 7047     		bx	lr
 533              		.cfi_endproc
 534              	.LFE122:
 535              		.size	spi_lld_select, .-spi_lld_select
 536              		.section	.text.spi_lld_unselect,"ax",%progbits
 537              		.align	2
 538              		.p2align 4,,15
 539              		.global	spi_lld_unselect
 540              		.thumb
 541              		.thumb_func
 542              		.type	spi_lld_unselect, %function
 543              	spi_lld_unselect:
 544              	.LFB123:
 545              		.loc 1 355 0
 546              		.cfi_startproc
 547              		@ args = 0, pretend = 0, frame = 0
 548              		@ frame_needed = 0, uses_anonymous_args = 0
 549              		@ link register save eliminated.
 550              	.LVL18:
 551              		.loc 1 357 0
 552 0000 4268     		ldr	r2, [r0, #4]
 553 0002 1089     		ldrh	r0, [r2, #8]
 554              	.LVL19:
 555 0004 5368     		ldr	r3, [r2, #4]
 556 0006 0121     		movs	r1, #1
 557 0008 11FA00F2 		lsls	r2, r1, r0
 558 000c 1A83     		strh	r2, [r3, #24]	@ movhi
 559              		.loc 1 358 0
 560 000e 7047     		bx	lr
 561              		.cfi_endproc
 562              	.LFE123:
 563              		.size	spi_lld_unselect, .-spi_lld_unselect
ARM GAS  /tmp/ccYQq7hX.s 			page 11


 564              		.section	.text.spi_lld_ignore,"ax",%progbits
 565              		.align	2
 566              		.p2align 4,,15
 567              		.global	spi_lld_ignore
 568              		.thumb
 569              		.thumb_func
 570              		.type	spi_lld_ignore, %function
 571              	spi_lld_ignore:
 572              	.LFB124:
 573              		.loc 1 371 0
 574              		.cfi_startproc
 575              		@ args = 0, pretend = 0, frame = 0
 576              		@ frame_needed = 0, uses_anonymous_args = 0
 577              		@ link register save eliminated.
 578              	.LVL20:
 579              		.loc 1 373 0
 580 0000 036A     		ldr	r3, [r0, #32]
 581              		.loc 1 371 0
 582 0002 30B4     		push	{r4, r5}
 583              	.LCFI4:
 584              		.cfi_def_cfa_offset 8
 585              		.loc 1 377 0
 586 0004 456A     		ldr	r5, [r0, #36]
 587              		.cfi_offset 5, -4
 588              		.cfi_offset 4, -8
 589              		.loc 1 375 0
 590 0006 846A     		ldr	r4, [r0, #40]
 591              		.loc 1 373 0
 592 0008 1A68     		ldr	r2, [r3, #0]
 593              		.loc 1 377 0
 594 000a 2B68     		ldr	r3, [r5, #0]
 595              		.loc 1 373 0
 596 000c 074D     		ldr	r5, .L41
 597              		.loc 1 379 0
 598 000e C06A     		ldr	r0, [r0, #44]
 599              	.LVL21:
 600              		.loc 1 373 0
 601 0010 D560     		str	r5, [r2, #12]
 602              		.loc 1 375 0
 603 0012 44F00104 		orr	r4, r4, #1
 604              		.loc 1 374 0
 605 0016 5160     		str	r1, [r2, #4]
 606              		.loc 1 375 0
 607 0018 1460     		str	r4, [r2, #0]
 608              		.loc 1 377 0
 609 001a 054A     		ldr	r2, .L41+4
 610              		.loc 1 379 0
 611 001c 40F00100 		orr	r0, r0, #1
 612              		.loc 1 377 0
 613 0020 DA60     		str	r2, [r3, #12]
 614              		.loc 1 378 0
 615 0022 5960     		str	r1, [r3, #4]
 616              		.loc 1 379 0
 617 0024 1860     		str	r0, [r3, #0]
 618              		.loc 1 380 0
 619 0026 30BC     		pop	{r4, r5}
 620 0028 7047     		bx	lr
ARM GAS  /tmp/ccYQq7hX.s 			page 12


 621              	.L42:
 622 002a 00BF     		.align	2
 623              	.L41:
 624 002c 00000000 		.word	.LANCHOR3
 625 0030 00000000 		.word	.LANCHOR0
 626              		.cfi_endproc
 627              	.LFE124:
 628              		.size	spi_lld_ignore, .-spi_lld_ignore
 629 0034 AFF30080 		.section	.text.spi_lld_exchange,"ax",%progbits
 629      AFF30080 
 629      AFF30080 
 630              		.align	2
 631              		.p2align 4,,15
 632              		.global	spi_lld_exchange
 633              		.thumb
 634              		.thumb_func
 635              		.type	spi_lld_exchange, %function
 636              	spi_lld_exchange:
 637              	.LFB125:
 638              		.loc 1 398 0
 639              		.cfi_startproc
 640              		@ args = 0, pretend = 0, frame = 0
 641              		@ frame_needed = 0, uses_anonymous_args = 0
 642              		@ link register save eliminated.
 643              	.LVL22:
 644 0000 F0B4     		push	{r4, r5, r6, r7}
 645              	.LCFI5:
 646              		.cfi_def_cfa_offset 16
 647              		.loc 1 400 0
 648 0002 056A     		ldr	r5, [r0, #32]
 649              		.cfi_offset 7, -4
 650              		.cfi_offset 6, -8
 651              		.cfi_offset 5, -12
 652              		.cfi_offset 4, -16
 653              		.loc 1 402 0
 654 0004 866A     		ldr	r6, [r0, #40]
 655              		.loc 1 406 0
 656 0006 C46A     		ldr	r4, [r0, #44]
 657              		.loc 1 404 0
 658 0008 476A     		ldr	r7, [r0, #36]
 659              		.loc 1 400 0
 660 000a 2D68     		ldr	r5, [r5, #0]
 661              		.loc 1 404 0
 662 000c 3868     		ldr	r0, [r7, #0]
 663              	.LVL23:
 664              		.loc 1 400 0
 665 000e EB60     		str	r3, [r5, #12]
 666              		.loc 1 402 0
 667 0010 46F48066 		orr	r6, r6, #1024
 668              		.loc 1 406 0
 669 0014 44F48064 		orr	r4, r4, #1024
 670              		.loc 1 402 0
 671 0018 46F00106 		orr	r6, r6, #1
 672              		.loc 1 406 0
 673 001c 44F00104 		orr	r4, r4, #1
 674              		.loc 1 401 0
 675 0020 6960     		str	r1, [r5, #4]
ARM GAS  /tmp/ccYQq7hX.s 			page 13


 676              		.loc 1 402 0
 677 0022 2E60     		str	r6, [r5, #0]
 678              		.loc 1 404 0
 679 0024 C260     		str	r2, [r0, #12]
 680              		.loc 1 405 0
 681 0026 4160     		str	r1, [r0, #4]
 682              		.loc 1 406 0
 683 0028 0460     		str	r4, [r0, #0]
 684              		.loc 1 408 0
 685 002a F0BC     		pop	{r4, r5, r6, r7}
 686 002c 7047     		bx	lr
 687              		.cfi_endproc
 688              	.LFE125:
 689              		.size	spi_lld_exchange, .-spi_lld_exchange
 690 002e 00BF     		.section	.text.spi_lld_send,"ax",%progbits
 691              		.align	2
 692              		.p2align 4,,15
 693              		.global	spi_lld_send
 694              		.thumb
 695              		.thumb_func
 696              		.type	spi_lld_send, %function
 697              	spi_lld_send:
 698              	.LFB126:
 699              		.loc 1 423 0
 700              		.cfi_startproc
 701              		@ args = 0, pretend = 0, frame = 0
 702              		@ frame_needed = 0, uses_anonymous_args = 0
 703              		@ link register save eliminated.
 704              	.LVL24:
 705 0000 70B4     		push	{r4, r5, r6}
 706              	.LCFI6:
 707              		.cfi_def_cfa_offset 12
 708              		.loc 1 425 0
 709 0002 046A     		ldr	r4, [r0, #32]
 710              		.cfi_offset 6, -4
 711              		.cfi_offset 5, -8
 712              		.cfi_offset 4, -12
 713              		.loc 1 429 0
 714 0004 436A     		ldr	r3, [r0, #36]
 715              		.loc 1 431 0
 716 0006 C66A     		ldr	r6, [r0, #44]
 717              		.loc 1 427 0
 718 0008 856A     		ldr	r5, [r0, #40]
 719              		.loc 1 425 0
 720 000a 2468     		ldr	r4, [r4, #0]
 721 000c 0748     		ldr	r0, .L45
 722              	.LVL25:
 723              		.loc 1 429 0
 724 000e 1B68     		ldr	r3, [r3, #0]
 725              		.loc 1 425 0
 726 0010 E060     		str	r0, [r4, #12]
 727              		.loc 1 431 0
 728 0012 46F4806C 		orr	ip, r6, #1024
 729              		.loc 1 427 0
 730 0016 45F00105 		orr	r5, r5, #1
 731              		.loc 1 431 0
 732 001a 4CF00100 		orr	r0, ip, #1
ARM GAS  /tmp/ccYQq7hX.s 			page 14


 733              		.loc 1 426 0
 734 001e 6160     		str	r1, [r4, #4]
 735              		.loc 1 427 0
 736 0020 2560     		str	r5, [r4, #0]
 737              		.loc 1 429 0
 738 0022 DA60     		str	r2, [r3, #12]
 739              		.loc 1 430 0
 740 0024 5960     		str	r1, [r3, #4]
 741              		.loc 1 431 0
 742 0026 1860     		str	r0, [r3, #0]
 743              		.loc 1 433 0
 744 0028 70BC     		pop	{r4, r5, r6}
 745 002a 7047     		bx	lr
 746              	.L46:
 747              		.align	2
 748              	.L45:
 749 002c 00000000 		.word	.LANCHOR3
 750              		.cfi_endproc
 751              	.LFE126:
 752              		.size	spi_lld_send, .-spi_lld_send
 753              		.section	.text.spi_lld_receive,"ax",%progbits
 754              		.align	2
 755              		.p2align 4,,15
 756              		.global	spi_lld_receive
 757              		.thumb
 758              		.thumb_func
 759              		.type	spi_lld_receive, %function
 760              	spi_lld_receive:
 761              	.LFB127:
 762              		.loc 1 448 0
 763              		.cfi_startproc
 764              		@ args = 0, pretend = 0, frame = 0
 765              		@ frame_needed = 0, uses_anonymous_args = 0
 766              		@ link register save eliminated.
 767              	.LVL26:
 768 0000 70B4     		push	{r4, r5, r6}
 769              	.LCFI7:
 770              		.cfi_def_cfa_offset 12
 771              		.loc 1 450 0
 772 0002 066A     		ldr	r6, [r0, #32]
 773              		.cfi_offset 6, -4
 774              		.cfi_offset 5, -8
 775              		.cfi_offset 4, -12
 776              		.loc 1 452 0
 777 0004 846A     		ldr	r4, [r0, #40]
 778              		.loc 1 454 0
 779 0006 436A     		ldr	r3, [r0, #36]
 780              		.loc 1 456 0
 781 0008 C56A     		ldr	r5, [r0, #44]
 782              		.loc 1 450 0
 783 000a 3068     		ldr	r0, [r6, #0]
 784              	.LVL27:
 785              		.loc 1 454 0
 786 000c 1B68     		ldr	r3, [r3, #0]
 787              		.loc 1 450 0
 788 000e C260     		str	r2, [r0, #12]
 789              		.loc 1 452 0
ARM GAS  /tmp/ccYQq7hX.s 			page 15


 790 0010 44F48064 		orr	r4, r4, #1024
 791              		.loc 1 454 0
 792 0014 054A     		ldr	r2, .L48
 793              	.LVL28:
 794              		.loc 1 451 0
 795 0016 4160     		str	r1, [r0, #4]
 796              		.loc 1 452 0
 797 0018 44F00104 		orr	r4, r4, #1
 798              		.loc 1 456 0
 799 001c 45F00105 		orr	r5, r5, #1
 800              		.loc 1 452 0
 801 0020 0460     		str	r4, [r0, #0]
 802              		.loc 1 454 0
 803 0022 DA60     		str	r2, [r3, #12]
 804              		.loc 1 455 0
 805 0024 5960     		str	r1, [r3, #4]
 806              		.loc 1 456 0
 807 0026 1D60     		str	r5, [r3, #0]
 808              		.loc 1 457 0
 809 0028 70BC     		pop	{r4, r5, r6}
 810 002a 7047     		bx	lr
 811              	.L49:
 812              		.align	2
 813              	.L48:
 814 002c 00000000 		.word	.LANCHOR0
 815              		.cfi_endproc
 816              	.LFE127:
 817              		.size	spi_lld_receive, .-spi_lld_receive
 818              		.section	.text.spi_lld_polled_exchange,"ax",%progbits
 819              		.align	2
 820              		.p2align 4,,15
 821              		.global	spi_lld_polled_exchange
 822              		.thumb
 823              		.thumb_func
 824              		.type	spi_lld_polled_exchange, %function
 825              	spi_lld_polled_exchange:
 826              	.LFB128:
 827              		.loc 1 471 0
 828              		.cfi_startproc
 829              		@ args = 0, pretend = 0, frame = 0
 830              		@ frame_needed = 0, uses_anonymous_args = 0
 831              		@ link register save eliminated.
 832              	.LVL29:
 833              		.loc 1 473 0
 834 0000 C369     		ldr	r3, [r0, #28]
 835 0002 9981     		strh	r1, [r3, #12]	@ movhi
 836              	.L51:
 837              		.loc 1 474 0 discriminator 1
 838 0004 1A89     		ldrh	r2, [r3, #8]
 839 0006 12F0010F 		tst	r2, #1
 840 000a FBD0     		beq	.L51
 841              		.loc 1 476 0
 842 000c 9889     		ldrh	r0, [r3, #12]
 843              	.LVL30:
 844              		.loc 1 477 0
 845 000e 80B2     		uxth	r0, r0
 846 0010 7047     		bx	lr
ARM GAS  /tmp/ccYQq7hX.s 			page 16


 847              		.cfi_endproc
 848              	.LFE128:
 849              		.size	spi_lld_polled_exchange, .-spi_lld_polled_exchange
 850              		.global	SPID1
 851              		.global	SPID2
 852 0012 00BFAFF3 		.section	.bss.dummytx,"aw",%nobits
 852      0080AFF3 
 852      0080AFF3 
 852      0080
 853              		.align	1
 854              		.set	.LANCHOR0,. + 0
 855              		.type	dummytx, %object
 856              		.size	dummytx, 2
 857              	dummytx:
 858 0000 0000     		.space	2
 859              		.section	.bss.SPID1,"aw",%nobits
 860              		.align	2
 861              		.set	.LANCHOR1,. + 0
 862              		.type	SPID1, %object
 863              		.size	SPID1, 48
 864              	SPID1:
 865 0000 00000000 		.space	48
 865      00000000 
 865      00000000 
 865      00000000 
 865      00000000 
 866              		.section	.bss.SPID2,"aw",%nobits
 867              		.align	2
 868              		.set	.LANCHOR2,. + 0
 869              		.type	SPID2, %object
 870              		.size	SPID2, 48
 871              	SPID2:
 872 0000 00000000 		.space	48
 872      00000000 
 872      00000000 
 872      00000000 
 872      00000000 
 873              		.section	.bss.dummyrx,"aw",%nobits
 874              		.align	1
 875              		.set	.LANCHOR3,. + 0
 876              		.type	dummyrx, %object
 877              		.size	dummyrx, 2
 878              	dummyrx:
 879 0000 0000     		.space	2
 880              		.text
 881              	.Letext0:
 882              		.section	.debug_loc,"",%progbits
 883              	.Ldebug_loc0:
 884              	.LLST0:
 885 0000 00000000 		.4byte	.LFB117
 886 0004 06000000 		.4byte	.LCFI0
 887 0008 0200     		.2byte	0x2
 888 000a 7D       		.byte	0x7d
 889 000b 00       		.sleb128 0
 890 000c 06000000 		.4byte	.LCFI0
 891 0010 84000000 		.4byte	.LFE117
 892 0014 0200     		.2byte	0x2
ARM GAS  /tmp/ccYQq7hX.s 			page 17


 893 0016 7D       		.byte	0x7d
 894 0017 10       		.sleb128 16
 895 0018 00000000 		.4byte	0x0
 896 001c 00000000 		.4byte	0x0
 897              	.LLST1:
 898 0020 00000000 		.4byte	.LVL1
 899 0024 0A000000 		.4byte	.LVL2
 900 0028 0100     		.2byte	0x1
 901 002a 50       		.byte	0x50
 902 002b 0A000000 		.4byte	.LVL2
 903 002f 84000000 		.4byte	.LFE117
 904 0033 0100     		.2byte	0x1
 905 0035 54       		.byte	0x54
 906 0036 00000000 		.4byte	0x0
 907 003a 00000000 		.4byte	0x0
 908              	.LLST2:
 909 003e 00000000 		.4byte	.LVL1
 910 0042 0A000000 		.4byte	.LVL2
 911 0046 0100     		.2byte	0x1
 912 0048 51       		.byte	0x51
 913 0049 7E000000 		.4byte	.LVL10
 914 004d 81000000 		.4byte	.LVL11-1
 915 0051 0100     		.2byte	0x1
 916 0053 51       		.byte	0x51
 917 0054 00000000 		.4byte	0x0
 918 0058 00000000 		.4byte	0x0
 919              	.LLST3:
 920 005c 62000000 		.4byte	.LVL3
 921 0060 6F000000 		.4byte	.LVL6-1
 922 0064 0200     		.2byte	0x2
 923 0066 74       		.byte	0x74
 924 0067 08       		.sleb128 8
 925 0068 00000000 		.4byte	0x0
 926 006c 00000000 		.4byte	0x0
 927              	.LLST4:
 928 0070 6C000000 		.4byte	.LVL5
 929 0074 6F000000 		.4byte	.LVL6-1
 930 0078 0100     		.2byte	0x1
 931 007a 53       		.byte	0x53
 932 007b 00000000 		.4byte	0x0
 933 007f 00000000 		.4byte	0x0
 934              	.LLST5:
 935 0083 76000000 		.4byte	.LVL8
 936 0087 78000000 		.4byte	.LVL9
 937 008b 0100     		.2byte	0x1
 938 008d 53       		.byte	0x53
 939 008e 00000000 		.4byte	0x0
 940 0092 00000000 		.4byte	0x0
 941              	.LLST6:
 942 0096 00000000 		.4byte	.LFB119
 943 009a 02000000 		.4byte	.LCFI1
 944 009e 0200     		.2byte	0x2
 945 00a0 7D       		.byte	0x7d
 946 00a1 00       		.sleb128 0
 947 00a2 02000000 		.4byte	.LCFI1
 948 00a6 6C000000 		.4byte	.LFE119
 949 00aa 0200     		.2byte	0x2
ARM GAS  /tmp/ccYQq7hX.s 			page 18


 950 00ac 7D       		.byte	0x7d
 951 00ad 10       		.sleb128 16
 952 00ae 00000000 		.4byte	0x0
 953 00b2 00000000 		.4byte	0x0
 954              	.LLST7:
 955 00b6 00000000 		.4byte	.LFB120
 956 00ba 06000000 		.4byte	.LCFI2
 957 00be 0200     		.2byte	0x2
 958 00c0 7D       		.byte	0x7d
 959 00c1 00       		.sleb128 0
 960 00c2 06000000 		.4byte	.LCFI2
 961 00c6 D8000000 		.4byte	.LFE120
 962 00ca 0200     		.2byte	0x2
 963 00cc 7D       		.byte	0x7d
 964 00cd 08       		.sleb128 8
 965 00ce 00000000 		.4byte	0x0
 966 00d2 00000000 		.4byte	0x0
 967              	.LLST8:
 968 00d6 00000000 		.4byte	.LVL12
 969 00da 0C000000 		.4byte	.LVL13
 970 00de 0100     		.2byte	0x1
 971 00e0 50       		.byte	0x50
 972 00e1 0C000000 		.4byte	.LVL13
 973 00e5 D8000000 		.4byte	.LFE120
 974 00e9 0100     		.2byte	0x1
 975 00eb 54       		.byte	0x54
 976 00ec 00000000 		.4byte	0x0
 977 00f0 00000000 		.4byte	0x0
 978              	.LLST9:
 979 00f4 00000000 		.4byte	.LFB121
 980 00f8 06000000 		.4byte	.LCFI3
 981 00fc 0200     		.2byte	0x2
 982 00fe 7D       		.byte	0x7d
 983 00ff 00       		.sleb128 0
 984 0100 06000000 		.4byte	.LCFI3
 985 0104 50000000 		.4byte	.LFE121
 986 0108 0200     		.2byte	0x2
 987 010a 7D       		.byte	0x7d
 988 010b 08       		.sleb128 8
 989 010c 00000000 		.4byte	0x0
 990 0110 00000000 		.4byte	0x0
 991              	.LLST10:
 992 0114 00000000 		.4byte	.LVL14
 993 0118 0A000000 		.4byte	.LVL15
 994 011c 0100     		.2byte	0x1
 995 011e 50       		.byte	0x50
 996 011f 0A000000 		.4byte	.LVL15
 997 0123 50000000 		.4byte	.LFE121
 998 0127 0100     		.2byte	0x1
 999 0129 54       		.byte	0x54
 1000 012a 00000000 		.4byte	0x0
 1001 012e 00000000 		.4byte	0x0
 1002              	.LLST11:
 1003 0132 00000000 		.4byte	.LVL16
 1004 0136 04000000 		.4byte	.LVL17
 1005 013a 0100     		.2byte	0x1
 1006 013c 50       		.byte	0x50
ARM GAS  /tmp/ccYQq7hX.s 			page 19


 1007 013d 00000000 		.4byte	0x0
 1008 0141 00000000 		.4byte	0x0
 1009              	.LLST12:
 1010 0145 00000000 		.4byte	.LVL18
 1011 0149 04000000 		.4byte	.LVL19
 1012 014d 0100     		.2byte	0x1
 1013 014f 50       		.byte	0x50
 1014 0150 00000000 		.4byte	0x0
 1015 0154 00000000 		.4byte	0x0
 1016              	.LLST13:
 1017 0158 00000000 		.4byte	.LFB124
 1018 015c 04000000 		.4byte	.LCFI4
 1019 0160 0200     		.2byte	0x2
 1020 0162 7D       		.byte	0x7d
 1021 0163 00       		.sleb128 0
 1022 0164 04000000 		.4byte	.LCFI4
 1023 0168 34000000 		.4byte	.LFE124
 1024 016c 0200     		.2byte	0x2
 1025 016e 7D       		.byte	0x7d
 1026 016f 08       		.sleb128 8
 1027 0170 00000000 		.4byte	0x0
 1028 0174 00000000 		.4byte	0x0
 1029              	.LLST14:
 1030 0178 00000000 		.4byte	.LVL20
 1031 017c 10000000 		.4byte	.LVL21
 1032 0180 0100     		.2byte	0x1
 1033 0182 50       		.byte	0x50
 1034 0183 00000000 		.4byte	0x0
 1035 0187 00000000 		.4byte	0x0
 1036              	.LLST15:
 1037 018b 00000000 		.4byte	.LFB125
 1038 018f 02000000 		.4byte	.LCFI5
 1039 0193 0200     		.2byte	0x2
 1040 0195 7D       		.byte	0x7d
 1041 0196 00       		.sleb128 0
 1042 0197 02000000 		.4byte	.LCFI5
 1043 019b 2E000000 		.4byte	.LFE125
 1044 019f 0200     		.2byte	0x2
 1045 01a1 7D       		.byte	0x7d
 1046 01a2 10       		.sleb128 16
 1047 01a3 00000000 		.4byte	0x0
 1048 01a7 00000000 		.4byte	0x0
 1049              	.LLST16:
 1050 01ab 00000000 		.4byte	.LVL22
 1051 01af 0E000000 		.4byte	.LVL23
 1052 01b3 0100     		.2byte	0x1
 1053 01b5 50       		.byte	0x50
 1054 01b6 00000000 		.4byte	0x0
 1055 01ba 00000000 		.4byte	0x0
 1056              	.LLST17:
 1057 01be 00000000 		.4byte	.LFB126
 1058 01c2 02000000 		.4byte	.LCFI6
 1059 01c6 0200     		.2byte	0x2
 1060 01c8 7D       		.byte	0x7d
 1061 01c9 00       		.sleb128 0
 1062 01ca 02000000 		.4byte	.LCFI6
 1063 01ce 30000000 		.4byte	.LFE126
ARM GAS  /tmp/ccYQq7hX.s 			page 20


 1064 01d2 0200     		.2byte	0x2
 1065 01d4 7D       		.byte	0x7d
 1066 01d5 0C       		.sleb128 12
 1067 01d6 00000000 		.4byte	0x0
 1068 01da 00000000 		.4byte	0x0
 1069              	.LLST18:
 1070 01de 00000000 		.4byte	.LVL24
 1071 01e2 0E000000 		.4byte	.LVL25
 1072 01e6 0100     		.2byte	0x1
 1073 01e8 50       		.byte	0x50
 1074 01e9 00000000 		.4byte	0x0
 1075 01ed 00000000 		.4byte	0x0
 1076              	.LLST19:
 1077 01f1 00000000 		.4byte	.LFB127
 1078 01f5 02000000 		.4byte	.LCFI7
 1079 01f9 0200     		.2byte	0x2
 1080 01fb 7D       		.byte	0x7d
 1081 01fc 00       		.sleb128 0
 1082 01fd 02000000 		.4byte	.LCFI7
 1083 0201 30000000 		.4byte	.LFE127
 1084 0205 0200     		.2byte	0x2
 1085 0207 7D       		.byte	0x7d
 1086 0208 0C       		.sleb128 12
 1087 0209 00000000 		.4byte	0x0
 1088 020d 00000000 		.4byte	0x0
 1089              	.LLST20:
 1090 0211 00000000 		.4byte	.LVL26
 1091 0215 0C000000 		.4byte	.LVL27
 1092 0219 0100     		.2byte	0x1
 1093 021b 50       		.byte	0x50
 1094 021c 00000000 		.4byte	0x0
 1095 0220 00000000 		.4byte	0x0
 1096              	.LLST21:
 1097 0224 00000000 		.4byte	.LVL26
 1098 0228 16000000 		.4byte	.LVL28
 1099 022c 0100     		.2byte	0x1
 1100 022e 52       		.byte	0x52
 1101 022f 16000000 		.4byte	.LVL28
 1102 0233 30000000 		.4byte	.LFE127
 1103 0237 0500     		.2byte	0x5
 1104 0239 76       		.byte	0x76
 1105 023a 00       		.sleb128 0
 1106 023b 06       		.byte	0x6
 1107 023c 23       		.byte	0x23
 1108 023d 0C       		.uleb128 0xc
 1109 023e 00000000 		.4byte	0x0
 1110 0242 00000000 		.4byte	0x0
 1111              	.LLST22:
 1112 0246 00000000 		.4byte	.LVL29
 1113 024a 0E000000 		.4byte	.LVL30
 1114 024e 0100     		.2byte	0x1
 1115 0250 50       		.byte	0x50
 1116 0251 00000000 		.4byte	0x0
 1117 0255 00000000 		.4byte	0x0
 1118              		.file 2 "/opt/stm32/arm-none-eabi-2011.03/bin/../lib/gcc/arm-none-eabi/4.5.2/include/stddef.h"
 1119              		.file 3 "/opt/stm32/arm-none-eabi-2011.03/bin/../lib/gcc/arm-none-eabi/4.5.2/../../../../arm-none-
 1120              		.file 4 "../libs/ChibiOS_2.4.0/os/ports/GCC/ARMCMx/chtypes.h"
ARM GAS  /tmp/ccYQq7hX.s 			page 21


 1121              		.file 5 "../libs/ChibiOS_2.4.0/os/kernel/include/chlists.h"
 1122              		.file 6 "../libs/ChibiOS_2.4.0/os/kernel/include/chthreads.h"
 1123              		.file 7 "../libs/ChibiOS_2.4.0/os/ports/GCC/ARMCMx/chcore_v7m.h"
 1124              		.file 8 "../libs/ChibiOS_2.4.0/os/kernel/include/chmtx.h"
 1125              		.file 9 "../libs/ChibiOS_2.4.0/os/hal/platforms/STM32F4xx/stm32f4xx.h"
 1126              		.file 10 "../libs/ChibiOS_2.4.0/os/hal/platforms/STM32F4xx/stm32_dma.h"
 1127              		.file 11 "../libs/ChibiOS_2.4.0/os/hal/platforms/STM32/GPIOv2/pal_lld.h"
 1128              		.file 12 "../libs/ChibiOS_2.4.0/os/hal/include/spi.h"
 1129              		.file 13 "../libs/ChibiOS_2.4.0/os/hal/platforms/STM32/spi_lld.h"
 1130              		.file 14 "../libs/ChibiOS_2.4.0/os/ports/common/ARMCMx/CMSIS/include/core_cm4.h"
 1131              		.section	.debug_info
 1132 0000 EE0D0000 		.4byte	0xdee
 1133 0004 0200     		.2byte	0x2
 1134 0006 00000000 		.4byte	.Ldebug_abbrev0
 1135 000a 04       		.byte	0x4
 1136 000b 01       		.uleb128 0x1
 1137 000c 29010000 		.4byte	.LASF155
 1138 0010 01       		.byte	0x1
 1139 0011 49050000 		.4byte	.LASF156
 1140 0015 DD000000 		.4byte	.LASF157
 1141 0019 00000000 		.4byte	0x0
 1142 001d 00000000 		.4byte	0x0
 1143 0021 00000000 		.4byte	.Ldebug_ranges0+0x0
 1144 0025 00000000 		.4byte	.Ldebug_line0
 1145 0029 02       		.uleb128 0x2
 1146 002a 04       		.byte	0x4
 1147 002b 05       		.byte	0x5
 1148 002c 696E7400 		.ascii	"int\000"
 1149 0030 03       		.uleb128 0x3
 1150 0031 05000000 		.4byte	.LASF2
 1151 0035 02       		.byte	0x2
 1152 0036 D3       		.byte	0xd3
 1153 0037 3B000000 		.4byte	0x3b
 1154 003b 04       		.uleb128 0x4
 1155 003c 04       		.byte	0x4
 1156 003d 07       		.byte	0x7
 1157 003e 1D020000 		.4byte	.LASF0
 1158 0042 04       		.uleb128 0x4
 1159 0043 01       		.byte	0x1
 1160 0044 06       		.byte	0x6
 1161 0045 D1000000 		.4byte	.LASF1
 1162 0049 03       		.uleb128 0x3
 1163 004a AF050000 		.4byte	.LASF3
 1164 004e 03       		.byte	0x3
 1165 004f 2A       		.byte	0x2a
 1166 0050 54000000 		.4byte	0x54
 1167 0054 04       		.uleb128 0x4
 1168 0055 01       		.byte	0x1
 1169 0056 08       		.byte	0x8
 1170 0057 CC030000 		.4byte	.LASF4
 1171 005b 04       		.uleb128 0x4
 1172 005c 02       		.byte	0x2
 1173 005d 05       		.byte	0x5
 1174 005e 0B040000 		.4byte	.LASF5
 1175 0062 03       		.uleb128 0x3
 1176 0063 99010000 		.4byte	.LASF6
 1177 0067 03       		.byte	0x3
ARM GAS  /tmp/ccYQq7hX.s 			page 22


 1178 0068 36       		.byte	0x36
 1179 0069 6D000000 		.4byte	0x6d
 1180 006d 04       		.uleb128 0x4
 1181 006e 02       		.byte	0x2
 1182 006f 07       		.byte	0x7
 1183 0070 88020000 		.4byte	.LASF7
 1184 0074 03       		.uleb128 0x3
 1185 0075 C4030000 		.4byte	.LASF8
 1186 0079 03       		.byte	0x3
 1187 007a 4F       		.byte	0x4f
 1188 007b 7F000000 		.4byte	0x7f
 1189 007f 04       		.uleb128 0x4
 1190 0080 04       		.byte	0x4
 1191 0081 05       		.byte	0x5
 1192 0082 41010000 		.4byte	.LASF9
 1193 0086 03       		.uleb128 0x3
 1194 0087 71040000 		.4byte	.LASF10
 1195 008b 03       		.byte	0x3
 1196 008c 50       		.byte	0x50
 1197 008d 91000000 		.4byte	0x91
 1198 0091 04       		.uleb128 0x4
 1199 0092 04       		.byte	0x4
 1200 0093 07       		.byte	0x7
 1201 0094 8A040000 		.4byte	.LASF11
 1202 0098 04       		.uleb128 0x4
 1203 0099 08       		.byte	0x8
 1204 009a 05       		.byte	0x5
 1205 009b C3000000 		.4byte	.LASF12
 1206 009f 04       		.uleb128 0x4
 1207 00a0 08       		.byte	0x8
 1208 00a1 07       		.byte	0x7
 1209 00a2 38000000 		.4byte	.LASF13
 1210 00a6 03       		.uleb128 0x3
 1211 00a7 1A010000 		.4byte	.LASF14
 1212 00ab 04       		.byte	0x4
 1213 00ac 2E       		.byte	0x2e
 1214 00ad 74000000 		.4byte	0x74
 1215 00b1 03       		.uleb128 0x3
 1216 00b2 BC020000 		.4byte	.LASF15
 1217 00b6 04       		.byte	0x4
 1218 00b7 2F       		.byte	0x2f
 1219 00b8 49000000 		.4byte	0x49
 1220 00bc 03       		.uleb128 0x3
 1221 00bd 78010000 		.4byte	.LASF16
 1222 00c1 04       		.byte	0x4
 1223 00c2 30       		.byte	0x30
 1224 00c3 49000000 		.4byte	0x49
 1225 00c7 03       		.uleb128 0x3
 1226 00c8 7A040000 		.4byte	.LASF17
 1227 00cc 04       		.byte	0x4
 1228 00cd 31       		.byte	0x31
 1229 00ce 49000000 		.4byte	0x49
 1230 00d2 03       		.uleb128 0x3
 1231 00d3 B6030000 		.4byte	.LASF18
 1232 00d7 04       		.byte	0x4
 1233 00d8 32       		.byte	0x32
 1234 00d9 86000000 		.4byte	0x86
ARM GAS  /tmp/ccYQq7hX.s 			page 23


 1235 00dd 03       		.uleb128 0x3
 1236 00de A6020000 		.4byte	.LASF19
 1237 00e2 04       		.byte	0x4
 1238 00e3 33       		.byte	0x33
 1239 00e4 74000000 		.4byte	0x74
 1240 00e8 03       		.uleb128 0x3
 1241 00e9 DA020000 		.4byte	.LASF20
 1242 00ed 04       		.byte	0x4
 1243 00ee 35       		.byte	0x35
 1244 00ef 86000000 		.4byte	0x86
 1245 00f3 03       		.uleb128 0x3
 1246 00f4 DC040000 		.4byte	.LASF21
 1247 00f8 04       		.byte	0x4
 1248 00f9 36       		.byte	0x36
 1249 00fa 86000000 		.4byte	0x86
 1250 00fe 03       		.uleb128 0x3
 1251 00ff 50040000 		.4byte	.LASF22
 1252 0103 05       		.byte	0x5
 1253 0104 2A       		.byte	0x2a
 1254 0105 09010000 		.4byte	0x109
 1255 0109 05       		.uleb128 0x5
 1256 010a 50040000 		.4byte	.LASF22
 1257 010e 48       		.byte	0x48
 1258 010f 06       		.byte	0x6
 1259 0110 5E       		.byte	0x5e
 1260 0111 20020000 		.4byte	0x220
 1261 0115 06       		.uleb128 0x6
 1262 0116 05030000 		.4byte	.LASF23
 1263 011a 06       		.byte	0x6
 1264 011b 5F       		.byte	0x5f
 1265 011c 45020000 		.4byte	0x245
 1266 0120 02       		.byte	0x2
 1267 0121 23       		.byte	0x23
 1268 0122 00       		.uleb128 0x0
 1269 0123 06       		.uleb128 0x6
 1270 0124 91030000 		.4byte	.LASF24
 1271 0128 06       		.byte	0x6
 1272 0129 61       		.byte	0x61
 1273 012a 45020000 		.4byte	0x245
 1274 012e 02       		.byte	0x2
 1275 012f 23       		.byte	0x23
 1276 0130 04       		.uleb128 0x4
 1277 0131 06       		.uleb128 0x6
 1278 0132 B6000000 		.4byte	.LASF25
 1279 0136 06       		.byte	0x6
 1280 0137 63       		.byte	0x63
 1281 0138 D2000000 		.4byte	0xd2
 1282 013c 02       		.byte	0x2
 1283 013d 23       		.byte	0x23
 1284 013e 08       		.uleb128 0x8
 1285 013f 06       		.uleb128 0x6
 1286 0140 2A060000 		.4byte	.LASF26
 1287 0144 06       		.byte	0x6
 1288 0145 64       		.byte	0x64
 1289 0146 12030000 		.4byte	0x312
 1290 014a 02       		.byte	0x2
 1291 014b 23       		.byte	0x23
ARM GAS  /tmp/ccYQq7hX.s 			page 24


 1292 014c 0C       		.uleb128 0xc
 1293 014d 06       		.uleb128 0x6
 1294 014e A9010000 		.4byte	.LASF27
 1295 0152 06       		.byte	0x6
 1296 0153 66       		.byte	0x66
 1297 0154 45020000 		.4byte	0x245
 1298 0158 02       		.byte	0x2
 1299 0159 23       		.byte	0x23
 1300 015a 10       		.uleb128 0x10
 1301 015b 06       		.uleb128 0x6
 1302 015c 26030000 		.4byte	.LASF28
 1303 0160 06       		.byte	0x6
 1304 0161 67       		.byte	0x67
 1305 0162 45020000 		.4byte	0x245
 1306 0166 02       		.byte	0x2
 1307 0167 23       		.byte	0x23
 1308 0168 14       		.uleb128 0x14
 1309 0169 06       		.uleb128 0x6
 1310 016a EB050000 		.4byte	.LASF29
 1311 016e 06       		.byte	0x6
 1312 016f 6E       		.byte	0x6e
 1313 0170 BC030000 		.4byte	0x3bc
 1314 0174 02       		.byte	0x2
 1315 0175 23       		.byte	0x23
 1316 0176 18       		.uleb128 0x18
 1317 0177 06       		.uleb128 0x6
 1318 0178 F9030000 		.4byte	.LASF30
 1319 017c 06       		.byte	0x6
 1320 017d 79       		.byte	0x79
 1321 017e BC000000 		.4byte	0xbc
 1322 0182 02       		.byte	0x2
 1323 0183 23       		.byte	0x23
 1324 0184 1C       		.uleb128 0x1c
 1325 0185 06       		.uleb128 0x6
 1326 0186 37040000 		.4byte	.LASF31
 1327 018a 06       		.byte	0x6
 1328 018b 7D       		.byte	0x7d
 1329 018c B1000000 		.4byte	0xb1
 1330 0190 02       		.byte	0x2
 1331 0191 23       		.byte	0x23
 1332 0192 1D       		.uleb128 0x1d
 1333 0193 06       		.uleb128 0x6
 1334 0194 92010000 		.4byte	.LASF32
 1335 0198 06       		.byte	0x6
 1336 0199 82       		.byte	0x82
 1337 019a C7000000 		.4byte	0xc7
 1338 019e 02       		.byte	0x2
 1339 019f 23       		.byte	0x23
 1340 01a0 1E       		.uleb128 0x1e
 1341 01a1 06       		.uleb128 0x6
 1342 01a2 A2010000 		.4byte	.LASF33
 1343 01a6 06       		.byte	0x6
 1344 01a7 89       		.byte	0x89
 1345 01a8 3A030000 		.4byte	0x33a
 1346 01ac 02       		.byte	0x2
 1347 01ad 23       		.byte	0x23
 1348 01ae 20       		.uleb128 0x20
ARM GAS  /tmp/ccYQq7hX.s 			page 25


 1349 01af 07       		.uleb128 0x7
 1350 01b0 705F7500 		.ascii	"p_u\000"
 1351 01b4 06       		.byte	0x6
 1352 01b5 AE       		.byte	0xae
 1353 01b6 87030000 		.4byte	0x387
 1354 01ba 02       		.byte	0x2
 1355 01bb 23       		.byte	0x23
 1356 01bc 24       		.uleb128 0x24
 1357 01bd 06       		.uleb128 0x6
 1358 01be 30060000 		.4byte	.LASF34
 1359 01c2 06       		.byte	0x6
 1360 01c3 B3       		.byte	0xb3
 1361 01c4 6D020000 		.4byte	0x26d
 1362 01c8 02       		.byte	0x2
 1363 01c9 23       		.byte	0x23
 1364 01ca 28       		.uleb128 0x28
 1365 01cb 06       		.uleb128 0x6
 1366 01cc 55020000 		.4byte	.LASF35
 1367 01d0 06       		.byte	0x6
 1368 01d1 B9       		.byte	0xb9
 1369 01d2 4B020000 		.4byte	0x24b
 1370 01d6 02       		.byte	0x2
 1371 01d7 23       		.byte	0x23
 1372 01d8 2C       		.uleb128 0x2c
 1373 01d9 06       		.uleb128 0x6
 1374 01da 1C060000 		.4byte	.LASF36
 1375 01de 06       		.byte	0x6
 1376 01df BD       		.byte	0xbd
 1377 01e0 DD000000 		.4byte	0xdd
 1378 01e4 02       		.byte	0x2
 1379 01e5 23       		.byte	0x23
 1380 01e6 34       		.uleb128 0x34
 1381 01e7 06       		.uleb128 0x6
 1382 01e8 57040000 		.4byte	.LASF37
 1383 01ec 06       		.byte	0x6
 1384 01ed C3       		.byte	0xc3
 1385 01ee E8000000 		.4byte	0xe8
 1386 01f2 02       		.byte	0x2
 1387 01f3 23       		.byte	0x23
 1388 01f4 38       		.uleb128 0x38
 1389 01f5 06       		.uleb128 0x6
 1390 01f6 01040000 		.4byte	.LASF38
 1391 01fa 06       		.byte	0x6
 1392 01fb CA       		.byte	0xca
 1393 01fc CE030000 		.4byte	0x3ce
 1394 0200 02       		.byte	0x2
 1395 0201 23       		.byte	0x23
 1396 0202 3C       		.uleb128 0x3c
 1397 0203 06       		.uleb128 0x6
 1398 0204 E6040000 		.4byte	.LASF39
 1399 0208 06       		.byte	0x6
 1400 0209 CE       		.byte	0xce
 1401 020a D2000000 		.4byte	0xd2
 1402 020e 02       		.byte	0x2
 1403 020f 23       		.byte	0x23
 1404 0210 40       		.uleb128 0x40
 1405 0211 06       		.uleb128 0x6
ARM GAS  /tmp/ccYQq7hX.s 			page 26


 1406 0212 DD010000 		.4byte	.LASF40
 1407 0216 06       		.byte	0x6
 1408 0217 D4       		.byte	0xd4
 1409 0218 83020000 		.4byte	0x283
 1410 021c 02       		.byte	0x2
 1411 021d 23       		.byte	0x23
 1412 021e 44       		.uleb128 0x44
 1413 021f 00       		.byte	0x0
 1414 0220 08       		.uleb128 0x8
 1415 0221 08       		.byte	0x8
 1416 0222 05       		.byte	0x5
 1417 0223 61       		.byte	0x61
 1418 0224 45020000 		.4byte	0x245
 1419 0228 06       		.uleb128 0x6
 1420 0229 05030000 		.4byte	.LASF23
 1421 022d 05       		.byte	0x5
 1422 022e 62       		.byte	0x62
 1423 022f 45020000 		.4byte	0x245
 1424 0233 02       		.byte	0x2
 1425 0234 23       		.byte	0x23
 1426 0235 00       		.uleb128 0x0
 1427 0236 06       		.uleb128 0x6
 1428 0237 91030000 		.4byte	.LASF24
 1429 023b 05       		.byte	0x5
 1430 023c 64       		.byte	0x64
 1431 023d 45020000 		.4byte	0x245
 1432 0241 02       		.byte	0x2
 1433 0242 23       		.byte	0x23
 1434 0243 04       		.uleb128 0x4
 1435 0244 00       		.byte	0x0
 1436 0245 09       		.uleb128 0x9
 1437 0246 04       		.byte	0x4
 1438 0247 FE000000 		.4byte	0xfe
 1439 024b 03       		.uleb128 0x3
 1440 024c 2E030000 		.4byte	.LASF41
 1441 0250 05       		.byte	0x5
 1442 0251 66       		.byte	0x66
 1443 0252 20020000 		.4byte	0x220
 1444 0256 08       		.uleb128 0x8
 1445 0257 04       		.byte	0x4
 1446 0258 05       		.byte	0x5
 1447 0259 6B       		.byte	0x6b
 1448 025a 6D020000 		.4byte	0x26d
 1449 025e 06       		.uleb128 0x6
 1450 025f 05030000 		.4byte	.LASF23
 1451 0263 05       		.byte	0x5
 1452 0264 6D       		.byte	0x6d
 1453 0265 45020000 		.4byte	0x245
 1454 0269 02       		.byte	0x2
 1455 026a 23       		.byte	0x23
 1456 026b 00       		.uleb128 0x0
 1457 026c 00       		.byte	0x0
 1458 026d 03       		.uleb128 0x3
 1459 026e CE020000 		.4byte	.LASF42
 1460 0272 05       		.byte	0x5
 1461 0273 70       		.byte	0x70
 1462 0274 56020000 		.4byte	0x256
ARM GAS  /tmp/ccYQq7hX.s 			page 27


 1463 0278 03       		.uleb128 0x3
 1464 0279 E5010000 		.4byte	.LASF43
 1465 027d 07       		.byte	0x7
 1466 027e D7       		.byte	0xd7
 1467 027f 83020000 		.4byte	0x283
 1468 0283 0A       		.uleb128 0xa
 1469 0284 04       		.byte	0x4
 1470 0285 05       		.uleb128 0x5
 1471 0286 32050000 		.4byte	.LASF44
 1472 028a 24       		.byte	0x24
 1473 028b 07       		.byte	0x7
 1474 028c FE       		.byte	0xfe
 1475 028d 12030000 		.4byte	0x312
 1476 0291 0B       		.uleb128 0xb
 1477 0292 723400   		.ascii	"r4\000"
 1478 0295 07       		.byte	0x7
 1479 0296 1101     		.2byte	0x111
 1480 0298 78020000 		.4byte	0x278
 1481 029c 02       		.byte	0x2
 1482 029d 23       		.byte	0x23
 1483 029e 00       		.uleb128 0x0
 1484 029f 0B       		.uleb128 0xb
 1485 02a0 723500   		.ascii	"r5\000"
 1486 02a3 07       		.byte	0x7
 1487 02a4 1201     		.2byte	0x112
 1488 02a6 78020000 		.4byte	0x278
 1489 02aa 02       		.byte	0x2
 1490 02ab 23       		.byte	0x23
 1491 02ac 04       		.uleb128 0x4
 1492 02ad 0B       		.uleb128 0xb
 1493 02ae 723600   		.ascii	"r6\000"
 1494 02b1 07       		.byte	0x7
 1495 02b2 1301     		.2byte	0x113
 1496 02b4 78020000 		.4byte	0x278
 1497 02b8 02       		.byte	0x2
 1498 02b9 23       		.byte	0x23
 1499 02ba 08       		.uleb128 0x8
 1500 02bb 0B       		.uleb128 0xb
 1501 02bc 723700   		.ascii	"r7\000"
 1502 02bf 07       		.byte	0x7
 1503 02c0 1401     		.2byte	0x114
 1504 02c2 78020000 		.4byte	0x278
 1505 02c6 02       		.byte	0x2
 1506 02c7 23       		.byte	0x23
 1507 02c8 0C       		.uleb128 0xc
 1508 02c9 0B       		.uleb128 0xb
 1509 02ca 723800   		.ascii	"r8\000"
 1510 02cd 07       		.byte	0x7
 1511 02ce 1501     		.2byte	0x115
 1512 02d0 78020000 		.4byte	0x278
 1513 02d4 02       		.byte	0x2
 1514 02d5 23       		.byte	0x23
 1515 02d6 10       		.uleb128 0x10
 1516 02d7 0B       		.uleb128 0xb
 1517 02d8 723900   		.ascii	"r9\000"
 1518 02db 07       		.byte	0x7
 1519 02dc 1601     		.2byte	0x116
ARM GAS  /tmp/ccYQq7hX.s 			page 28


 1520 02de 78020000 		.4byte	0x278
 1521 02e2 02       		.byte	0x2
 1522 02e3 23       		.byte	0x23
 1523 02e4 14       		.uleb128 0x14
 1524 02e5 0B       		.uleb128 0xb
 1525 02e6 72313000 		.ascii	"r10\000"
 1526 02ea 07       		.byte	0x7
 1527 02eb 1701     		.2byte	0x117
 1528 02ed 78020000 		.4byte	0x278
 1529 02f1 02       		.byte	0x2
 1530 02f2 23       		.byte	0x23
 1531 02f3 18       		.uleb128 0x18
 1532 02f4 0B       		.uleb128 0xb
 1533 02f5 72313100 		.ascii	"r11\000"
 1534 02f9 07       		.byte	0x7
 1535 02fa 1801     		.2byte	0x118
 1536 02fc 78020000 		.4byte	0x278
 1537 0300 02       		.byte	0x2
 1538 0301 23       		.byte	0x23
 1539 0302 1C       		.uleb128 0x1c
 1540 0303 0B       		.uleb128 0xb
 1541 0304 6C7200   		.ascii	"lr\000"
 1542 0307 07       		.byte	0x7
 1543 0308 1901     		.2byte	0x119
 1544 030a 78020000 		.4byte	0x278
 1545 030e 02       		.byte	0x2
 1546 030f 23       		.byte	0x23
 1547 0310 20       		.uleb128 0x20
 1548 0311 00       		.byte	0x0
 1549 0312 0C       		.uleb128 0xc
 1550 0313 80020000 		.4byte	.LASF45
 1551 0317 04       		.byte	0x4
 1552 0318 07       		.byte	0x7
 1553 0319 2301     		.2byte	0x123
 1554 031b 2F030000 		.4byte	0x32f
 1555 031f 0B       		.uleb128 0xb
 1556 0320 72313300 		.ascii	"r13\000"
 1557 0324 07       		.byte	0x7
 1558 0325 2401     		.2byte	0x124
 1559 0327 2F030000 		.4byte	0x32f
 1560 032b 02       		.byte	0x2
 1561 032c 23       		.byte	0x23
 1562 032d 00       		.uleb128 0x0
 1563 032e 00       		.byte	0x0
 1564 032f 09       		.uleb128 0x9
 1565 0330 04       		.byte	0x4
 1566 0331 85020000 		.4byte	0x285
 1567 0335 0D       		.uleb128 0xd
 1568 0336 86000000 		.4byte	0x86
 1569 033a 0D       		.uleb128 0xd
 1570 033b F3000000 		.4byte	0xf3
 1571 033f 05       		.uleb128 0x5
 1572 0340 FF020000 		.4byte	.LASF46
 1573 0344 10       		.byte	0x10
 1574 0345 08       		.byte	0x8
 1575 0346 2C       		.byte	0x2c
 1576 0347 76030000 		.4byte	0x376
ARM GAS  /tmp/ccYQq7hX.s 			page 29


 1577 034b 06       		.uleb128 0x6
 1578 034c 21010000 		.4byte	.LASF47
 1579 0350 08       		.byte	0x8
 1580 0351 2D       		.byte	0x2d
 1581 0352 4B020000 		.4byte	0x24b
 1582 0356 02       		.byte	0x2
 1583 0357 23       		.byte	0x23
 1584 0358 00       		.uleb128 0x0
 1585 0359 06       		.uleb128 0x6
 1586 035a 22060000 		.4byte	.LASF48
 1587 035e 08       		.byte	0x8
 1588 035f 2F       		.byte	0x2f
 1589 0360 45020000 		.4byte	0x245
 1590 0364 02       		.byte	0x2
 1591 0365 23       		.byte	0x23
 1592 0366 08       		.uleb128 0x8
 1593 0367 06       		.uleb128 0x6
 1594 0368 D5040000 		.4byte	.LASF49
 1595 036c 08       		.byte	0x8
 1596 036d 31       		.byte	0x31
 1597 036e 76030000 		.4byte	0x376
 1598 0372 02       		.byte	0x2
 1599 0373 23       		.byte	0x23
 1600 0374 0C       		.uleb128 0xc
 1601 0375 00       		.byte	0x0
 1602 0376 09       		.uleb128 0x9
 1603 0377 04       		.byte	0x4
 1604 0378 3F030000 		.4byte	0x33f
 1605 037c 03       		.uleb128 0x3
 1606 037d FF020000 		.4byte	.LASF46
 1607 0381 08       		.byte	0x8
 1608 0382 33       		.byte	0x33
 1609 0383 3F030000 		.4byte	0x33f
 1610 0387 0E       		.uleb128 0xe
 1611 0388 04       		.byte	0x4
 1612 0389 06       		.byte	0x6
 1613 038a 90       		.byte	0x90
 1614 038b BC030000 		.4byte	0x3bc
 1615 038f 0F       		.uleb128 0xf
 1616 0390 0C000000 		.4byte	.LASF50
 1617 0394 06       		.byte	0x6
 1618 0395 97       		.byte	0x97
 1619 0396 DD000000 		.4byte	0xdd
 1620 039a 0F       		.uleb128 0xf
 1621 039b 65000000 		.4byte	.LASF51
 1622 039f 06       		.byte	0x6
 1623 03a0 9E       		.byte	0x9e
 1624 03a1 DD000000 		.4byte	0xdd
 1625 03a5 0F       		.uleb128 0xf
 1626 03a6 C9050000 		.4byte	.LASF52
 1627 03aa 06       		.byte	0x6
 1628 03ab A5       		.byte	0xa5
 1629 03ac 83020000 		.4byte	0x283
 1630 03b0 0F       		.uleb128 0xf
 1631 03b1 C2050000 		.4byte	.LASF53
 1632 03b5 06       		.byte	0x6
 1633 03b6 AC       		.byte	0xac
ARM GAS  /tmp/ccYQq7hX.s 			page 30


 1634 03b7 E8000000 		.4byte	0xe8
 1635 03bb 00       		.byte	0x0
 1636 03bc 09       		.uleb128 0x9
 1637 03bd 04       		.byte	0x4
 1638 03be C2030000 		.4byte	0x3c2
 1639 03c2 10       		.uleb128 0x10
 1640 03c3 C7030000 		.4byte	0x3c7
 1641 03c7 04       		.uleb128 0x4
 1642 03c8 01       		.byte	0x1
 1643 03c9 08       		.byte	0x8
 1644 03ca A8040000 		.4byte	.LASF54
 1645 03ce 09       		.uleb128 0x9
 1646 03cf 04       		.byte	0x4
 1647 03d0 7C030000 		.4byte	0x37c
 1648 03d4 11       		.uleb128 0x11
 1649 03d5 86000000 		.4byte	0x86
 1650 03d9 E4030000 		.4byte	0x3e4
 1651 03dd 12       		.uleb128 0x12
 1652 03de 3B000000 		.4byte	0x3b
 1653 03e2 01       		.byte	0x1
 1654 03e3 00       		.byte	0x0
 1655 03e4 0D       		.uleb128 0xd
 1656 03e5 62000000 		.4byte	0x62
 1657 03e9 0D       		.uleb128 0xd
 1658 03ea 74000000 		.4byte	0x74
 1659 03ee 13       		.uleb128 0x13
 1660 03ef 18       		.byte	0x18
 1661 03f0 09       		.byte	0x9
 1662 03f1 D301     		.2byte	0x1d3
 1663 03f3 51040000 		.4byte	0x451
 1664 03f7 0B       		.uleb128 0xb
 1665 03f8 435200   		.ascii	"CR\000"
 1666 03fb 09       		.byte	0x9
 1667 03fc D501     		.2byte	0x1d5
 1668 03fe 35030000 		.4byte	0x335
 1669 0402 02       		.byte	0x2
 1670 0403 23       		.byte	0x23
 1671 0404 00       		.uleb128 0x0
 1672 0405 14       		.uleb128 0x14
 1673 0406 F8040000 		.4byte	.LASF55
 1674 040a 09       		.byte	0x9
 1675 040b D601     		.2byte	0x1d6
 1676 040d 35030000 		.4byte	0x335
 1677 0411 02       		.byte	0x2
 1678 0412 23       		.byte	0x23
 1679 0413 04       		.uleb128 0x4
 1680 0414 0B       		.uleb128 0xb
 1681 0415 50415200 		.ascii	"PAR\000"
 1682 0419 09       		.byte	0x9
 1683 041a D701     		.2byte	0x1d7
 1684 041c 35030000 		.4byte	0x335
 1685 0420 02       		.byte	0x2
 1686 0421 23       		.byte	0x23
 1687 0422 08       		.uleb128 0x8
 1688 0423 14       		.uleb128 0x14
 1689 0424 00000000 		.4byte	.LASF56
 1690 0428 09       		.byte	0x9
ARM GAS  /tmp/ccYQq7hX.s 			page 31


 1691 0429 D801     		.2byte	0x1d8
 1692 042b 35030000 		.4byte	0x335
 1693 042f 02       		.byte	0x2
 1694 0430 23       		.byte	0x23
 1695 0431 0C       		.uleb128 0xc
 1696 0432 14       		.uleb128 0x14
 1697 0433 39050000 		.4byte	.LASF57
 1698 0437 09       		.byte	0x9
 1699 0438 D901     		.2byte	0x1d9
 1700 043a 35030000 		.4byte	0x335
 1701 043e 02       		.byte	0x2
 1702 043f 23       		.byte	0x23
 1703 0440 10       		.uleb128 0x10
 1704 0441 0B       		.uleb128 0xb
 1705 0442 46435200 		.ascii	"FCR\000"
 1706 0446 09       		.byte	0x9
 1707 0447 DA01     		.2byte	0x1da
 1708 0449 35030000 		.4byte	0x335
 1709 044d 02       		.byte	0x2
 1710 044e 23       		.byte	0x23
 1711 044f 14       		.uleb128 0x14
 1712 0450 00       		.byte	0x0
 1713 0451 15       		.uleb128 0x15
 1714 0452 FD040000 		.4byte	.LASF58
 1715 0456 09       		.byte	0x9
 1716 0457 DB01     		.2byte	0x1db
 1717 0459 EE030000 		.4byte	0x3ee
 1718 045d 13       		.uleb128 0x13
 1719 045e 88       		.byte	0x88
 1720 045f 09       		.byte	0x9
 1721 0460 DB02     		.2byte	0x2db
 1722 0462 2A060000 		.4byte	0x62a
 1723 0466 0B       		.uleb128 0xb
 1724 0467 435200   		.ascii	"CR\000"
 1725 046a 09       		.byte	0x9
 1726 046b DD02     		.2byte	0x2dd
 1727 046d 35030000 		.4byte	0x335
 1728 0471 02       		.byte	0x2
 1729 0472 23       		.byte	0x23
 1730 0473 00       		.uleb128 0x0
 1731 0474 14       		.uleb128 0x14
 1732 0475 AC020000 		.4byte	.LASF59
 1733 0479 09       		.byte	0x9
 1734 047a DE02     		.2byte	0x2de
 1735 047c 35030000 		.4byte	0x335
 1736 0480 02       		.byte	0x2
 1737 0481 23       		.byte	0x23
 1738 0482 04       		.uleb128 0x4
 1739 0483 14       		.uleb128 0x14
 1740 0484 41020000 		.4byte	.LASF60
 1741 0488 09       		.byte	0x9
 1742 0489 DF02     		.2byte	0x2df
 1743 048b 35030000 		.4byte	0x335
 1744 048f 02       		.byte	0x2
 1745 0490 23       		.byte	0x23
 1746 0491 08       		.uleb128 0x8
 1747 0492 0B       		.uleb128 0xb
ARM GAS  /tmp/ccYQq7hX.s 			page 32


 1748 0493 43495200 		.ascii	"CIR\000"
 1749 0497 09       		.byte	0x9
 1750 0498 E002     		.2byte	0x2e0
 1751 049a 35030000 		.4byte	0x335
 1752 049e 02       		.byte	0x2
 1753 049f 23       		.byte	0x23
 1754 04a0 0C       		.uleb128 0xc
 1755 04a1 14       		.uleb128 0x14
 1756 04a2 00010000 		.4byte	.LASF61
 1757 04a6 09       		.byte	0x9
 1758 04a7 E102     		.2byte	0x2e1
 1759 04a9 35030000 		.4byte	0x335
 1760 04ad 02       		.byte	0x2
 1761 04ae 23       		.byte	0x23
 1762 04af 10       		.uleb128 0x10
 1763 04b0 14       		.uleb128 0x14
 1764 04b1 C1040000 		.4byte	.LASF62
 1765 04b5 09       		.byte	0x9
 1766 04b6 E202     		.2byte	0x2e2
 1767 04b8 35030000 		.4byte	0x335
 1768 04bc 02       		.byte	0x2
 1769 04bd 23       		.byte	0x23
 1770 04be 14       		.uleb128 0x14
 1771 04bf 14       		.uleb128 0x14
 1772 04c0 47040000 		.4byte	.LASF63
 1773 04c4 09       		.byte	0x9
 1774 04c5 E302     		.2byte	0x2e3
 1775 04c7 35030000 		.4byte	0x335
 1776 04cb 02       		.byte	0x2
 1777 04cc 23       		.byte	0x23
 1778 04cd 18       		.uleb128 0x18
 1779 04ce 14       		.uleb128 0x14
 1780 04cf 5F030000 		.4byte	.LASF64
 1781 04d3 09       		.byte	0x9
 1782 04d4 E402     		.2byte	0x2e4
 1783 04d6 86000000 		.4byte	0x86
 1784 04da 02       		.byte	0x2
 1785 04db 23       		.byte	0x23
 1786 04dc 1C       		.uleb128 0x1c
 1787 04dd 14       		.uleb128 0x14
 1788 04de 45030000 		.4byte	.LASF65
 1789 04e2 09       		.byte	0x9
 1790 04e3 E502     		.2byte	0x2e5
 1791 04e5 35030000 		.4byte	0x335
 1792 04e9 02       		.byte	0x2
 1793 04ea 23       		.byte	0x23
 1794 04eb 20       		.uleb128 0x20
 1795 04ec 14       		.uleb128 0x14
 1796 04ed 65010000 		.4byte	.LASF66
 1797 04f1 09       		.byte	0x9
 1798 04f2 E602     		.2byte	0x2e6
 1799 04f4 35030000 		.4byte	0x335
 1800 04f8 02       		.byte	0x2
 1801 04f9 23       		.byte	0x23
 1802 04fa 24       		.uleb128 0x24
 1803 04fb 14       		.uleb128 0x14
 1804 04fc 69030000 		.4byte	.LASF67
ARM GAS  /tmp/ccYQq7hX.s 			page 33


 1805 0500 09       		.byte	0x9
 1806 0501 E702     		.2byte	0x2e7
 1807 0503 D4030000 		.4byte	0x3d4
 1808 0507 02       		.byte	0x2
 1809 0508 23       		.byte	0x23
 1810 0509 28       		.uleb128 0x28
 1811 050a 14       		.uleb128 0x14
 1812 050b F2050000 		.4byte	.LASF68
 1813 050f 09       		.byte	0x9
 1814 0510 E802     		.2byte	0x2e8
 1815 0512 35030000 		.4byte	0x335
 1816 0516 02       		.byte	0x2
 1817 0517 23       		.byte	0x23
 1818 0518 30       		.uleb128 0x30
 1819 0519 14       		.uleb128 0x14
 1820 051a 1B050000 		.4byte	.LASF69
 1821 051e 09       		.byte	0x9
 1822 051f E902     		.2byte	0x2e9
 1823 0521 35030000 		.4byte	0x335
 1824 0525 02       		.byte	0x2
 1825 0526 23       		.byte	0x23
 1826 0527 34       		.uleb128 0x34
 1827 0528 14       		.uleb128 0x14
 1828 0529 60020000 		.4byte	.LASF70
 1829 052d 09       		.byte	0x9
 1830 052e EA02     		.2byte	0x2ea
 1831 0530 35030000 		.4byte	0x335
 1832 0534 02       		.byte	0x2
 1833 0535 23       		.byte	0x23
 1834 0536 38       		.uleb128 0x38
 1835 0537 14       		.uleb128 0x14
 1836 0538 73030000 		.4byte	.LASF71
 1837 053c 09       		.byte	0x9
 1838 053d EB02     		.2byte	0x2eb
 1839 053f 86000000 		.4byte	0x86
 1840 0543 02       		.byte	0x2
 1841 0544 23       		.byte	0x23
 1842 0545 3C       		.uleb128 0x3c
 1843 0546 14       		.uleb128 0x14
 1844 0547 82040000 		.4byte	.LASF72
 1845 054b 09       		.byte	0x9
 1846 054c EC02     		.2byte	0x2ec
 1847 054e 35030000 		.4byte	0x335
 1848 0552 02       		.byte	0x2
 1849 0553 23       		.byte	0x23
 1850 0554 40       		.uleb128 0x40
 1851 0555 14       		.uleb128 0x14
 1852 0556 3F040000 		.4byte	.LASF73
 1853 055a 09       		.byte	0x9
 1854 055b ED02     		.2byte	0x2ed
 1855 055d 35030000 		.4byte	0x335
 1856 0561 02       		.byte	0x2
 1857 0562 23       		.byte	0x23
 1858 0563 44       		.uleb128 0x44
 1859 0564 14       		.uleb128 0x14
 1860 0565 7D030000 		.4byte	.LASF74
 1861 0569 09       		.byte	0x9
ARM GAS  /tmp/ccYQq7hX.s 			page 34


 1862 056a EE02     		.2byte	0x2ee
 1863 056c D4030000 		.4byte	0x3d4
 1864 0570 02       		.byte	0x2
 1865 0571 23       		.byte	0x23
 1866 0572 48       		.uleb128 0x48
 1867 0573 14       		.uleb128 0x14
 1868 0574 AC000000 		.4byte	.LASF75
 1869 0578 09       		.byte	0x9
 1870 0579 EF02     		.2byte	0x2ef
 1871 057b 35030000 		.4byte	0x335
 1872 057f 02       		.byte	0x2
 1873 0580 23       		.byte	0x23
 1874 0581 50       		.uleb128 0x50
 1875 0582 14       		.uleb128 0x14
 1876 0583 3B030000 		.4byte	.LASF76
 1877 0587 09       		.byte	0x9
 1878 0588 F002     		.2byte	0x2f0
 1879 058a 35030000 		.4byte	0x335
 1880 058e 02       		.byte	0x2
 1881 058f 23       		.byte	0x23
 1882 0590 54       		.uleb128 0x54
 1883 0591 14       		.uleb128 0x14
 1884 0592 25040000 		.4byte	.LASF77
 1885 0596 09       		.byte	0x9
 1886 0597 F102     		.2byte	0x2f1
 1887 0599 35030000 		.4byte	0x335
 1888 059d 02       		.byte	0x2
 1889 059e 23       		.byte	0x23
 1890 059f 58       		.uleb128 0x58
 1891 05a0 14       		.uleb128 0x14
 1892 05a1 87030000 		.4byte	.LASF78
 1893 05a5 09       		.byte	0x9
 1894 05a6 F202     		.2byte	0x2f2
 1895 05a8 86000000 		.4byte	0x86
 1896 05ac 02       		.byte	0x2
 1897 05ad 23       		.byte	0x23
 1898 05ae 5C       		.uleb128 0x5c
 1899 05af 14       		.uleb128 0x14
 1900 05b0 6E010000 		.4byte	.LASF79
 1901 05b4 09       		.byte	0x9
 1902 05b5 F302     		.2byte	0x2f3
 1903 05b7 35030000 		.4byte	0x335
 1904 05bb 02       		.byte	0x2
 1905 05bc 23       		.byte	0x23
 1906 05bd 60       		.uleb128 0x60
 1907 05be 14       		.uleb128 0x14
 1908 05bf C4020000 		.4byte	.LASF80
 1909 05c3 09       		.byte	0x9
 1910 05c4 F402     		.2byte	0x2f4
 1911 05c6 35030000 		.4byte	0x335
 1912 05ca 02       		.byte	0x2
 1913 05cb 23       		.byte	0x23
 1914 05cc 64       		.uleb128 0x64
 1915 05cd 14       		.uleb128 0x14
 1916 05ce 67040000 		.4byte	.LASF81
 1917 05d2 09       		.byte	0x9
 1918 05d3 F502     		.2byte	0x2f5
ARM GAS  /tmp/ccYQq7hX.s 			page 35


 1919 05d5 D4030000 		.4byte	0x3d4
 1920 05d9 02       		.byte	0x2
 1921 05da 23       		.byte	0x23
 1922 05db 68       		.uleb128 0x68
 1923 05dc 14       		.uleb128 0x14
 1924 05dd 95050000 		.4byte	.LASF82
 1925 05e1 09       		.byte	0x9
 1926 05e2 F602     		.2byte	0x2f6
 1927 05e4 35030000 		.4byte	0x335
 1928 05e8 02       		.byte	0x2
 1929 05e9 23       		.byte	0x23
 1930 05ea 70       		.uleb128 0x70
 1931 05eb 0B       		.uleb128 0xb
 1932 05ec 43535200 		.ascii	"CSR\000"
 1933 05f0 09       		.byte	0x9
 1934 05f1 F702     		.2byte	0x2f7
 1935 05f3 35030000 		.4byte	0x335
 1936 05f7 02       		.byte	0x2
 1937 05f8 23       		.byte	0x23
 1938 05f9 74       		.uleb128 0x74
 1939 05fa 14       		.uleb128 0x14
 1940 05fb 98030000 		.4byte	.LASF83
 1941 05ff 09       		.byte	0x9
 1942 0600 F802     		.2byte	0x2f8
 1943 0602 D4030000 		.4byte	0x3d4
 1944 0606 02       		.byte	0x2
 1945 0607 23       		.byte	0x23
 1946 0608 78       		.uleb128 0x78
 1947 0609 14       		.uleb128 0x14
 1948 060a 80050000 		.4byte	.LASF84
 1949 060e 09       		.byte	0x9
 1950 060f F902     		.2byte	0x2f9
 1951 0611 35030000 		.4byte	0x335
 1952 0615 03       		.byte	0x3
 1953 0616 23       		.byte	0x23
 1954 0617 8001     		.uleb128 0x80
 1955 0619 14       		.uleb128 0x14
 1956 061a 9B020000 		.4byte	.LASF85
 1957 061e 09       		.byte	0x9
 1958 061f FA02     		.2byte	0x2fa
 1959 0621 35030000 		.4byte	0x335
 1960 0625 03       		.byte	0x3
 1961 0626 23       		.byte	0x23
 1962 0627 8401     		.uleb128 0x84
 1963 0629 00       		.byte	0x0
 1964 062a 15       		.uleb128 0x15
 1965 062b 68020000 		.4byte	.LASF86
 1966 062f 09       		.byte	0x9
 1967 0630 FB02     		.2byte	0x2fb
 1968 0632 5D040000 		.4byte	0x45d
 1969 0636 13       		.uleb128 0x13
 1970 0637 24       		.byte	0x24
 1971 0638 09       		.byte	0x9
 1972 0639 4D03     		.2byte	0x34d
 1973 063b 4C070000 		.4byte	0x74c
 1974 063f 0B       		.uleb128 0xb
 1975 0640 43523100 		.ascii	"CR1\000"
ARM GAS  /tmp/ccYQq7hX.s 			page 36


 1976 0644 09       		.byte	0x9
 1977 0645 4F03     		.2byte	0x34f
 1978 0647 E4030000 		.4byte	0x3e4
 1979 064b 02       		.byte	0x2
 1980 064c 23       		.byte	0x23
 1981 064d 00       		.uleb128 0x0
 1982 064e 14       		.uleb128 0x14
 1983 064f 5F030000 		.4byte	.LASF64
 1984 0653 09       		.byte	0x9
 1985 0654 5003     		.2byte	0x350
 1986 0656 62000000 		.4byte	0x62
 1987 065a 02       		.byte	0x2
 1988 065b 23       		.byte	0x23
 1989 065c 02       		.uleb128 0x2
 1990 065d 0B       		.uleb128 0xb
 1991 065e 43523200 		.ascii	"CR2\000"
 1992 0662 09       		.byte	0x9
 1993 0663 5103     		.2byte	0x351
 1994 0665 E4030000 		.4byte	0x3e4
 1995 0669 02       		.byte	0x2
 1996 066a 23       		.byte	0x23
 1997 066b 04       		.uleb128 0x4
 1998 066c 14       		.uleb128 0x14
 1999 066d 69030000 		.4byte	.LASF67
 2000 0671 09       		.byte	0x9
 2001 0672 5203     		.2byte	0x352
 2002 0674 62000000 		.4byte	0x62
 2003 0678 02       		.byte	0x2
 2004 0679 23       		.byte	0x23
 2005 067a 06       		.uleb128 0x6
 2006 067b 0B       		.uleb128 0xb
 2007 067c 535200   		.ascii	"SR\000"
 2008 067f 09       		.byte	0x9
 2009 0680 5303     		.2byte	0x353
 2010 0682 E4030000 		.4byte	0x3e4
 2011 0686 02       		.byte	0x2
 2012 0687 23       		.byte	0x23
 2013 0688 08       		.uleb128 0x8
 2014 0689 14       		.uleb128 0x14
 2015 068a 73030000 		.4byte	.LASF71
 2016 068e 09       		.byte	0x9
 2017 068f 5403     		.2byte	0x354
 2018 0691 62000000 		.4byte	0x62
 2019 0695 02       		.byte	0x2
 2020 0696 23       		.byte	0x23
 2021 0697 0A       		.uleb128 0xa
 2022 0698 0B       		.uleb128 0xb
 2023 0699 445200   		.ascii	"DR\000"
 2024 069c 09       		.byte	0x9
 2025 069d 5503     		.2byte	0x355
 2026 069f E4030000 		.4byte	0x3e4
 2027 06a3 02       		.byte	0x2
 2028 06a4 23       		.byte	0x23
 2029 06a5 0C       		.uleb128 0xc
 2030 06a6 14       		.uleb128 0x14
 2031 06a7 7D030000 		.4byte	.LASF74
 2032 06ab 09       		.byte	0x9
ARM GAS  /tmp/ccYQq7hX.s 			page 37


 2033 06ac 5603     		.2byte	0x356
 2034 06ae 62000000 		.4byte	0x62
 2035 06b2 02       		.byte	0x2
 2036 06b3 23       		.byte	0x23
 2037 06b4 0E       		.uleb128 0xe
 2038 06b5 14       		.uleb128 0x14
 2039 06b6 59000000 		.4byte	.LASF87
 2040 06ba 09       		.byte	0x9
 2041 06bb 5703     		.2byte	0x357
 2042 06bd E4030000 		.4byte	0x3e4
 2043 06c1 02       		.byte	0x2
 2044 06c2 23       		.byte	0x23
 2045 06c3 10       		.uleb128 0x10
 2046 06c4 14       		.uleb128 0x14
 2047 06c5 87030000 		.4byte	.LASF78
 2048 06c9 09       		.byte	0x9
 2049 06ca 5803     		.2byte	0x358
 2050 06cc 62000000 		.4byte	0x62
 2051 06d0 02       		.byte	0x2
 2052 06d1 23       		.byte	0x23
 2053 06d2 12       		.uleb128 0x12
 2054 06d3 14       		.uleb128 0x14
 2055 06d4 9A050000 		.4byte	.LASF88
 2056 06d8 09       		.byte	0x9
 2057 06d9 5903     		.2byte	0x359
 2058 06db E4030000 		.4byte	0x3e4
 2059 06df 02       		.byte	0x2
 2060 06e0 23       		.byte	0x23
 2061 06e1 14       		.uleb128 0x14
 2062 06e2 14       		.uleb128 0x14
 2063 06e3 67040000 		.4byte	.LASF81
 2064 06e7 09       		.byte	0x9
 2065 06e8 5A03     		.2byte	0x35a
 2066 06ea 62000000 		.4byte	0x62
 2067 06ee 02       		.byte	0x2
 2068 06ef 23       		.byte	0x23
 2069 06f0 16       		.uleb128 0x16
 2070 06f1 14       		.uleb128 0x14
 2071 06f2 58030000 		.4byte	.LASF89
 2072 06f6 09       		.byte	0x9
 2073 06f7 5B03     		.2byte	0x35b
 2074 06f9 E4030000 		.4byte	0x3e4
 2075 06fd 02       		.byte	0x2
 2076 06fe 23       		.byte	0x23
 2077 06ff 18       		.uleb128 0x18
 2078 0700 14       		.uleb128 0x14
 2079 0701 98030000 		.4byte	.LASF83
 2080 0705 09       		.byte	0x9
 2081 0706 5C03     		.2byte	0x35c
 2082 0708 62000000 		.4byte	0x62
 2083 070c 02       		.byte	0x2
 2084 070d 23       		.byte	0x23
 2085 070e 1A       		.uleb128 0x1a
 2086 070f 14       		.uleb128 0x14
 2087 0710 12010000 		.4byte	.LASF90
 2088 0714 09       		.byte	0x9
 2089 0715 5D03     		.2byte	0x35d
ARM GAS  /tmp/ccYQq7hX.s 			page 38


 2090 0717 E4030000 		.4byte	0x3e4
 2091 071b 02       		.byte	0x2
 2092 071c 23       		.byte	0x23
 2093 071d 1C       		.uleb128 0x1c
 2094 071e 14       		.uleb128 0x14
 2095 071f A2030000 		.4byte	.LASF91
 2096 0723 09       		.byte	0x9
 2097 0724 5E03     		.2byte	0x35e
 2098 0726 62000000 		.4byte	0x62
 2099 072a 02       		.byte	0x2
 2100 072b 23       		.byte	0x23
 2101 072c 1E       		.uleb128 0x1e
 2102 072d 14       		.uleb128 0x14
 2103 072e F3020000 		.4byte	.LASF92
 2104 0732 09       		.byte	0x9
 2105 0733 5F03     		.2byte	0x35f
 2106 0735 E4030000 		.4byte	0x3e4
 2107 0739 02       		.byte	0x2
 2108 073a 23       		.byte	0x23
 2109 073b 20       		.uleb128 0x20
 2110 073c 14       		.uleb128 0x14
 2111 073d AC030000 		.4byte	.LASF93
 2112 0741 09       		.byte	0x9
 2113 0742 6003     		.2byte	0x360
 2114 0744 62000000 		.4byte	0x62
 2115 0748 02       		.byte	0x2
 2116 0749 23       		.byte	0x23
 2117 074a 22       		.uleb128 0x22
 2118 074b 00       		.byte	0x0
 2119 074c 15       		.uleb128 0x15
 2120 074d 9C040000 		.4byte	.LASF94
 2121 0751 09       		.byte	0x9
 2122 0752 6103     		.2byte	0x361
 2123 0754 36060000 		.4byte	0x636
 2124 0758 08       		.uleb128 0x8
 2125 0759 0C       		.byte	0xc
 2126 075a 0A       		.byte	0xa
 2127 075b DB       		.byte	0xdb
 2128 075c A7070000 		.4byte	0x7a7
 2129 0760 06       		.uleb128 0x6
 2130 0761 25000000 		.4byte	.LASF95
 2131 0765 0A       		.byte	0xa
 2132 0766 DC       		.byte	0xdc
 2133 0767 A7070000 		.4byte	0x7a7
 2134 076b 02       		.byte	0x2
 2135 076c 23       		.byte	0x23
 2136 076d 00       		.uleb128 0x0
 2137 076e 06       		.uleb128 0x6
 2138 076f 62040000 		.4byte	.LASF96
 2139 0773 0A       		.byte	0xa
 2140 0774 DD       		.byte	0xdd
 2141 0775 AD070000 		.4byte	0x7ad
 2142 0779 02       		.byte	0x2
 2143 077a 23       		.byte	0x23
 2144 077b 04       		.uleb128 0x4
 2145 077c 06       		.uleb128 0x6
 2146 077d 79020000 		.4byte	.LASF97
ARM GAS  /tmp/ccYQq7hX.s 			page 39


 2147 0781 0A       		.byte	0xa
 2148 0782 DE       		.byte	0xde
 2149 0783 49000000 		.4byte	0x49
 2150 0787 02       		.byte	0x2
 2151 0788 23       		.byte	0x23
 2152 0789 08       		.uleb128 0x8
 2153 078a 06       		.uleb128 0x6
 2154 078b EE010000 		.4byte	.LASF98
 2155 078f 0A       		.byte	0xa
 2156 0790 E0       		.byte	0xe0
 2157 0791 49000000 		.4byte	0x49
 2158 0795 02       		.byte	0x2
 2159 0796 23       		.byte	0x23
 2160 0797 09       		.uleb128 0x9
 2161 0798 06       		.uleb128 0x6
 2162 0799 6E000000 		.4byte	.LASF99
 2163 079d 0A       		.byte	0xa
 2164 079e E1       		.byte	0xe1
 2165 079f 49000000 		.4byte	0x49
 2166 07a3 02       		.byte	0x2
 2167 07a4 23       		.byte	0x23
 2168 07a5 0A       		.uleb128 0xa
 2169 07a6 00       		.byte	0x0
 2170 07a7 09       		.uleb128 0x9
 2171 07a8 04       		.byte	0x4
 2172 07a9 51040000 		.4byte	0x451
 2173 07ad 09       		.uleb128 0x9
 2174 07ae 04       		.byte	0x4
 2175 07af 35030000 		.4byte	0x335
 2176 07b3 03       		.uleb128 0x3
 2177 07b4 DA030000 		.4byte	.LASF100
 2178 07b8 0A       		.byte	0xa
 2179 07b9 E2       		.byte	0xe2
 2180 07ba 58070000 		.4byte	0x758
 2181 07be 03       		.uleb128 0x3
 2182 07bf 46020000 		.4byte	.LASF101
 2183 07c3 0A       		.byte	0xa
 2184 07c4 EB       		.byte	0xeb
 2185 07c5 C9070000 		.4byte	0x7c9
 2186 07c9 09       		.uleb128 0x9
 2187 07ca 04       		.byte	0x4
 2188 07cb CF070000 		.4byte	0x7cf
 2189 07cf 16       		.uleb128 0x16
 2190 07d0 01       		.byte	0x1
 2191 07d1 E0070000 		.4byte	0x7e0
 2192 07d5 17       		.uleb128 0x17
 2193 07d6 83020000 		.4byte	0x283
 2194 07da 17       		.uleb128 0x17
 2195 07db 86000000 		.4byte	0x86
 2196 07df 00       		.byte	0x0
 2197 07e0 08       		.uleb128 0x8
 2198 07e1 04       		.byte	0x4
 2199 07e2 0B       		.byte	0xb
 2200 07e3 9D       		.byte	0x9d
 2201 07e4 05080000 		.4byte	0x805
 2202 07e8 07       		.uleb128 0x7
 2203 07e9 73657400 		.ascii	"set\000"
ARM GAS  /tmp/ccYQq7hX.s 			page 40


 2204 07ed 0B       		.byte	0xb
 2205 07ee 9E       		.byte	0x9e
 2206 07ef 62000000 		.4byte	0x62
 2207 07f3 02       		.byte	0x2
 2208 07f4 23       		.byte	0x23
 2209 07f5 00       		.uleb128 0x0
 2210 07f6 06       		.uleb128 0x6
 2211 07f7 F9020000 		.4byte	.LASF102
 2212 07fb 0B       		.byte	0xb
 2213 07fc 9F       		.byte	0x9f
 2214 07fd 62000000 		.4byte	0x62
 2215 0801 02       		.byte	0x2
 2216 0802 23       		.byte	0x23
 2217 0803 02       		.uleb128 0x2
 2218 0804 00       		.byte	0x0
 2219 0805 0E       		.uleb128 0xe
 2220 0806 04       		.byte	0x4
 2221 0807 0B       		.byte	0xb
 2222 0808 9B       		.byte	0x9b
 2223 0809 20080000 		.4byte	0x820
 2224 080d 18       		.uleb128 0x18
 2225 080e 5700     		.ascii	"W\000"
 2226 0810 0B       		.byte	0xb
 2227 0811 9C       		.byte	0x9c
 2228 0812 86000000 		.4byte	0x86
 2229 0816 18       		.uleb128 0x18
 2230 0817 4800     		.ascii	"H\000"
 2231 0819 0B       		.byte	0xb
 2232 081a A0       		.byte	0xa0
 2233 081b E0070000 		.4byte	0x7e0
 2234 081f 00       		.byte	0x0
 2235 0820 08       		.uleb128 0x8
 2236 0821 28       		.byte	0x28
 2237 0822 0B       		.byte	0xb
 2238 0823 93       		.byte	0x93
 2239 0824 B5080000 		.4byte	0x8b5
 2240 0828 06       		.uleb128 0x6
 2241 0829 32000000 		.4byte	.LASF103
 2242 082d 0B       		.byte	0xb
 2243 082e 95       		.byte	0x95
 2244 082f 35030000 		.4byte	0x335
 2245 0833 02       		.byte	0x2
 2246 0834 23       		.byte	0x23
 2247 0835 00       		.uleb128 0x0
 2248 0836 06       		.uleb128 0x6
 2249 0837 13000000 		.4byte	.LASF104
 2250 083b 0B       		.byte	0xb
 2251 083c 96       		.byte	0x96
 2252 083d 35030000 		.4byte	0x335
 2253 0841 02       		.byte	0x2
 2254 0842 23       		.byte	0x23
 2255 0843 04       		.uleb128 0x4
 2256 0844 06       		.uleb128 0x6
 2257 0845 D5010000 		.4byte	.LASF105
 2258 0849 0B       		.byte	0xb
 2259 084a 97       		.byte	0x97
 2260 084b 35030000 		.4byte	0x335
ARM GAS  /tmp/ccYQq7hX.s 			page 41


 2261 084f 02       		.byte	0x2
 2262 0850 23       		.byte	0x23
 2263 0851 08       		.uleb128 0x8
 2264 0852 06       		.uleb128 0x6
 2265 0853 5F000000 		.4byte	.LASF106
 2266 0857 0B       		.byte	0xb
 2267 0858 98       		.byte	0x98
 2268 0859 35030000 		.4byte	0x335
 2269 085d 02       		.byte	0x2
 2270 085e 23       		.byte	0x23
 2271 085f 0C       		.uleb128 0xc
 2272 0860 07       		.uleb128 0x7
 2273 0861 49445200 		.ascii	"IDR\000"
 2274 0865 0B       		.byte	0xb
 2275 0866 99       		.byte	0x99
 2276 0867 35030000 		.4byte	0x335
 2277 086b 02       		.byte	0x2
 2278 086c 23       		.byte	0x23
 2279 086d 10       		.uleb128 0x10
 2280 086e 07       		.uleb128 0x7
 2281 086f 4F445200 		.ascii	"ODR\000"
 2282 0873 0B       		.byte	0xb
 2283 0874 9A       		.byte	0x9a
 2284 0875 35030000 		.4byte	0x335
 2285 0879 02       		.byte	0x2
 2286 087a 23       		.byte	0x23
 2287 087b 14       		.uleb128 0x14
 2288 087c 06       		.uleb128 0x6
 2289 087d FB000000 		.4byte	.LASF107
 2290 0881 0B       		.byte	0xb
 2291 0882 A1       		.byte	0xa1
 2292 0883 B5080000 		.4byte	0x8b5
 2293 0887 02       		.byte	0x2
 2294 0888 23       		.byte	0x23
 2295 0889 18       		.uleb128 0x18
 2296 088a 06       		.uleb128 0x6
 2297 088b 74020000 		.4byte	.LASF108
 2298 088f 0B       		.byte	0xb
 2299 0890 A2       		.byte	0xa2
 2300 0891 35030000 		.4byte	0x335
 2301 0895 02       		.byte	0x2
 2302 0896 23       		.byte	0x23
 2303 0897 1C       		.uleb128 0x1c
 2304 0898 06       		.uleb128 0x6
 2305 0899 53030000 		.4byte	.LASF109
 2306 089d 0B       		.byte	0xb
 2307 089e A3       		.byte	0xa3
 2308 089f 35030000 		.4byte	0x335
 2309 08a3 02       		.byte	0x2
 2310 08a4 23       		.byte	0x23
 2311 08a5 20       		.uleb128 0x20
 2312 08a6 06       		.uleb128 0x6
 2313 08a7 4E030000 		.4byte	.LASF110
 2314 08ab 0B       		.byte	0xb
 2315 08ac A4       		.byte	0xa4
 2316 08ad 35030000 		.4byte	0x335
 2317 08b1 02       		.byte	0x2
ARM GAS  /tmp/ccYQq7hX.s 			page 42


 2318 08b2 23       		.byte	0x23
 2319 08b3 24       		.uleb128 0x24
 2320 08b4 00       		.byte	0x0
 2321 08b5 0D       		.uleb128 0xd
 2322 08b6 05080000 		.4byte	0x805
 2323 08ba 03       		.uleb128 0x3
 2324 08bb C2010000 		.4byte	.LASF111
 2325 08bf 0B       		.byte	0xb
 2326 08c0 A5       		.byte	0xa5
 2327 08c1 20080000 		.4byte	0x820
 2328 08c5 03       		.uleb128 0x3
 2329 08c6 19030000 		.4byte	.LASF112
 2330 08ca 0B       		.byte	0xb
 2331 08cb EF       		.byte	0xef
 2332 08cc 86000000 		.4byte	0x86
 2333 08d0 03       		.uleb128 0x3
 2334 08d1 10050000 		.4byte	.LASF113
 2335 08d5 0B       		.byte	0xb
 2336 08d6 FC       		.byte	0xfc
 2337 08d7 DB080000 		.4byte	0x8db
 2338 08db 09       		.uleb128 0x9
 2339 08dc 04       		.byte	0x4
 2340 08dd BA080000 		.4byte	0x8ba
 2341 08e1 09       		.uleb128 0x9
 2342 08e2 04       		.byte	0x4
 2343 08e3 E7080000 		.4byte	0x8e7
 2344 08e7 10       		.uleb128 0x10
 2345 08e8 B3070000 		.4byte	0x7b3
 2346 08ec 19       		.uleb128 0x19
 2347 08ed 01       		.byte	0x1
 2348 08ee 0C       		.byte	0xc
 2349 08ef 55       		.byte	0x55
 2350 08f0 13090000 		.4byte	0x913
 2351 08f4 1A       		.uleb128 0x1a
 2352 08f5 3E050000 		.4byte	.LASF114
 2353 08f9 00       		.sleb128 0
 2354 08fa 1A       		.uleb128 0x1a
 2355 08fb 09010000 		.4byte	.LASF115
 2356 08ff 01       		.sleb128 1
 2357 0900 1A       		.uleb128 0x1a
 2358 0901 4F000000 		.4byte	.LASF116
 2359 0905 02       		.sleb128 2
 2360 0906 1A       		.uleb128 0x1a
 2361 0907 1A000000 		.4byte	.LASF117
 2362 090b 03       		.sleb128 3
 2363 090c 1A       		.uleb128 0x1a
 2364 090d AD040000 		.4byte	.LASF118
 2365 0911 04       		.sleb128 4
 2366 0912 00       		.byte	0x0
 2367 0913 03       		.uleb128 0x3
 2368 0914 CA040000 		.4byte	.LASF119
 2369 0918 0C       		.byte	0xc
 2370 0919 5B       		.byte	0x5b
 2371 091a EC080000 		.4byte	0x8ec
 2372 091e 15       		.uleb128 0x15
 2373 091f 88000000 		.4byte	.LASF120
 2374 0923 0D       		.byte	0xd
ARM GAS  /tmp/ccYQq7hX.s 			page 43


 2375 0924 0701     		.2byte	0x107
 2376 0926 2A090000 		.4byte	0x92a
 2377 092a 0C       		.uleb128 0xc
 2378 092b 88000000 		.4byte	.LASF120
 2379 092f 30       		.byte	0x30
 2380 0930 0D       		.byte	0xd
 2381 0931 2B01     		.2byte	0x12b
 2382 0933 BF090000 		.4byte	0x9bf
 2383 0937 14       		.uleb128 0x14
 2384 0938 3B010000 		.4byte	.LASF121
 2385 093c 0D       		.byte	0xd
 2386 093d 2F01     		.2byte	0x12f
 2387 093f 13090000 		.4byte	0x913
 2388 0943 02       		.byte	0x2
 2389 0944 23       		.byte	0x23
 2390 0945 00       		.uleb128 0x0
 2391 0946 14       		.uleb128 0x14
 2392 0947 BA040000 		.4byte	.LASF122
 2393 094b 0D       		.byte	0xd
 2394 094c 3301     		.2byte	0x133
 2395 094e 350A0000 		.4byte	0xa35
 2396 0952 02       		.byte	0x2
 2397 0953 23       		.byte	0x23
 2398 0954 04       		.uleb128 0x4
 2399 0955 14       		.uleb128 0x14
 2400 0956 F1040000 		.4byte	.LASF123
 2401 095a 0D       		.byte	0xd
 2402 095b 3801     		.2byte	0x138
 2403 095d 45020000 		.4byte	0x245
 2404 0961 02       		.byte	0x2
 2405 0962 23       		.byte	0x23
 2406 0963 08       		.uleb128 0x8
 2407 0964 14       		.uleb128 0x14
 2408 0965 BE030000 		.4byte	.LASF124
 2409 0969 0D       		.byte	0xd
 2410 096a 3F01     		.2byte	0x13f
 2411 096c 7C030000 		.4byte	0x37c
 2412 0970 02       		.byte	0x2
 2413 0971 23       		.byte	0x23
 2414 0972 0C       		.uleb128 0xc
 2415 0973 0B       		.uleb128 0xb
 2416 0974 73706900 		.ascii	"spi\000"
 2417 0978 0D       		.byte	0xd
 2418 0979 4B01     		.2byte	0x14b
 2419 097b 400A0000 		.4byte	0xa40
 2420 097f 02       		.byte	0x2
 2421 0980 23       		.byte	0x23
 2422 0981 1C       		.uleb128 0x1c
 2423 0982 14       		.uleb128 0x14
 2424 0983 2C000000 		.4byte	.LASF125
 2425 0987 0D       		.byte	0xd
 2426 0988 4F01     		.2byte	0x14f
 2427 098a E1080000 		.4byte	0x8e1
 2428 098e 02       		.byte	0x2
 2429 098f 23       		.byte	0x23
 2430 0990 20       		.uleb128 0x20
 2431 0991 14       		.uleb128 0x14
ARM GAS  /tmp/ccYQq7hX.s 			page 44


 2432 0992 CF010000 		.4byte	.LASF126
 2433 0996 0D       		.byte	0xd
 2434 0997 5301     		.2byte	0x153
 2435 0999 E1080000 		.4byte	0x8e1
 2436 099d 02       		.byte	0x2
 2437 099e 23       		.byte	0x23
 2438 099f 24       		.uleb128 0x24
 2439 09a0 14       		.uleb128 0x14
 2440 09a1 B8010000 		.4byte	.LASF127
 2441 09a5 0D       		.byte	0xd
 2442 09a6 5701     		.2byte	0x157
 2443 09a8 86000000 		.4byte	0x86
 2444 09ac 02       		.byte	0x2
 2445 09ad 23       		.byte	0x23
 2446 09ae 28       		.uleb128 0x28
 2447 09af 14       		.uleb128 0x14
 2448 09b0 06020000 		.4byte	.LASF128
 2449 09b4 0D       		.byte	0xd
 2450 09b5 5B01     		.2byte	0x15b
 2451 09b7 86000000 		.4byte	0x86
 2452 09bb 02       		.byte	0x2
 2453 09bc 23       		.byte	0x23
 2454 09bd 2C       		.uleb128 0x2c
 2455 09be 00       		.byte	0x0
 2456 09bf 15       		.uleb128 0x15
 2457 09c0 F8010000 		.4byte	.LASF129
 2458 09c4 0D       		.byte	0xd
 2459 09c5 0F01     		.2byte	0x10f
 2460 09c7 CB090000 		.4byte	0x9cb
 2461 09cb 09       		.uleb128 0x9
 2462 09cc 04       		.byte	0x4
 2463 09cd D1090000 		.4byte	0x9d1
 2464 09d1 16       		.uleb128 0x16
 2465 09d2 01       		.byte	0x1
 2466 09d3 DD090000 		.4byte	0x9dd
 2467 09d7 17       		.uleb128 0x17
 2468 09d8 DD090000 		.4byte	0x9dd
 2469 09dc 00       		.byte	0x0
 2470 09dd 09       		.uleb128 0x9
 2471 09de 04       		.byte	0x4
 2472 09df 1E090000 		.4byte	0x91e
 2473 09e3 13       		.uleb128 0x13
 2474 09e4 0C       		.byte	0xc
 2475 09e5 0D       		.byte	0xd
 2476 09e6 1401     		.2byte	0x114
 2477 09e8 290A0000 		.4byte	0xa29
 2478 09ec 14       		.uleb128 0x14
 2479 09ed B1010000 		.4byte	.LASF130
 2480 09f1 0D       		.byte	0xd
 2481 09f2 1801     		.2byte	0x118
 2482 09f4 BF090000 		.4byte	0x9bf
 2483 09f8 02       		.byte	0x2
 2484 09f9 23       		.byte	0x23
 2485 09fa 00       		.uleb128 0x0
 2486 09fb 14       		.uleb128 0x14
 2487 09fc 92000000 		.4byte	.LASF131
 2488 0a00 0D       		.byte	0xd
ARM GAS  /tmp/ccYQq7hX.s 			page 45


 2489 0a01 1D01     		.2byte	0x11d
 2490 0a03 D0080000 		.4byte	0x8d0
 2491 0a07 02       		.byte	0x2
 2492 0a08 23       		.byte	0x23
 2493 0a09 04       		.uleb128 0x4
 2494 0a0a 14       		.uleb128 0x14
 2495 0a0b BD000000 		.4byte	.LASF132
 2496 0a0f 0D       		.byte	0xd
 2497 0a10 2101     		.2byte	0x121
 2498 0a12 62000000 		.4byte	0x62
 2499 0a16 02       		.byte	0x2
 2500 0a17 23       		.byte	0x23
 2501 0a18 08       		.uleb128 0x8
 2502 0a19 0B       		.uleb128 0xb
 2503 0a1a 63723100 		.ascii	"cr1\000"
 2504 0a1e 0D       		.byte	0xd
 2505 0a1f 2501     		.2byte	0x125
 2506 0a21 62000000 		.4byte	0x62
 2507 0a25 02       		.byte	0x2
 2508 0a26 23       		.byte	0x23
 2509 0a27 0A       		.uleb128 0xa
 2510 0a28 00       		.byte	0x0
 2511 0a29 15       		.uleb128 0x15
 2512 0a2a 12060000 		.4byte	.LASF133
 2513 0a2e 0D       		.byte	0xd
 2514 0a2f 2601     		.2byte	0x126
 2515 0a31 E3090000 		.4byte	0x9e3
 2516 0a35 09       		.uleb128 0x9
 2517 0a36 04       		.byte	0x4
 2518 0a37 3B0A0000 		.4byte	0xa3b
 2519 0a3b 10       		.uleb128 0x10
 2520 0a3c 290A0000 		.4byte	0xa29
 2521 0a40 09       		.uleb128 0x9
 2522 0a41 04       		.byte	0x4
 2523 0a42 4C070000 		.4byte	0x74c
 2524 0a46 1B       		.uleb128 0x1b
 2525 0a47 D0050000 		.4byte	.LASF136
 2526 0a4b 01       		.byte	0x1
 2527 0a4c 83       		.byte	0x83
 2528 0a4d 01       		.byte	0x1
 2529 0a4e 00000000 		.4byte	.LFB118
 2530 0a52 0C000000 		.4byte	.LFE118
 2531 0a56 02       		.byte	0x2
 2532 0a57 7D       		.byte	0x7d
 2533 0a58 00       		.sleb128 0
 2534 0a59 780A0000 		.4byte	0xa78
 2535 0a5d 1C       		.uleb128 0x1c
 2536 0a5e B7050000 		.4byte	.LASF134
 2537 0a62 01       		.byte	0x1
 2538 0a63 83       		.byte	0x83
 2539 0a64 DD090000 		.4byte	0x9dd
 2540 0a68 01       		.byte	0x1
 2541 0a69 50       		.byte	0x50
 2542 0a6a 1C       		.uleb128 0x1c
 2543 0a6b BC050000 		.4byte	.LASF135
 2544 0a6f 01       		.byte	0x1
 2545 0a70 83       		.byte	0x83
ARM GAS  /tmp/ccYQq7hX.s 			page 46


 2546 0a71 86000000 		.4byte	0x86
 2547 0a75 01       		.byte	0x1
 2548 0a76 51       		.byte	0x51
 2549 0a77 00       		.byte	0x0
 2550 0a78 1D       		.uleb128 0x1d
 2551 0a79 4A010000 		.4byte	.LASF137
 2552 0a7d 01       		.byte	0x1
 2553 0a7e 69       		.byte	0x69
 2554 0a7f 01       		.byte	0x1
 2555 0a80 00000000 		.4byte	.LFB117
 2556 0a84 84000000 		.4byte	.LFE117
 2557 0a88 00000000 		.4byte	.LLST0
 2558 0a8c FD0A0000 		.4byte	0xafd
 2559 0a90 1E       		.uleb128 0x1e
 2560 0a91 B7050000 		.4byte	.LASF134
 2561 0a95 01       		.byte	0x1
 2562 0a96 69       		.byte	0x69
 2563 0a97 DD090000 		.4byte	0x9dd
 2564 0a9b 20000000 		.4byte	.LLST1
 2565 0a9f 1E       		.uleb128 0x1e
 2566 0aa0 BC050000 		.4byte	.LASF135
 2567 0aa4 01       		.byte	0x1
 2568 0aa5 69       		.byte	0x69
 2569 0aa6 86000000 		.4byte	0x86
 2570 0aaa 3E000000 		.4byte	.LLST2
 2571 0aae 1F       		.uleb128 0x1f
 2572 0aaf 62000000 		.4byte	.LBB2
 2573 0ab3 78000000 		.4byte	.LBE2
 2574 0ab7 20       		.uleb128 0x20
 2575 0ab8 747000   		.ascii	"tp\000"
 2576 0abb 01       		.byte	0x1
 2577 0abc 7A       		.byte	0x7a
 2578 0abd 45020000 		.4byte	0x245
 2579 0ac1 5C000000 		.4byte	.LLST3
 2580 0ac5 21       		.uleb128 0x21
 2581 0ac6 66000000 		.4byte	.LBB3
 2582 0aca 6C000000 		.4byte	.LBE3
 2583 0ace E20A0000 		.4byte	0xae2
 2584 0ad2 20       		.uleb128 0x20
 2585 0ad3 746D7000 		.ascii	"tmp\000"
 2586 0ad7 01       		.byte	0x1
 2587 0ad8 7A       		.byte	0x7a
 2588 0ad9 86000000 		.4byte	0x86
 2589 0add 70000000 		.4byte	.LLST4
 2590 0ae1 00       		.byte	0x0
 2591 0ae2 1F       		.uleb128 0x1f
 2592 0ae3 70000000 		.4byte	.LBB4
 2593 0ae7 78000000 		.4byte	.LBE4
 2594 0aeb 20       		.uleb128 0x20
 2595 0aec 746D7000 		.ascii	"tmp\000"
 2596 0af0 01       		.byte	0x1
 2597 0af1 7A       		.byte	0x7a
 2598 0af2 86000000 		.4byte	0x86
 2599 0af6 83000000 		.4byte	.LLST5
 2600 0afa 00       		.byte	0x0
 2601 0afb 00       		.byte	0x0
 2602 0afc 00       		.byte	0x0
ARM GAS  /tmp/ccYQq7hX.s 			page 47


 2603 0afd 22       		.uleb128 0x22
 2604 0afe 01       		.byte	0x1
 2605 0aff E6020000 		.4byte	.LASF158
 2606 0b03 01       		.byte	0x1
 2607 0b04 9E       		.byte	0x9e
 2608 0b05 01       		.byte	0x1
 2609 0b06 00000000 		.4byte	.LFB119
 2610 0b0a 6C000000 		.4byte	.LFE119
 2611 0b0e 96000000 		.4byte	.LLST6
 2612 0b12 23       		.uleb128 0x23
 2613 0b13 01       		.byte	0x1
 2614 0b14 A1050000 		.4byte	.LASF138
 2615 0b18 01       		.byte	0x1
 2616 0b19 E0       		.byte	0xe0
 2617 0b1a 01       		.byte	0x1
 2618 0b1b 00000000 		.4byte	.LFB120
 2619 0b1f D8000000 		.4byte	.LFE120
 2620 0b23 B6000000 		.4byte	.LLST7
 2621 0b27 650B0000 		.4byte	0xb65
 2622 0b2b 1E       		.uleb128 0x1e
 2623 0b2c B7050000 		.4byte	.LASF134
 2624 0b30 01       		.byte	0x1
 2625 0b31 E0       		.byte	0xe0
 2626 0b32 DD090000 		.4byte	0x9dd
 2627 0b36 D6000000 		.4byte	.LLST8
 2628 0b3a 21       		.uleb128 0x21
 2629 0b3b 7C000000 		.4byte	.LBB5
 2630 0b3f A0000000 		.4byte	.LBE5
 2631 0b43 510B0000 		.4byte	0xb51
 2632 0b47 24       		.uleb128 0x24
 2633 0b48 6200     		.ascii	"b\000"
 2634 0b4a 01       		.byte	0x1
 2635 0b4b E6       		.byte	0xe6
 2636 0b4c A6000000 		.4byte	0xa6
 2637 0b50 00       		.byte	0x0
 2638 0b51 1F       		.uleb128 0x1f
 2639 0b52 A0000000 		.4byte	.LBB6
 2640 0b56 D8000000 		.4byte	.LBE6
 2641 0b5a 24       		.uleb128 0x24
 2642 0b5b 6200     		.ascii	"b\000"
 2643 0b5d 01       		.byte	0x1
 2644 0b5e F6       		.byte	0xf6
 2645 0b5f A6000000 		.4byte	0xa6
 2646 0b63 00       		.byte	0x0
 2647 0b64 00       		.byte	0x0
 2648 0b65 25       		.uleb128 0x25
 2649 0b66 01       		.byte	0x1
 2650 0b67 0C030000 		.4byte	.LASF139
 2651 0b6b 01       		.byte	0x1
 2652 0b6c 3601     		.2byte	0x136
 2653 0b6e 01       		.byte	0x1
 2654 0b6f 00000000 		.4byte	.LFB121
 2655 0b73 50000000 		.4byte	.LFE121
 2656 0b77 F4000000 		.4byte	.LLST9
 2657 0b7b 900B0000 		.4byte	0xb90
 2658 0b7f 26       		.uleb128 0x26
 2659 0b80 B7050000 		.4byte	.LASF134
ARM GAS  /tmp/ccYQq7hX.s 			page 48


 2660 0b84 01       		.byte	0x1
 2661 0b85 3601     		.2byte	0x136
 2662 0b87 DD090000 		.4byte	0x9dd
 2663 0b8b 14010000 		.4byte	.LLST10
 2664 0b8f 00       		.byte	0x0
 2665 0b90 27       		.uleb128 0x27
 2666 0b91 01       		.byte	0x1
 2667 0b92 23050000 		.4byte	.LASF140
 2668 0b96 01       		.byte	0x1
 2669 0b97 5601     		.2byte	0x156
 2670 0b99 01       		.byte	0x1
 2671 0b9a 00000000 		.4byte	.LFB122
 2672 0b9e 10000000 		.4byte	.LFE122
 2673 0ba2 02       		.byte	0x2
 2674 0ba3 7D       		.byte	0x7d
 2675 0ba4 00       		.sleb128 0
 2676 0ba5 BA0B0000 		.4byte	0xbba
 2677 0ba9 26       		.uleb128 0x26
 2678 0baa B7050000 		.4byte	.LASF134
 2679 0bae 01       		.byte	0x1
 2680 0baf 5601     		.2byte	0x156
 2681 0bb1 DD090000 		.4byte	0x9dd
 2682 0bb5 32010000 		.4byte	.LLST11
 2683 0bb9 00       		.byte	0x0
 2684 0bba 27       		.uleb128 0x27
 2685 0bbb 01       		.byte	0x1
 2686 0bbc 2A020000 		.4byte	.LASF141
 2687 0bc0 01       		.byte	0x1
 2688 0bc1 6301     		.2byte	0x163
 2689 0bc3 01       		.byte	0x1
 2690 0bc4 00000000 		.4byte	.LFB123
 2691 0bc8 10000000 		.4byte	.LFE123
 2692 0bcc 02       		.byte	0x2
 2693 0bcd 7D       		.byte	0x7d
 2694 0bce 00       		.sleb128 0
 2695 0bcf E40B0000 		.4byte	0xbe4
 2696 0bd3 26       		.uleb128 0x26
 2697 0bd4 B7050000 		.4byte	.LASF134
 2698 0bd8 01       		.byte	0x1
 2699 0bd9 6301     		.2byte	0x163
 2700 0bdb DD090000 		.4byte	0x9dd
 2701 0bdf 45010000 		.4byte	.LLST12
 2702 0be3 00       		.byte	0x0
 2703 0be4 25       		.uleb128 0x25
 2704 0be5 01       		.byte	0x1
 2705 0be6 86050000 		.4byte	.LASF142
 2706 0bea 01       		.byte	0x1
 2707 0beb 7301     		.2byte	0x173
 2708 0bed 01       		.byte	0x1
 2709 0bee 00000000 		.4byte	.LFB124
 2710 0bf2 34000000 		.4byte	.LFE124
 2711 0bf6 58010000 		.4byte	.LLST13
 2712 0bfa 1B0C0000 		.4byte	0xc1b
 2713 0bfe 26       		.uleb128 0x26
 2714 0bff B7050000 		.4byte	.LASF134
 2715 0c03 01       		.byte	0x1
 2716 0c04 7301     		.2byte	0x173
ARM GAS  /tmp/ccYQq7hX.s 			page 49


 2717 0c06 DD090000 		.4byte	0x9dd
 2718 0c0a 78010000 		.4byte	.LLST14
 2719 0c0e 28       		.uleb128 0x28
 2720 0c0f 6E00     		.ascii	"n\000"
 2721 0c11 01       		.byte	0x1
 2722 0c12 7301     		.2byte	0x173
 2723 0c14 30000000 		.4byte	0x30
 2724 0c18 01       		.byte	0x1
 2725 0c19 51       		.byte	0x51
 2726 0c1a 00       		.byte	0x0
 2727 0c1b 25       		.uleb128 0x25
 2728 0c1c 01       		.byte	0x1
 2729 0c1d 81010000 		.4byte	.LASF143
 2730 0c21 01       		.byte	0x1
 2731 0c22 8D01     		.2byte	0x18d
 2732 0c24 01       		.byte	0x1
 2733 0c25 00000000 		.4byte	.LFB125
 2734 0c29 2E000000 		.4byte	.LFE125
 2735 0c2d 8B010000 		.4byte	.LLST15
 2736 0c31 6E0C0000 		.4byte	0xc6e
 2737 0c35 26       		.uleb128 0x26
 2738 0c36 B7050000 		.4byte	.LASF134
 2739 0c3a 01       		.byte	0x1
 2740 0c3b 8D01     		.2byte	0x18d
 2741 0c3d DD090000 		.4byte	0x9dd
 2742 0c41 AB010000 		.4byte	.LLST16
 2743 0c45 28       		.uleb128 0x28
 2744 0c46 6E00     		.ascii	"n\000"
 2745 0c48 01       		.byte	0x1
 2746 0c49 8D01     		.2byte	0x18d
 2747 0c4b 30000000 		.4byte	0x30
 2748 0c4f 01       		.byte	0x1
 2749 0c50 51       		.byte	0x51
 2750 0c51 29       		.uleb128 0x29
 2751 0c52 3B020000 		.4byte	.LASF144
 2752 0c56 01       		.byte	0x1
 2753 0c57 8E01     		.2byte	0x18e
 2754 0c59 6E0C0000 		.4byte	0xc6e
 2755 0c5d 01       		.byte	0x1
 2756 0c5e 52       		.byte	0x52
 2757 0c5f 29       		.uleb128 0x29
 2758 0c60 A6000000 		.4byte	.LASF145
 2759 0c64 01       		.byte	0x1
 2760 0c65 8E01     		.2byte	0x18e
 2761 0c67 83020000 		.4byte	0x283
 2762 0c6b 01       		.byte	0x1
 2763 0c6c 53       		.byte	0x53
 2764 0c6d 00       		.byte	0x0
 2765 0c6e 09       		.uleb128 0x9
 2766 0c6f 04       		.byte	0x4
 2767 0c70 740C0000 		.4byte	0xc74
 2768 0c74 2A       		.uleb128 0x2a
 2769 0c75 25       		.uleb128 0x25
 2770 0c76 01       		.byte	0x1
 2771 0c77 10020000 		.4byte	.LASF146
 2772 0c7b 01       		.byte	0x1
 2773 0c7c A701     		.2byte	0x1a7
ARM GAS  /tmp/ccYQq7hX.s 			page 50


 2774 0c7e 01       		.byte	0x1
 2775 0c7f 00000000 		.4byte	.LFB126
 2776 0c83 30000000 		.4byte	.LFE126
 2777 0c87 BE010000 		.4byte	.LLST17
 2778 0c8b BA0C0000 		.4byte	0xcba
 2779 0c8f 26       		.uleb128 0x26
 2780 0c90 B7050000 		.4byte	.LASF134
 2781 0c94 01       		.byte	0x1
 2782 0c95 A701     		.2byte	0x1a7
 2783 0c97 DD090000 		.4byte	0x9dd
 2784 0c9b DE010000 		.4byte	.LLST18
 2785 0c9f 28       		.uleb128 0x28
 2786 0ca0 6E00     		.ascii	"n\000"
 2787 0ca2 01       		.byte	0x1
 2788 0ca3 A701     		.2byte	0x1a7
 2789 0ca5 30000000 		.4byte	0x30
 2790 0ca9 01       		.byte	0x1
 2791 0caa 51       		.byte	0x51
 2792 0cab 29       		.uleb128 0x29
 2793 0cac 3B020000 		.4byte	.LASF144
 2794 0cb0 01       		.byte	0x1
 2795 0cb1 A701     		.2byte	0x1a7
 2796 0cb3 6E0C0000 		.4byte	0xc6e
 2797 0cb7 01       		.byte	0x1
 2798 0cb8 52       		.byte	0x52
 2799 0cb9 00       		.byte	0x0
 2800 0cba 25       		.uleb128 0x25
 2801 0cbb 01       		.byte	0x1
 2802 0cbc 15040000 		.4byte	.LASF147
 2803 0cc0 01       		.byte	0x1
 2804 0cc1 C001     		.2byte	0x1c0
 2805 0cc3 01       		.byte	0x1
 2806 0cc4 00000000 		.4byte	.LFB127
 2807 0cc8 30000000 		.4byte	.LFE127
 2808 0ccc F1010000 		.4byte	.LLST19
 2809 0cd0 010D0000 		.4byte	0xd01
 2810 0cd4 26       		.uleb128 0x26
 2811 0cd5 B7050000 		.4byte	.LASF134
 2812 0cd9 01       		.byte	0x1
 2813 0cda C001     		.2byte	0x1c0
 2814 0cdc DD090000 		.4byte	0x9dd
 2815 0ce0 11020000 		.4byte	.LLST20
 2816 0ce4 28       		.uleb128 0x28
 2817 0ce5 6E00     		.ascii	"n\000"
 2818 0ce7 01       		.byte	0x1
 2819 0ce8 C001     		.2byte	0x1c0
 2820 0cea 30000000 		.4byte	0x30
 2821 0cee 01       		.byte	0x1
 2822 0cef 51       		.byte	0x51
 2823 0cf0 26       		.uleb128 0x26
 2824 0cf1 A6000000 		.4byte	.LASF145
 2825 0cf5 01       		.byte	0x1
 2826 0cf6 C001     		.2byte	0x1c0
 2827 0cf8 83020000 		.4byte	0x283
 2828 0cfc 24020000 		.4byte	.LLST21
 2829 0d00 00       		.byte	0x0
 2830 0d01 2B       		.uleb128 0x2b
ARM GAS  /tmp/ccYQq7hX.s 			page 51


 2831 0d02 01       		.byte	0x1
 2832 0d03 FA050000 		.4byte	.LASF159
 2833 0d07 01       		.byte	0x1
 2834 0d08 D701     		.2byte	0x1d7
 2835 0d0a 01       		.byte	0x1
 2836 0d0b 62000000 		.4byte	0x62
 2837 0d0f 00000000 		.4byte	.LFB128
 2838 0d13 12000000 		.4byte	.LFE128
 2839 0d17 02       		.byte	0x2
 2840 0d18 7D       		.byte	0x7d
 2841 0d19 00       		.sleb128 0
 2842 0d1a 3D0D0000 		.4byte	0xd3d
 2843 0d1e 26       		.uleb128 0x26
 2844 0d1f B7050000 		.4byte	.LASF134
 2845 0d23 01       		.byte	0x1
 2846 0d24 D701     		.2byte	0x1d7
 2847 0d26 DD090000 		.4byte	0x9dd
 2848 0d2a 46020000 		.4byte	.LLST22
 2849 0d2e 29       		.uleb128 0x29
 2850 0d2f 35010000 		.4byte	.LASF148
 2851 0d33 01       		.byte	0x1
 2852 0d34 D701     		.2byte	0x1d7
 2853 0d36 62000000 		.4byte	0x62
 2854 0d3a 01       		.byte	0x1
 2855 0d3b 51       		.byte	0x51
 2856 0d3c 00       		.byte	0x0
 2857 0d3d 2C       		.uleb128 0x2c
 2858 0d3e 99000000 		.4byte	.LASF149
 2859 0d42 0E       		.byte	0xe
 2860 0d43 1A05     		.2byte	0x51a
 2861 0d45 E9030000 		.4byte	0x3e9
 2862 0d49 01       		.byte	0x1
 2863 0d4a 01       		.byte	0x1
 2864 0d4b 11       		.uleb128 0x11
 2865 0d4c B3070000 		.4byte	0x7b3
 2866 0d50 5B0D0000 		.4byte	0xd5b
 2867 0d54 12       		.uleb128 0x12
 2868 0d55 3B000000 		.4byte	0x3b
 2869 0d59 0F       		.byte	0xf
 2870 0d5a 00       		.byte	0x0
 2871 0d5b 2C       		.uleb128 0x2c
 2872 0d5c 75000000 		.4byte	.LASF150
 2873 0d60 0A       		.byte	0xa
 2874 0d61 B801     		.2byte	0x1b8
 2875 0d63 690D0000 		.4byte	0xd69
 2876 0d67 01       		.byte	0x1
 2877 0d68 01       		.byte	0x1
 2878 0d69 10       		.uleb128 0x10
 2879 0d6a 4B0D0000 		.4byte	0xd4b
 2880 0d6e 2C       		.uleb128 0x2c
 2881 0d6f ED030000 		.4byte	.LASF151
 2882 0d73 0D       		.byte	0xd
 2883 0d74 6701     		.2byte	0x167
 2884 0d76 1E090000 		.4byte	0x91e
 2885 0d7a 01       		.byte	0x1
 2886 0d7b 01       		.byte	0x1
 2887 0d7c 2C       		.uleb128 0x2c
ARM GAS  /tmp/ccYQq7hX.s 			page 52


 2888 0d7d F3030000 		.4byte	.LASF152
 2889 0d81 0D       		.byte	0xd
 2890 0d82 6B01     		.2byte	0x16b
 2891 0d84 1E090000 		.4byte	0x91e
 2892 0d88 01       		.byte	0x1
 2893 0d89 01       		.byte	0x1
 2894 0d8a 2D       		.uleb128 0x2d
 2895 0d8b 2F040000 		.4byte	.LASF153
 2896 0d8f 01       		.byte	0x1
 2897 0d90 5C       		.byte	0x5c
 2898 0d91 62000000 		.4byte	0x62
 2899 0d95 05       		.byte	0x5
 2900 0d96 03       		.byte	0x3
 2901 0d97 00000000 		.4byte	dummytx
 2902 0d9b 2D       		.uleb128 0x2d
 2903 0d9c B4020000 		.4byte	.LASF154
 2904 0da0 01       		.byte	0x1
 2905 0da1 5D       		.byte	0x5d
 2906 0da2 62000000 		.4byte	0x62
 2907 0da6 05       		.byte	0x5
 2908 0da7 03       		.byte	0x3
 2909 0da8 00000000 		.4byte	dummyrx
 2910 0dac 2C       		.uleb128 0x2c
 2911 0dad 99000000 		.4byte	.LASF149
 2912 0db1 0E       		.byte	0xe
 2913 0db2 1A05     		.2byte	0x51a
 2914 0db4 E9030000 		.4byte	0x3e9
 2915 0db8 01       		.byte	0x1
 2916 0db9 01       		.byte	0x1
 2917 0dba 2C       		.uleb128 0x2c
 2918 0dbb 75000000 		.4byte	.LASF150
 2919 0dbf 0A       		.byte	0xa
 2920 0dc0 B801     		.2byte	0x1b8
 2921 0dc2 C80D0000 		.4byte	0xdc8
 2922 0dc6 01       		.byte	0x1
 2923 0dc7 01       		.byte	0x1
 2924 0dc8 10       		.uleb128 0x10
 2925 0dc9 4B0D0000 		.4byte	0xd4b
 2926 0dcd 2E       		.uleb128 0x2e
 2927 0dce ED030000 		.4byte	.LASF151
 2928 0dd2 01       		.byte	0x1
 2929 0dd3 4B       		.byte	0x4b
 2930 0dd4 1E090000 		.4byte	0x91e
 2931 0dd8 01       		.byte	0x1
 2932 0dd9 05       		.byte	0x5
 2933 0dda 03       		.byte	0x3
 2934 0ddb 00000000 		.4byte	SPID1
 2935 0ddf 2E       		.uleb128 0x2e
 2936 0de0 F3030000 		.4byte	.LASF152
 2937 0de4 01       		.byte	0x1
 2938 0de5 50       		.byte	0x50
 2939 0de6 1E090000 		.4byte	0x91e
 2940 0dea 01       		.byte	0x1
 2941 0deb 05       		.byte	0x5
 2942 0dec 03       		.byte	0x3
 2943 0ded 00000000 		.4byte	SPID2
 2944 0df1 00       		.byte	0x0
ARM GAS  /tmp/ccYQq7hX.s 			page 53


 2945              		.section	.debug_abbrev
 2946 0000 01       		.uleb128 0x1
 2947 0001 11       		.uleb128 0x11
 2948 0002 01       		.byte	0x1
 2949 0003 25       		.uleb128 0x25
 2950 0004 0E       		.uleb128 0xe
 2951 0005 13       		.uleb128 0x13
 2952 0006 0B       		.uleb128 0xb
 2953 0007 03       		.uleb128 0x3
 2954 0008 0E       		.uleb128 0xe
 2955 0009 1B       		.uleb128 0x1b
 2956 000a 0E       		.uleb128 0xe
 2957 000b 11       		.uleb128 0x11
 2958 000c 01       		.uleb128 0x1
 2959 000d 52       		.uleb128 0x52
 2960 000e 01       		.uleb128 0x1
 2961 000f 55       		.uleb128 0x55
 2962 0010 06       		.uleb128 0x6
 2963 0011 10       		.uleb128 0x10
 2964 0012 06       		.uleb128 0x6
 2965 0013 00       		.byte	0x0
 2966 0014 00       		.byte	0x0
 2967 0015 02       		.uleb128 0x2
 2968 0016 24       		.uleb128 0x24
 2969 0017 00       		.byte	0x0
 2970 0018 0B       		.uleb128 0xb
 2971 0019 0B       		.uleb128 0xb
 2972 001a 3E       		.uleb128 0x3e
 2973 001b 0B       		.uleb128 0xb
 2974 001c 03       		.uleb128 0x3
 2975 001d 08       		.uleb128 0x8
 2976 001e 00       		.byte	0x0
 2977 001f 00       		.byte	0x0
 2978 0020 03       		.uleb128 0x3
 2979 0021 16       		.uleb128 0x16
 2980 0022 00       		.byte	0x0
 2981 0023 03       		.uleb128 0x3
 2982 0024 0E       		.uleb128 0xe
 2983 0025 3A       		.uleb128 0x3a
 2984 0026 0B       		.uleb128 0xb
 2985 0027 3B       		.uleb128 0x3b
 2986 0028 0B       		.uleb128 0xb
 2987 0029 49       		.uleb128 0x49
 2988 002a 13       		.uleb128 0x13
 2989 002b 00       		.byte	0x0
 2990 002c 00       		.byte	0x0
 2991 002d 04       		.uleb128 0x4
 2992 002e 24       		.uleb128 0x24
 2993 002f 00       		.byte	0x0
 2994 0030 0B       		.uleb128 0xb
 2995 0031 0B       		.uleb128 0xb
 2996 0032 3E       		.uleb128 0x3e
 2997 0033 0B       		.uleb128 0xb
 2998 0034 03       		.uleb128 0x3
 2999 0035 0E       		.uleb128 0xe
 3000 0036 00       		.byte	0x0
 3001 0037 00       		.byte	0x0
ARM GAS  /tmp/ccYQq7hX.s 			page 54


 3002 0038 05       		.uleb128 0x5
 3003 0039 13       		.uleb128 0x13
 3004 003a 01       		.byte	0x1
 3005 003b 03       		.uleb128 0x3
 3006 003c 0E       		.uleb128 0xe
 3007 003d 0B       		.uleb128 0xb
 3008 003e 0B       		.uleb128 0xb
 3009 003f 3A       		.uleb128 0x3a
 3010 0040 0B       		.uleb128 0xb
 3011 0041 3B       		.uleb128 0x3b
 3012 0042 0B       		.uleb128 0xb
 3013 0043 01       		.uleb128 0x1
 3014 0044 13       		.uleb128 0x13
 3015 0045 00       		.byte	0x0
 3016 0046 00       		.byte	0x0
 3017 0047 06       		.uleb128 0x6
 3018 0048 0D       		.uleb128 0xd
 3019 0049 00       		.byte	0x0
 3020 004a 03       		.uleb128 0x3
 3021 004b 0E       		.uleb128 0xe
 3022 004c 3A       		.uleb128 0x3a
 3023 004d 0B       		.uleb128 0xb
 3024 004e 3B       		.uleb128 0x3b
 3025 004f 0B       		.uleb128 0xb
 3026 0050 49       		.uleb128 0x49
 3027 0051 13       		.uleb128 0x13
 3028 0052 38       		.uleb128 0x38
 3029 0053 0A       		.uleb128 0xa
 3030 0054 00       		.byte	0x0
 3031 0055 00       		.byte	0x0
 3032 0056 07       		.uleb128 0x7
 3033 0057 0D       		.uleb128 0xd
 3034 0058 00       		.byte	0x0
 3035 0059 03       		.uleb128 0x3
 3036 005a 08       		.uleb128 0x8
 3037 005b 3A       		.uleb128 0x3a
 3038 005c 0B       		.uleb128 0xb
 3039 005d 3B       		.uleb128 0x3b
 3040 005e 0B       		.uleb128 0xb
 3041 005f 49       		.uleb128 0x49
 3042 0060 13       		.uleb128 0x13
 3043 0061 38       		.uleb128 0x38
 3044 0062 0A       		.uleb128 0xa
 3045 0063 00       		.byte	0x0
 3046 0064 00       		.byte	0x0
 3047 0065 08       		.uleb128 0x8
 3048 0066 13       		.uleb128 0x13
 3049 0067 01       		.byte	0x1
 3050 0068 0B       		.uleb128 0xb
 3051 0069 0B       		.uleb128 0xb
 3052 006a 3A       		.uleb128 0x3a
 3053 006b 0B       		.uleb128 0xb
 3054 006c 3B       		.uleb128 0x3b
 3055 006d 0B       		.uleb128 0xb
 3056 006e 01       		.uleb128 0x1
 3057 006f 13       		.uleb128 0x13
 3058 0070 00       		.byte	0x0
ARM GAS  /tmp/ccYQq7hX.s 			page 55


 3059 0071 00       		.byte	0x0
 3060 0072 09       		.uleb128 0x9
 3061 0073 0F       		.uleb128 0xf
 3062 0074 00       		.byte	0x0
 3063 0075 0B       		.uleb128 0xb
 3064 0076 0B       		.uleb128 0xb
 3065 0077 49       		.uleb128 0x49
 3066 0078 13       		.uleb128 0x13
 3067 0079 00       		.byte	0x0
 3068 007a 00       		.byte	0x0
 3069 007b 0A       		.uleb128 0xa
 3070 007c 0F       		.uleb128 0xf
 3071 007d 00       		.byte	0x0
 3072 007e 0B       		.uleb128 0xb
 3073 007f 0B       		.uleb128 0xb
 3074 0080 00       		.byte	0x0
 3075 0081 00       		.byte	0x0
 3076 0082 0B       		.uleb128 0xb
 3077 0083 0D       		.uleb128 0xd
 3078 0084 00       		.byte	0x0
 3079 0085 03       		.uleb128 0x3
 3080 0086 08       		.uleb128 0x8
 3081 0087 3A       		.uleb128 0x3a
 3082 0088 0B       		.uleb128 0xb
 3083 0089 3B       		.uleb128 0x3b
 3084 008a 05       		.uleb128 0x5
 3085 008b 49       		.uleb128 0x49
 3086 008c 13       		.uleb128 0x13
 3087 008d 38       		.uleb128 0x38
 3088 008e 0A       		.uleb128 0xa
 3089 008f 00       		.byte	0x0
 3090 0090 00       		.byte	0x0
 3091 0091 0C       		.uleb128 0xc
 3092 0092 13       		.uleb128 0x13
 3093 0093 01       		.byte	0x1
 3094 0094 03       		.uleb128 0x3
 3095 0095 0E       		.uleb128 0xe
 3096 0096 0B       		.uleb128 0xb
 3097 0097 0B       		.uleb128 0xb
 3098 0098 3A       		.uleb128 0x3a
 3099 0099 0B       		.uleb128 0xb
 3100 009a 3B       		.uleb128 0x3b
 3101 009b 05       		.uleb128 0x5
 3102 009c 01       		.uleb128 0x1
 3103 009d 13       		.uleb128 0x13
 3104 009e 00       		.byte	0x0
 3105 009f 00       		.byte	0x0
 3106 00a0 0D       		.uleb128 0xd
 3107 00a1 35       		.uleb128 0x35
 3108 00a2 00       		.byte	0x0
 3109 00a3 49       		.uleb128 0x49
 3110 00a4 13       		.uleb128 0x13
 3111 00a5 00       		.byte	0x0
 3112 00a6 00       		.byte	0x0
 3113 00a7 0E       		.uleb128 0xe
 3114 00a8 17       		.uleb128 0x17
 3115 00a9 01       		.byte	0x1
ARM GAS  /tmp/ccYQq7hX.s 			page 56


 3116 00aa 0B       		.uleb128 0xb
 3117 00ab 0B       		.uleb128 0xb
 3118 00ac 3A       		.uleb128 0x3a
 3119 00ad 0B       		.uleb128 0xb
 3120 00ae 3B       		.uleb128 0x3b
 3121 00af 0B       		.uleb128 0xb
 3122 00b0 01       		.uleb128 0x1
 3123 00b1 13       		.uleb128 0x13
 3124 00b2 00       		.byte	0x0
 3125 00b3 00       		.byte	0x0
 3126 00b4 0F       		.uleb128 0xf
 3127 00b5 0D       		.uleb128 0xd
 3128 00b6 00       		.byte	0x0
 3129 00b7 03       		.uleb128 0x3
 3130 00b8 0E       		.uleb128 0xe
 3131 00b9 3A       		.uleb128 0x3a
 3132 00ba 0B       		.uleb128 0xb
 3133 00bb 3B       		.uleb128 0x3b
 3134 00bc 0B       		.uleb128 0xb
 3135 00bd 49       		.uleb128 0x49
 3136 00be 13       		.uleb128 0x13
 3137 00bf 00       		.byte	0x0
 3138 00c0 00       		.byte	0x0
 3139 00c1 10       		.uleb128 0x10
 3140 00c2 26       		.uleb128 0x26
 3141 00c3 00       		.byte	0x0
 3142 00c4 49       		.uleb128 0x49
 3143 00c5 13       		.uleb128 0x13
 3144 00c6 00       		.byte	0x0
 3145 00c7 00       		.byte	0x0
 3146 00c8 11       		.uleb128 0x11
 3147 00c9 01       		.uleb128 0x1
 3148 00ca 01       		.byte	0x1
 3149 00cb 49       		.uleb128 0x49
 3150 00cc 13       		.uleb128 0x13
 3151 00cd 01       		.uleb128 0x1
 3152 00ce 13       		.uleb128 0x13
 3153 00cf 00       		.byte	0x0
 3154 00d0 00       		.byte	0x0
 3155 00d1 12       		.uleb128 0x12
 3156 00d2 21       		.uleb128 0x21
 3157 00d3 00       		.byte	0x0
 3158 00d4 49       		.uleb128 0x49
 3159 00d5 13       		.uleb128 0x13
 3160 00d6 2F       		.uleb128 0x2f
 3161 00d7 0B       		.uleb128 0xb
 3162 00d8 00       		.byte	0x0
 3163 00d9 00       		.byte	0x0
 3164 00da 13       		.uleb128 0x13
 3165 00db 13       		.uleb128 0x13
 3166 00dc 01       		.byte	0x1
 3167 00dd 0B       		.uleb128 0xb
 3168 00de 0B       		.uleb128 0xb
 3169 00df 3A       		.uleb128 0x3a
 3170 00e0 0B       		.uleb128 0xb
 3171 00e1 3B       		.uleb128 0x3b
 3172 00e2 05       		.uleb128 0x5
ARM GAS  /tmp/ccYQq7hX.s 			page 57


 3173 00e3 01       		.uleb128 0x1
 3174 00e4 13       		.uleb128 0x13
 3175 00e5 00       		.byte	0x0
 3176 00e6 00       		.byte	0x0
 3177 00e7 14       		.uleb128 0x14
 3178 00e8 0D       		.uleb128 0xd
 3179 00e9 00       		.byte	0x0
 3180 00ea 03       		.uleb128 0x3
 3181 00eb 0E       		.uleb128 0xe
 3182 00ec 3A       		.uleb128 0x3a
 3183 00ed 0B       		.uleb128 0xb
 3184 00ee 3B       		.uleb128 0x3b
 3185 00ef 05       		.uleb128 0x5
 3186 00f0 49       		.uleb128 0x49
 3187 00f1 13       		.uleb128 0x13
 3188 00f2 38       		.uleb128 0x38
 3189 00f3 0A       		.uleb128 0xa
 3190 00f4 00       		.byte	0x0
 3191 00f5 00       		.byte	0x0
 3192 00f6 15       		.uleb128 0x15
 3193 00f7 16       		.uleb128 0x16
 3194 00f8 00       		.byte	0x0
 3195 00f9 03       		.uleb128 0x3
 3196 00fa 0E       		.uleb128 0xe
 3197 00fb 3A       		.uleb128 0x3a
 3198 00fc 0B       		.uleb128 0xb
 3199 00fd 3B       		.uleb128 0x3b
 3200 00fe 05       		.uleb128 0x5
 3201 00ff 49       		.uleb128 0x49
 3202 0100 13       		.uleb128 0x13
 3203 0101 00       		.byte	0x0
 3204 0102 00       		.byte	0x0
 3205 0103 16       		.uleb128 0x16
 3206 0104 15       		.uleb128 0x15
 3207 0105 01       		.byte	0x1
 3208 0106 27       		.uleb128 0x27
 3209 0107 0C       		.uleb128 0xc
 3210 0108 01       		.uleb128 0x1
 3211 0109 13       		.uleb128 0x13
 3212 010a 00       		.byte	0x0
 3213 010b 00       		.byte	0x0
 3214 010c 17       		.uleb128 0x17
 3215 010d 05       		.uleb128 0x5
 3216 010e 00       		.byte	0x0
 3217 010f 49       		.uleb128 0x49
 3218 0110 13       		.uleb128 0x13
 3219 0111 00       		.byte	0x0
 3220 0112 00       		.byte	0x0
 3221 0113 18       		.uleb128 0x18
 3222 0114 0D       		.uleb128 0xd
 3223 0115 00       		.byte	0x0
 3224 0116 03       		.uleb128 0x3
 3225 0117 08       		.uleb128 0x8
 3226 0118 3A       		.uleb128 0x3a
 3227 0119 0B       		.uleb128 0xb
 3228 011a 3B       		.uleb128 0x3b
 3229 011b 0B       		.uleb128 0xb
ARM GAS  /tmp/ccYQq7hX.s 			page 58


 3230 011c 49       		.uleb128 0x49
 3231 011d 13       		.uleb128 0x13
 3232 011e 00       		.byte	0x0
 3233 011f 00       		.byte	0x0
 3234 0120 19       		.uleb128 0x19
 3235 0121 04       		.uleb128 0x4
 3236 0122 01       		.byte	0x1
 3237 0123 0B       		.uleb128 0xb
 3238 0124 0B       		.uleb128 0xb
 3239 0125 3A       		.uleb128 0x3a
 3240 0126 0B       		.uleb128 0xb
 3241 0127 3B       		.uleb128 0x3b
 3242 0128 0B       		.uleb128 0xb
 3243 0129 01       		.uleb128 0x1
 3244 012a 13       		.uleb128 0x13
 3245 012b 00       		.byte	0x0
 3246 012c 00       		.byte	0x0
 3247 012d 1A       		.uleb128 0x1a
 3248 012e 28       		.uleb128 0x28
 3249 012f 00       		.byte	0x0
 3250 0130 03       		.uleb128 0x3
 3251 0131 0E       		.uleb128 0xe
 3252 0132 1C       		.uleb128 0x1c
 3253 0133 0D       		.uleb128 0xd
 3254 0134 00       		.byte	0x0
 3255 0135 00       		.byte	0x0
 3256 0136 1B       		.uleb128 0x1b
 3257 0137 2E       		.uleb128 0x2e
 3258 0138 01       		.byte	0x1
 3259 0139 03       		.uleb128 0x3
 3260 013a 0E       		.uleb128 0xe
 3261 013b 3A       		.uleb128 0x3a
 3262 013c 0B       		.uleb128 0xb
 3263 013d 3B       		.uleb128 0x3b
 3264 013e 0B       		.uleb128 0xb
 3265 013f 27       		.uleb128 0x27
 3266 0140 0C       		.uleb128 0xc
 3267 0141 11       		.uleb128 0x11
 3268 0142 01       		.uleb128 0x1
 3269 0143 12       		.uleb128 0x12
 3270 0144 01       		.uleb128 0x1
 3271 0145 40       		.uleb128 0x40
 3272 0146 0A       		.uleb128 0xa
 3273 0147 01       		.uleb128 0x1
 3274 0148 13       		.uleb128 0x13
 3275 0149 00       		.byte	0x0
 3276 014a 00       		.byte	0x0
 3277 014b 1C       		.uleb128 0x1c
 3278 014c 05       		.uleb128 0x5
 3279 014d 00       		.byte	0x0
 3280 014e 03       		.uleb128 0x3
 3281 014f 0E       		.uleb128 0xe
 3282 0150 3A       		.uleb128 0x3a
 3283 0151 0B       		.uleb128 0xb
 3284 0152 3B       		.uleb128 0x3b
 3285 0153 0B       		.uleb128 0xb
 3286 0154 49       		.uleb128 0x49
ARM GAS  /tmp/ccYQq7hX.s 			page 59


 3287 0155 13       		.uleb128 0x13
 3288 0156 02       		.uleb128 0x2
 3289 0157 0A       		.uleb128 0xa
 3290 0158 00       		.byte	0x0
 3291 0159 00       		.byte	0x0
 3292 015a 1D       		.uleb128 0x1d
 3293 015b 2E       		.uleb128 0x2e
 3294 015c 01       		.byte	0x1
 3295 015d 03       		.uleb128 0x3
 3296 015e 0E       		.uleb128 0xe
 3297 015f 3A       		.uleb128 0x3a
 3298 0160 0B       		.uleb128 0xb
 3299 0161 3B       		.uleb128 0x3b
 3300 0162 0B       		.uleb128 0xb
 3301 0163 27       		.uleb128 0x27
 3302 0164 0C       		.uleb128 0xc
 3303 0165 11       		.uleb128 0x11
 3304 0166 01       		.uleb128 0x1
 3305 0167 12       		.uleb128 0x12
 3306 0168 01       		.uleb128 0x1
 3307 0169 40       		.uleb128 0x40
 3308 016a 06       		.uleb128 0x6
 3309 016b 01       		.uleb128 0x1
 3310 016c 13       		.uleb128 0x13
 3311 016d 00       		.byte	0x0
 3312 016e 00       		.byte	0x0
 3313 016f 1E       		.uleb128 0x1e
 3314 0170 05       		.uleb128 0x5
 3315 0171 00       		.byte	0x0
 3316 0172 03       		.uleb128 0x3
 3317 0173 0E       		.uleb128 0xe
 3318 0174 3A       		.uleb128 0x3a
 3319 0175 0B       		.uleb128 0xb
 3320 0176 3B       		.uleb128 0x3b
 3321 0177 0B       		.uleb128 0xb
 3322 0178 49       		.uleb128 0x49
 3323 0179 13       		.uleb128 0x13
 3324 017a 02       		.uleb128 0x2
 3325 017b 06       		.uleb128 0x6
 3326 017c 00       		.byte	0x0
 3327 017d 00       		.byte	0x0
 3328 017e 1F       		.uleb128 0x1f
 3329 017f 0B       		.uleb128 0xb
 3330 0180 01       		.byte	0x1
 3331 0181 11       		.uleb128 0x11
 3332 0182 01       		.uleb128 0x1
 3333 0183 12       		.uleb128 0x12
 3334 0184 01       		.uleb128 0x1
 3335 0185 00       		.byte	0x0
 3336 0186 00       		.byte	0x0
 3337 0187 20       		.uleb128 0x20
 3338 0188 34       		.uleb128 0x34
 3339 0189 00       		.byte	0x0
 3340 018a 03       		.uleb128 0x3
 3341 018b 08       		.uleb128 0x8
 3342 018c 3A       		.uleb128 0x3a
 3343 018d 0B       		.uleb128 0xb
ARM GAS  /tmp/ccYQq7hX.s 			page 60


 3344 018e 3B       		.uleb128 0x3b
 3345 018f 0B       		.uleb128 0xb
 3346 0190 49       		.uleb128 0x49
 3347 0191 13       		.uleb128 0x13
 3348 0192 02       		.uleb128 0x2
 3349 0193 06       		.uleb128 0x6
 3350 0194 00       		.byte	0x0
 3351 0195 00       		.byte	0x0
 3352 0196 21       		.uleb128 0x21
 3353 0197 0B       		.uleb128 0xb
 3354 0198 01       		.byte	0x1
 3355 0199 11       		.uleb128 0x11
 3356 019a 01       		.uleb128 0x1
 3357 019b 12       		.uleb128 0x12
 3358 019c 01       		.uleb128 0x1
 3359 019d 01       		.uleb128 0x1
 3360 019e 13       		.uleb128 0x13
 3361 019f 00       		.byte	0x0
 3362 01a0 00       		.byte	0x0
 3363 01a1 22       		.uleb128 0x22
 3364 01a2 2E       		.uleb128 0x2e
 3365 01a3 00       		.byte	0x0
 3366 01a4 3F       		.uleb128 0x3f
 3367 01a5 0C       		.uleb128 0xc
 3368 01a6 03       		.uleb128 0x3
 3369 01a7 0E       		.uleb128 0xe
 3370 01a8 3A       		.uleb128 0x3a
 3371 01a9 0B       		.uleb128 0xb
 3372 01aa 3B       		.uleb128 0x3b
 3373 01ab 0B       		.uleb128 0xb
 3374 01ac 27       		.uleb128 0x27
 3375 01ad 0C       		.uleb128 0xc
 3376 01ae 11       		.uleb128 0x11
 3377 01af 01       		.uleb128 0x1
 3378 01b0 12       		.uleb128 0x12
 3379 01b1 01       		.uleb128 0x1
 3380 01b2 40       		.uleb128 0x40
 3381 01b3 06       		.uleb128 0x6
 3382 01b4 00       		.byte	0x0
 3383 01b5 00       		.byte	0x0
 3384 01b6 23       		.uleb128 0x23
 3385 01b7 2E       		.uleb128 0x2e
 3386 01b8 01       		.byte	0x1
 3387 01b9 3F       		.uleb128 0x3f
 3388 01ba 0C       		.uleb128 0xc
 3389 01bb 03       		.uleb128 0x3
 3390 01bc 0E       		.uleb128 0xe
 3391 01bd 3A       		.uleb128 0x3a
 3392 01be 0B       		.uleb128 0xb
 3393 01bf 3B       		.uleb128 0x3b
 3394 01c0 0B       		.uleb128 0xb
 3395 01c1 27       		.uleb128 0x27
 3396 01c2 0C       		.uleb128 0xc
 3397 01c3 11       		.uleb128 0x11
 3398 01c4 01       		.uleb128 0x1
 3399 01c5 12       		.uleb128 0x12
 3400 01c6 01       		.uleb128 0x1
ARM GAS  /tmp/ccYQq7hX.s 			page 61


 3401 01c7 40       		.uleb128 0x40
 3402 01c8 06       		.uleb128 0x6
 3403 01c9 01       		.uleb128 0x1
 3404 01ca 13       		.uleb128 0x13
 3405 01cb 00       		.byte	0x0
 3406 01cc 00       		.byte	0x0
 3407 01cd 24       		.uleb128 0x24
 3408 01ce 34       		.uleb128 0x34
 3409 01cf 00       		.byte	0x0
 3410 01d0 03       		.uleb128 0x3
 3411 01d1 08       		.uleb128 0x8
 3412 01d2 3A       		.uleb128 0x3a
 3413 01d3 0B       		.uleb128 0xb
 3414 01d4 3B       		.uleb128 0x3b
 3415 01d5 0B       		.uleb128 0xb
 3416 01d6 49       		.uleb128 0x49
 3417 01d7 13       		.uleb128 0x13
 3418 01d8 00       		.byte	0x0
 3419 01d9 00       		.byte	0x0
 3420 01da 25       		.uleb128 0x25
 3421 01db 2E       		.uleb128 0x2e
 3422 01dc 01       		.byte	0x1
 3423 01dd 3F       		.uleb128 0x3f
 3424 01de 0C       		.uleb128 0xc
 3425 01df 03       		.uleb128 0x3
 3426 01e0 0E       		.uleb128 0xe
 3427 01e1 3A       		.uleb128 0x3a
 3428 01e2 0B       		.uleb128 0xb
 3429 01e3 3B       		.uleb128 0x3b
 3430 01e4 05       		.uleb128 0x5
 3431 01e5 27       		.uleb128 0x27
 3432 01e6 0C       		.uleb128 0xc
 3433 01e7 11       		.uleb128 0x11
 3434 01e8 01       		.uleb128 0x1
 3435 01e9 12       		.uleb128 0x12
 3436 01ea 01       		.uleb128 0x1
 3437 01eb 40       		.uleb128 0x40
 3438 01ec 06       		.uleb128 0x6
 3439 01ed 01       		.uleb128 0x1
 3440 01ee 13       		.uleb128 0x13
 3441 01ef 00       		.byte	0x0
 3442 01f0 00       		.byte	0x0
 3443 01f1 26       		.uleb128 0x26
 3444 01f2 05       		.uleb128 0x5
 3445 01f3 00       		.byte	0x0
 3446 01f4 03       		.uleb128 0x3
 3447 01f5 0E       		.uleb128 0xe
 3448 01f6 3A       		.uleb128 0x3a
 3449 01f7 0B       		.uleb128 0xb
 3450 01f8 3B       		.uleb128 0x3b
 3451 01f9 05       		.uleb128 0x5
 3452 01fa 49       		.uleb128 0x49
 3453 01fb 13       		.uleb128 0x13
 3454 01fc 02       		.uleb128 0x2
 3455 01fd 06       		.uleb128 0x6
 3456 01fe 00       		.byte	0x0
 3457 01ff 00       		.byte	0x0
ARM GAS  /tmp/ccYQq7hX.s 			page 62


 3458 0200 27       		.uleb128 0x27
 3459 0201 2E       		.uleb128 0x2e
 3460 0202 01       		.byte	0x1
 3461 0203 3F       		.uleb128 0x3f
 3462 0204 0C       		.uleb128 0xc
 3463 0205 03       		.uleb128 0x3
 3464 0206 0E       		.uleb128 0xe
 3465 0207 3A       		.uleb128 0x3a
 3466 0208 0B       		.uleb128 0xb
 3467 0209 3B       		.uleb128 0x3b
 3468 020a 05       		.uleb128 0x5
 3469 020b 27       		.uleb128 0x27
 3470 020c 0C       		.uleb128 0xc
 3471 020d 11       		.uleb128 0x11
 3472 020e 01       		.uleb128 0x1
 3473 020f 12       		.uleb128 0x12
 3474 0210 01       		.uleb128 0x1
 3475 0211 40       		.uleb128 0x40
 3476 0212 0A       		.uleb128 0xa
 3477 0213 01       		.uleb128 0x1
 3478 0214 13       		.uleb128 0x13
 3479 0215 00       		.byte	0x0
 3480 0216 00       		.byte	0x0
 3481 0217 28       		.uleb128 0x28
 3482 0218 05       		.uleb128 0x5
 3483 0219 00       		.byte	0x0
 3484 021a 03       		.uleb128 0x3
 3485 021b 08       		.uleb128 0x8
 3486 021c 3A       		.uleb128 0x3a
 3487 021d 0B       		.uleb128 0xb
 3488 021e 3B       		.uleb128 0x3b
 3489 021f 05       		.uleb128 0x5
 3490 0220 49       		.uleb128 0x49
 3491 0221 13       		.uleb128 0x13
 3492 0222 02       		.uleb128 0x2
 3493 0223 0A       		.uleb128 0xa
 3494 0224 00       		.byte	0x0
 3495 0225 00       		.byte	0x0
 3496 0226 29       		.uleb128 0x29
 3497 0227 05       		.uleb128 0x5
 3498 0228 00       		.byte	0x0
 3499 0229 03       		.uleb128 0x3
 3500 022a 0E       		.uleb128 0xe
 3501 022b 3A       		.uleb128 0x3a
 3502 022c 0B       		.uleb128 0xb
 3503 022d 3B       		.uleb128 0x3b
 3504 022e 05       		.uleb128 0x5
 3505 022f 49       		.uleb128 0x49
 3506 0230 13       		.uleb128 0x13
 3507 0231 02       		.uleb128 0x2
 3508 0232 0A       		.uleb128 0xa
 3509 0233 00       		.byte	0x0
 3510 0234 00       		.byte	0x0
 3511 0235 2A       		.uleb128 0x2a
 3512 0236 26       		.uleb128 0x26
 3513 0237 00       		.byte	0x0
 3514 0238 00       		.byte	0x0
ARM GAS  /tmp/ccYQq7hX.s 			page 63


 3515 0239 00       		.byte	0x0
 3516 023a 2B       		.uleb128 0x2b
 3517 023b 2E       		.uleb128 0x2e
 3518 023c 01       		.byte	0x1
 3519 023d 3F       		.uleb128 0x3f
 3520 023e 0C       		.uleb128 0xc
 3521 023f 03       		.uleb128 0x3
 3522 0240 0E       		.uleb128 0xe
 3523 0241 3A       		.uleb128 0x3a
 3524 0242 0B       		.uleb128 0xb
 3525 0243 3B       		.uleb128 0x3b
 3526 0244 05       		.uleb128 0x5
 3527 0245 27       		.uleb128 0x27
 3528 0246 0C       		.uleb128 0xc
 3529 0247 49       		.uleb128 0x49
 3530 0248 13       		.uleb128 0x13
 3531 0249 11       		.uleb128 0x11
 3532 024a 01       		.uleb128 0x1
 3533 024b 12       		.uleb128 0x12
 3534 024c 01       		.uleb128 0x1
 3535 024d 40       		.uleb128 0x40
 3536 024e 0A       		.uleb128 0xa
 3537 024f 01       		.uleb128 0x1
 3538 0250 13       		.uleb128 0x13
 3539 0251 00       		.byte	0x0
 3540 0252 00       		.byte	0x0
 3541 0253 2C       		.uleb128 0x2c
 3542 0254 34       		.uleb128 0x34
 3543 0255 00       		.byte	0x0
 3544 0256 03       		.uleb128 0x3
 3545 0257 0E       		.uleb128 0xe
 3546 0258 3A       		.uleb128 0x3a
 3547 0259 0B       		.uleb128 0xb
 3548 025a 3B       		.uleb128 0x3b
 3549 025b 05       		.uleb128 0x5
 3550 025c 49       		.uleb128 0x49
 3551 025d 13       		.uleb128 0x13
 3552 025e 3F       		.uleb128 0x3f
 3553 025f 0C       		.uleb128 0xc
 3554 0260 3C       		.uleb128 0x3c
 3555 0261 0C       		.uleb128 0xc
 3556 0262 00       		.byte	0x0
 3557 0263 00       		.byte	0x0
 3558 0264 2D       		.uleb128 0x2d
 3559 0265 34       		.uleb128 0x34
 3560 0266 00       		.byte	0x0
 3561 0267 03       		.uleb128 0x3
 3562 0268 0E       		.uleb128 0xe
 3563 0269 3A       		.uleb128 0x3a
 3564 026a 0B       		.uleb128 0xb
 3565 026b 3B       		.uleb128 0x3b
 3566 026c 0B       		.uleb128 0xb
 3567 026d 49       		.uleb128 0x49
 3568 026e 13       		.uleb128 0x13
 3569 026f 02       		.uleb128 0x2
 3570 0270 0A       		.uleb128 0xa
 3571 0271 00       		.byte	0x0
ARM GAS  /tmp/ccYQq7hX.s 			page 64


 3572 0272 00       		.byte	0x0
 3573 0273 2E       		.uleb128 0x2e
 3574 0274 34       		.uleb128 0x34
 3575 0275 00       		.byte	0x0
 3576 0276 03       		.uleb128 0x3
 3577 0277 0E       		.uleb128 0xe
 3578 0278 3A       		.uleb128 0x3a
 3579 0279 0B       		.uleb128 0xb
 3580 027a 3B       		.uleb128 0x3b
 3581 027b 0B       		.uleb128 0xb
 3582 027c 49       		.uleb128 0x49
 3583 027d 13       		.uleb128 0x13
 3584 027e 3F       		.uleb128 0x3f
 3585 027f 0C       		.uleb128 0xc
 3586 0280 02       		.uleb128 0x2
 3587 0281 0A       		.uleb128 0xa
 3588 0282 00       		.byte	0x0
 3589 0283 00       		.byte	0x0
 3590 0284 00       		.byte	0x0
 3591              		.section	.debug_pubnames,"",%progbits
 3592 0000 E7000000 		.4byte	0xe7
 3593 0004 0200     		.2byte	0x2
 3594 0006 00000000 		.4byte	.Ldebug_info0
 3595 000a F20D0000 		.4byte	0xdf2
 3596 000e FD0A0000 		.4byte	0xafd
 3597 0012 7370695F 		.ascii	"spi_lld_init\000"
 3597      6C6C645F 
 3597      696E6974 
 3597      00
 3598 001f 120B0000 		.4byte	0xb12
 3599 0023 7370695F 		.ascii	"spi_lld_start\000"
 3599      6C6C645F 
 3599      73746172 
 3599      7400
 3600 0031 650B0000 		.4byte	0xb65
 3601 0035 7370695F 		.ascii	"spi_lld_stop\000"
 3601      6C6C645F 
 3601      73746F70 
 3601      00
 3602 0042 900B0000 		.4byte	0xb90
 3603 0046 7370695F 		.ascii	"spi_lld_select\000"
 3603      6C6C645F 
 3603      73656C65 
 3603      637400
 3604 0055 BA0B0000 		.4byte	0xbba
 3605 0059 7370695F 		.ascii	"spi_lld_unselect\000"
 3605      6C6C645F 
 3605      756E7365 
 3605      6C656374 
 3605      00
 3606 006a E40B0000 		.4byte	0xbe4
 3607 006e 7370695F 		.ascii	"spi_lld_ignore\000"
 3607      6C6C645F 
 3607      69676E6F 
 3607      726500
 3608 007d 1B0C0000 		.4byte	0xc1b
 3609 0081 7370695F 		.ascii	"spi_lld_exchange\000"
ARM GAS  /tmp/ccYQq7hX.s 			page 65


 3609      6C6C645F 
 3609      65786368 
 3609      616E6765 
 3609      00
 3610 0092 750C0000 		.4byte	0xc75
 3611 0096 7370695F 		.ascii	"spi_lld_send\000"
 3611      6C6C645F 
 3611      73656E64 
 3611      00
 3612 00a3 BA0C0000 		.4byte	0xcba
 3613 00a7 7370695F 		.ascii	"spi_lld_receive\000"
 3613      6C6C645F 
 3613      72656365 
 3613      69766500 
 3614 00b7 010D0000 		.4byte	0xd01
 3615 00bb 7370695F 		.ascii	"spi_lld_polled_exchange\000"
 3615      6C6C645F 
 3615      706F6C6C 
 3615      65645F65 
 3615      78636861 
 3616 00d3 CD0D0000 		.4byte	0xdcd
 3617 00d7 53504944 		.ascii	"SPID1\000"
 3617      3100
 3618 00dd DF0D0000 		.4byte	0xddf
 3619 00e1 53504944 		.ascii	"SPID2\000"
 3619      3200
 3620 00e7 00000000 		.4byte	0x0
 3621              		.section	.debug_pubtypes,"",%progbits
 3622 0000 FB010000 		.4byte	0x1fb
 3623 0004 0200     		.2byte	0x2
 3624 0006 00000000 		.4byte	.Ldebug_info0
 3625 000a F20D0000 		.4byte	0xdf2
 3626 000e 30000000 		.4byte	0x30
 3627 0012 73697A65 		.ascii	"size_t\000"
 3627      5F7400
 3628 0019 49000000 		.4byte	0x49
 3629 001d 75696E74 		.ascii	"uint8_t\000"
 3629      385F7400 
 3630 0025 62000000 		.4byte	0x62
 3631 0029 75696E74 		.ascii	"uint16_t\000"
 3631      31365F74 
 3631      00
 3632 0032 74000000 		.4byte	0x74
 3633 0036 696E7433 		.ascii	"int32_t\000"
 3633      325F7400 
 3634 003e 86000000 		.4byte	0x86
 3635 0042 75696E74 		.ascii	"uint32_t\000"
 3635      33325F74 
 3635      00
 3636 004b A6000000 		.4byte	0xa6
 3637 004f 626F6F6C 		.ascii	"bool_t\000"
 3637      5F7400
 3638 0056 B1000000 		.4byte	0xb1
 3639 005a 746D6F64 		.ascii	"tmode_t\000"
 3639      655F7400 
 3640 0062 BC000000 		.4byte	0xbc
 3641 0066 74737461 		.ascii	"tstate_t\000"
ARM GAS  /tmp/ccYQq7hX.s 			page 66


 3641      74655F74 
 3641      00
 3642 006f C7000000 		.4byte	0xc7
 3643 0073 74726566 		.ascii	"trefs_t\000"
 3643      735F7400 
 3644 007b D2000000 		.4byte	0xd2
 3645 007f 74707269 		.ascii	"tprio_t\000"
 3645      6F5F7400 
 3646 0087 DD000000 		.4byte	0xdd
 3647 008b 6D73675F 		.ascii	"msg_t\000"
 3647      7400
 3648 0091 E8000000 		.4byte	0xe8
 3649 0095 6576656E 		.ascii	"eventmask_t\000"
 3649      746D6173 
 3649      6B5F7400 
 3650 00a1 F3000000 		.4byte	0xf3
 3651 00a5 73797374 		.ascii	"systime_t\000"
 3651      696D655F 
 3651      7400
 3652 00af FE000000 		.4byte	0xfe
 3653 00b3 54687265 		.ascii	"Thread\000"
 3653      616400
 3654 00ba 4B020000 		.4byte	0x24b
 3655 00be 54687265 		.ascii	"ThreadsQueue\000"
 3655      61647351 
 3655      75657565 
 3655      00
 3656 00cb 6D020000 		.4byte	0x26d
 3657 00cf 54687265 		.ascii	"ThreadsList\000"
 3657      6164734C 
 3657      69737400 
 3658 00db 78020000 		.4byte	0x278
 3659 00df 72656761 		.ascii	"regarm_t\000"
 3659      726D5F74 
 3659      00
 3660 00e8 85020000 		.4byte	0x285
 3661 00ec 696E7463 		.ascii	"intctx\000"
 3661      747800
 3662 00f3 12030000 		.4byte	0x312
 3663 00f7 636F6E74 		.ascii	"context\000"
 3663      65787400 
 3664 00ff 3F030000 		.4byte	0x33f
 3665 0103 4D757465 		.ascii	"Mutex\000"
 3665      7800
 3666 0109 7C030000 		.4byte	0x37c
 3667 010d 4D757465 		.ascii	"Mutex\000"
 3667      7800
 3668 0113 09010000 		.4byte	0x109
 3669 0117 54687265 		.ascii	"Thread\000"
 3669      616400
 3670 011e 51040000 		.4byte	0x451
 3671 0122 444D415F 		.ascii	"DMA_Stream_TypeDef\000"
 3671      53747265 
 3671      616D5F54 
 3671      79706544 
 3671      656600
 3672 0135 2A060000 		.4byte	0x62a
ARM GAS  /tmp/ccYQq7hX.s 			page 67


 3673 0139 5243435F 		.ascii	"RCC_TypeDef\000"
 3673      54797065 
 3673      44656600 
 3674 0145 4C070000 		.4byte	0x74c
 3675 0149 5350495F 		.ascii	"SPI_TypeDef\000"
 3675      54797065 
 3675      44656600 
 3676 0155 B3070000 		.4byte	0x7b3
 3677 0159 73746D33 		.ascii	"stm32_dma_stream_t\000"
 3677      325F646D 
 3677      615F7374 
 3677      7265616D 
 3677      5F7400
 3678 016c BE070000 		.4byte	0x7be
 3679 0170 73746D33 		.ascii	"stm32_dmaisr_t\000"
 3679      325F646D 
 3679      61697372 
 3679      5F7400
 3680 017f BA080000 		.4byte	0x8ba
 3681 0183 4750494F 		.ascii	"GPIO_TypeDef\000"
 3681      5F547970 
 3681      65446566 
 3681      00
 3682 0190 C5080000 		.4byte	0x8c5
 3683 0194 696F706F 		.ascii	"ioportmask_t\000"
 3683      72746D61 
 3683      736B5F74 
 3683      00
 3684 01a1 D0080000 		.4byte	0x8d0
 3685 01a5 696F706F 		.ascii	"ioportid_t\000"
 3685      72746964 
 3685      5F7400
 3686 01b0 13090000 		.4byte	0x913
 3687 01b4 73706973 		.ascii	"spistate_t\000"
 3687      74617465 
 3687      5F7400
 3688 01bf 1E090000 		.4byte	0x91e
 3689 01c3 53504944 		.ascii	"SPIDriver\000"
 3689      72697665 
 3689      7200
 3690 01cd BF090000 		.4byte	0x9bf
 3691 01d1 73706963 		.ascii	"spicallback_t\000"
 3691      616C6C62 
 3691      61636B5F 
 3691      7400
 3692 01df 290A0000 		.4byte	0xa29
 3693 01e3 53504943 		.ascii	"SPIConfig\000"
 3693      6F6E6669 
 3693      6700
 3694 01ed 2A090000 		.4byte	0x92a
 3695 01f1 53504944 		.ascii	"SPIDriver\000"
 3695      72697665 
 3695      7200
 3696 01fb 00000000 		.4byte	0x0
 3697              		.section	.debug_aranges,"",%progbits
 3698 0000 74000000 		.4byte	0x74
 3699 0004 0200     		.2byte	0x2
ARM GAS  /tmp/ccYQq7hX.s 			page 68


 3700 0006 00000000 		.4byte	.Ldebug_info0
 3701 000a 04       		.byte	0x4
 3702 000b 00       		.byte	0x0
 3703 000c 0000     		.2byte	0x0
 3704 000e 0000     		.2byte	0x0
 3705 0010 00000000 		.4byte	.LFB118
 3706 0014 0C000000 		.4byte	.LFE118-.LFB118
 3707 0018 00000000 		.4byte	.LFB117
 3708 001c 84000000 		.4byte	.LFE117-.LFB117
 3709 0020 00000000 		.4byte	.LFB119
 3710 0024 6C000000 		.4byte	.LFE119-.LFB119
 3711 0028 00000000 		.4byte	.LFB120
 3712 002c D8000000 		.4byte	.LFE120-.LFB120
 3713 0030 00000000 		.4byte	.LFB121
 3714 0034 50000000 		.4byte	.LFE121-.LFB121
 3715 0038 00000000 		.4byte	.LFB122
 3716 003c 10000000 		.4byte	.LFE122-.LFB122
 3717 0040 00000000 		.4byte	.LFB123
 3718 0044 10000000 		.4byte	.LFE123-.LFB123
 3719 0048 00000000 		.4byte	.LFB124
 3720 004c 34000000 		.4byte	.LFE124-.LFB124
 3721 0050 00000000 		.4byte	.LFB125
 3722 0054 2E000000 		.4byte	.LFE125-.LFB125
 3723 0058 00000000 		.4byte	.LFB126
 3724 005c 30000000 		.4byte	.LFE126-.LFB126
 3725 0060 00000000 		.4byte	.LFB127
 3726 0064 30000000 		.4byte	.LFE127-.LFB127
 3727 0068 00000000 		.4byte	.LFB128
 3728 006c 12000000 		.4byte	.LFE128-.LFB128
 3729 0070 00000000 		.4byte	0x0
 3730 0074 00000000 		.4byte	0x0
 3731              		.section	.debug_ranges,"",%progbits
 3732              	.Ldebug_ranges0:
 3733 0000 00000000 		.4byte	.LFB118
 3734 0004 0C000000 		.4byte	.LFE118
 3735 0008 00000000 		.4byte	.LFB117
 3736 000c 84000000 		.4byte	.LFE117
 3737 0010 00000000 		.4byte	.LFB119
 3738 0014 6C000000 		.4byte	.LFE119
 3739 0018 00000000 		.4byte	.LFB120
 3740 001c D8000000 		.4byte	.LFE120
 3741 0020 00000000 		.4byte	.LFB121
 3742 0024 50000000 		.4byte	.LFE121
 3743 0028 00000000 		.4byte	.LFB122
 3744 002c 10000000 		.4byte	.LFE122
 3745 0030 00000000 		.4byte	.LFB123
 3746 0034 10000000 		.4byte	.LFE123
 3747 0038 00000000 		.4byte	.LFB124
 3748 003c 34000000 		.4byte	.LFE124
 3749 0040 00000000 		.4byte	.LFB125
 3750 0044 2E000000 		.4byte	.LFE125
 3751 0048 00000000 		.4byte	.LFB126
 3752 004c 30000000 		.4byte	.LFE126
 3753 0050 00000000 		.4byte	.LFB127
 3754 0054 30000000 		.4byte	.LFE127
 3755 0058 00000000 		.4byte	.LFB128
 3756 005c 12000000 		.4byte	.LFE128
ARM GAS  /tmp/ccYQq7hX.s 			page 69


 3757 0060 00000000 		.4byte	0x0
 3758 0064 00000000 		.4byte	0x0
 3759              		.section	.debug_str,"MS",%progbits,1
 3760              	.LASF56:
 3761 0000 4D304152 		.ascii	"M0AR\000"
 3761      00
 3762              	.LASF2:
 3763 0005 73697A65 		.ascii	"size_t\000"
 3763      5F7400
 3764              	.LASF50:
 3765 000c 7264796D 		.ascii	"rdymsg\000"
 3765      736700
 3766              	.LASF104:
 3767 0013 4F545950 		.ascii	"OTYPER\000"
 3767      455200
 3768              	.LASF117:
 3769 001a 5350495F 		.ascii	"SPI_ACTIVE\000"
 3769      41435449 
 3769      564500
 3770              	.LASF95:
 3771 0025 73747265 		.ascii	"stream\000"
 3771      616D00
 3772              	.LASF125:
 3773 002c 646D6172 		.ascii	"dmarx\000"
 3773      7800
 3774              	.LASF103:
 3775 0032 4D4F4445 		.ascii	"MODER\000"
 3775      5200
 3776              	.LASF13:
 3777 0038 6C6F6E67 		.ascii	"long long unsigned int\000"
 3777      206C6F6E 
 3777      6720756E 
 3777      7369676E 
 3777      65642069 
 3778              	.LASF116:
 3779 004f 5350495F 		.ascii	"SPI_READY\000"
 3779      52454144 
 3779      5900
 3780              	.LASF87:
 3781 0059 43524350 		.ascii	"CRCPR\000"
 3781      5200
 3782              	.LASF106:
 3783 005f 50555044 		.ascii	"PUPDR\000"
 3783      5200
 3784              	.LASF51:
 3785 0065 65786974 		.ascii	"exitcode\000"
 3785      636F6465 
 3785      00
 3786              	.LASF99:
 3787 006e 76656374 		.ascii	"vector\000"
 3787      6F7200
 3788              	.LASF150:
 3789 0075 5F73746D 		.ascii	"_stm32_dma_streams\000"
 3789      33325F64 
 3789      6D615F73 
 3789      74726561 
 3789      6D7300
ARM GAS  /tmp/ccYQq7hX.s 			page 70


 3790              	.LASF120:
 3791 0088 53504944 		.ascii	"SPIDriver\000"
 3791      72697665 
 3791      7200
 3792              	.LASF131:
 3793 0092 7373706F 		.ascii	"ssport\000"
 3793      727400
 3794              	.LASF149:
 3795 0099 49544D5F 		.ascii	"ITM_RxBuffer\000"
 3795      52784275 
 3795      66666572 
 3795      00
 3796              	.LASF145:
 3797 00a6 72786275 		.ascii	"rxbuf\000"
 3797      6600
 3798              	.LASF75:
 3799 00ac 41484231 		.ascii	"AHB1LPENR\000"
 3799      4C50454E 
 3799      5200
 3800              	.LASF25:
 3801 00b6 705F7072 		.ascii	"p_prio\000"
 3801      696F00
 3802              	.LASF132:
 3803 00bd 73737061 		.ascii	"sspad\000"
 3803      6400
 3804              	.LASF12:
 3805 00c3 6C6F6E67 		.ascii	"long long int\000"
 3805      206C6F6E 
 3805      6720696E 
 3805      7400
 3806              	.LASF1:
 3807 00d1 7369676E 		.ascii	"signed char\000"
 3807      65642063 
 3807      68617200 
 3808              	.LASF157:
 3809 00dd 2F686F6D 		.ascii	"/home/stm32/Workspace/demoarm\000"
 3809      652F7374 
 3809      6D33322F 
 3809      576F726B 
 3809      73706163 
 3810              	.LASF107:
 3811 00fb 42535252 		.ascii	"BSRR\000"
 3811      00
 3812              	.LASF61:
 3813 0100 41484231 		.ascii	"AHB1RSTR\000"
 3813      52535452 
 3813      00
 3814              	.LASF115:
 3815 0109 5350495F 		.ascii	"SPI_STOP\000"
 3815      53544F50 
 3815      00
 3816              	.LASF90:
 3817 0112 49325343 		.ascii	"I2SCFGR\000"
 3817      46475200 
 3818              	.LASF14:
 3819 011a 626F6F6C 		.ascii	"bool_t\000"
 3819      5F7400
ARM GAS  /tmp/ccYQq7hX.s 			page 71


 3820              	.LASF47:
 3821 0121 6D5F7175 		.ascii	"m_queue\000"
 3821      65756500 
 3822              	.LASF155:
 3823 0129 474E5520 		.ascii	"GNU C 4.5.2\000"
 3823      4320342E 
 3823      352E3200 
 3824              	.LASF148:
 3825 0135 6672616D 		.ascii	"frame\000"
 3825      6500
 3826              	.LASF121:
 3827 013b 73746174 		.ascii	"state\000"
 3827      6500
 3828              	.LASF9:
 3829 0141 6C6F6E67 		.ascii	"long int\000"
 3829      20696E74 
 3829      00
 3830              	.LASF137:
 3831 014a 7370695F 		.ascii	"spi_lld_serve_rx_interrupt\000"
 3831      6C6C645F 
 3831      73657276 
 3831      655F7278 
 3831      5F696E74 
 3832              	.LASF66:
 3833 0165 41504232 		.ascii	"APB2RSTR\000"
 3833      52535452 
 3833      00
 3834              	.LASF79:
 3835 016e 41504231 		.ascii	"APB1LPENR\000"
 3835      4C50454E 
 3835      5200
 3836              	.LASF16:
 3837 0178 74737461 		.ascii	"tstate_t\000"
 3837      74655F74 
 3837      00
 3838              	.LASF143:
 3839 0181 7370695F 		.ascii	"spi_lld_exchange\000"
 3839      6C6C645F 
 3839      65786368 
 3839      616E6765 
 3839      00
 3840              	.LASF32:
 3841 0192 705F7265 		.ascii	"p_refs\000"
 3841      667300
 3842              	.LASF6:
 3843 0199 75696E74 		.ascii	"uint16_t\000"
 3843      31365F74 
 3843      00
 3844              	.LASF33:
 3845 01a2 705F7469 		.ascii	"p_time\000"
 3845      6D6500
 3846              	.LASF27:
 3847 01a9 705F6E65 		.ascii	"p_newer\000"
 3847      77657200 
 3848              	.LASF130:
 3849 01b1 656E645F 		.ascii	"end_cb\000"
 3849      636200
ARM GAS  /tmp/ccYQq7hX.s 			page 72


 3850              	.LASF127:
 3851 01b8 7278646D 		.ascii	"rxdmamode\000"
 3851      616D6F64 
 3851      6500
 3852              	.LASF111:
 3853 01c2 4750494F 		.ascii	"GPIO_TypeDef\000"
 3853      5F547970 
 3853      65446566 
 3853      00
 3854              	.LASF126:
 3855 01cf 646D6174 		.ascii	"dmatx\000"
 3855      7800
 3856              	.LASF105:
 3857 01d5 4F535045 		.ascii	"OSPEEDR\000"
 3857      45445200 
 3858              	.LASF40:
 3859 01dd 705F6D70 		.ascii	"p_mpool\000"
 3859      6F6F6C00 
 3860              	.LASF43:
 3861 01e5 72656761 		.ascii	"regarm_t\000"
 3861      726D5F74 
 3861      00
 3862              	.LASF98:
 3863 01ee 73656C66 		.ascii	"selfindex\000"
 3863      696E6465 
 3863      7800
 3864              	.LASF129:
 3865 01f8 73706963 		.ascii	"spicallback_t\000"
 3865      616C6C62 
 3865      61636B5F 
 3865      7400
 3866              	.LASF128:
 3867 0206 7478646D 		.ascii	"txdmamode\000"
 3867      616D6F64 
 3867      6500
 3868              	.LASF146:
 3869 0210 7370695F 		.ascii	"spi_lld_send\000"
 3869      6C6C645F 
 3869      73656E64 
 3869      00
 3870              	.LASF0:
 3871 021d 756E7369 		.ascii	"unsigned int\000"
 3871      676E6564 
 3871      20696E74 
 3871      00
 3872              	.LASF141:
 3873 022a 7370695F 		.ascii	"spi_lld_unselect\000"
 3873      6C6C645F 
 3873      756E7365 
 3873      6C656374 
 3873      00
 3874              	.LASF144:
 3875 023b 74786275 		.ascii	"txbuf\000"
 3875      6600
 3876              	.LASF60:
 3877 0241 43464752 		.ascii	"CFGR\000"
 3877      00
ARM GAS  /tmp/ccYQq7hX.s 			page 73


 3878              	.LASF101:
 3879 0246 73746D33 		.ascii	"stm32_dmaisr_t\000"
 3879      325F646D 
 3879      61697372 
 3879      5F7400
 3880              	.LASF35:
 3881 0255 705F6D73 		.ascii	"p_msgqueue\000"
 3881      67717565 
 3881      756500
 3882              	.LASF70:
 3883 0260 41484233 		.ascii	"AHB3ENR\000"
 3883      454E5200 
 3884              	.LASF86:
 3885 0268 5243435F 		.ascii	"RCC_TypeDef\000"
 3885      54797065 
 3885      44656600 
 3886              	.LASF108:
 3887 0274 4C434B52 		.ascii	"LCKR\000"
 3887      00
 3888              	.LASF97:
 3889 0279 69736869 		.ascii	"ishift\000"
 3889      667400
 3890              	.LASF45:
 3891 0280 636F6E74 		.ascii	"context\000"
 3891      65787400 
 3892              	.LASF7:
 3893 0288 73686F72 		.ascii	"short unsigned int\000"
 3893      7420756E 
 3893      7369676E 
 3893      65642069 
 3893      6E7400
 3894              	.LASF85:
 3895 029b 504C4C49 		.ascii	"PLLI2SCFGR\000"
 3895      32534346 
 3895      475200
 3896              	.LASF19:
 3897 02a6 6D73675F 		.ascii	"msg_t\000"
 3897      7400
 3898              	.LASF59:
 3899 02ac 504C4C43 		.ascii	"PLLCFGR\000"
 3899      46475200 
 3900              	.LASF154:
 3901 02b4 64756D6D 		.ascii	"dummyrx\000"
 3901      79727800 
 3902              	.LASF15:
 3903 02bc 746D6F64 		.ascii	"tmode_t\000"
 3903      655F7400 
 3904              	.LASF80:
 3905 02c4 41504232 		.ascii	"APB2LPENR\000"
 3905      4C50454E 
 3905      5200
 3906              	.LASF42:
 3907 02ce 54687265 		.ascii	"ThreadsList\000"
 3907      6164734C 
 3907      69737400 
 3908              	.LASF20:
 3909 02da 6576656E 		.ascii	"eventmask_t\000"
ARM GAS  /tmp/ccYQq7hX.s 			page 74


 3909      746D6173 
 3909      6B5F7400 
 3910              	.LASF158:
 3911 02e6 7370695F 		.ascii	"spi_lld_init\000"
 3911      6C6C645F 
 3911      696E6974 
 3911      00
 3912              	.LASF92:
 3913 02f3 49325350 		.ascii	"I2SPR\000"
 3913      5200
 3914              	.LASF102:
 3915 02f9 636C6561 		.ascii	"clear\000"
 3915      7200
 3916              	.LASF46:
 3917 02ff 4D757465 		.ascii	"Mutex\000"
 3917      7800
 3918              	.LASF23:
 3919 0305 705F6E65 		.ascii	"p_next\000"
 3919      787400
 3920              	.LASF139:
 3921 030c 7370695F 		.ascii	"spi_lld_stop\000"
 3921      6C6C645F 
 3921      73746F70 
 3921      00
 3922              	.LASF112:
 3923 0319 696F706F 		.ascii	"ioportmask_t\000"
 3923      72746D61 
 3923      736B5F74 
 3923      00
 3924              	.LASF28:
 3925 0326 705F6F6C 		.ascii	"p_older\000"
 3925      64657200 
 3926              	.LASF41:
 3927 032e 54687265 		.ascii	"ThreadsQueue\000"
 3927      61647351 
 3927      75657565 
 3927      00
 3928              	.LASF76:
 3929 033b 41484232 		.ascii	"AHB2LPENR\000"
 3929      4C50454E 
 3929      5200
 3930              	.LASF65:
 3931 0345 41504231 		.ascii	"APB1RSTR\000"
 3931      52535452 
 3931      00
 3932              	.LASF110:
 3933 034e 41465248 		.ascii	"AFRH\000"
 3933      00
 3934              	.LASF109:
 3935 0353 4146524C 		.ascii	"AFRL\000"
 3935      00
 3936              	.LASF89:
 3937 0358 54584352 		.ascii	"TXCRCR\000"
 3937      435200
 3938              	.LASF64:
 3939 035f 52455345 		.ascii	"RESERVED0\000"
 3939      52564544 
ARM GAS  /tmp/ccYQq7hX.s 			page 75


 3939      3000
 3940              	.LASF67:
 3941 0369 52455345 		.ascii	"RESERVED1\000"
 3941      52564544 
 3941      3100
 3942              	.LASF71:
 3943 0373 52455345 		.ascii	"RESERVED2\000"
 3943      52564544 
 3943      3200
 3944              	.LASF74:
 3945 037d 52455345 		.ascii	"RESERVED3\000"
 3945      52564544 
 3945      3300
 3946              	.LASF78:
 3947 0387 52455345 		.ascii	"RESERVED4\000"
 3947      52564544 
 3947      3400
 3948              	.LASF24:
 3949 0391 705F7072 		.ascii	"p_prev\000"
 3949      657600
 3950              	.LASF83:
 3951 0398 52455345 		.ascii	"RESERVED6\000"
 3951      52564544 
 3951      3600
 3952              	.LASF91:
 3953 03a2 52455345 		.ascii	"RESERVED7\000"
 3953      52564544 
 3953      3700
 3954              	.LASF93:
 3955 03ac 52455345 		.ascii	"RESERVED8\000"
 3955      52564544 
 3955      3800
 3956              	.LASF18:
 3957 03b6 74707269 		.ascii	"tprio_t\000"
 3957      6F5F7400 
 3958              	.LASF124:
 3959 03be 6D757465 		.ascii	"mutex\000"
 3959      7800
 3960              	.LASF8:
 3961 03c4 696E7433 		.ascii	"int32_t\000"
 3961      325F7400 
 3962              	.LASF4:
 3963 03cc 756E7369 		.ascii	"unsigned char\000"
 3963      676E6564 
 3963      20636861 
 3963      7200
 3964              	.LASF100:
 3965 03da 73746D33 		.ascii	"stm32_dma_stream_t\000"
 3965      325F646D 
 3965      615F7374 
 3965      7265616D 
 3965      5F7400
 3966              	.LASF151:
 3967 03ed 53504944 		.ascii	"SPID1\000"
 3967      3100
 3968              	.LASF152:
 3969 03f3 53504944 		.ascii	"SPID2\000"
ARM GAS  /tmp/ccYQq7hX.s 			page 76


 3969      3200
 3970              	.LASF30:
 3971 03f9 705F7374 		.ascii	"p_state\000"
 3971      61746500 
 3972              	.LASF38:
 3973 0401 705F6D74 		.ascii	"p_mtxlist\000"
 3973      786C6973 
 3973      7400
 3974              	.LASF5:
 3975 040b 73686F72 		.ascii	"short int\000"
 3975      7420696E 
 3975      7400
 3976              	.LASF147:
 3977 0415 7370695F 		.ascii	"spi_lld_receive\000"
 3977      6C6C645F 
 3977      72656365 
 3977      69766500 
 3978              	.LASF77:
 3979 0425 41484233 		.ascii	"AHB3LPENR\000"
 3979      4C50454E 
 3979      5200
 3980              	.LASF153:
 3981 042f 64756D6D 		.ascii	"dummytx\000"
 3981      79747800 
 3982              	.LASF31:
 3983 0437 705F666C 		.ascii	"p_flags\000"
 3983      61677300 
 3984              	.LASF73:
 3985 043f 41504232 		.ascii	"APB2ENR\000"
 3985      454E5200 
 3986              	.LASF63:
 3987 0447 41484233 		.ascii	"AHB3RSTR\000"
 3987      52535452 
 3987      00
 3988              	.LASF22:
 3989 0450 54687265 		.ascii	"Thread\000"
 3989      616400
 3990              	.LASF37:
 3991 0457 705F6570 		.ascii	"p_epending\000"
 3991      656E6469 
 3991      6E6700
 3992              	.LASF96:
 3993 0462 69666372 		.ascii	"ifcr\000"
 3993      00
 3994              	.LASF81:
 3995 0467 52455345 		.ascii	"RESERVED5\000"
 3995      52564544 
 3995      3500
 3996              	.LASF10:
 3997 0471 75696E74 		.ascii	"uint32_t\000"
 3997      33325F74 
 3997      00
 3998              	.LASF17:
 3999 047a 74726566 		.ascii	"trefs_t\000"
 3999      735F7400 
 4000              	.LASF72:
 4001 0482 41504231 		.ascii	"APB1ENR\000"
ARM GAS  /tmp/ccYQq7hX.s 			page 77


 4001      454E5200 
 4002              	.LASF11:
 4003 048a 6C6F6E67 		.ascii	"long unsigned int\000"
 4003      20756E73 
 4003      69676E65 
 4003      6420696E 
 4003      7400
 4004              	.LASF94:
 4005 049c 5350495F 		.ascii	"SPI_TypeDef\000"
 4005      54797065 
 4005      44656600 
 4006              	.LASF54:
 4007 04a8 63686172 		.ascii	"char\000"
 4007      00
 4008              	.LASF118:
 4009 04ad 5350495F 		.ascii	"SPI_COMPLETE\000"
 4009      434F4D50 
 4009      4C455445 
 4009      00
 4010              	.LASF122:
 4011 04ba 636F6E66 		.ascii	"config\000"
 4011      696700
 4012              	.LASF62:
 4013 04c1 41484232 		.ascii	"AHB2RSTR\000"
 4013      52535452 
 4013      00
 4014              	.LASF119:
 4015 04ca 73706973 		.ascii	"spistate_t\000"
 4015      74617465 
 4015      5F7400
 4016              	.LASF49:
 4017 04d5 6D5F6E65 		.ascii	"m_next\000"
 4017      787400
 4018              	.LASF21:
 4019 04dc 73797374 		.ascii	"systime_t\000"
 4019      696D655F 
 4019      7400
 4020              	.LASF39:
 4021 04e6 705F7265 		.ascii	"p_realprio\000"
 4021      616C7072 
 4021      696F00
 4022              	.LASF123:
 4023 04f1 74687265 		.ascii	"thread\000"
 4023      616400
 4024              	.LASF55:
 4025 04f8 4E445452 		.ascii	"NDTR\000"
 4025      00
 4026              	.LASF58:
 4027 04fd 444D415F 		.ascii	"DMA_Stream_TypeDef\000"
 4027      53747265 
 4027      616D5F54 
 4027      79706544 
 4027      656600
 4028              	.LASF113:
 4029 0510 696F706F 		.ascii	"ioportid_t\000"
 4029      72746964 
 4029      5F7400
ARM GAS  /tmp/ccYQq7hX.s 			page 78


 4030              	.LASF69:
 4031 051b 41484232 		.ascii	"AHB2ENR\000"
 4031      454E5200 
 4032              	.LASF140:
 4033 0523 7370695F 		.ascii	"spi_lld_select\000"
 4033      6C6C645F 
 4033      73656C65 
 4033      637400
 4034              	.LASF44:
 4035 0532 696E7463 		.ascii	"intctx\000"
 4035      747800
 4036              	.LASF57:
 4037 0539 4D314152 		.ascii	"M1AR\000"
 4037      00
 4038              	.LASF114:
 4039 053e 5350495F 		.ascii	"SPI_UNINIT\000"
 4039      554E494E 
 4039      495400
 4040              	.LASF156:
 4041 0549 2E2E2F6C 		.ascii	"../libs/ChibiOS_2.4.0/os/hal/platforms/STM32/spi_ll"
 4041      6962732F 
 4041      43686962 
 4041      694F535F 
 4041      322E342E 
 4042 057c 642E6300 		.ascii	"d.c\000"
 4043              	.LASF84:
 4044 0580 53534347 		.ascii	"SSCGR\000"
 4044      5200
 4045              	.LASF142:
 4046 0586 7370695F 		.ascii	"spi_lld_ignore\000"
 4046      6C6C645F 
 4046      69676E6F 
 4046      726500
 4047              	.LASF82:
 4048 0595 42444352 		.ascii	"BDCR\000"
 4048      00
 4049              	.LASF88:
 4050 059a 52584352 		.ascii	"RXCRCR\000"
 4050      435200
 4051              	.LASF138:
 4052 05a1 7370695F 		.ascii	"spi_lld_start\000"
 4052      6C6C645F 
 4052      73746172 
 4052      7400
 4053              	.LASF3:
 4054 05af 75696E74 		.ascii	"uint8_t\000"
 4054      385F7400 
 4055              	.LASF134:
 4056 05b7 73706970 		.ascii	"spip\000"
 4056      00
 4057              	.LASF135:
 4058 05bc 666C6167 		.ascii	"flags\000"
 4058      7300
 4059              	.LASF53:
 4060 05c2 65776D61 		.ascii	"ewmask\000"
 4060      736B00
 4061              	.LASF52:
ARM GAS  /tmp/ccYQq7hX.s 			page 79


 4062 05c9 77746F62 		.ascii	"wtobjp\000"
 4062      6A7000
 4063              	.LASF136:
 4064 05d0 7370695F 		.ascii	"spi_lld_serve_tx_interrupt\000"
 4064      6C6C645F 
 4064      73657276 
 4064      655F7478 
 4064      5F696E74 
 4065              	.LASF29:
 4066 05eb 705F6E61 		.ascii	"p_name\000"
 4066      6D6500
 4067              	.LASF68:
 4068 05f2 41484231 		.ascii	"AHB1ENR\000"
 4068      454E5200 
 4069              	.LASF159:
 4070 05fa 7370695F 		.ascii	"spi_lld_polled_exchange\000"
 4070      6C6C645F 
 4070      706F6C6C 
 4070      65645F65 
 4070      78636861 
 4071              	.LASF133:
 4072 0612 53504943 		.ascii	"SPIConfig\000"
 4072      6F6E6669 
 4072      6700
 4073              	.LASF36:
 4074 061c 705F6D73 		.ascii	"p_msg\000"
 4074      6700
 4075              	.LASF48:
 4076 0622 6D5F6F77 		.ascii	"m_owner\000"
 4076      6E657200 
 4077              	.LASF26:
 4078 062a 705F6374 		.ascii	"p_ctx\000"
 4078      7800
 4079              	.LASF34:
 4080 0630 705F7761 		.ascii	"p_waiting\000"
 4080      6974696E 
 4080      6700
 4081              		.ident	"GCC: (Sourcery G++ Lite 2011.03-42) 4.5.2"
ARM GAS  /tmp/ccYQq7hX.s 			page 80


DEFINED SYMBOLS
                            *ABS*:00000000 spi_lld.c
     /tmp/ccYQq7hX.s:26     .text.spi_lld_serve_tx_interrupt:00000000 $t
     /tmp/ccYQq7hX.s:31     .text.spi_lld_serve_tx_interrupt:00000000 spi_lld_serve_tx_interrupt
     /tmp/ccYQq7hX.s:52     .text.spi_lld_serve_rx_interrupt:00000000 $t
     /tmp/ccYQq7hX.s:57     .text.spi_lld_serve_rx_interrupt:00000000 spi_lld_serve_rx_interrupt
     /tmp/ccYQq7hX.s:181    .text.spi_lld_init:00000000 $t
     /tmp/ccYQq7hX.s:187    .text.spi_lld_init:00000000 spi_lld_init
     /tmp/ccYQq7hX.s:261    .text.spi_lld_init:0000004c $d
     /tmp/ccYQq7hX.s:273    .text.spi_lld_start:00000000 $t
     /tmp/ccYQq7hX.s:279    .text.spi_lld_start:00000000 spi_lld_start
     /tmp/ccYQq7hX.s:426    .text.spi_lld_start:000000c4 $d
     /tmp/ccYQq7hX.s:436    .text.spi_lld_stop:00000000 $t
     /tmp/ccYQq7hX.s:442    .text.spi_lld_stop:00000000 spi_lld_stop
     /tmp/ccYQq7hX.s:502    .text.spi_lld_stop:00000044 $d
     /tmp/ccYQq7hX.s:509    .text.spi_lld_select:00000000 $t
     /tmp/ccYQq7hX.s:515    .text.spi_lld_select:00000000 spi_lld_select
     /tmp/ccYQq7hX.s:537    .text.spi_lld_unselect:00000000 $t
     /tmp/ccYQq7hX.s:543    .text.spi_lld_unselect:00000000 spi_lld_unselect
     /tmp/ccYQq7hX.s:565    .text.spi_lld_ignore:00000000 $t
     /tmp/ccYQq7hX.s:571    .text.spi_lld_ignore:00000000 spi_lld_ignore
     /tmp/ccYQq7hX.s:624    .text.spi_lld_ignore:0000002c $d
     /tmp/ccYQq7hX.s:630    .text.spi_lld_exchange:00000000 $t
     /tmp/ccYQq7hX.s:636    .text.spi_lld_exchange:00000000 spi_lld_exchange
     /tmp/ccYQq7hX.s:691    .text.spi_lld_send:00000000 $t
     /tmp/ccYQq7hX.s:697    .text.spi_lld_send:00000000 spi_lld_send
     /tmp/ccYQq7hX.s:749    .text.spi_lld_send:0000002c $d
     /tmp/ccYQq7hX.s:754    .text.spi_lld_receive:00000000 $t
     /tmp/ccYQq7hX.s:760    .text.spi_lld_receive:00000000 spi_lld_receive
     /tmp/ccYQq7hX.s:814    .text.spi_lld_receive:0000002c $d
     /tmp/ccYQq7hX.s:819    .text.spi_lld_polled_exchange:00000000 $t
     /tmp/ccYQq7hX.s:825    .text.spi_lld_polled_exchange:00000000 spi_lld_polled_exchange
     /tmp/ccYQq7hX.s:864    .bss.SPID1:00000000 SPID1
     /tmp/ccYQq7hX.s:871    .bss.SPID2:00000000 SPID2
     /tmp/ccYQq7hX.s:853    .bss.dummytx:00000000 $d
     /tmp/ccYQq7hX.s:857    .bss.dummytx:00000000 dummytx
     /tmp/ccYQq7hX.s:860    .bss.SPID1:00000000 $d
     /tmp/ccYQq7hX.s:867    .bss.SPID2:00000000 $d
     /tmp/ccYQq7hX.s:874    .bss.dummyrx:00000000 $d
     /tmp/ccYQq7hX.s:878    .bss.dummyrx:00000000 dummyrx
                     .debug_frame:00000010 $d
     /tmp/ccYQq7hX.s:272    .text.spi_lld_init:0000006c $t
     /tmp/ccYQq7hX.s:435    .text.spi_lld_start:000000d8 $t
     /tmp/ccYQq7hX.s:629    .text.spi_lld_ignore:00000034 $t

UNDEFINED SYMBOLS
port_halt
chSchReadyI
spiObjectInit
_stm32_dma_streams
dmaStreamAllocate
dmaStreamRelease
