ARM GAS  /tmp/ccYQq7hX.s 			page 1


   1              		.syntax unified
   2              		.cpu cortex-m4
   3              		.eabi_attribute 27, 3
   4              		.eabi_attribute 28, 1
   5              		.fpu fpv4-sp-d16
   6              		.eabi_attribute 20, 1
   7              		.eabi_attribute 21, 1
   8              		.eabi_attribute 23, 3
   9              		.eabi_attribute 24, 1
  10              		.eabi_attribute 25, 1
  11              		.eabi_attribute 26, 1
  12              		.eabi_attribute 30, 2
  13              		.eabi_attribute 18, 4
  14              		.thumb
  15              		.file	"spi_lld.c"
  22 0000 B1040000 		.text
  22      0200C102 
  22      00000201 
  22      FB0E0D00 
  22      01010101 
  23              	.Ltext0:
  24              		.cfi_sections	.debug_frame
  25              		.section	.text.spi_lld_serve_tx_interrupt,"ax",%progbits
  26              		.align	2
  27              		.p2align 4,,15
  28              		.thumb
  29              		.thumb_func
  30              		.type	spi_lld_serve_tx_interrupt, %function
  31              	spi_lld_serve_tx_interrupt:
  32              	.LFB118:
  33              		.file 1 "../libs/ChibiOS_2.4.0/os/hal/platforms/STM32/spi_lld.c"
  34              		.loc 1 131 0
  35              		.cfi_startproc
  36              		@ args = 0, pretend = 0, frame = 0
  37              		@ frame_needed = 0, uses_anonymous_args = 0
  38              		@ link register save eliminated.
  39              	.LVL0:
  40              		.loc 1 136 0
  41 0000 11F00C0F 		tst	r1, #12
  42 0004 00D1     		bne	.L4
  43 0006 7047     		bx	lr
  44              	.L4:
  45              		.loc 1 143 0
  46              		.loc 1 137 0
  47 0008 FFF7FEBF 		b	port_halt
  48              		.cfi_endproc
  49              	.LFE118:
  50              		.size	spi_lld_serve_tx_interrupt, .-spi_lld_serve_tx_interrupt
  51 000c AFF30080 		.section	.text.spi_lld_serve_rx_interrupt,"ax",%progbits
  52              		.align	2
  53              		.p2align 4,,15
ARM GAS  /tmp/ccYQq7hX.s 			page 2


  54              		.thumb
  55              		.thumb_func
  56              		.type	spi_lld_serve_rx_interrupt, %function
  57              	spi_lld_serve_rx_interrupt:
  58              	.LFB117:
  59              		.loc 1 105 0
  60              		.cfi_startproc
  61              		@ args = 0, pretend = 0, frame = 0
  62              		@ frame_needed = 0, uses_anonymous_args = 0
  63              	.LVL1:
  64              		.loc 1 109 0
  65 0000 11F00C0F 		tst	r1, #12
  66              		.loc 1 105 0
  67 0004 38B5     		push	{r3, r4, r5, lr}
  68              	.LCFI0:
  69              		.cfi_def_cfa_offset 16
  70              		.loc 1 105 0
  71 0006 0446     		mov	r4, r0
  72              		.cfi_offset 14, -4
  73              		.cfi_offset 5, -8
  74              		.cfi_offset 4, -12
  75              		.cfi_offset 3, -16
  76              		.loc 1 109 0
  77 0008 39D1     		bne	.L14
  78              	.LVL2:
  79              	.L6:
  80              		.loc 1 117 0
  81 000a 606A     		ldr	r0, [r4, #36]
  82 000c 0268     		ldr	r2, [r0, #0]
  83 000e 1168     		ldr	r1, [r2, #0]
  84 0010 21F00103 		bic	r3, r1, #1
  85 0014 1360     		str	r3, [r2, #0]
  86              	.L7:
  87              		.loc 1 117 0 is_stmt 0 discriminator 1
  88 0016 1568     		ldr	r5, [r2, #0]
  89 0018 15F0010F 		tst	r5, #1
  90 001c FBD1     		bne	.L7
  91              		.loc 1 117 0 discriminator 2
  92 001e 057A     		ldrb	r5, [r0, #8]	@ zero_extendqisi2
  93              		.loc 1 118 0 is_stmt 1 discriminator 2
  94 0020 216A     		ldr	r1, [r4, #32]
  95              		.loc 1 117 0 discriminator 2
  96 0022 4368     		ldr	r3, [r0, #4]
  97              		.loc 1 118 0 discriminator 2
  98 0024 0A68     		ldr	r2, [r1, #0]
  99              		.loc 1 117 0 discriminator 2
 100 0026 3D20     		movs	r0, #61
 101 0028 A840     		lsls	r0, r0, r5
 102 002a 1860     		str	r0, [r3, #0]
 103              		.loc 1 118 0 discriminator 2
 104 002c 1368     		ldr	r3, [r2, #0]
 105 002e 23F00100 		bic	r0, r3, #1
 106 0032 1060     		str	r0, [r2, #0]
 107              	.L8:
 108              		.loc 1 118 0 is_stmt 0 discriminator 1
 109 0034 1368     		ldr	r3, [r2, #0]
 110 0036 13F0010F 		tst	r3, #1
ARM GAS  /tmp/ccYQq7hX.s 			page 3


 111 003a FBD1     		bne	.L8
 112              		.loc 1 122 0 is_stmt 1 discriminator 2
 113 003c 6368     		ldr	r3, [r4, #4]
 114              		.loc 1 118 0 discriminator 2
 115 003e 087A     		ldrb	r0, [r1, #8]	@ zero_extendqisi2
 116 0040 4A68     		ldr	r2, [r1, #4]
 117              		.loc 1 122 0 discriminator 2
 118 0042 1B68     		ldr	r3, [r3, #0]
 119              		.loc 1 118 0 discriminator 2
 120 0044 3D21     		movs	r1, #61
 121 0046 8140     		lsls	r1, r1, r0
 122 0048 1160     		str	r1, [r2, #0]
 123              		.loc 1 122 0 discriminator 2
 124 004a ABB1     		cbz	r3, .L9
 125              		.loc 1 122 0 is_stmt 0 discriminator 1
 126 004c 0422     		movs	r2, #4
 127 004e 2270     		strb	r2, [r4, #0]
 128 0050 2046     		mov	r0, r4
 129 0052 9847     		blx	r3
 130 0054 94F800C0 		ldrb	ip, [r4, #0]	@ zero_extendqisi2
 131 0058 BCF1040F 		cmp	ip, #4
 132 005c 0CD0     		beq	.L9
 133              	.L10:
 134              		.loc 1 122 0 discriminator 4
 135 005e A068     		ldr	r0, [r4, #8]
 136 0060 48B1     		cbz	r0, .L5
 137              	.LVL3:
 138              	.LBB2:
 139              		.loc 1 122 0 discriminator 5
 140 0062 0025     		movs	r5, #0
 141 0064 A560     		str	r5, [r4, #8]
 142              	.LBB3:
 143 0066 2023     		movs	r3, #32
 144              	.LVL4:
 145              	@ 122 "../libs/ChibiOS_2.4.0/os/hal/platforms/STM32/spi_lld.c" 1
 146 0068 83F31188 		msr     BASEPRI, r3
 147              	@ 0 "" 2
 148              	.LVL5:
 149              		.thumb
 150              	.LBE3:
 151 006c FFF7FEFF 		bl	chSchReadyI
 152              	.LVL6:
 153              	.LBB4:
 154 0070 2B46     		mov	r3, r5
 155              	.LVL7:
 156              	@ 122 "../libs/ChibiOS_2.4.0/os/hal/platforms/STM32/spi_lld.c" 1
 157 0072 83F31188 		msr     BASEPRI, r3
 158              	@ 0 "" 2
 159              	.LVL8:
 160              		.thumb
 161              	.L5:
 162 0076 38BD     		pop	{r3, r4, r5, pc}
 163              	.LVL9:
 164              	.L9:
 165              	.LBE4:
 166              	.LBE2:
 167              		.loc 1 122 0 discriminator 2
ARM GAS  /tmp/ccYQq7hX.s 			page 4


 168 0078 0221     		movs	r1, #2
 169 007a 2170     		strb	r1, [r4, #0]
 170 007c EFE7     		b	.L10
 171              	.LVL10:
 172              	.L14:
 173              		.loc 1 110 0 is_stmt 1
 174 007e FFF7FEFF 		bl	port_halt
 175              	.LVL11:
 176 0082 C2E7     		b	.L6
 177              		.cfi_endproc
 178              	.LFE117:
 179              		.size	spi_lld_serve_rx_interrupt, .-spi_lld_serve_rx_interrupt
 180 0084 AFF30080 		.section	.text.spi_lld_init,"ax",%progbits
 180      AFF30080 
 180      AFF30080 
 181              		.align	2
 182              		.p2align 4,,15
 183              		.global	spi_lld_init
 184              		.thumb
 185              		.thumb_func
 186              		.type	spi_lld_init, %function
 187              	spi_lld_init:
 188              	.LFB119:
 189              		.loc 1 158 0
 190              		.cfi_startproc
 191              		@ args = 0, pretend = 0, frame = 0
 192              		@ frame_needed = 0, uses_anonymous_args = 0
 193 0000 70B5     		push	{r4, r5, r6, lr}
 194              	.LCFI1:
 195              		.cfi_def_cfa_offset 16
 196              		.loc 1 160 0
 197 0002 1249     		ldr	r1, .L16
 198              		.loc 1 163 0
 199 0004 124D     		ldr	r5, .L16+4
 200              		.cfi_offset 14, -4
 201              		.cfi_offset 6, -8
 202              		.cfi_offset 5, -12
 203              		.cfi_offset 4, -16
 204              		.loc 1 181 0
 205 0006 134C     		ldr	r4, .L16+8
 206              		.loc 1 165 0
 207 0008 134E     		ldr	r6, .L16+12
 208              		.loc 1 160 0
 209 000a 4FF0FF3C 		mov	ip, #-1	@ movhi
 210 000e A1F800C0 		strh	ip, [r1, #0]	@ movhi
 211              		.loc 1 163 0
 212 0012 2846     		mov	r0, r5
 213 0014 FFF7FEFF 		bl	spiObjectInit
 214              		.loc 1 164 0
 215 0018 1048     		ldr	r0, .L16+16
 216              		.loc 1 167 0
 217 001a 114A     		ldr	r2, .L16+20
 218              		.loc 1 164 0
 219 001c E861     		str	r0, [r5, #28]
 220              		.loc 1 166 0
 221 001e 06F12403 		add	r3, r6, #36
 222              		.loc 1 181 0
ARM GAS  /tmp/ccYQq7hX.s 			page 5


 223 0022 2046     		mov	r0, r4
 224              		.loc 1 167 0
 225 0024 AA62     		str	r2, [r5, #40]
 226              		.loc 1 173 0
 227 0026 3032     		adds	r2, r2, #48
 228              		.loc 1 165 0
 229 0028 2E62     		str	r6, [r5, #32]
 230              		.loc 1 166 0
 231 002a 6B62     		str	r3, [r5, #36]
 232              		.loc 1 173 0
 233 002c EA62     		str	r2, [r5, #44]
 234              		.loc 1 181 0
 235 002e FFF7FEFF 		bl	spiObjectInit
 236              		.loc 1 185 0
 237 0032 0C4B     		ldr	r3, .L16+24
 238              		.loc 1 182 0
 239 0034 0C49     		ldr	r1, .L16+28
 240              		.loc 1 185 0
 241 0036 A362     		str	r3, [r4, #40]
 242              		.loc 1 183 0
 243 0038 A6F13C00 		sub	r0, r6, #60
 244              		.loc 1 191 0
 245 003c 3033     		adds	r3, r3, #48
 246              		.loc 1 184 0
 247 003e 303E     		subs	r6, r6, #48
 248              		.loc 1 182 0
 249 0040 E161     		str	r1, [r4, #28]
 250              		.loc 1 183 0
 251 0042 2062     		str	r0, [r4, #32]
 252              		.loc 1 184 0
 253 0044 6662     		str	r6, [r4, #36]
 254              		.loc 1 191 0
 255 0046 E362     		str	r3, [r4, #44]
 256              		.loc 1 215 0
 257 0048 70BD     		pop	{r4, r5, r6, pc}
 258              	.L17:
 259 004a 00BF     		.align	2
 260              	.L16:
 261 004c 00000000 		.word	.LANCHOR0
 262 0050 00000000 		.word	.LANCHOR1
 263 0054 00000000 		.word	.LANCHOR2
 264 0058 60000000 		.word	_stm32_dma_streams+96
 265 005c 00300140 		.word	1073819648
 266 0060 16000106 		.word	100728854
 267 0064 16000100 		.word	65558
 268 0068 00380040 		.word	1073756160
 269              		.cfi_endproc
 270              	.LFE119:
 271              		.size	spi_lld_init, .-spi_lld_init
 272 006c AFF30080 		.section	.text.spi_lld_start,"ax",%progbits
 273              		.align	2
 274              		.p2align 4,,15
 275              		.global	spi_lld_start
 276              		.thumb
 277              		.thumb_func
 278              		.type	spi_lld_start, %function
 279              	spi_lld_start:
ARM GAS  /tmp/ccYQq7hX.s 			page 6


 280              	.LFB120:
 281              		.loc 1 224 0
 282              		.cfi_startproc
 283              		@ args = 0, pretend = 0, frame = 0
 284              		@ frame_needed = 0, uses_anonymous_args = 0
 285              	.LVL12:
 286              		.loc 1 227 0
 287 0000 0378     		ldrb	r3, [r0, #0]	@ zero_extendqisi2
 288 0002 012B     		cmp	r3, #1
 289              		.loc 1 224 0
 290 0004 10B5     		push	{r4, lr}
 291              	.LCFI2:
 292              		.cfi_def_cfa_offset 8
 293              		.loc 1 224 0
 294 0006 0446     		mov	r4, r0
 295              		.cfi_offset 14, -4
 296              		.cfi_offset 4, -8
 297              		.loc 1 227 0
 298 0008 28D0     		beq	.L25
 299 000a C369     		ldr	r3, [r0, #28]
 300              	.LVL13:
 301              	.L19:
 302              		.loc 1 283 0
 303 000c 6068     		ldr	r0, [r4, #4]
 304 000e 4289     		ldrh	r2, [r0, #10]
 305 0010 12F4006F 		tst	r2, #2048
 306 0014 19D0     		beq	.L26
 307              		.loc 1 292 0
 308 0016 E16A     		ldr	r1, [r4, #44]
 309              		.loc 1 290 0
 310 0018 A06A     		ldr	r0, [r4, #40]
 311              		.loc 1 292 0
 312 001a 21F4D04C 		bic	ip, r1, #26624
 313              		.loc 1 290 0
 314 001e 20F4D040 		bic	r0, r0, #26624
 315              		.loc 1 291 0
 316 0022 40F42050 		orr	r0, r0, #10240
 317              		.loc 1 293 0
 318 0026 4CF42051 		orr	r1, ip, #10240
 319              		.loc 1 290 0
 320 002a A062     		str	r0, [r4, #40]
 321              		.loc 1 292 0
 322 002c E162     		str	r1, [r4, #44]
 323              	.L23:
 324              		.loc 1 297 0
 325 002e 42F44172 		orr	r2, r2, #772
 326              		.loc 1 296 0
 327 0032 0021     		movs	r1, #0
 328              		.loc 1 299 0
 329 0034 0720     		movs	r0, #7
 330              		.loc 1 296 0
 331 0036 1980     		strh	r1, [r3, #0]	@ movhi
 332              		.loc 1 297 0
 333 0038 1A80     		strh	r2, [r3, #0]	@ movhi
 334              		.loc 1 299 0
 335 003a 9880     		strh	r0, [r3, #4]	@ movhi
 336              		.loc 1 300 0
ARM GAS  /tmp/ccYQq7hX.s 			page 7


 337 003c 1988     		ldrh	r1, [r3, #0]
 338 003e 1FFA81FC 		uxth	ip, r1
 339 0042 4CF04002 		orr	r2, ip, #64
 340 0046 1A80     		strh	r2, [r3, #0]	@ movhi
 341              		.loc 1 301 0
 342 0048 10BD     		pop	{r4, pc}
 343              	.L26:
 344              		.loc 1 285 0
 345 004a A06A     		ldr	r0, [r4, #40]
 346              		.loc 1 287 0
 347 004c E16A     		ldr	r1, [r4, #44]
 348              		.loc 1 285 0
 349 004e 20F4C040 		bic	r0, r0, #24576
 350              		.loc 1 287 0
 351 0052 21F4C041 		bic	r1, r1, #24576
 352              		.loc 1 284 0
 353 0056 A062     		str	r0, [r4, #40]
 354              		.loc 1 286 0
 355 0058 E162     		str	r1, [r4, #44]
 356 005a E8E7     		b	.L23
 357              	.L25:
 358              		.loc 1 229 0
 359 005c 1949     		ldr	r1, .L29
 360 005e 8842     		cmp	r0, r1
 361 0060 0CD0     		beq	.L27
 362              		.loc 1 245 0
 363 0062 1949     		ldr	r1, .L29+4
 364 0064 8842     		cmp	r0, r1
 365 0066 1BD0     		beq	.L28
 366              	.L21:
 367              		.loc 1 278 0
 368 0068 216A     		ldr	r1, [r4, #32]
 369              		.loc 1 279 0
 370 006a 626A     		ldr	r2, [r4, #36]
 371              		.loc 1 278 0
 372 006c E369     		ldr	r3, [r4, #28]
 373 006e 0868     		ldr	r0, [r1, #0]
 374              		.loc 1 279 0
 375 0070 1168     		ldr	r1, [r2, #0]
 376              		.loc 1 278 0
 377 0072 03F10C02 		add	r2, r3, #12
 378 0076 8260     		str	r2, [r0, #8]
 379              		.loc 1 279 0
 380 0078 8A60     		str	r2, [r1, #8]
 381 007a C7E7     		b	.L19
 382              	.L27:
 383              	.LBB5:
 384              		.loc 1 231 0
 385 007c 0A21     		movs	r1, #10
 386 007e 134A     		ldr	r2, .L29+8
 387 0080 006A     		ldr	r0, [r0, #32]
 388 0082 2346     		mov	r3, r4
 389 0084 FFF7FEFF 		bl	dmaStreamAllocate
 390              		.loc 1 236 0
 391 0088 114A     		ldr	r2, .L29+12
 392 008a 606A     		ldr	r0, [r4, #36]
 393 008c 2346     		mov	r3, r4
ARM GAS  /tmp/ccYQq7hX.s 			page 8


 394 008e 0A21     		movs	r1, #10
 395 0090 FFF7FEFF 		bl	dmaStreamAllocate
 396              		.loc 1 241 0
 397 0094 0F48     		ldr	r0, .L29+16
 398 0096 436C     		ldr	r3, [r0, #68]
 399 0098 43F48052 		orr	r2, r3, #4096
 400 009c 4264     		str	r2, [r0, #68]
 401 009e E3E7     		b	.L21
 402              	.L28:
 403              	.LBE5:
 404              	.LBB6:
 405              		.loc 1 247 0
 406 00a0 0A21     		movs	r1, #10
 407 00a2 0A4A     		ldr	r2, .L29+8
 408 00a4 006A     		ldr	r0, [r0, #32]
 409 00a6 2346     		mov	r3, r4
 410 00a8 FFF7FEFF 		bl	dmaStreamAllocate
 411              		.loc 1 252 0
 412 00ac 084A     		ldr	r2, .L29+12
 413 00ae 606A     		ldr	r0, [r4, #36]
 414 00b0 2346     		mov	r3, r4
 415 00b2 0A21     		movs	r1, #10
 416 00b4 FFF7FEFF 		bl	dmaStreamAllocate
 417              		.loc 1 257 0
 418 00b8 0648     		ldr	r0, .L29+16
 419 00ba 036C     		ldr	r3, [r0, #64]
 420 00bc 43F48042 		orr	r2, r3, #16384
 421 00c0 0264     		str	r2, [r0, #64]
 422 00c2 D1E7     		b	.L21
 423              	.L30:
 424              		.align	2
 425              	.L29:
 426 00c4 00000000 		.word	.LANCHOR1
 427 00c8 00000000 		.word	.LANCHOR2
 428 00cc 00000000 		.word	spi_lld_serve_rx_interrupt
 429 00d0 00000000 		.word	spi_lld_serve_tx_interrupt
 430 00d4 00380240 		.word	1073887232
 431              	.LBE6:
 432              		.cfi_endproc
 433              	.LFE120:
 434              		.size	spi_lld_start, .-spi_lld_start
 435 00d8 AFF30080 		.section	.text.spi_lld_stop,"ax",%progbits
 435      AFF30080 
 436              		.align	2
 437              		.p2align 4,,15
 438              		.global	spi_lld_stop
 439              		.thumb
 440              		.thumb_func
 441              		.type	spi_lld_stop, %function
 442              	spi_lld_stop:
 443              	.LFB121:
 444              		.loc 1 310 0
 445              		.cfi_startproc
 446              		@ args = 0, pretend = 0, frame = 0
 447              		@ frame_needed = 0, uses_anonymous_args = 0
 448              	.LVL14:
 449              		.loc 1 313 0
ARM GAS  /tmp/ccYQq7hX.s 			page 9


 450 0000 0378     		ldrb	r3, [r0, #0]	@ zero_extendqisi2
 451 0002 022B     		cmp	r3, #2
 452              		.loc 1 310 0
 453 0004 10B5     		push	{r4, lr}
 454              	.LCFI3:
 455              		.cfi_def_cfa_offset 8
 456              		.loc 1 310 0
 457 0006 0446     		mov	r4, r0
 458              		.cfi_offset 14, -4
 459              		.cfi_offset 4, -8
 460              		.loc 1 313 0
 461 0008 00D0     		beq	.L34
 462              	.LVL15:
 463              	.L31:
 464 000a 10BD     		pop	{r4, pc}
 465              	.L34:
 466              		.loc 1 316 0
 467 000c C169     		ldr	r1, [r0, #28]
 468              		.loc 1 317 0
 469 000e 006A     		ldr	r0, [r0, #32]
 470              		.loc 1 316 0
 471 0010 0022     		movs	r2, #0
 472 0012 0A80     		strh	r2, [r1, #0]	@ movhi
 473              		.loc 1 317 0
 474 0014 FFF7FEFF 		bl	dmaStreamRelease
 475              		.loc 1 318 0
 476 0018 606A     		ldr	r0, [r4, #36]
 477 001a FFF7FEFF 		bl	dmaStreamRelease
 478              		.loc 1 321 0
 479 001e 0948     		ldr	r0, .L36
 480 0020 8442     		cmp	r4, r0
 481 0022 08D0     		beq	.L35
 482              		.loc 1 325 0
 483 0024 0849     		ldr	r1, .L36+4
 484 0026 8C42     		cmp	r4, r1
 485 0028 EFD1     		bne	.L31
 486              		.loc 1 326 0
 487 002a 084B     		ldr	r3, .L36+8
 488 002c 1A6C     		ldr	r2, [r3, #64]
 489 002e 22F48040 		bic	r0, r2, #16384
 490 0032 1864     		str	r0, [r3, #64]
 491 0034 E9E7     		b	.L31
 492              	.L35:
 493              		.loc 1 322 0
 494 0036 054B     		ldr	r3, .L36+8
 495 0038 5A6C     		ldr	r2, [r3, #68]
 496 003a 22F48050 		bic	r0, r2, #4096
 497 003e 5864     		str	r0, [r3, #68]
 498 0040 10BD     		pop	{r4, pc}
 499              	.L37:
 500 0042 00BF     		.align	2
 501              	.L36:
 502 0044 00000000 		.word	.LANCHOR1
 503 0048 00000000 		.word	.LANCHOR2
 504 004c 00380240 		.word	1073887232
 505              		.cfi_endproc
 506              	.LFE121:
ARM GAS  /tmp/ccYQq7hX.s 			page 10


 507              		.size	spi_lld_stop, .-spi_lld_stop
 508              		.section	.text.spi_lld_select,"ax",%progbits
 509              		.align	2
 510              		.p2align 4,,15
 511              		.global	spi_lld_select
 512              		.thumb
 513              		.thumb_func
 514              		.type	spi_lld_select, %function
 515              	spi_lld_select:
 516              	.LFB122:
 517              		.loc 1 342 0
 518              		.cfi_startproc
 519              		@ args = 0, pretend = 0, frame = 0
 520              		@ frame_needed = 0, uses_anonymous_args = 0
 521              		@ link register save eliminated.
 522              	.LVL16:
 523              		.loc 1 344 0
 524 0000 4268     		ldr	r2, [r0, #4]
 525 0002 1089     		ldrh	r0, [r2, #8]
 526              	.LVL17:
 527 0004 5368     		ldr	r3, [r2, #4]
 528 0006 0121     		movs	r1, #1
 529 0008 11FA00F2 		lsls	r2, r1, r0
 530 000c 5A83     		strh	r2, [r3, #26]	@ movhi
 531              		.loc 1 345 0
 532 000e 7047     		bx	lr
 533              		.cfi_endproc
 534              	.LFE122:
 535              		.size	spi_lld_select, .-spi_lld_select
 536              		.section	.text.spi_lld_unselect,"ax",%progbits
 537              		.align	2
 538              		.p2align 4,,15
 539              		.global	spi_lld_unselect
 540              		.thumb
 541              		.thumb_func
 542              		.type	spi_lld_unselect, %function
 543              	spi_lld_unselect:
 544              	.LFB123:
 545              		.loc 1 355 0
 546              		.cfi_startproc
 547              		@ args = 0, pretend = 0, frame = 0
 548              		@ frame_needed = 0, uses_anonymous_args = 0
 549              		@ link register save eliminated.
 550              	.LVL18:
 551              		.loc 1 357 0
 552 0000 4268     		ldr	r2, [r0, #4]
 553 0002 1089     		ldrh	r0, [r2, #8]
 554              	.LVL19:
 555 0004 5368     		ldr	r3, [r2, #4]
 556 0006 0121     		movs	r1, #1
 557 0008 11FA00F2 		lsls	r2, r1, r0
 558 000c 1A83     		strh	r2, [r3, #24]	@ movhi
 559              		.loc 1 358 0
 560 000e 7047     		bx	lr
 561              		.cfi_endproc
 562              	.LFE123:
 563              		.size	spi_lld_unselect, .-spi_lld_unselect
ARM GAS  /tmp/ccYQq7hX.s 			page 11


 564              		.section	.text.spi_lld_ignore,"ax",%progbits
 565              		.align	2
 566              		.p2align 4,,15
 567              		.global	spi_lld_ignore
 568              		.thumb
 569              		.thumb_func
 570              		.type	spi_lld_ignore, %function
 571              	spi_lld_ignore:
 572              	.LFB124:
 573              		.loc 1 371 0
 574              		.cfi_startproc
 575              		@ args = 0, pretend = 0, frame = 0
 576              		@ frame_needed = 0, uses_anonymous_args = 0
 577              		@ link register save eliminated.
 578              	.LVL20:
 579              		.loc 1 373 0
 580 0000 036A     		ldr	r3, [r0, #32]
 581              		.loc 1 371 0
 582 0002 30B4     		push	{r4, r5}
 583              	.LCFI4:
 584              		.cfi_def_cfa_offset 8
 585              		.loc 1 377 0
 586 0004 456A     		ldr	r5, [r0, #36]
 587              		.cfi_offset 5, -4
 588              		.cfi_offset 4, -8
 589              		.loc 1 375 0
 590 0006 846A     		ldr	r4, [r0, #40]
 591              		.loc 1 373 0
 592 0008 1A68     		ldr	r2, [r3, #0]
 593              		.loc 1 377 0
 594 000a 2B68     		ldr	r3, [r5, #0]
 595              		.loc 1 373 0
 596 000c 074D     		ldr	r5, .L41
 597              		.loc 1 379 0
 598 000e C06A     		ldr	r0, [r0, #44]
 599              	.LVL21:
 600              		.loc 1 373 0
 601 0010 D560     		str	r5, [r2, #12]
 602              		.loc 1 375 0
 603 0012 44F00104 		orr	r4, r4, #1
 604              		.loc 1 374 0
 605 0016 5160     		str	r1, [r2, #4]
 606              		.loc 1 375 0
 607 0018 1460     		str	r4, [r2, #0]
 608              		.loc 1 377 0
 609 001a 054A     		ldr	r2, .L41+4
 610              		.loc 1 379 0
 611 001c 40F00100 		orr	r0, r0, #1
 612              		.loc 1 377 0
 613 0020 DA60     		str	r2, [r3, #12]
 614              		.loc 1 378 0
 615 0022 5960     		str	r1, [r3, #4]
 616              		.loc 1 379 0
 617 0024 1860     		str	r0, [r3, #0]
 618              		.loc 1 380 0
 619 0026 30BC     		pop	{r4, r5}
 620 0028 7047     		bx	lr
ARM GAS  /tmp/ccYQq7hX.s 			page 12


 621              	.L42:
 622 002a 00BF     		.align	2
 623              	.L41:
 624 002c 00000000 		.word	.LANCHOR3
 625 0030 00000000 		.word	.LANCHOR0
 626              		.cfi_endproc
 627              	.LFE124:
 628              		.size	spi_lld_ignore, .-spi_lld_ignore
 629 0034 AFF30080 		.section	.text.spi_lld_exchange,"ax",%progbits
 629      AFF30080 
 629      AFF30080 
 630              		.align	2
 631              		.p2align 4,,15
 632              		.global	spi_lld_exchange
 633              		.thumb
 634              		.thumb_func
 635              		.type	spi_lld_exchange, %function
 636              	spi_lld_exchange:
 637              	.LFB125:
 638              		.loc 1 398 0
 639              		.cfi_startproc
 640              		@ args = 0, pretend = 0, frame = 0
 641              		@ frame_needed = 0, uses_anonymous_args = 0
 642              		@ link register save eliminated.
 643              	.LVL22:
 644 0000 F0B4     		push	{r4, r5, r6, r7}
 645              	.LCFI5:
 646              		.cfi_def_cfa_offset 16
 647              		.loc 1 400 0
 648 0002 056A     		ldr	r5, [r0, #32]
 649              		.cfi_offset 7, -4
 650              		.cfi_offset 6, -8
 651              		.cfi_offset 5, -12
 652              		.cfi_offset 4, -16
 653              		.loc 1 402 0
 654 0004 866A     		ldr	r6, [r0, #40]
 655              		.loc 1 406 0
 656 0006 C46A     		ldr	r4, [r0, #44]
 657              		.loc 1 404 0
 658 0008 476A     		ldr	r7, [r0, #36]
 659              		.loc 1 400 0
 660 000a 2D68     		ldr	r5, [r5, #0]
 661              		.loc 1 404 0
 662 000c 3868     		ldr	r0, [r7, #0]
 663              	.LVL23:
 664              		.loc 1 400 0
 665 000e EB60     		str	r3, [r5, #12]
 666              		.loc 1 402 0
 667 0010 46F48066 		orr	r6, r6, #1024
 668              		.loc 1 406 0
 669 0014 44F48064 		orr	r4, r4, #1024
 670              		.loc 1 402 0
 671 0018 46F00106 		orr	r6, r6, #1
 672              		.loc 1 406 0
 673 001c 44F00104 		orr	r4, r4, #1
 674              		.loc 1 401 0
 675 0020 6960     		str	r1, [r5, #4]
ARM GAS  /tmp/ccYQq7hX.s 			page 13


 676              		.loc 1 402 0
 677 0022 2E60     		str	r6, [r5, #0]
 678              		.loc 1 404 0
 679 0024 C260     		str	r2, [r0, #12]
 680              		.loc 1 405 0
 681 0026 4160     		str	r1, [r0, #4]
 682              		.loc 1 406 0
 683 0028 0460     		str	r4, [r0, #0]
 684              		.loc 1 408 0
 685 002a F0BC     		pop	{r4, r5, r6, r7}
 686 002c 7047     		bx	lr
 687              		.cfi_endproc
 688              	.LFE125:
 689              		.size	spi_lld_exchange, .-spi_lld_exchange
 690 002e 00BF     		.section	.text.spi_lld_send,"ax",%progbits
 691              		.align	2
 692              		.p2align 4,,15
 693              		.global	spi_lld_send
 694              		.thumb
 695              		.thumb_func
 696              		.type	spi_lld_send, %function
 697              	spi_lld_send:
 698              	.LFB126:
 699              		.loc 1 423 0
 700              		.cfi_startproc
 701              		@ args = 0, pretend = 0, frame = 0
 702              		@ frame_needed = 0, uses_anonymous_args = 0
 703              		@ link register save eliminated.
 704              	.LVL24:
 705 0000 70B4     		push	{r4, r5, r6}
 706              	.LCFI6:
 707              		.cfi_def_cfa_offset 12
 708              		.loc 1 425 0
 709 0002 046A     		ldr	r4, [r0, #32]
 710              		.cfi_offset 6, -4
 711              		.cfi_offset 5, -8
 712              		.cfi_offset 4, -12
 713              		.loc 1 429 0
 714 0004 436A     		ldr	r3, [r0, #36]
 715              		.loc 1 431 0
 716 0006 C66A     		ldr	r6, [r0, #44]
 717              		.loc 1 427 0
 718 0008 856A     		ldr	r5, [r0, #40]
 719              		.loc 1 425 0
 720 000a 2468     		ldr	r4, [r4, #0]
 721 000c 0748     		ldr	r0, .L45
 722              	.LVL25:
 723              		.loc 1 429 0
 724 000e 1B68     		ldr	r3, [r3, #0]
 725              		.loc 1 425 0
 726 0010 E060     		str	r0, [r4, #12]
 727              		.loc 1 431 0
 728 0012 46F4806C 		orr	ip, r6, #1024
 729              		.loc 1 427 0
 730 0016 45F00105 		orr	r5, r5, #1
 731              		.loc 1 431 0
 732 001a 4CF00100 		orr	r0, ip, #1
ARM GAS  /tmp/ccYQq7hX.s 			page 14


 733              		.loc 1 426 0
 734 001e 6160     		str	r1, [r4, #4]
 735              		.loc 1 427 0
 736 0020 2560     		str	r5, [r4, #0]
 737              		.loc 1 429 0
 738 0022 DA60     		str	r2, [r3, #12]
 739              		.loc 1 430 0
 740 0024 5960     		str	r1, [r3, #4]
 741              		.loc 1 431 0
 742 0026 1860     		str	r0, [r3, #0]
 743              		.loc 1 433 0
 744 0028 70BC     		pop	{r4, r5, r6}
 745 002a 7047     		bx	lr
 746              	.L46:
 747              		.align	2
 748              	.L45:
 749 002c 00000000 		.word	.LANCHOR3
 750              		.cfi_endproc
 751              	.LFE126:
 752              		.size	spi_lld_send, .-spi_lld_send
 753              		.section	.text.spi_lld_receive,"ax",%progbits
 754              		.align	2
 755              		.p2align 4,,15
 756              		.global	spi_lld_receive
 757              		.thumb
 758              		.thumb_func
 759              		.type	spi_lld_receive, %function
 760              	spi_lld_receive:
 761              	.LFB127:
 762              		.loc 1 448 0
 763              		.cfi_startproc
 764              		@ args = 0, pretend = 0, frame = 0
 765              		@ frame_needed = 0, uses_anonymous_args = 0
 766              		@ link register save eliminated.
 767              	.LVL26:
 768 0000 70B4     		push	{r4, r5, r6}
 769              	.LCFI7:
 770              		.cfi_def_cfa_offset 12
 771              		.loc 1 450 0
 772 0002 066A     		ldr	r6, [r0, #32]
 773              		.cfi_offset 6, -4
 774              		.cfi_offset 5, -8
 775              		.cfi_offset 4, -12
 776              		.loc 1 452 0
 777 0004 846A     		ldr	r4, [r0, #40]
 778              		.loc 1 454 0
 779 0006 436A     		ldr	r3, [r0, #36]
 780              		.loc 1 456 0
 781 0008 C56A     		ldr	r5, [r0, #44]
 782              		.loc 1 450 0
 783 000a 3068     		ldr	r0, [r6, #0]
 784              	.LVL27:
 785              		.loc 1 454 0
 786 000c 1B68     		ldr	r3, [r3, #0]
 787              		.loc 1 450 0
 788 000e C260     		str	r2, [r0, #12]
 789              		.loc 1 452 0
ARM GAS  /tmp/ccYQq7hX.s 			page 15


 790 0010 44F48064 		orr	r4, r4, #1024
 791              		.loc 1 454 0
 792 0014 054A     		ldr	r2, .L48
 793              	.LVL28:
 794              		.loc 1 451 0
 795 0016 4160     		str	r1, [r0, #4]
 796              		.loc 1 452 0
 797 0018 44F00104 		orr	r4, r4, #1
 798              		.loc 1 456 0
 799 001c 45F00105 		orr	r5, r5, #1
 800              		.loc 1 452 0
 801 0020 0460     		str	r4, [r0, #0]
 802              		.loc 1 454 0
 803 0022 DA60     		str	r2, [r3, #12]
 804              		.loc 1 455 0
 805 0024 5960     		str	r1, [r3, #4]
 806              		.loc 1 456 0
 807 0026 1D60     		str	r5, [r3, #0]
 808              		.loc 1 457 0
 809 0028 70BC     		pop	{r4, r5, r6}
 810 002a 7047     		bx	lr
 811              	.L49:
 812              		.align	2
 813              	.L48:
 814 002c 00000000 		.word	.LANCHOR0
 815              		.cfi_endproc
 816              	.LFE127:
 817              		.size	spi_lld_receive, .-spi_lld_receive
 818              		.section	.text.spi_lld_polled_exchange,"ax",%progbits
 819              		.align	2
 820              		.p2align 4,,15
 821              		.global	spi_lld_polled_exchange
 822              		.thumb
 823              		.thumb_func
 824              		.type	spi_lld_polled_exchange, %function
 825              	spi_lld_polled_exchange:
 826              	.LFB128:
 827              		.loc 1 471 0
 828              		.cfi_startproc
 829              		@ args = 0, pretend = 0, frame = 0
 830              		@ frame_needed = 0, uses_anonymous_args = 0
 831              		@ link register save eliminated.
 832              	.LVL29:
 833              		.loc 1 473 0
 834 0000 C369     		ldr	r3, [r0, #28]
 835 0002 9981     		strh	r1, [r3, #12]	@ movhi
 836              	.L51:
 837              		.loc 1 474 0 discriminator 1
 838 0004 1A89     		ldrh	r2, [r3, #8]
 839 0006 12F0010F 		tst	r2, #1
 840 000a FBD0     		beq	.L51
 841              		.loc 1 476 0
 842 000c 9889     		ldrh	r0, [r3, #12]
 843              	.LVL30:
 844              		.loc 1 477 0
 845 000e 80B2     		uxth	r0, r0
 846 0010 7047     		bx	lr
ARM GAS  /tmp/ccYQq7hX.s 			page 16


 847              		.cfi_endproc
 848              	.LFE128:
 849              		.size	spi_lld_polled_exchange, .-spi_lld_polled_exchange
 850              		.global	SPID1
 851              		.global	SPID2
 852 0012 00BFAFF3 		.section	.bss.dummytx,"aw",%nobits
 852      0080AFF3 
 852      0080AFF3 
 852      0080
 853              		.align	1
 854              		.set	.LANCHOR0,. + 0
 855              		.type	dummytx, %object
 856              		.size	dummytx, 2
 857              	dummytx:
 858 0000 0000     		.space	2
 859              		.section	.bss.SPID1,"aw",%nobits
 860              		.align	2
 861              		.set	.LANCHOR1,. + 0
 862              		.type	SPID1, %object
 863              		.size	SPID1, 48
 864              	SPID1:
 865 0000 00000000 		.space	48
 865      00000000 
 865      00000000 
 865      00000000 
 865      00000000 
 866              		.section	.bss.SPID2,"aw",%nobits
 867              		.align	2
 868              		.set	.LANCHOR2,. + 0
 869              		.type	SPID2, %object
 870              		.size	SPID2, 48
 871              	SPID2:
 872 0000 00000000 		.space	48
 872      00000000 
 872      00000000 
 872      00000000 
 872      00000000 
 873              		.section	.bss.dummyrx,"aw",%nobits
 874              		.align	1
 875              		.set	.LANCHOR3,. + 0
 876              		.type	dummyrx, %object
 877              		.size	dummyrx, 2
 878              	dummyrx:
 879 0000 0000     		.space	2
 880              		.text
 881              	.Letext0: