ARM GAS  /tmp/ccgU6v6L.s 			page 1


   1              		.syntax unified
   2              		.cpu cortex-m4
   3              		.eabi_attribute 27, 3
   4              		.eabi_attribute 28, 1
   5              		.fpu fpv4-sp-d16
   6              		.eabi_attribute 20, 1
   7              		.eabi_attribute 21, 1
   8              		.eabi_attribute 23, 3
   9              		.eabi_attribute 24, 1
  10              		.eabi_attribute 25, 1
  11              		.eabi_attribute 26, 1
  12              		.eabi_attribute 30, 2
  13              		.eabi_attribute 18, 4
  14              		.thumb
  15              		.file	"testdyn.c"
  22 0000 22030000 		.text
  22      0200DC01 
  22      00000201 
  22      FB0E0D00 
  22      01010101 
  23              	.Ltext0:
  24              		.cfi_sections	.debug_frame
  25              		.section	.text.regfind,"ax",%progbits
  26              		.align	2
  27              		.p2align 4,,15
  28              		.thumb
  29              		.thumb_func
  30              		.type	regfind, %function
  31              	regfind:
  32              	.LFB12:
  33              		.file 1 "../libs/ChibiOS_2.4.0/test/testdyn.c"
  34              		.loc 1 202 0
  35              		.cfi_startproc
  36              		@ args = 0, pretend = 0, frame = 0
  37              		@ frame_needed = 0, uses_anonymous_args = 0
  38              	.LVL0:
  39 0000 38B5     		push	{r3, r4, r5, lr}
  40              	.LCFI0:
  41              		.cfi_def_cfa_offset 16
  42              		.loc 1 202 0
  43 0002 0546     		mov	r5, r0
  44              		.cfi_offset 14, -4
  45              		.cfi_offset 5, -8
  46              		.cfi_offset 4, -12
  47              		.cfi_offset 3, -16
  48              		.loc 1 206 0
  49 0004 FFF7FEFF 		bl	chRegFirstThread
  50              	.LVL1:
  51              		.loc 1 204 0
  52 0008 0024     		movs	r4, #0
  53              		.loc 1 206 0
ARM GAS  /tmp/ccgU6v6L.s 			page 2


  54 000a 0346     		mov	r3, r0
  55              	.LVL2:
  56              	.L2:
  57              		.loc 1 209 0 discriminator 1
  58 000c 1846     		mov	r0, r3
  59              	.LVL3:
  60              		.loc 1 208 0 discriminator 1
  61 000e AB42     		cmp	r3, r5
  62 0010 08BF     		it	eq
  63 0012 44F00104 		orreq	r4, r4, #1
  64              	.LVL4:
  65              		.loc 1 209 0 discriminator 1
  66 0016 FFF7FEFF 		bl	chRegNextThread
  67              	.LVL5:
  68              		.loc 1 210 0 discriminator 1
  69 001a 0346     		mov	r3, r0
  70 001c 0028     		cmp	r0, #0
  71 001e F5D1     		bne	.L2
  72              		.loc 1 212 0
  73 0020 2046     		mov	r0, r4
  74              	.LVL6:
  75 0022 38BD     		pop	{r3, r4, r5, pc}
  76              		.cfi_endproc
  77              	.LFE12:
  78              		.size	regfind, .-regfind
  79 0024 AFF30080 		.section	.text.dyn3_execute,"ax",%progbits
  79      AFF30080 
  79      AFF30080 
  80              		.align	2
  81              		.p2align 4,,15
  82              		.thumb
  83              		.thumb_func
  84              		.type	dyn3_execute, %function
  85              	dyn3_execute:
  86              	.LFB14:
  87              		.loc 1 219 0
  88              		.cfi_startproc
  89              		@ args = 0, pretend = 0, frame = 0
  90              		@ frame_needed = 0, uses_anonymous_args = 0
  91              	.LVL7:
  92 0000 10B5     		push	{r4, lr}
  93              	.LCFI1:
  94              		.cfi_def_cfa_offset 8
  95              		.loc 1 221 0
  96 0002 4D48     		ldr	r0, .L8
  97              		.loc 1 224 0
  98 0004 4D49     		ldr	r1, .L8+4
  99              		.loc 1 221 0
 100 0006 C369     		ldr	r3, [r0, #28]
 101              		.loc 1 224 0
 102 0008 4D48     		ldr	r0, .L8+8
 103 000a 9C68     		ldr	r4, [r3, #8]
 104              		.cfi_offset 14, -4
 105              		.cfi_offset 4, -8
 106 000c 4D4B     		ldr	r3, .L8+12
 107              		.loc 1 219 0
 108 000e 82B0     		sub	sp, sp, #8
ARM GAS  /tmp/ccgU6v6L.s 			page 3


 109              	.LCFI2:
 110              		.cfi_def_cfa_offset 16
 111              		.loc 1 224 0
 112 0010 621E     		subs	r2, r4, #1
 113 0012 0091     		str	r1, [sp, #0]
 114 0014 4FF49071 		mov	r1, #288
 115 0018 FFF7FEFF 		bl	chThdCreateFromHeap
 116              	.LVL8:
 117 001c 0446     		mov	r4, r0
 118              	.LVL9:
 119              		.loc 1 225 0
 120 001e 0120     		movs	r0, #1
 121              	.LVL10:
 122 0020 A27F     		ldrb	r2, [r4, #30]	@ zero_extendqisi2
 123 0022 C0EB020C 		rsb	ip, r0, r2
 124 0026 DCF10001 		rsbs	r1, ip, #0
 125 002a 41EB0C01 		adc	r1, r1, ip
 126 002e FFF7FEFF 		bl	_test_assert
 127 0032 08B1     		cbz	r0, .L7
 128              	.L5:
 129              		.loc 1 247 0
 130 0034 02B0     		add	sp, sp, #8
 131 0036 10BD     		pop	{r4, pc}
 132              	.L7:
 133              		.loc 1 226 0
 134 0038 2046     		mov	r0, r4
 135 003a FFF7FEFF 		bl	chThdAddRef
 136              		.loc 1 227 0
 137 003e A27F     		ldrb	r2, [r4, #30]	@ zero_extendqisi2
 138 0040 0220     		movs	r0, #2
 139 0042 C0EB020E 		rsb	lr, r0, r2
 140 0046 DEF1000C 		rsbs	ip, lr, #0
 141 004a 4CEB0E01 		adc	r1, ip, lr
 142 004e FFF7FEFF 		bl	_test_assert
 143 0052 0028     		cmp	r0, #0
 144 0054 EED1     		bne	.L5
 145              		.loc 1 228 0
 146 0056 2046     		mov	r0, r4
 147 0058 FFF7FEFF 		bl	chThdRelease
 148              		.loc 1 229 0
 149 005c 94F81EC0 		ldrb	ip, [r4, #30]	@ zero_extendqisi2
 150 0060 ACF10103 		sub	r3, ip, #1
 151 0064 0320     		movs	r0, #3
 152 0066 5942     		rsbs	r1, r3, #0
 153 0068 41EB0301 		adc	r1, r1, r3
 154 006c FFF7FEFF 		bl	_test_assert
 155 0070 0028     		cmp	r0, #0
 156 0072 DFD1     		bne	.L5
 157              		.loc 1 232 0
 158 0074 2046     		mov	r0, r4
 159 0076 FFF7FEFF 		bl	regfind
 160 007a 0146     		mov	r1, r0
 161 007c 0420     		movs	r0, #4
 162 007e FFF7FEFF 		bl	_test_assert
 163 0082 0028     		cmp	r0, #0
 164 0084 D6D1     		bne	.L5
 165              		.loc 1 233 0
ARM GAS  /tmp/ccgU6v6L.s 			page 4


 166 0086 2046     		mov	r0, r4
 167 0088 FFF7FEFF 		bl	regfind
 168 008c 0146     		mov	r1, r0
 169 008e 0520     		movs	r0, #5
 170 0090 FFF7FEFF 		bl	_test_assert
 171 0094 0028     		cmp	r0, #0
 172 0096 CDD1     		bne	.L5
 173              		.loc 1 236 0
 174 0098 2046     		mov	r0, r4
 175 009a FFF7FEFF 		bl	chThdRelease
 176              		.loc 1 237 0
 177 009e A27F     		ldrb	r2, [r4, #30]	@ zero_extendqisi2
 178 00a0 0620     		movs	r0, #6
 179 00a2 D2F10101 		rsbs	r1, r2, #1
 180 00a6 38BF     		it	cc
 181 00a8 0021     		movcc	r1, #0
 182 00aa FFF7FEFF 		bl	_test_assert
 183 00ae 0028     		cmp	r0, #0
 184 00b0 C0D1     		bne	.L5
 185              		.loc 1 238 0
 186 00b2 94F81CE0 		ldrb	lr, [r4, #28]	@ zero_extendqisi2
 187 00b6 0720     		movs	r0, #7
 188 00b8 DEF10101 		rsbs	r1, lr, #1
 189 00bc 38BF     		it	cc
 190 00be 0021     		movcc	r1, #0
 191 00c0 FFF7FEFF 		bl	_test_assert
 192 00c4 0028     		cmp	r0, #0
 193 00c6 B5D1     		bne	.L5
 194              		.loc 1 239 0
 195 00c8 2046     		mov	r0, r4
 196 00ca FFF7FEFF 		bl	regfind
 197 00ce 0146     		mov	r1, r0
 198 00d0 0820     		movs	r0, #8
 199 00d2 FFF7FEFF 		bl	_test_assert
 200 00d6 0028     		cmp	r0, #0
 201 00d8 ACD1     		bne	.L5
 202              		.loc 1 240 0
 203 00da 2046     		mov	r0, r4
 204 00dc FFF7FEFF 		bl	regfind
 205 00e0 0146     		mov	r1, r0
 206 00e2 0920     		movs	r0, #9
 207 00e4 FFF7FEFF 		bl	_test_assert
 208 00e8 0028     		cmp	r0, #0
 209 00ea A3D1     		bne	.L5
 210              		.loc 1 241 0
 211 00ec 3230     		adds	r0, r0, #50
 212 00ee FFF7FEFF 		bl	chThdSleep
 213              		.loc 1 242 0
 214 00f2 94F81CC0 		ldrb	ip, [r4, #28]	@ zero_extendqisi2
 215 00f6 ACF10E03 		sub	r3, ip, #14
 216 00fa 0A20     		movs	r0, #10
 217 00fc 5942     		rsbs	r1, r3, #0
 218 00fe 41EB0301 		adc	r1, r1, r3
 219 0102 FFF7FEFF 		bl	_test_assert
 220 0106 0028     		cmp	r0, #0
 221 0108 94D1     		bne	.L5
 222              		.loc 1 245 0
ARM GAS  /tmp/ccgU6v6L.s 			page 5


 223 010a 2046     		mov	r0, r4
 224 010c FFF7FEFF 		bl	regfind
 225 0110 0146     		mov	r1, r0
 226 0112 0B20     		movs	r0, #11
 227 0114 FFF7FEFF 		bl	_test_assert
 228 0118 0028     		cmp	r0, #0
 229 011a 8BD1     		bne	.L5
 230              		.loc 1 246 0
 231 011c 2046     		mov	r0, r4
 232 011e FFF7FEFF 		bl	regfind
 233 0122 D0F10101 		rsbs	r1, r0, #1
 234 0126 38BF     		it	cc
 235 0128 0021     		movcc	r1, #0
 236 012a 0C20     		movs	r0, #12
 237              		.loc 1 247 0
 238 012c 02B0     		add	sp, sp, #8
 239 012e BDE81040 		pop	{r4, lr}
 240              		.loc 1 246 0
 241 0132 FFF7FEBF 		b	_test_assert
 242              	.L9:
 243 0136 00BF     		.align	2
 244              	.L8:
 245 0138 00000000 		.word	rlist
 246 013c 00000000 		.word	.LC0
 247 0140 00000000 		.word	.LANCHOR0
 248 0144 00000000 		.word	thread
 249              		.cfi_endproc
 250              	.LFE14:
 251              		.size	dyn3_execute, .-dyn3_execute
 252 0148 AFF30080 		.section	.text.thread,"ax",%progbits
 252      AFF30080 
 253              		.align	2
 254              		.p2align 4,,15
 255              		.thumb
 256              		.thumb_func
 257              		.type	thread, %function
 258              	thread:
 259              	.LFB7:
 260              		.loc 1 82 0
 261              		.cfi_startproc
 262              		@ args = 0, pretend = 0, frame = 0
 263              		@ frame_needed = 0, uses_anonymous_args = 0
 264              	.LVL11:
 265 0000 08B5     		push	{r3, lr}
 266              	.LCFI3:
 267              		.cfi_def_cfa_offset 8
 268              		.loc 1 84 0
 269 0002 0078     		ldrb	r0, [r0, #0]	@ zero_extendqisi2
 270              	.LVL12:
 271              		.cfi_offset 14, -4
 272              		.cfi_offset 3, -8
 273 0004 FFF7FEFF 		bl	test_emit_token
 274              		.loc 1 86 0
 275 0008 0020     		movs	r0, #0
 276 000a 08BD     		pop	{r3, pc}
 277              		.cfi_endproc
 278              	.LFE7:
ARM GAS  /tmp/ccgU6v6L.s 			page 6


 279              		.size	thread, .-thread
 280 000c AFF30080 		.section	.text.dyn3_setup,"ax",%progbits
 281              		.align	2
 282              		.p2align 4,,15
 283              		.thumb
 284              		.thumb_func
 285              		.type	dyn3_setup, %function
 286              	dyn3_setup:
 287              	.LFB13:
 288              		.loc 1 214 0
 289              		.cfi_startproc
 290              		@ args = 0, pretend = 0, frame = 0
 291              		@ frame_needed = 0, uses_anonymous_args = 0
 292              		@ link register save eliminated.
 293              		.loc 1 216 0
 294 0000 0248     		ldr	r0, .L12
 295 0002 0349     		ldr	r1, .L12+4
 296 0004 4FF4B462 		mov	r2, #1440
 297              		.loc 1 217 0
 298              		.loc 1 216 0
 299 0008 FFF7FEBF 		b	chHeapInit
 300              	.L13:
 301              		.align	2
 302              	.L12:
 303 000c 00000000 		.word	.LANCHOR0
 304 0010 00000000 		.word	test
 305              		.cfi_endproc
 306              	.LFE13:
 307              		.size	dyn3_setup, .-dyn3_setup
 308 0014 AFF30080 		.section	.text.dyn1_setup,"ax",%progbits
 308      AFF30080 
 308      AFF30080 
 309              		.align	2
 310              		.p2align 4,,15
 311              		.thumb
 312              		.thumb_func
 313              		.type	dyn1_setup, %function
 314              	dyn1_setup:
 315              	.LFB8:
 316              		.loc 1 89 0
 317              		.cfi_startproc
 318              		@ args = 0, pretend = 0, frame = 0
 319              		@ frame_needed = 0, uses_anonymous_args = 0
 320              		@ link register save eliminated.
 321              		.loc 1 91 0
 322 0000 0248     		ldr	r0, .L15
 323 0002 0349     		ldr	r1, .L15+4
 324 0004 4FF4B462 		mov	r2, #1440
 325              		.loc 1 92 0
 326              		.loc 1 91 0
 327 0008 FFF7FEBF 		b	chHeapInit
 328              	.L16:
 329              		.align	2
 330              	.L15:
 331 000c 00000000 		.word	.LANCHOR0
 332 0010 00000000 		.word	test
 333              		.cfi_endproc
ARM GAS  /tmp/ccgU6v6L.s 			page 7


 334              	.LFE8:
 335              		.size	dyn1_setup, .-dyn1_setup
 336 0014 AFF30080 		.section	.text.dyn2_execute,"ax",%progbits
 336      AFF30080 
 336      AFF30080 
 337              		.align	2
 338              		.p2align 4,,15
 339              		.thumb
 340              		.thumb_func
 341              		.type	dyn2_execute, %function
 342              	dyn2_execute:
 343              	.LFB11:
 344              		.loc 1 152 0
 345              		.cfi_startproc
 346              		@ args = 0, pretend = 0, frame = 0
 347              		@ frame_needed = 0, uses_anonymous_args = 0
 348              		.loc 1 154 0
 349 0000 4448     		ldr	r0, .L25
 350              		.loc 1 152 0
 351 0002 70B5     		push	{r4, r5, r6, lr}
 352              	.LCFI4:
 353              		.cfi_def_cfa_offset 16
 354              		.loc 1 158 0
 355 0004 444E     		ldr	r6, .L25+4
 356              		.cfi_offset 14, -4
 357              		.cfi_offset 6, -8
 358              		.cfi_offset 5, -12
 359              		.cfi_offset 4, -16
 360              		.loc 1 154 0
 361 0006 C369     		ldr	r3, [r0, #28]
 362              		.loc 1 158 0
 363 0008 3168     		ldr	r1, [r6, #0]
 364 000a 4448     		ldr	r0, .L25+8
 365              		.loc 1 154 0
 366 000c 9D68     		ldr	r5, [r3, #8]
 367              	.LVL13:
 368              		.loc 1 161 0
 369 000e 444C     		ldr	r4, .L25+12
 370              		.loc 1 158 0
 371 0010 FFF7FEFF 		bl	chPoolFree
 372              	.LVL14:
 373 0014 4148     		ldr	r0, .L25+8
 374 0016 7168     		ldr	r1, [r6, #4]
 375 0018 FFF7FEFF 		bl	chPoolFree
 376              	.LVL15:
 377 001c 3F48     		ldr	r0, .L25+8
 378 001e B168     		ldr	r1, [r6, #8]
 379 0020 FFF7FEFF 		bl	chPoolFree
 380              	.LVL16:
 381 0024 3D48     		ldr	r0, .L25+8
 382 0026 F168     		ldr	r1, [r6, #12]
 383 0028 FFF7FEFF 		bl	chPoolFree
 384              	.LVL17:
 385              		.loc 1 161 0
 386 002c 691E     		subs	r1, r5, #1
 387 002e 3D4A     		ldr	r2, .L25+16
 388 0030 3D4B     		ldr	r3, .L25+20
ARM GAS  /tmp/ccgU6v6L.s 			page 8


 389 0032 3A48     		ldr	r0, .L25+8
 390 0034 FFF7FEFF 		bl	chThdCreateFromMemoryPool
 391              		.loc 1 162 0
 392 0038 A91E     		subs	r1, r5, #2
 393              		.loc 1 161 0
 394 003a 2060     		str	r0, [r4, #0]
 395              		.loc 1 162 0
 396 003c 394A     		ldr	r2, .L25+16
 397 003e 3B4B     		ldr	r3, .L25+24
 398 0040 3648     		ldr	r0, .L25+8
 399 0042 FFF7FEFF 		bl	chThdCreateFromMemoryPool
 400              		.loc 1 163 0
 401 0046 E91E     		subs	r1, r5, #3
 402              		.loc 1 162 0
 403 0048 6060     		str	r0, [r4, #4]
 404              		.loc 1 163 0
 405 004a 364A     		ldr	r2, .L25+16
 406 004c 384B     		ldr	r3, .L25+28
 407 004e 3348     		ldr	r0, .L25+8
 408 0050 FFF7FEFF 		bl	chThdCreateFromMemoryPool
 409              		.loc 1 164 0
 410 0054 291F     		subs	r1, r5, #4
 411              		.loc 1 163 0
 412 0056 A060     		str	r0, [r4, #8]
 413              		.loc 1 164 0
 414 0058 324A     		ldr	r2, .L25+16
 415 005a 364B     		ldr	r3, .L25+32
 416 005c 2F48     		ldr	r0, .L25+8
 417 005e FFF7FEFF 		bl	chThdCreateFromMemoryPool
 418              		.loc 1 165 0
 419 0062 691F     		subs	r1, r5, #5
 420              		.loc 1 164 0
 421 0064 E060     		str	r0, [r4, #12]
 422              		.loc 1 165 0
 423 0066 2F4A     		ldr	r2, .L25+16
 424 0068 2C48     		ldr	r0, .L25+8
 425 006a 334B     		ldr	r3, .L25+36
 426 006c FFF7FEFF 		bl	chThdCreateFromMemoryPool
 427              		.loc 1 167 0
 428 0070 2168     		ldr	r1, [r4, #0]
 429              		.loc 1 165 0
 430 0072 2061     		str	r0, [r4, #16]
 431              		.loc 1 167 0
 432 0074 49B1     		cbz	r1, .L18
 433              		.loc 1 167 0 is_stmt 0 discriminator 1
 434 0076 6168     		ldr	r1, [r4, #4]
 435 0078 39B1     		cbz	r1, .L18
 436              		.loc 1 167 0 discriminator 3
 437 007a A168     		ldr	r1, [r4, #8]
 438 007c 29B1     		cbz	r1, .L18
 439              		.loc 1 167 0 discriminator 4
 440 007e E168     		ldr	r1, [r4, #12]
 441 0080 19B1     		cbz	r1, .L18
 442              		.loc 1 152 0 is_stmt 1 discriminator 5
 443 0082 D0F10101 		rsbs	r1, r0, #1
 444 0086 38BF     		it	cc
 445 0088 0021     		movcc	r1, #0
ARM GAS  /tmp/ccgU6v6L.s 			page 9


 446              	.L18:
 447              		.loc 1 167 0 discriminator 7
 448 008a 0120     		movs	r0, #1
 449 008c FFF7FEFF 		bl	_test_assert
 450 0090 00B1     		cbz	r0, .L24
 451              	.LVL18:
 452              	.L17:
 453 0092 70BD     		pop	{r4, r5, r6, pc}
 454              	.LVL19:
 455              	.L24:
 456              		.loc 1 175 0
 457 0094 FFF7FEFF 		bl	test_wait_threads
 458              		.loc 1 176 0
 459 0098 0220     		movs	r0, #2
 460 009a 2849     		ldr	r1, .L25+40
 461 009c FFF7FEFF 		bl	_test_assert_sequence
 462 00a0 0028     		cmp	r0, #0
 463 00a2 F6D1     		bne	.L17
 464              		.loc 1 180 0
 465 00a4 1D48     		ldr	r0, .L25+8
 466 00a6 FFF7FEFF 		bl	chPoolAlloc
 467 00aa 011E     		subs	r1, r0, #0
 468 00ac 18BF     		it	ne
 469 00ae 0121     		movne	r1, #1
 470 00b0 0320     		movs	r0, #3
 471 00b2 FFF7FEFF 		bl	_test_assert
 472 00b6 0028     		cmp	r0, #0
 473 00b8 EBD1     		bne	.L17
 474              	.LVL20:
 475 00ba 1848     		ldr	r0, .L25+8
 476 00bc FFF7FEFF 		bl	chPoolAlloc
 477 00c0 011E     		subs	r1, r0, #0
 478 00c2 18BF     		it	ne
 479 00c4 0121     		movne	r1, #1
 480 00c6 0320     		movs	r0, #3
 481 00c8 FFF7FEFF 		bl	_test_assert
 482 00cc 0028     		cmp	r0, #0
 483 00ce E0D1     		bne	.L17
 484              	.LVL21:
 485 00d0 1248     		ldr	r0, .L25+8
 486 00d2 FFF7FEFF 		bl	chPoolAlloc
 487 00d6 011E     		subs	r1, r0, #0
 488 00d8 18BF     		it	ne
 489 00da 0121     		movne	r1, #1
 490 00dc 0320     		movs	r0, #3
 491 00de FFF7FEFF 		bl	_test_assert
 492 00e2 0028     		cmp	r0, #0
 493 00e4 D5D1     		bne	.L17
 494              	.LVL22:
 495 00e6 0D48     		ldr	r0, .L25+8
 496 00e8 FFF7FEFF 		bl	chPoolAlloc
 497 00ec 011E     		subs	r1, r0, #0
 498 00ee 18BF     		it	ne
 499 00f0 0121     		movne	r1, #1
 500 00f2 0320     		movs	r0, #3
 501 00f4 FFF7FEFF 		bl	_test_assert
 502 00f8 0028     		cmp	r0, #0
ARM GAS  /tmp/ccgU6v6L.s 			page 10


 503 00fa CAD1     		bne	.L17
 504              	.LVL23:
 505              		.loc 1 181 0
 506 00fc 0748     		ldr	r0, .L25+8
 507 00fe FFF7FEFF 		bl	chPoolAlloc
 508 0102 D0F10101 		rsbs	r1, r0, #1
 509 0106 38BF     		it	cc
 510 0108 0021     		movcc	r1, #0
 511 010a 0420     		movs	r0, #4
 512              		.loc 1 182 0
 513 010c BDE87040 		pop	{r4, r5, r6, lr}
 514              		.loc 1 181 0
 515 0110 FFF7FEBF 		b	_test_assert
 516              	.L26:
 517              		.align	2
 518              	.L25:
 519 0114 00000000 		.word	rlist
 520 0118 00000000 		.word	wa
 521 011c 00000000 		.word	.LANCHOR1
 522 0120 00000000 		.word	threads
 523 0124 00000000 		.word	thread
 524 0128 00000000 		.word	.LC0
 525 012c 04000000 		.word	.LC1
 526 0130 08000000 		.word	.LC2
 527 0134 0C000000 		.word	.LC3
 528 0138 10000000 		.word	.LC4
 529 013c 14000000 		.word	.LC5
 530              		.cfi_endproc
 531              	.LFE11:
 532              		.size	dyn2_execute, .-dyn2_execute
 533              		.section	.text.dyn2_setup,"ax",%progbits
 534              		.align	2
 535              		.p2align 4,,15
 536              		.thumb
 537              		.thumb_func
 538              		.type	dyn2_setup, %function
 539              	dyn2_setup:
 540              	.LFB10:
 541              		.loc 1 147 0
 542              		.cfi_startproc
 543              		@ args = 0, pretend = 0, frame = 0
 544              		@ frame_needed = 0, uses_anonymous_args = 0
 545              		@ link register save eliminated.
 546              		.loc 1 149 0
 547 0000 0248     		ldr	r0, .L28
 548 0002 4FF49071 		mov	r1, #288
 549 0006 0022     		movs	r2, #0
 550              		.loc 1 150 0
 551              		.loc 1 149 0
 552 0008 FFF7FEBF 		b	chPoolInit
 553              	.L29:
 554              		.align	2
 555              	.L28:
 556 000c 00000000 		.word	.LANCHOR1
 557              		.cfi_endproc
 558              	.LFE10:
 559              		.size	dyn2_setup, .-dyn2_setup
ARM GAS  /tmp/ccgU6v6L.s 			page 11


 560              		.section	.text.dyn1_execute,"ax",%progbits
 561              		.align	2
 562              		.p2align 4,,15
 563              		.thumb
 564              		.thumb_func
 565              		.type	dyn1_execute, %function
 566              	dyn1_execute:
 567              	.LFB9:
 568              		.loc 1 94 0
 569              		.cfi_startproc
 570              		@ args = 0, pretend = 0, frame = 8
 571              		@ frame_needed = 0, uses_anonymous_args = 0
 572 0000 70B5     		push	{r4, r5, r6, lr}
 573              	.LCFI5:
 574              		.cfi_def_cfa_offset 16
 575              		.loc 1 97 0
 576 0002 364C     		ldr	r4, .L39
 577              		.cfi_offset 14, -4
 578              		.cfi_offset 6, -8
 579              		.cfi_offset 5, -12
 580              		.cfi_offset 4, -16
 581              		.loc 1 99 0
 582 0004 3648     		ldr	r0, .L39+4
 583              		.loc 1 97 0
 584 0006 E369     		ldr	r3, [r4, #28]
 585              		.loc 1 101 0
 586 0008 364C     		ldr	r4, .L39+8
 587              		.loc 1 97 0
 588 000a 9D68     		ldr	r5, [r3, #8]
 589              	.LVL24:
 590              		.loc 1 103 0
 591 000c 364E     		ldr	r6, .L39+12
 592              		.loc 1 94 0
 593 000e 84B0     		sub	sp, sp, #16
 594              	.LCFI6:
 595              		.cfi_def_cfa_offset 32
 596              		.loc 1 99 0
 597 0010 02A9     		add	r1, sp, #8
 598 0012 FFF7FEFF 		bl	chHeapStatus
 599              		.loc 1 101 0
 600 0016 3549     		ldr	r1, .L39+16
 601 0018 354B     		ldr	r3, .L39+20
 602 001a 0091     		str	r1, [sp, #0]
 603 001c 6A1E     		subs	r2, r5, #1
 604 001e 4FF49071 		mov	r1, #288
 605 0022 2F48     		ldr	r0, .L39+4
 606 0024 FFF7FEFF 		bl	chThdCreateFromHeap
 607              		.loc 1 103 0
 608 0028 314B     		ldr	r3, .L39+20
 609              		.loc 1 101 0
 610 002a 2060     		str	r0, [r4, #0]
 611              		.loc 1 103 0
 612 002c AA1E     		subs	r2, r5, #2
 613 002e 4FF49071 		mov	r1, #288
 614 0032 2B48     		ldr	r0, .L39+4
 615 0034 0096     		str	r6, [sp, #0]
 616 0036 FFF7FEFF 		bl	chThdCreateFromHeap
ARM GAS  /tmp/ccgU6v6L.s 			page 12


 617              		.loc 1 106 0
 618 003a 03A9     		add	r1, sp, #12
 619              		.loc 1 103 0
 620 003c 6060     		str	r0, [r4, #4]
 621              		.loc 1 106 0
 622 003e 2848     		ldr	r0, .L39+4
 623 0040 FFF7FEFF 		bl	chHeapStatus
 624              	.LVL25:
 625              		.loc 1 107 0
 626 0044 0399     		ldr	r1, [sp, #12]
 627 0046 2648     		ldr	r0, .L39+4
 628 0048 FFF7FEFF 		bl	chHeapAlloc
 629              		.loc 1 108 0
 630 004c 294A     		ldr	r2, .L39+24
 631 004e 284B     		ldr	r3, .L39+20
 632 0050 0092     		str	r2, [sp, #0]
 633 0052 4FF49071 		mov	r1, #288
 634              		.loc 1 107 0
 635 0056 0646     		mov	r6, r0
 636              	.LVL26:
 637              		.loc 1 108 0
 638 0058 EA1E     		subs	r2, r5, #3
 639 005a 2148     		ldr	r0, .L39+4
 640              	.LVL27:
 641 005c FFF7FEFF 		bl	chThdCreateFromHeap
 642 0060 A060     		str	r0, [r4, #8]
 643              		.loc 1 110 0
 644 0062 3046     		mov	r0, r6
 645 0064 FFF7FEFF 		bl	chHeapFree
 646              		.loc 1 112 0
 647 0068 2168     		ldr	r1, [r4, #0]
 648 006a 29B1     		cbz	r1, .L31
 649              		.loc 1 112 0 is_stmt 0 discriminator 1
 650 006c 6168     		ldr	r1, [r4, #4]
 651 006e 19B1     		cbz	r1, .L31
 652              		.loc 1 112 0 discriminator 3
 653 0070 A168     		ldr	r1, [r4, #8]
 654 0072 0029     		cmp	r1, #0
 655 0074 28D0     		beq	.L37
 656              		.loc 1 112 0
 657 0076 0021     		movs	r1, #0
 658              	.L31:
 659              		.loc 1 112 0 discriminator 7
 660 0078 0120     		movs	r0, #1
 661 007a FFF7FEFF 		bl	_test_assert
 662 007e 08B1     		cbz	r0, .L38
 663              	.LVL28:
 664              	.L30:
 665              		.loc 1 126 0 is_stmt 1
 666 0080 04B0     		add	sp, sp, #16
 667 0082 70BD     		pop	{r4, r5, r6, pc}
 668              	.LVL29:
 669              	.L38:
 670              		.loc 1 120 0
 671 0084 FFF7FEFF 		bl	test_wait_threads
 672              		.loc 1 121 0
 673 0088 0220     		movs	r0, #2
ARM GAS  /tmp/ccgU6v6L.s 			page 13


 674 008a 1B49     		ldr	r1, .L39+28
 675 008c FFF7FEFF 		bl	_test_assert_sequence
 676 0090 0028     		cmp	r0, #0
 677 0092 F5D1     		bne	.L30
 678              		.loc 1 124 0
 679 0094 03A9     		add	r1, sp, #12
 680 0096 1248     		ldr	r0, .L39+4
 681 0098 FFF7FEFF 		bl	chHeapStatus
 682 009c A0F10101 		sub	r1, r0, #1
 683 00a0 D1F1000C 		rsbs	ip, r1, #0
 684 00a4 4CEB0101 		adc	r1, ip, r1
 685 00a8 0320     		movs	r0, #3
 686 00aa FFF7FEFF 		bl	_test_assert
 687 00ae 0028     		cmp	r0, #0
 688 00b0 E6D1     		bne	.L30
 689              		.loc 1 125 0
 690 00b2 0399     		ldr	r1, [sp, #12]
 691              	.LVL30:
 692 00b4 029A     		ldr	r2, [sp, #8]
 693 00b6 8B1A     		subs	r3, r1, r2
 694 00b8 0420     		movs	r0, #4
 695 00ba D3F1000E 		rsbs	lr, r3, #0
 696 00be 4EEB0301 		adc	r1, lr, r3
 697 00c2 FFF7FEFF 		bl	_test_assert
 698 00c6 DBE7     		b	.L30
 699              	.LVL31:
 700              	.L37:
 701              		.loc 1 112 0 discriminator 4
 702 00c8 E068     		ldr	r0, [r4, #12]
 703 00ca 0028     		cmp	r0, #0
 704 00cc D4D1     		bne	.L31
 705              		.loc 1 94 0 discriminator 5
 706 00ce 2269     		ldr	r2, [r4, #16]
 707 00d0 D2F10101 		rsbs	r1, r2, #1
 708 00d4 38BF     		it	cc
 709 00d6 0021     		movcc	r1, #0
 710 00d8 CEE7     		b	.L31
 711              	.L40:
 712 00da 00BF     		.align	2
 713              	.L39:
 714 00dc 00000000 		.word	rlist
 715 00e0 00000000 		.word	.LANCHOR0
 716 00e4 00000000 		.word	threads
 717 00e8 04000000 		.word	.LC1
 718 00ec 00000000 		.word	.LC0
 719 00f0 00000000 		.word	thread
 720 00f4 08000000 		.word	.LC2
 721 00f8 1C000000 		.word	.LC6
 722              		.cfi_endproc
 723              	.LFE9:
 724              		.size	dyn1_execute, .-dyn1_execute
 725              		.global	testdyn1
 726              		.global	testdyn2
 727              		.global	testdyn3
 728              		.global	patterndyn
 729 00fc AFF30080 		.section	.rodata.testdyn1,"a",%progbits
 730              		.align	2
ARM GAS  /tmp/ccgU6v6L.s 			page 14


 731              		.type	testdyn1, %object
 732              		.size	testdyn1, 16
 733              	testdyn1:
 734 0000 20000000 		.word	.LC7
 735 0004 00000000 		.word	dyn1_setup
 736 0008 00000000 		.word	0
 737 000c 00000000 		.word	dyn1_execute
 738              		.section	.rodata.testdyn2,"a",%progbits
 739              		.align	2
 740              		.type	testdyn2, %object
 741              		.size	testdyn2, 16
 742              	testdyn2:
 743 0000 4C000000 		.word	.LC8
 744 0004 00000000 		.word	dyn2_setup
 745 0008 00000000 		.word	0
 746 000c 00000000 		.word	dyn2_execute
 747              		.section	.rodata.testdyn3,"a",%progbits
 748              		.align	2
 749              		.type	testdyn3, %object
 750              		.size	testdyn3, 16
 751              	testdyn3:
 752 0000 7C000000 		.word	.LC9
 753 0004 00000000 		.word	dyn3_setup
 754 0008 00000000 		.word	0
 755 000c 00000000 		.word	dyn3_execute
 756              		.section	.bss.mp1,"aw",%nobits
 757              		.align	2
 758              		.set	.LANCHOR1,. + 0
 759              		.type	mp1, %object
 760              		.size	mp1, 12
 761              	mp1:
 762 0000 00000000 		.space	12
 762      00000000 
 762      00000000 
 763              		.section	.rodata.str1.4,"aMS",%progbits,1
 764              		.align	2
 765              	.LC0:
 766 0000 4100     		.ascii	"A\000"
 767 0002 0000     		.space	2
 768              	.LC1:
 769 0004 4200     		.ascii	"B\000"
 770 0006 0000     		.space	2
 771              	.LC2:
 772 0008 4300     		.ascii	"C\000"
 773 000a 0000     		.space	2
 774              	.LC3:
 775 000c 4400     		.ascii	"D\000"
 776 000e 0000     		.space	2
 777              	.LC4:
 778 0010 4500     		.ascii	"E\000"
 779 0012 0000     		.space	2
 780              	.LC5:
 781 0014 41424344 		.ascii	"ABCD\000"
 781      00
 782 0019 000000   		.space	3
 783              	.LC6:
 784 001c 414200   		.ascii	"AB\000"
ARM GAS  /tmp/ccgU6v6L.s 			page 15


 785 001f 00       		.space	1
 786              	.LC7:
 787 0020 44796E61 		.ascii	"Dynamic APIs, threads creation from heap\000"
 787      6D696320 
 787      41504973 
 787      2C207468 
 787      72656164 
 788 0049 000000   		.space	3
 789              	.LC8:
 790 004c 44796E61 		.ascii	"Dynamic APIs, threads creation from memory pool\000"
 790      6D696320 
 790      41504973 
 790      2C207468 
 790      72656164 
 791              	.LC9:
 792 007c 44796E61 		.ascii	"Dynamic APIs, registry and references\000"
 792      6D696320 
 792      41504973 
 792      2C207265 
 792      67697374 
 793 00a2 0000     		.section	.rodata.patterndyn,"a",%progbits
 794              		.align	2
 795              		.type	patterndyn, %object
 796              		.size	patterndyn, 16
 797              	patterndyn:
 798 0000 00000000 		.word	testdyn1
 799 0004 00000000 		.word	testdyn2
 800 0008 00000000 		.word	testdyn3
 801 000c 00000000 		.word	0
 802              		.section	.bss.heap1,"aw",%nobits
 803              		.align	3
 804              		.set	.LANCHOR0,. + 0
 805              		.type	heap1, %object
 806              		.size	heap1, 32
 807              	heap1:
 808 0000 00000000 		.space	32
 808      00000000 
 808      00000000 
 808      00000000 
 808      00000000 
 809              		.text
 810              	.Letext0: