ARM GAS  /tmp/ccvQ8sjS.s 			page 1


   1              		.syntax unified
   2              		.cpu cortex-m4
   3              		.eabi_attribute 27, 3
   4              		.eabi_attribute 28, 1
   5              		.fpu fpv4-sp-d16
   6              		.eabi_attribute 20, 1
   7              		.eabi_attribute 21, 1
   8              		.eabi_attribute 23, 3
   9              		.eabi_attribute 24, 1
  10              		.eabi_attribute 25, 1
  11              		.eabi_attribute 26, 1
  12              		.eabi_attribute 30, 2
  13              		.eabi_attribute 18, 4
  14              		.thumb
  15              		.file	"testevt.c"
  22 0000 A9020000 		.text
  22      02007101 
  22      00000201 
  22      FB0E0D00 
  22      01010101 
  23              	.Ltext0:
  24              		.cfi_sections	.debug_frame
  25              		.section	.text.evt3_execute,"ax",%progbits
  26              		.align	2
  27              		.p2align 4,,15
  28              		.thumb
  29              		.thumb_func
  30              		.type	evt3_execute, %function
  31              	evt3_execute:
  32              	.LFB17:
  33              		.file 1 "../libs/ChibiOS_2.4.0/test/testevt.c"
  34              		.loc 1 263 0
  35              		.cfi_startproc
  36              		@ args = 0, pretend = 0, frame = 0
  37              		@ frame_needed = 0, uses_anonymous_args = 0
  38              		.loc 1 269 0
  39 0000 0021     		movs	r1, #0
  40              		.loc 1 263 0
  41 0002 10B5     		push	{r4, lr}
  42              	.LCFI0:
  43              		.cfi_def_cfa_offset 8
  44              		.loc 1 269 0
  45 0004 4FF0FF30 		mov	r0, #-1
  46              		.cfi_offset 14, -4
  47              		.cfi_offset 4, -8
  48 0008 FFF7FEFF 		bl	chEvtWaitOneTimeout
  49              	.LVL0:
  50              		.loc 1 270 0
  51 000c D0F10101 		rsbs	r1, r0, #1
  52 0010 38BF     		it	cc
  53 0012 0021     		movcc	r1, #0
ARM GAS  /tmp/ccvQ8sjS.s 			page 2


  54 0014 0120     		movs	r0, #1
  55              	.LVL1:
  56 0016 FFF7FEFF 		bl	_test_assert
  57 001a 00B1     		cbz	r0, .L4
  58              	.L1:
  59 001c 10BD     		pop	{r4, pc}
  60              	.L4:
  61              		.loc 1 271 0
  62 001e 0146     		mov	r1, r0
  63 0020 4FF0FF30 		mov	r0, #-1
  64 0024 FFF7FEFF 		bl	chEvtWaitAnyTimeout
  65              	.LVL2:
  66              		.loc 1 272 0
  67 0028 D0F10101 		rsbs	r1, r0, #1
  68 002c 38BF     		it	cc
  69 002e 0021     		movcc	r1, #0
  70 0030 0220     		movs	r0, #2
  71              	.LVL3:
  72 0032 FFF7FEFF 		bl	_test_assert
  73 0036 0028     		cmp	r0, #0
  74 0038 F0D1     		bne	.L1
  75              		.loc 1 273 0
  76 003a 0146     		mov	r1, r0
  77 003c 4FF0FF30 		mov	r0, #-1
  78 0040 FFF7FEFF 		bl	chEvtWaitAllTimeout
  79              	.LVL4:
  80              		.loc 1 274 0
  81 0044 D0F10101 		rsbs	r1, r0, #1
  82 0048 38BF     		it	cc
  83 004a 0021     		movcc	r1, #0
  84 004c 0320     		movs	r0, #3
  85              	.LVL5:
  86 004e FFF7FEFF 		bl	_test_assert
  87 0052 0028     		cmp	r0, #0
  88 0054 E2D1     		bne	.L1
  89              		.loc 1 275 0
  90 0056 0A21     		movs	r1, #10
  91 0058 4FF0FF30 		mov	r0, #-1
  92 005c FFF7FEFF 		bl	chEvtWaitOneTimeout
  93              	.LVL6:
  94              		.loc 1 276 0
  95 0060 D0F10101 		rsbs	r1, r0, #1
  96 0064 38BF     		it	cc
  97 0066 0021     		movcc	r1, #0
  98 0068 0420     		movs	r0, #4
  99              	.LVL7:
 100 006a FFF7FEFF 		bl	_test_assert
 101 006e 0028     		cmp	r0, #0
 102 0070 D4D1     		bne	.L1
 103              		.loc 1 277 0
 104 0072 0A21     		movs	r1, #10
 105 0074 4FF0FF30 		mov	r0, #-1
 106 0078 FFF7FEFF 		bl	chEvtWaitAnyTimeout
 107              	.LVL8:
 108              		.loc 1 278 0
 109 007c D0F10101 		rsbs	r1, r0, #1
 110 0080 38BF     		it	cc
ARM GAS  /tmp/ccvQ8sjS.s 			page 3


 111 0082 0021     		movcc	r1, #0
 112 0084 0520     		movs	r0, #5
 113              	.LVL9:
 114 0086 FFF7FEFF 		bl	_test_assert
 115 008a 0028     		cmp	r0, #0
 116 008c C6D1     		bne	.L1
 117              		.loc 1 279 0
 118 008e 0A21     		movs	r1, #10
 119 0090 4FF0FF30 		mov	r0, #-1
 120 0094 FFF7FEFF 		bl	chEvtWaitAllTimeout
 121              	.LVL10:
 122              		.loc 1 280 0
 123 0098 D0F10101 		rsbs	r1, r0, #1
 124 009c 38BF     		it	cc
 125 009e 0021     		movcc	r1, #0
 126 00a0 0620     		movs	r0, #6
 127              	.LVL11:
 128              		.loc 1 281 0
 129 00a2 BDE81040 		pop	{r4, lr}
 130              		.loc 1 280 0
 131 00a6 FFF7FEBF 		b	_test_assert
 132              		.cfi_endproc
 133              	.LFE17:
 134              		.size	evt3_execute, .-evt3_execute
 135 00aa 00BFAFF3 		.section	.text.evt3_setup,"ax",%progbits
 135      0080
 136              		.align	2
 137              		.p2align 4,,15
 138              		.thumb
 139              		.thumb_func
 140              		.type	evt3_setup, %function
 141              	evt3_setup:
 142              	.LFB16:
 143              		.loc 1 258 0
 144              		.cfi_startproc
 145              		@ args = 0, pretend = 0, frame = 0
 146              		@ frame_needed = 0, uses_anonymous_args = 0
 147              		@ link register save eliminated.
 148              		.loc 1 260 0
 149 0000 4FF0FF30 		mov	r0, #-1
 150              		.loc 1 261 0
 151              		.loc 1 260 0
 152 0004 FFF7FEBF 		b	chEvtClearFlags
 153              		.cfi_endproc
 154              	.LFE16:
 155              		.size	evt3_setup, .-evt3_setup
 156 0008 AFF30080 		.section	.text.evt2_setup,"ax",%progbits
 156      AFF30080 
 157              		.align	2
 158              		.p2align 4,,15
 159              		.thumb
 160              		.thumb_func
 161              		.type	evt2_setup, %function
 162              	evt2_setup:
 163              	.LFB12:
 164              		.loc 1 139 0
 165              		.cfi_startproc
ARM GAS  /tmp/ccvQ8sjS.s 			page 4


 166              		@ args = 0, pretend = 0, frame = 0
 167              		@ frame_needed = 0, uses_anonymous_args = 0
 168              		@ link register save eliminated.
 169              		.loc 1 141 0
 170 0000 4FF0FF30 		mov	r0, #-1
 171              		.loc 1 142 0
 172              		.loc 1 141 0
 173 0004 FFF7FEBF 		b	chEvtClearFlags
 174              		.cfi_endproc
 175              	.LFE12:
 176              		.size	evt2_setup, .-evt2_setup
 177 0008 AFF30080 		.section	.text.evt1_setup,"ax",%progbits
 177      AFF30080 
 178              		.align	2
 179              		.p2align 4,,15
 180              		.thumb
 181              		.thumb_func
 182              		.type	evt1_setup, %function
 183              	evt1_setup:
 184              	.LFB7:
 185              		.loc 1 86 0
 186              		.cfi_startproc
 187              		@ args = 0, pretend = 0, frame = 0
 188              		@ frame_needed = 0, uses_anonymous_args = 0
 189              		@ link register save eliminated.
 190              		.loc 1 88 0
 191 0000 4FF0FF30 		mov	r0, #-1
 192              		.loc 1 89 0
 193              		.loc 1 88 0
 194 0004 FFF7FEBF 		b	chEvtClearFlags
 195              		.cfi_endproc
 196              	.LFE7:
 197              		.size	evt1_setup, .-evt1_setup
 198 0008 AFF30080 		.section	.text.evt2_execute,"ax",%progbits
 198      AFF30080 
 199              		.align	2
 200              		.p2align 4,,15
 201              		.thumb
 202              		.thumb_func
 203              		.type	evt2_execute, %function
 204              	evt2_execute:
 205              	.LFB15:
 206              		.loc 1 160 0
 207              		.cfi_startproc
 208              		@ args = 0, pretend = 0, frame = 24
 209              		@ frame_needed = 0, uses_anonymous_args = 0
 210 0000 2DE9F047 		push	{r4, r5, r6, r7, r8, r9, sl, lr}
 211              	.LCFI1:
 212              		.cfi_def_cfa_offset 32
 213              		.loc 1 168 0
 214 0004 0520     		movs	r0, #5
 215              		.loc 1 160 0
 216 0006 88B0     		sub	sp, sp, #32
 217              	.LCFI2:
 218              		.cfi_def_cfa_offset 64
 219              		.loc 1 168 0
 220              		.cfi_offset 14, -4
ARM GAS  /tmp/ccvQ8sjS.s 			page 5


 221              		.cfi_offset 10, -8
 222              		.cfi_offset 9, -12
 223              		.cfi_offset 8, -16
 224              		.cfi_offset 7, -20
 225              		.cfi_offset 6, -24
 226              		.cfi_offset 5, -28
 227              		.cfi_offset 4, -32
 228 0008 FFF7FEFF 		bl	chEvtAddFlags
 229              		.loc 1 169 0
 230 000c 4FF0FF30 		mov	r0, #-1
 231 0010 FFF7FEFF 		bl	chEvtWaitOne
 232              	.LVL12:
 233              		.loc 1 170 0
 234 0014 A0F10100 		sub	r0, r0, #1
 235              	.LVL13:
 236 0018 4142     		rsbs	r1, r0, #0
 237 001a 41EB0001 		adc	r1, r1, r0
 238 001e 0120     		movs	r0, #1
 239              	.LVL14:
 240 0020 FFF7FEFF 		bl	_test_assert
 241 0024 10B1     		cbz	r0, .L10
 242              	.L8:
 243              		.loc 1 233 0
 244 0026 08B0     		add	sp, sp, #32
 245 0028 BDE8F087 		pop	{r4, r5, r6, r7, r8, r9, sl, pc}
 246              	.L10:
 247              		.loc 1 171 0
 248 002c 4FF0FF30 		mov	r0, #-1
 249 0030 FFF7FEFF 		bl	chEvtWaitOne
 250              	.LVL15:
 251              		.loc 1 172 0
 252 0034 A0F10402 		sub	r2, r0, #4
 253 0038 5342     		rsbs	r3, r2, #0
 254 003a 43EB0201 		adc	r1, r3, r2
 255 003e 0220     		movs	r0, #2
 256              	.LVL16:
 257 0040 FFF7FEFF 		bl	_test_assert
 258              	.LVL17:
 259 0044 0028     		cmp	r0, #0
 260 0046 EED1     		bne	.L8
 261              		.loc 1 173 0
 262 0048 4FF0FF30 		mov	r0, #-1
 263 004c FFF7FEFF 		bl	chEvtClearFlags
 264              	.LVL18:
 265              		.loc 1 174 0
 266 0050 D0F10101 		rsbs	r1, r0, #1
 267 0054 38BF     		it	cc
 268 0056 0021     		movcc	r1, #0
 269 0058 0320     		movs	r0, #3
 270              	.LVL19:
 271 005a FFF7FEFF 		bl	_test_assert
 272 005e 0028     		cmp	r0, #0
 273 0060 E1D1     		bne	.L8
 274              		.loc 1 181 0
 275 0062 784F     		ldr	r7, .L11
 276 0064 784C     		ldr	r4, .L11+4
 277              		.loc 1 180 0
ARM GAS  /tmp/ccvQ8sjS.s 			page 6


 278 0066 794E     		ldr	r6, .L11+8
 279              		.loc 1 181 0
 280 0068 794D     		ldr	r5, .L11+12
 281              		.loc 1 179 0
 282 006a FFF7FEFF 		bl	test_wait_tick
 283              		.loc 1 181 0
 284 006e F969     		ldr	r1, [r7, #28]
 285 0070 D4F80080 		ldr	r8, [r4, #0]
 286 0074 8868     		ldr	r0, [r1, #8]
 287              		.loc 1 180 0
 288 0076 F468     		ldr	r4, [r6, #12]
 289              		.loc 1 181 0
 290 0078 764B     		ldr	r3, .L11+16
 291 007a 0091     		str	r1, [sp, #0]
 292 007c 421E     		subs	r2, r0, #1
 293 007e 4FF49071 		mov	r1, #288
 294 0082 4046     		mov	r0, r8
 295 0084 FFF7FEFF 		bl	chThdCreateStatic
 296 0088 2860     		str	r0, [r5, #0]
 297              		.loc 1 183 0
 298 008a 4FF0FF30 		mov	r0, #-1
 299 008e FFF7FEFF 		bl	chEvtWaitOne
 300              		.loc 1 180 0
 301 0092 04F1320A 		add	sl, r4, #50
 302              	.LVL20:
 303              		.loc 1 183 0
 304 0096 8146     		mov	r9, r0
 305              	.LVL21:
 306              		.loc 1 184 0
 307 0098 5146     		mov	r1, sl
 308 009a 0420     		movs	r0, #4
 309              	.LVL22:
 310 009c 04F13702 		add	r2, r4, #55
 311 00a0 FFF7FEFF 		bl	_test_assert_time_window
 312 00a4 0028     		cmp	r0, #0
 313 00a6 BED1     		bne	.L8
 314              		.loc 1 185 0
 315 00a8 A9F1010E 		sub	lr, r9, #1
 316 00ac 0520     		movs	r0, #5
 317 00ae DEF1000C 		rsbs	ip, lr, #0
 318 00b2 4CEB0E01 		adc	r1, ip, lr
 319 00b6 FFF7FEFF 		bl	_test_assert
 320 00ba 0028     		cmp	r0, #0
 321 00bc B3D1     		bne	.L8
 322              		.loc 1 186 0
 323 00be 4FF0FF30 		mov	r0, #-1
 324 00c2 FFF7FEFF 		bl	chEvtClearFlags
 325              	.LVL23:
 326              		.loc 1 187 0
 327 00c6 D0F10101 		rsbs	r1, r0, #1
 328 00ca 38BF     		it	cc
 329 00cc 0021     		movcc	r1, #0
 330 00ce 0620     		movs	r0, #6
 331              	.LVL24:
 332 00d0 FFF7FEFF 		bl	_test_assert
 333 00d4 0028     		cmp	r0, #0
 334 00d6 A6D1     		bne	.L8
ARM GAS  /tmp/ccvQ8sjS.s 			page 7


 335              		.loc 1 188 0
 336 00d8 FFF7FEFF 		bl	test_wait_threads
 337              		.loc 1 193 0
 338 00dc 0520     		movs	r0, #5
 339 00de FFF7FEFF 		bl	chEvtAddFlags
 340              		.loc 1 194 0
 341 00e2 4FF0FF30 		mov	r0, #-1
 342 00e6 FFF7FEFF 		bl	chEvtWaitAny
 343              	.LVL25:
 344              		.loc 1 195 0
 345 00ea A0F10502 		sub	r2, r0, #5
 346 00ee 5342     		rsbs	r3, r2, #0
 347 00f0 43EB0201 		adc	r1, r3, r2
 348 00f4 0720     		movs	r0, #7
 349              	.LVL26:
 350 00f6 FFF7FEFF 		bl	_test_assert
 351              	.LVL27:
 352 00fa 0028     		cmp	r0, #0
 353 00fc 93D1     		bne	.L8
 354              		.loc 1 196 0
 355 00fe 4FF0FF30 		mov	r0, #-1
 356 0102 FFF7FEFF 		bl	chEvtClearFlags
 357              	.LVL28:
 358              		.loc 1 197 0
 359 0106 D0F10101 		rsbs	r1, r0, #1
 360 010a 38BF     		it	cc
 361 010c 0021     		movcc	r1, #0
 362 010e 0820     		movs	r0, #8
 363              	.LVL29:
 364 0110 FFF7FEFF 		bl	_test_assert
 365 0114 0028     		cmp	r0, #0
 366 0116 86D1     		bne	.L8
 367              		.loc 1 202 0
 368 0118 FFF7FEFF 		bl	test_wait_tick
 369              		.loc 1 204 0
 370 011c F969     		ldr	r1, [r7, #28]
 371              		.loc 1 203 0
 372 011e F468     		ldr	r4, [r6, #12]
 373              		.loc 1 204 0
 374 0120 8868     		ldr	r0, [r1, #8]
 375 0122 4C4B     		ldr	r3, .L11+16
 376 0124 0091     		str	r1, [sp, #0]
 377 0126 421E     		subs	r2, r0, #1
 378 0128 4FF49071 		mov	r1, #288
 379 012c 4046     		mov	r0, r8
 380 012e FFF7FEFF 		bl	chThdCreateStatic
 381 0132 2860     		str	r0, [r5, #0]
 382              		.loc 1 206 0
 383 0134 4FF0FF30 		mov	r0, #-1
 384 0138 FFF7FEFF 		bl	chEvtWaitAny
 385              		.loc 1 203 0
 386 013c 04F1320A 		add	sl, r4, #50
 387              	.LVL30:
 388              		.loc 1 206 0
 389 0140 8146     		mov	r9, r0
 390              	.LVL31:
 391              		.loc 1 207 0
ARM GAS  /tmp/ccvQ8sjS.s 			page 8


 392 0142 5146     		mov	r1, sl
 393 0144 0920     		movs	r0, #9
 394              	.LVL32:
 395 0146 04F13702 		add	r2, r4, #55
 396 014a FFF7FEFF 		bl	_test_assert_time_window
 397 014e 0028     		cmp	r0, #0
 398 0150 7FF469AF 		bne	.L8
 399              		.loc 1 208 0
 400 0154 A9F1010E 		sub	lr, r9, #1
 401 0158 0A30     		adds	r0, r0, #10
 402 015a DEF1000C 		rsbs	ip, lr, #0
 403 015e 4CEB0E01 		adc	r1, ip, lr
 404 0162 FFF7FEFF 		bl	_test_assert
 405 0166 0028     		cmp	r0, #0
 406 0168 7FF45DAF 		bne	.L8
 407              		.loc 1 209 0
 408 016c 0138     		subs	r0, r0, #1
 409 016e FFF7FEFF 		bl	chEvtClearFlags
 410              	.LVL33:
 411              		.loc 1 210 0
 412 0172 D0F10101 		rsbs	r1, r0, #1
 413 0176 38BF     		it	cc
 414 0178 0021     		movcc	r1, #0
 415 017a 0B20     		movs	r0, #11
 416              	.LVL34:
 417 017c FFF7FEFF 		bl	_test_assert
 418 0180 0028     		cmp	r0, #0
 419 0182 7FF450AF 		bne	.L8
 420              		.loc 1 216 0
 421 0186 344C     		ldr	r4, .L11+20
 422              		.loc 1 217 0
 423 0188 DFF8D890 		ldr	r9, .L11+32
 424              		.loc 1 211 0
 425 018c FFF7FEFF 		bl	test_wait_threads
 426              		.loc 1 218 0
 427 0190 2046     		mov	r0, r4
 428 0192 05A9     		add	r1, sp, #20
 429 0194 0122     		movs	r2, #1
 430              		.loc 1 216 0
 431 0196 2460     		str	r4, [r4, #0]
 432              		.loc 1 217 0
 433 0198 C9F80090 		str	r9, [r9, #0]
 434              		.loc 1 218 0
 435 019c FFF7FEFF 		bl	chEvtRegisterMask
 436              		.loc 1 219 0
 437 01a0 02A9     		add	r1, sp, #8
 438 01a2 0422     		movs	r2, #4
 439 01a4 4846     		mov	r0, r9
 440 01a6 FFF7FEFF 		bl	chEvtRegisterMask
 441              		.loc 1 220 0
 442 01aa FFF7FEFF 		bl	test_wait_tick
 443              		.loc 1 222 0
 444 01ae FB69     		ldr	r3, [r7, #28]
 445 01b0 2A4A     		ldr	r2, .L11+24
 446 01b2 9F68     		ldr	r7, [r3, #8]
 447              		.loc 1 221 0
 448 01b4 F668     		ldr	r6, [r6, #12]
ARM GAS  /tmp/ccvQ8sjS.s 			page 9


 449              		.loc 1 222 0
 450 01b6 2A4B     		ldr	r3, .L11+28
 451 01b8 0092     		str	r2, [sp, #0]
 452 01ba 4FF49071 		mov	r1, #288
 453 01be 7A1E     		subs	r2, r7, #1
 454 01c0 4046     		mov	r0, r8
 455 01c2 FFF7FEFF 		bl	chThdCreateStatic
 456              		.loc 1 221 0
 457 01c6 06F13207 		add	r7, r6, #50
 458              	.LVL35:
 459              		.loc 1 222 0
 460 01ca 2860     		str	r0, [r5, #0]
 461              		.loc 1 224 0
 462 01cc 0520     		movs	r0, #5
 463 01ce FFF7FEFF 		bl	chEvtWaitAll
 464              		.loc 1 225 0
 465 01d2 0C20     		movs	r0, #12
 466 01d4 3946     		mov	r1, r7
 467 01d6 06F13702 		add	r2, r6, #55
 468 01da FFF7FEFF 		bl	_test_assert_time_window
 469 01de 0028     		cmp	r0, #0
 470 01e0 7FF421AF 		bne	.L8
 471              		.loc 1 226 0
 472 01e4 0138     		subs	r0, r0, #1
 473 01e6 FFF7FEFF 		bl	chEvtClearFlags
 474              	.LVL36:
 475              		.loc 1 227 0
 476 01ea D0F10101 		rsbs	r1, r0, #1
 477 01ee 38BF     		it	cc
 478 01f0 0021     		movcc	r1, #0
 479 01f2 0D20     		movs	r0, #13
 480              	.LVL37:
 481 01f4 FFF7FEFF 		bl	_test_assert
 482 01f8 0028     		cmp	r0, #0
 483 01fa 7FF414AF 		bne	.L8
 484              		.loc 1 228 0
 485 01fe FFF7FEFF 		bl	test_wait_threads
 486              		.loc 1 229 0
 487 0202 2046     		mov	r0, r4
 488 0204 05A9     		add	r1, sp, #20
 489 0206 FFF7FEFF 		bl	chEvtUnregister
 490              		.loc 1 230 0
 491 020a 4846     		mov	r0, r9
 492 020c 02A9     		add	r1, sp, #8
 493 020e FFF7FEFF 		bl	chEvtUnregister
 494              		.loc 1 231 0
 495 0212 2268     		ldr	r2, [r4, #0]
 496 0214 C4EB020C 		rsb	ip, r4, r2
 497 0218 0E20     		movs	r0, #14
 498 021a DCF10001 		rsbs	r1, ip, #0
 499 021e 41EB0C01 		adc	r1, r1, ip
 500 0222 FFF7FEFF 		bl	_test_assert
 501 0226 0028     		cmp	r0, #0
 502 0228 7FF4FDAE 		bne	.L8
 503              		.loc 1 232 0
 504 022c D9F80010 		ldr	r1, [r9, #0]
 505 0230 C9EB0103 		rsb	r3, r9, r1
ARM GAS  /tmp/ccvQ8sjS.s 			page 10


 506 0234 0F30     		adds	r0, r0, #15
 507 0236 D3F1000E 		rsbs	lr, r3, #0
 508 023a 4EEB0301 		adc	r1, lr, r3
 509 023e FFF7FEFF 		bl	_test_assert
 510 0242 F0E6     		b	.L8
 511              	.L12:
 512              		.align	2
 513              	.L11:
 514 0244 00000000 		.word	rlist
 515 0248 00000000 		.word	wa
 516 024c 00000000 		.word	vtlist
 517 0250 00000000 		.word	threads
 518 0254 00000000 		.word	thread1
 519 0258 00000000 		.word	.LANCHOR0
 520 025c 00000000 		.word	.LC0
 521 0260 00000000 		.word	thread2
 522 0264 00000000 		.word	.LANCHOR1
 523              		.cfi_endproc
 524              	.LFE15:
 525              		.size	evt2_execute, .-evt2_execute
 526 0268 AFF30080 		.section	.text.thread2,"ax",%progbits
 526      AFF30080 
 527              		.align	2
 528              		.p2align 4,,15
 529              		.thumb
 530              		.thumb_func
 531              		.type	thread2, %function
 532              	thread2:
 533              	.LFB14:
 534              		.loc 1 151 0
 535              		.cfi_startproc
 536              		@ args = 0, pretend = 0, frame = 0
 537              		@ frame_needed = 0, uses_anonymous_args = 0
 538              	.LVL38:
 539 0000 08B5     		push	{r3, lr}
 540              	.LCFI3:
 541              		.cfi_def_cfa_offset 8
 542              		.loc 1 154 0
 543 0002 0021     		movs	r1, #0
 544 0004 0548     		ldr	r0, .L14
 545              	.LVL39:
 546              		.cfi_offset 14, -4
 547              		.cfi_offset 3, -8
 548 0006 FFF7FEFF 		bl	chEvtBroadcastFlags
 549              		.loc 1 155 0
 550 000a 3220     		movs	r0, #50
 551 000c FFF7FEFF 		bl	chThdSleep
 552              		.loc 1 156 0
 553 0010 0348     		ldr	r0, .L14+4
 554 0012 0021     		movs	r1, #0
 555 0014 FFF7FEFF 		bl	chEvtBroadcastFlags
 556              		.loc 1 158 0
 557 0018 0020     		movs	r0, #0
 558 001a 08BD     		pop	{r3, pc}
 559              	.L15:
 560              		.align	2
 561              	.L14:
ARM GAS  /tmp/ccvQ8sjS.s 			page 11


 562 001c 00000000 		.word	.LANCHOR0
 563 0020 00000000 		.word	.LANCHOR1
 564              		.cfi_endproc
 565              	.LFE14:
 566              		.size	thread2, .-thread2
 567 0024 AFF30080 		.section	.text.thread1,"ax",%progbits
 567      AFF30080 
 567      AFF30080 
 568              		.align	2
 569              		.p2align 4,,15
 570              		.thumb
 571              		.thumb_func
 572              		.type	thread1, %function
 573              	thread1:
 574              	.LFB13:
 575              		.loc 1 144 0
 576              		.cfi_startproc
 577              		@ args = 0, pretend = 0, frame = 0
 578              		@ frame_needed = 0, uses_anonymous_args = 0
 579              	.LVL40:
 580 0000 10B5     		push	{r4, lr}
 581              	.LCFI4:
 582              		.cfi_def_cfa_offset 8
 583              		.loc 1 144 0
 584 0002 0446     		mov	r4, r0
 585              		.cfi_offset 14, -4
 586              		.cfi_offset 4, -8
 587              		.loc 1 146 0
 588 0004 3220     		movs	r0, #50
 589              	.LVL41:
 590 0006 FFF7FEFF 		bl	chThdSleep
 591              		.loc 1 147 0
 592 000a 2046     		mov	r0, r4
 593 000c 0121     		movs	r1, #1
 594 000e FFF7FEFF 		bl	chEvtSignalFlags
 595              		.loc 1 149 0
 596 0012 0020     		movs	r0, #0
 597 0014 10BD     		pop	{r4, pc}
 598              		.cfi_endproc
 599              	.LFE13:
 600              		.size	thread1, .-thread1
 601 0016 00BFAFF3 		.section	.text.evt1_execute,"ax",%progbits
 601      0080AFF3 
 601      0080
 602              		.align	2
 603              		.p2align 4,,15
 604              		.thumb
 605              		.thumb_func
 606              		.type	evt1_execute, %function
 607              	evt1_execute:
 608              	.LFB11:
 609              		.loc 1 96 0
 610              		.cfi_startproc
 611              		@ args = 0, pretend = 0, frame = 24
 612              		@ frame_needed = 0, uses_anonymous_args = 0
 613 0000 10B5     		push	{r4, lr}
 614              	.LCFI5:
ARM GAS  /tmp/ccvQ8sjS.s 			page 12


 615              		.cfi_def_cfa_offset 8
 616              		.loc 1 102 0
 617 0002 1E4C     		ldr	r4, .L20
 618              		.cfi_offset 14, -4
 619              		.cfi_offset 4, -8
 620              		.loc 1 96 0
 621 0004 86B0     		sub	sp, sp, #24
 622              	.LCFI6:
 623              		.cfi_def_cfa_offset 32
 624              		.loc 1 103 0
 625 0006 0122     		movs	r2, #1
 626 0008 2046     		mov	r0, r4
 627 000a 03A9     		add	r1, sp, #12
 628              		.loc 1 102 0
 629 000c 2460     		str	r4, [r4, #0]
 630              		.loc 1 103 0
 631 000e FFF7FEFF 		bl	chEvtRegisterMask
 632              		.loc 1 104 0
 633 0012 2046     		mov	r0, r4
 634 0014 6946     		mov	r1, sp
 635 0016 0222     		movs	r2, #2
 636 0018 FFF7FEFF 		bl	chEvtRegisterMask
 637              		.loc 1 105 0
 638 001c 2168     		ldr	r1, [r4, #0]
 639 001e 0120     		movs	r0, #1
 640 0020 091B     		subs	r1, r1, r4
 641 0022 18BF     		it	ne
 642 0024 0121     		movne	r1, #1
 643 0026 FFF7FEFF 		bl	_test_assert
 644 002a 08B1     		cbz	r0, .L19
 645              	.L17:
 646              		.loc 1 116 0
 647 002c 06B0     		add	sp, sp, #24
 648 002e 10BD     		pop	{r4, pc}
 649              	.L19:
 650              		.loc 1 106 0
 651 0030 2046     		mov	r0, r4
 652 0032 03A9     		add	r1, sp, #12
 653 0034 FFF7FEFF 		bl	chEvtUnregister
 654              		.loc 1 107 0
 655 0038 2268     		ldr	r2, [r4, #0]
 656 003a 0220     		movs	r0, #2
 657 003c 111B     		subs	r1, r2, r4
 658 003e 18BF     		it	ne
 659 0040 0121     		movne	r1, #1
 660 0042 FFF7FEFF 		bl	_test_assert
 661 0046 0028     		cmp	r0, #0
 662 0048 F0D1     		bne	.L17
 663              		.loc 1 108 0
 664 004a 2046     		mov	r0, r4
 665 004c 6946     		mov	r1, sp
 666 004e FFF7FEFF 		bl	chEvtUnregister
 667              		.loc 1 109 0
 668 0052 2168     		ldr	r1, [r4, #0]
 669 0054 C4EB010E 		rsb	lr, r4, r1
 670 0058 0320     		movs	r0, #3
 671 005a DEF10003 		rsbs	r3, lr, #0
ARM GAS  /tmp/ccvQ8sjS.s 			page 13


 672 005e 43EB0E01 		adc	r1, r3, lr
 673 0062 FFF7FEFF 		bl	_test_assert
 674 0066 0028     		cmp	r0, #0
 675 0068 E0D1     		bne	.L17
 676              		.loc 1 114 0
 677 006a 0721     		movs	r1, #7
 678 006c 0448     		ldr	r0, .L20+4
 679 006e FFF7FEFF 		bl	chEvtDispatch
 680              		.loc 1 115 0
 681 0072 0420     		movs	r0, #4
 682 0074 0349     		ldr	r1, .L20+8
 683 0076 FFF7FEFF 		bl	_test_assert_sequence
 684 007a D7E7     		b	.L17
 685              	.L21:
 686              		.align	2
 687              	.L20:
 688 007c 00000000 		.word	.LANCHOR0
 689 0080 00000000 		.word	.LANCHOR2
 690 0084 04000000 		.word	.LC1
 691              		.cfi_endproc
 692              	.LFE11:
 693              		.size	evt1_execute, .-evt1_execute
 694 0088 AFF30080 		.section	.text.h3,"ax",%progbits
 694      AFF30080 
 695              		.align	2
 696              		.p2align 4,,15
 697              		.thumb
 698              		.thumb_func
 699              		.type	h3, %function
 700              	h3:
 701              	.LFB10:
 702              		.loc 1 93 0
 703              		.cfi_startproc
 704              		@ args = 0, pretend = 0, frame = 0
 705              		@ frame_needed = 0, uses_anonymous_args = 0
 706              		@ link register save eliminated.
 707              	.LVL42:
 708              		.loc 1 93 0
 709 0000 4320     		movs	r0, #67
 710              	.LVL43:
 711 0002 FFF7FEBF 		b	test_emit_token
 712              		.cfi_endproc
 713              	.LFE10:
 714              		.size	h3, .-h3
 715 0006 00BFAFF3 		.section	.text.h2,"ax",%progbits
 715      0080AFF3 
 715      0080
 716              		.align	2
 717              		.p2align 4,,15
 718              		.thumb
 719              		.thumb_func
 720              		.type	h2, %function
 721              	h2:
 722              	.LFB9:
 723              		.loc 1 92 0
 724              		.cfi_startproc
 725              		@ args = 0, pretend = 0, frame = 0
ARM GAS  /tmp/ccvQ8sjS.s 			page 14


 726              		@ frame_needed = 0, uses_anonymous_args = 0
 727              		@ link register save eliminated.
 728              	.LVL44:
 729              		.loc 1 92 0
 730 0000 4220     		movs	r0, #66
 731              	.LVL45:
 732 0002 FFF7FEBF 		b	test_emit_token
 733              		.cfi_endproc
 734              	.LFE9:
 735              		.size	h2, .-h2
 736 0006 00BFAFF3 		.section	.text.h1,"ax",%progbits
 736      0080AFF3 
 736      0080
 737              		.align	2
 738              		.p2align 4,,15
 739              		.thumb
 740              		.thumb_func
 741              		.type	h1, %function
 742              	h1:
 743              	.LFB8:
 744              		.loc 1 91 0
 745              		.cfi_startproc
 746              		@ args = 0, pretend = 0, frame = 0
 747              		@ frame_needed = 0, uses_anonymous_args = 0
 748              		@ link register save eliminated.
 749              	.LVL46:
 750              		.loc 1 91 0
 751 0000 4120     		movs	r0, #65
 752              	.LVL47:
 753 0002 FFF7FEBF 		b	test_emit_token
 754              		.cfi_endproc
 755              	.LFE8:
 756              		.size	h1, .-h1
 757              		.global	testevt1
 758              		.global	testevt2
 759              		.global	testevt3
 760              		.global	patternevt
 761 0006 00BFAFF3 		.section	.rodata.patternevt,"a",%progbits
 761      0080AFF3 
 761      0080
 762              		.align	2
 763              		.type	patternevt, %object
 764              		.size	patternevt, 16
 765              	patternevt:
 766 0000 00000000 		.word	testevt1
 767 0004 00000000 		.word	testevt2
 768 0008 00000000 		.word	testevt3
 769 000c 00000000 		.word	0
 770              		.section	.rodata.testevt2,"a",%progbits
 771              		.align	2
 772              		.type	testevt2, %object
 773              		.size	testevt2, 16
 774              	testevt2:
 775 0000 2C000000 		.word	.LC3
 776 0004 00000000 		.word	evt2_setup
 777 0008 00000000 		.word	0
 778 000c 00000000 		.word	evt2_execute
ARM GAS  /tmp/ccvQ8sjS.s 			page 15


 779              		.section	.rodata.str1.4,"aMS",%progbits,1
 780              		.align	2
 781              	.LC0:
 782 0000 4100     		.ascii	"A\000"
 783 0002 0000     		.space	2
 784              	.LC1:
 785 0004 41424300 		.ascii	"ABC\000"
 786              	.LC2:
 787 0008 4576656E 		.ascii	"Events, registration and dispatch\000"
 787      74732C20 
 787      72656769 
 787      73747261 
 787      74696F6E 
 788 002a 0000     		.space	2
 789              	.LC3:
 790 002c 4576656E 		.ascii	"Events, wait and broadcast\000"
 790      74732C20 
 790      77616974 
 790      20616E64 
 790      2062726F 
 791 0047 00       		.space	1
 792              	.LC4:
 793 0048 4576656E 		.ascii	"Events, timeouts\000"
 793      74732C20 
 793      74696D65 
 793      6F757473 
 793      00
 794 0059 000000   		.section	.rodata.testevt1,"a",%progbits
 795              		.align	2
 796              		.type	testevt1, %object
 797              		.size	testevt1, 16
 798              	testevt1:
 799 0000 08000000 		.word	.LC2
 800 0004 00000000 		.word	evt1_setup
 801 0008 00000000 		.word	0
 802 000c 00000000 		.word	evt1_execute
 803              		.section	.rodata.evhndl,"a",%progbits
 804              		.align	2
 805              		.set	.LANCHOR2,. + 0
 806              		.type	evhndl, %object
 807              		.size	evhndl, 12
 808              	evhndl:
 809 0000 00000000 		.word	h1
 810 0004 00000000 		.word	h2
 811 0008 00000000 		.word	h3
 812              		.section	.rodata.testevt3,"a",%progbits
 813              		.align	2
 814              		.type	testevt3, %object
 815              		.size	testevt3, 16
 816              	testevt3:
 817 0000 48000000 		.word	.LC4
 818 0004 00000000 		.word	evt3_setup
 819 0008 00000000 		.word	0
 820 000c 00000000 		.word	evt3_execute
 821              		.section	.data.es1,"aw",%progbits
 822              		.align	2
 823              		.set	.LANCHOR0,. + 0
ARM GAS  /tmp/ccvQ8sjS.s 			page 16


 824              		.type	es1, %object
 825              		.size	es1, 4
 826              	es1:
 827 0000 00000000 		.word	es1
 828              		.section	.data.es2,"aw",%progbits
 829              		.align	2
 830              		.set	.LANCHOR1,. + 0
 831              		.type	es2, %object
 832              		.size	es2, 4
 833              	es2:
 834 0000 00000000 		.word	es2
 835              		.text
 836              	.Letext0: