ARM GAS  /tmp/cca9KgQf.s 			page 1


   1              		.syntax unified
   2              		.cpu cortex-m4
   3              		.eabi_attribute 27, 3
   4              		.eabi_attribute 28, 1
   5              		.fpu fpv4-sp-d16
   6              		.eabi_attribute 20, 1
   7              		.eabi_attribute 21, 1
   8              		.eabi_attribute 23, 3
   9              		.eabi_attribute 24, 1
  10              		.eabi_attribute 25, 1
  11              		.eabi_attribute 26, 1
  12              		.eabi_attribute 30, 2
  13              		.eabi_attribute 18, 4
  14              		.thumb
  15              		.file	"testqueues.c"
  16              		.section	.debug_abbrev,"",%progbits
  17              	.Ldebug_abbrev0:
  18              		.section	.debug_info,"",%progbits
  19              	.Ldebug_info0:
  20              		.section	.debug_line,"",%progbits
  21              	.Ldebug_line0:
  22 0000 8C040000 		.text
  22      0200C201 
  22      00000201 
  22      FB0E0D00 
  22      01010101 
  23              	.Ltext0:
  24              		.cfi_sections	.debug_frame
  25              		.section	.text.notify,"ax",%progbits
  26              		.align	2
  27              		.p2align 4,,15
  28              		.thumb
  29              		.thumb_func
  30              		.type	notify, %function
  31              	notify:
  32              	.LFB7:
  33              		.file 1 "../libs/ChibiOS_2.4.0/test/testqueues.c"
  34              		.loc 1 68 0
  35              		.cfi_startproc
  36              		@ args = 0, pretend = 0, frame = 0
  37              		@ frame_needed = 0, uses_anonymous_args = 0
  38              		@ link register save eliminated.
  39              	.LVL0:
  40              		.loc 1 70 0
  41 0000 7047     		bx	lr
  42              		.cfi_endproc
  43              	.LFE7:
  44              		.size	notify, .-notify
  45 0002 00BFAFF3 		.section	.text.thread2,"ax",%progbits
  45      0080AFF3 
  45      0080AFF3 
  45      0080
  46              		.align	2
  47              		.p2align 4,,15
  48              		.thumb
  49              		.thumb_func
  50              		.type	thread2, %function
ARM GAS  /tmp/cca9KgQf.s 			page 2


  51              	thread2:
  52              	.LFB12:
  53              		.loc 1 181 0
  54              		.cfi_startproc
  55              		@ args = 0, pretend = 0, frame = 0
  56              		@ frame_needed = 0, uses_anonymous_args = 0
  57              	.LVL1:
  58 0000 08B5     		push	{r3, lr}
  59              	.LCFI0:
  60              		.cfi_def_cfa_offset 8
  61              		.loc 1 184 0
  62 0002 0021     		movs	r1, #0
  63 0004 C822     		movs	r2, #200
  64 0006 0248     		ldr	r0, .L3
  65              	.LVL2:
  66              		.cfi_offset 14, -4
  67              		.cfi_offset 3, -8
  68 0008 FFF7FEFF 		bl	chOQPutTimeout
  69              		.loc 1 186 0
  70 000c 0020     		movs	r0, #0
  71 000e 08BD     		pop	{r3, pc}
  72              	.L4:
  73              		.align	2
  74              	.L3:
  75 0010 00000000 		.word	.LANCHOR0
  76              		.cfi_endproc
  77              	.LFE12:
  78              		.size	thread2, .-thread2
  79 0014 AFF30080 		.section	.text.queues2_execute,"ax",%progbits
  79      AFF30080 
  79      AFF30080 
  80              		.align	2
  81              		.p2align 4,,15
  82              		.thumb
  83              		.thumb_func
  84              		.type	queues2_execute, %function
  85              	queues2_execute:
  86              	.LFB13:
  87              		.loc 1 188 0
  88              		.cfi_startproc
  89              		@ args = 0, pretend = 0, frame = 0
  90              		@ frame_needed = 0, uses_anonymous_args = 0
  91 0000 2DE9F041 		push	{r4, r5, r6, r7, r8, lr}
  92              	.LCFI1:
  93              		.cfi_def_cfa_offset 24
  94              	.LBB2:
  95              		.loc 1 193 0
  96 0004 2023     		movs	r3, #32
  97              	.LVL3:
  98              	.LBE2:
  99              		.loc 1 188 0
 100 0006 82B0     		sub	sp, sp, #8
 101              	.LCFI2:
 102              		.cfi_def_cfa_offset 32
 103              	.LBB3:
 104              		.loc 1 193 0
 105              	@ 193 "../libs/ChibiOS_2.4.0/test/testqueues.c" 1
ARM GAS  /tmp/cca9KgQf.s 			page 3


 106 0008 83F31188 		msr     BASEPRI, r3
 107              	@ 0 "" 2
 108              	.LVL4:
 109              		.thumb
 110              	.LBE3:
 111 000c A74D     		ldr	r5, .L24
 112              		.cfi_offset 14, -4
 113              		.cfi_offset 8, -8
 114              		.cfi_offset 7, -12
 115              		.cfi_offset 6, -16
 116              		.cfi_offset 5, -20
 117              		.cfi_offset 4, -24
 118 000e 6A69     		ldr	r2, [r5, #20]
 119 0010 AB69     		ldr	r3, [r5, #24]
 120              	.LVL5:
 121 0012 9A42     		cmp	r2, r3
 122 0014 7DD0     		beq	.L20
 123 0016 0021     		movs	r1, #0
 124              	.L6:
 125              		.loc 1 193 0 is_stmt 0 discriminator 4
 126 0018 0120     		movs	r0, #1
 127 001a FFF7FEFF 		bl	_test_assert
 128 001e 0646     		mov	r6, r0
 129 0020 0028     		cmp	r0, #0
 130 0022 72D1     		bne	.L21
 131              	.LBB4:
 132              		.loc 1 193 0 discriminator 6
 133 0024 0346     		mov	r3, r0
 134              	.LVL6:
 135              	@ 193 "../libs/ChibiOS_2.4.0/test/testqueues.c" 1
 136 0026 83F31188 		msr     BASEPRI, r3
 137              	@ 0 "" 2
 138              	.LVL7:
 139              		.thumb
 140              	.LBE4:
 141              		.loc 1 197 0 is_stmt 1 discriminator 6
 142 002a A04C     		ldr	r4, .L24
 143 002c 4121     		movs	r1, #65
 144 002e 2046     		mov	r0, r4
 145 0030 4FF0FF32 		mov	r2, #-1
 146 0034 FFF7FEFF 		bl	chOQPutTimeout
 147              	.LVL8:
 148 0038 4221     		movs	r1, #66
 149 003a 2046     		mov	r0, r4
 150 003c 4FF0FF32 		mov	r2, #-1
 151 0040 FFF7FEFF 		bl	chOQPutTimeout
 152              	.LVL9:
 153 0044 4321     		movs	r1, #67
 154 0046 2046     		mov	r0, r4
 155 0048 4FF0FF32 		mov	r2, #-1
 156 004c FFF7FEFF 		bl	chOQPutTimeout
 157              	.LVL10:
 158 0050 2046     		mov	r0, r4
 159 0052 4421     		movs	r1, #68
 160 0054 4FF0FF32 		mov	r2, #-1
 161 0058 FFF7FEFF 		bl	chOQPutTimeout
 162              	.LVL11:
ARM GAS  /tmp/cca9KgQf.s 			page 4


 163              	.LBB5:
 164              		.loc 1 198 0 discriminator 6
 165 005c 2023     		movs	r3, #32
 166              	.LVL12:
 167              	@ 198 "../libs/ChibiOS_2.4.0/test/testqueues.c" 1
 168 005e 83F31188 		msr     BASEPRI, r3
 169              	@ 0 "" 2
 170              	.LVL13:
 171              		.thumb
 172              	.LBE5:
 173 0062 AD68     		ldr	r5, [r5, #8]
 174 0064 0220     		movs	r0, #2
 175 0066 D5F10101 		rsbs	r1, r5, #1
 176 006a 38BF     		it	cc
 177 006c 0021     		movcc	r1, #0
 178 006e FFF7FEFF 		bl	_test_assert
 179              	.LVL14:
 180 0072 0546     		mov	r5, r0
 181 0074 0028     		cmp	r0, #0
 182 0076 44D1     		bne	.L22
 183              	.LBB6:
 184              		.loc 1 198 0 is_stmt 0 discriminator 2
 185 0078 0346     		mov	r3, r0
 186              	.LVL15:
 187              	@ 198 "../libs/ChibiOS_2.4.0/test/testqueues.c" 1
 188 007a 83F31188 		msr     BASEPRI, r3
 189              	@ 0 "" 2
 190              	.LVL16:
 191              		.thumb
 192              	.LBE6:
 193              	.LBB7:
 194              	.LBB8:
 195              		.loc 1 204 0 is_stmt 1 discriminator 2
 196 007e 2023     		movs	r3, #32
 197              	.LVL17:
 198              	@ 204 "../libs/ChibiOS_2.4.0/test/testqueues.c" 1
 199 0080 83F31188 		msr     BASEPRI, r3
 200              	@ 0 "" 2
 201              	.LVL18:
 202              		.thumb
 203              	.LBE8:
 204              		.loc 1 205 0 discriminator 2
 205 0084 2046     		mov	r0, r4
 206 0086 FFF7FEFF 		bl	chOQGetI
 207              	.LVL19:
 208              	.LBB9:
 209              		.loc 1 206 0 discriminator 2
 210 008a 2B46     		mov	r3, r5
 211              	.LVL20:
 212              	@ 206 "../libs/ChibiOS_2.4.0/test/testqueues.c" 1
 213 008c 83F31188 		msr     BASEPRI, r3
 214              	@ 0 "" 2
 215              	.LVL21:
 216              		.thumb
 217              	.LBE9:
 218              		.loc 1 207 0 discriminator 2
 219 0090 C0B2     		uxtb	r0, r0
ARM GAS  /tmp/cca9KgQf.s 			page 5


 220              	.LVL22:
 221 0092 FFF7FEFF 		bl	test_emit_token
 222              	.LVL23:
 223              	.LBB10:
 224              		.loc 1 204 0 discriminator 2
 225 0096 2023     		movs	r3, #32
 226              	@ 204 "../libs/ChibiOS_2.4.0/test/testqueues.c" 1
 227 0098 83F31188 		msr     BASEPRI, r3
 228              	@ 0 "" 2
 229              	.LVL24:
 230              		.thumb
 231              	.LBE10:
 232              		.loc 1 205 0 discriminator 2
 233 009c 2046     		mov	r0, r4
 234 009e FFF7FEFF 		bl	chOQGetI
 235              	.LVL25:
 236              	.LBB11:
 237              		.loc 1 206 0 discriminator 2
 238 00a2 2B46     		mov	r3, r5
 239              	@ 206 "../libs/ChibiOS_2.4.0/test/testqueues.c" 1
 240 00a4 83F31188 		msr     BASEPRI, r3
 241              	@ 0 "" 2
 242              	.LVL26:
 243              		.thumb
 244              	.LBE11:
 245              		.loc 1 207 0 discriminator 2
 246 00a8 C0B2     		uxtb	r0, r0
 247              	.LVL27:
 248 00aa FFF7FEFF 		bl	test_emit_token
 249              	.LVL28:
 250              	.LBB12:
 251              		.loc 1 204 0 discriminator 2
 252 00ae 2023     		movs	r3, #32
 253              	@ 204 "../libs/ChibiOS_2.4.0/test/testqueues.c" 1
 254 00b0 83F31188 		msr     BASEPRI, r3
 255              	@ 0 "" 2
 256              	.LVL29:
 257              		.thumb
 258              	.LBE12:
 259              		.loc 1 205 0 discriminator 2
 260 00b4 2046     		mov	r0, r4
 261 00b6 FFF7FEFF 		bl	chOQGetI
 262              	.LVL30:
 263              	.LBB13:
 264              		.loc 1 206 0 discriminator 2
 265 00ba 2B46     		mov	r3, r5
 266              	@ 206 "../libs/ChibiOS_2.4.0/test/testqueues.c" 1
 267 00bc 83F31188 		msr     BASEPRI, r3
 268              	@ 0 "" 2
 269              	.LVL31:
 270              		.thumb
 271              	.LBE13:
 272              		.loc 1 207 0 discriminator 2
 273 00c0 C0B2     		uxtb	r0, r0
 274              	.LVL32:
 275 00c2 FFF7FEFF 		bl	test_emit_token
 276              	.LVL33:
ARM GAS  /tmp/cca9KgQf.s 			page 6


 277              	.LBB14:
 278              		.loc 1 204 0 discriminator 2
 279 00c6 2023     		movs	r3, #32
 280              	@ 204 "../libs/ChibiOS_2.4.0/test/testqueues.c" 1
 281 00c8 83F31188 		msr     BASEPRI, r3
 282              	@ 0 "" 2
 283              	.LVL34:
 284              		.thumb
 285              	.LBE14:
 286              		.loc 1 205 0 discriminator 2
 287 00cc 2046     		mov	r0, r4
 288 00ce FFF7FEFF 		bl	chOQGetI
 289              	.LVL35:
 290              	.LBB15:
 291              		.loc 1 206 0 discriminator 2
 292 00d2 2B46     		mov	r3, r5
 293              	@ 206 "../libs/ChibiOS_2.4.0/test/testqueues.c" 1
 294 00d4 83F31188 		msr     BASEPRI, r3
 295              	@ 0 "" 2
 296              	.LVL36:
 297              		.thumb
 298              	.LBE15:
 299              		.loc 1 207 0 discriminator 2
 300 00d8 C0B2     		uxtb	r0, r0
 301              	.LVL37:
 302 00da FFF7FEFF 		bl	test_emit_token
 303              	.LVL38:
 304              	.LBE7:
 305              	.LBB16:
 306              		.loc 1 209 0 discriminator 2
 307 00de 2023     		movs	r3, #32
 308              	.LVL39:
 309              	@ 209 "../libs/ChibiOS_2.4.0/test/testqueues.c" 1
 310 00e0 83F31188 		msr     BASEPRI, r3
 311              	@ 0 "" 2
 312              	.LVL40:
 313              		.thumb
 314              	.LBE16:
 315 00e4 6069     		ldr	r0, [r4, #20]
 316 00e6 A269     		ldr	r2, [r4, #24]
 317 00e8 9042     		cmp	r0, r2
 318 00ea 35D0     		beq	.L23
 319              		.loc 1 209 0 is_stmt 0
 320 00ec 2946     		mov	r1, r5
 321              	.L10:
 322              		.loc 1 209 0 discriminator 4
 323 00ee 0320     		movs	r0, #3
 324 00f0 FFF7FEFF 		bl	_test_assert
 325              	.LVL41:
 326 00f4 90B1     		cbz	r0, .L11
 327              	.LBB17:
 328              		.loc 1 209 0 discriminator 5
 329 00f6 0023     		movs	r3, #0
 330              	.LVL42:
 331              	@ 209 "../libs/ChibiOS_2.4.0/test/testqueues.c" 1
 332 00f8 83F31188 		msr     BASEPRI, r3
 333              	@ 0 "" 2
ARM GAS  /tmp/cca9KgQf.s 			page 7


 334              	.LVL43:
 335              		.thumb
 336              	.L5:
 337              	.LBE17:
 338              		.loc 1 236 0 is_stmt 1
 339 00fc 02B0     		add	sp, sp, #8
 340 00fe BDE8F081 		pop	{r4, r5, r6, r7, r8, pc}
 341              	.LVL44:
 342              	.L22:
 343              	.LBB18:
 344              		.loc 1 198 0 discriminator 1
 345 0102 3346     		mov	r3, r6
 346              	@ 198 "../libs/ChibiOS_2.4.0/test/testqueues.c" 1
 347 0104 83F31188 		msr     BASEPRI, r3
 348              	@ 0 "" 2
 349              	.LVL45:
 350              		.thumb
 351              	.LBE18:
 352 0108 F8E7     		b	.L5
 353              	.LVL46:
 354              	.L21:
 355              	.LBB19:
 356              		.loc 1 193 0 discriminator 5
 357 010a 0023     		movs	r3, #0
 358              	@ 193 "../libs/ChibiOS_2.4.0/test/testqueues.c" 1
 359 010c 83F31188 		msr     BASEPRI, r3
 360              	@ 0 "" 2
 361              	.LVL47:
 362              		.thumb
 363              	.LBE19:
 364 0110 F4E7     		b	.L5
 365              	.LVL48:
 366              	.L20:
 367              		.loc 1 188 0 discriminator 1
 368 0112 A968     		ldr	r1, [r5, #8]
 369 0114 0039     		subs	r1, r1, #0
 370 0116 18BF     		it	ne
 371 0118 0121     		movne	r1, #1
 372 011a 7DE7     		b	.L6
 373              	.LVL49:
 374              	.L11:
 375              	.LBB20:
 376              		.loc 1 209 0 discriminator 6
 377 011c 0346     		mov	r3, r0
 378              	.LVL50:
 379              	@ 209 "../libs/ChibiOS_2.4.0/test/testqueues.c" 1
 380 011e 83F31188 		msr     BASEPRI, r3
 381              	@ 0 "" 2
 382              	.LVL51:
 383              		.thumb
 384              	.LBE20:
 385              		.loc 1 210 0 discriminator 6
 386 0122 0420     		movs	r0, #4
 387 0124 6249     		ldr	r1, .L24+4
 388 0126 FFF7FEFF 		bl	_test_assert_sequence
 389              	.LVL52:
 390 012a 0546     		mov	r5, r0
ARM GAS  /tmp/cca9KgQf.s 			page 8


 391 012c 0028     		cmp	r0, #0
 392 012e E5D1     		bne	.L5
 393              	.LBB21:
 394              		.loc 1 211 0
 395 0130 2023     		movs	r3, #32
 396              	.LVL53:
 397              	@ 211 "../libs/ChibiOS_2.4.0/test/testqueues.c" 1
 398 0132 83F31188 		msr     BASEPRI, r3
 399              	@ 0 "" 2
 400              	.LVL54:
 401              		.thumb
 402              	.LBE21:
 403 0136 5D4C     		ldr	r4, .L24
 404 0138 2046     		mov	r0, r4
 405 013a FFF7FEFF 		bl	chOQGetI
 406              	.LVL55:
 407 013e 10F1030F 		cmn	r0, #3
 408 0142 14BF     		ite	ne
 409 0144 0021     		movne	r1, #0
 410 0146 0121     		moveq	r1, #1
 411 0148 0520     		movs	r0, #5
 412 014a FFF7FEFF 		bl	_test_assert
 413 014e 40B1     		cbz	r0, .L12
 414              	.LBB22:
 415              		.loc 1 211 0 is_stmt 0 discriminator 1
 416 0150 2B46     		mov	r3, r5
 417              	@ 211 "../libs/ChibiOS_2.4.0/test/testqueues.c" 1
 418 0152 83F31188 		msr     BASEPRI, r3
 419              	@ 0 "" 2
 420              	.LVL56:
 421              		.thumb
 422              	.LBE22:
 423 0156 D1E7     		b	.L5
 424              	.LVL57:
 425              	.L23:
 426              		.loc 1 188 0 is_stmt 1 discriminator 1
 427 0158 A368     		ldr	r3, [r4, #8]
 428              	.LVL58:
 429 015a 191E     		subs	r1, r3, #0
 430 015c 18BF     		it	ne
 431 015e 0121     		movne	r1, #1
 432 0160 C5E7     		b	.L10
 433              	.L12:
 434              	.LBB23:
 435              		.loc 1 211 0 discriminator 2
 436 0162 0346     		mov	r3, r0
 437              	.LVL59:
 438              	@ 211 "../libs/ChibiOS_2.4.0/test/testqueues.c" 1
 439 0164 83F31188 		msr     BASEPRI, r3
 440              	@ 0 "" 2
 441              	.LVL60:
 442              		.thumb
 443              	.LBE23:
 444              		.loc 1 214 0 discriminator 2
 445 0168 524E     		ldr	r6, .L24+8
 446 016a 7568     		ldr	r5, [r6, #4]
 447 016c 0822     		movs	r2, #8
ARM GAS  /tmp/cca9KgQf.s 			page 9


 448 016e 2946     		mov	r1, r5
 449 0170 2046     		mov	r0, r4
 450 0172 FFF7FEFF 		bl	chOQWriteTimeout
 451              	.LVL61:
 452              		.loc 1 215 0 discriminator 2
 453 0176 A0F10408 		sub	r8, r0, #4
 454 017a D8F1000C 		rsbs	ip, r8, #0
 455 017e 4CEB0801 		adc	r1, ip, r8
 456 0182 0620     		movs	r0, #6
 457              	.LVL62:
 458 0184 FFF7FEFF 		bl	_test_assert
 459 0188 8046     		mov	r8, r0
 460              	.LVL63:
 461 018a 0028     		cmp	r0, #0
 462 018c B6D1     		bne	.L5
 463              	.LBB24:
 464              		.loc 1 216 0
 465 018e 2023     		movs	r3, #32
 466              	.LVL64:
 467              	@ 216 "../libs/ChibiOS_2.4.0/test/testqueues.c" 1
 468 0190 83F31188 		msr     BASEPRI, r3
 469              	@ 0 "" 2
 470              	.LVL65:
 471              		.thumb
 472              	.LBE24:
 473 0194 A768     		ldr	r7, [r4, #8]
 474 0196 0720     		movs	r0, #7
 475 0198 D7F10101 		rsbs	r1, r7, #1
 476 019c 38BF     		it	cc
 477 019e 0021     		movcc	r1, #0
 478 01a0 FFF7FEFF 		bl	_test_assert
 479              	.LVL66:
 480 01a4 0746     		mov	r7, r0
 481 01a6 18B1     		cbz	r0, .L13
 482              	.LBB25:
 483              		.loc 1 216 0 is_stmt 0 discriminator 1
 484 01a8 4346     		mov	r3, r8
 485              	@ 216 "../libs/ChibiOS_2.4.0/test/testqueues.c" 1
 486 01aa 83F31188 		msr     BASEPRI, r3
 487              	@ 0 "" 2
 488              	.LVL67:
 489              		.thumb
 490              	.LBE25:
 491 01ae A5E7     		b	.L5
 492              	.LVL68:
 493              	.L13:
 494              	.LBB26:
 495              		.loc 1 216 0 discriminator 2
 496 01b0 0346     		mov	r3, r0
 497              	.LVL69:
 498              	@ 216 "../libs/ChibiOS_2.4.0/test/testqueues.c" 1
 499 01b2 83F31188 		msr     BASEPRI, r3
 500              	@ 0 "" 2
 501              	.LVL70:
 502              		.thumb
 503              	.LBE26:
 504              		.loc 1 217 0 is_stmt 1 discriminator 2
ARM GAS  /tmp/cca9KgQf.s 			page 10


 505 01b6 404B     		ldr	r3, .L24+12
 506              	.LVL71:
 507 01b8 3068     		ldr	r0, [r6, #0]
 508 01ba D969     		ldr	r1, [r3, #28]
 509 01bc 3F4B     		ldr	r3, .L24+16
 510 01be 8E68     		ldr	r6, [r1, #8]
 511 01c0 0097     		str	r7, [sp, #0]
 512 01c2 721C     		adds	r2, r6, #1
 513 01c4 4FF49071 		mov	r1, #288
 514 01c8 FFF7FEFF 		bl	chThdCreateStatic
 515 01cc 3C4A     		ldr	r2, .L24+20
 516              	.LBB27:
 517              		.loc 1 218 0 discriminator 2
 518 01ce 2023     		movs	r3, #32
 519              	.LVL72:
 520              	.LBE27:
 521              		.loc 1 217 0 discriminator 2
 522 01d0 1060     		str	r0, [r2, #0]
 523              	.LBB28:
 524              		.loc 1 218 0 discriminator 2
 525              	@ 218 "../libs/ChibiOS_2.4.0/test/testqueues.c" 1
 526 01d2 83F31188 		msr     BASEPRI, r3
 527              	@ 0 "" 2
 528              	.LVL73:
 529              		.thumb
 530              	.LBE28:
 531 01d6 2669     		ldr	r6, [r4, #16]
 532 01d8 E168     		ldr	r1, [r4, #12]
 533 01da A368     		ldr	r3, [r4, #8]
 534              	.LVL74:
 535 01dc 701A     		subs	r0, r6, r1
 536 01de C21A     		subs	r2, r0, r3
 537 01e0 A2F10401 		sub	r1, r2, #4
 538 01e4 0820     		movs	r0, #8
 539 01e6 4E42     		rsbs	r6, r1, #0
 540 01e8 46EB0101 		adc	r1, r6, r1
 541 01ec FFF7FEFF 		bl	_test_assert
 542 01f0 0646     		mov	r6, r0
 543 01f2 18B1     		cbz	r0, .L14
 544              	.LBB29:
 545              		.loc 1 218 0 is_stmt 0 discriminator 1
 546 01f4 3B46     		mov	r3, r7
 547              	@ 218 "../libs/ChibiOS_2.4.0/test/testqueues.c" 1
 548 01f6 83F31188 		msr     BASEPRI, r3
 549              	@ 0 "" 2
 550              	.LVL75:
 551              		.thumb
 552              	.LBE29:
 553 01fa 7FE7     		b	.L5
 554              	.LVL76:
 555              	.L14:
 556              	.LBB30:
 557              		.loc 1 218 0 discriminator 2
 558 01fc 0346     		mov	r3, r0
 559              	.LVL77:
 560              	@ 218 "../libs/ChibiOS_2.4.0/test/testqueues.c" 1
 561 01fe 83F31188 		msr     BASEPRI, r3
ARM GAS  /tmp/cca9KgQf.s 			page 11


 562              	@ 0 "" 2
 563              	.LVL78:
 564              		.thumb
 565              	.LBE30:
 566              		.loc 1 219 0 is_stmt 1 discriminator 2
 567 0202 FFF7FEFF 		bl	test_wait_threads
 568              	.LVL79:
 569              	.LBB31:
 570              		.loc 1 222 0 discriminator 2
 571 0206 2023     		movs	r3, #32
 572              	.LVL80:
 573              	@ 222 "../libs/ChibiOS_2.4.0/test/testqueues.c" 1
 574 0208 83F31188 		msr     BASEPRI, r3
 575              	@ 0 "" 2
 576              	.LVL81:
 577              		.thumb
 578              	.LBE31:
 579              		.loc 1 223 0 discriminator 2
 580 020c 2046     		mov	r0, r4
 581 020e FFF7FEFF 		bl	chOQResetI
 582              	.LVL82:
 583              	.LBB32:
 584              		.loc 1 224 0 discriminator 2
 585 0212 3346     		mov	r3, r6
 586              	.LVL83:
 587              	@ 224 "../libs/ChibiOS_2.4.0/test/testqueues.c" 1
 588 0214 83F31188 		msr     BASEPRI, r3
 589              	@ 0 "" 2
 590              	.LVL84:
 591              		.thumb
 592              	.LBE32:
 593              	.LBB33:
 594              		.loc 1 225 0 discriminator 2
 595 0218 2023     		movs	r3, #32
 596              	.LVL85:
 597              	@ 225 "../libs/ChibiOS_2.4.0/test/testqueues.c" 1
 598 021a 83F31188 		msr     BASEPRI, r3
 599              	@ 0 "" 2
 600              	.LVL86:
 601              		.thumb
 602              	.LBE33:
 603 021e 2069     		ldr	r0, [r4, #16]
 604 0220 E168     		ldr	r1, [r4, #12]
 605 0222 A368     		ldr	r3, [r4, #8]
 606              	.LVL87:
 607 0224 421A     		subs	r2, r0, r1
 608 0226 C3EB020E 		rsb	lr, r3, r2
 609 022a 0920     		movs	r0, #9
 610 022c DEF1000C 		rsbs	ip, lr, #0
 611 0230 4CEB0E01 		adc	r1, ip, lr
 612 0234 FFF7FEFF 		bl	_test_assert
 613 0238 0346     		mov	r3, r0
 614 023a 18B1     		cbz	r0, .L15
 615              	.LBB34:
 616              		.loc 1 225 0 is_stmt 0 discriminator 1
 617 023c 3346     		mov	r3, r6
 618              	@ 225 "../libs/ChibiOS_2.4.0/test/testqueues.c" 1
ARM GAS  /tmp/cca9KgQf.s 			page 12


 619 023e 83F31188 		msr     BASEPRI, r3
 620              	@ 0 "" 2
 621              	.LVL88:
 622              		.thumb
 623              	.LBE34:
 624 0242 5BE7     		b	.L5
 625              	.LVL89:
 626              	.L15:
 627              	.LBB35:
 628              		.loc 1 225 0 discriminator 2
 629              	@ 225 "../libs/ChibiOS_2.4.0/test/testqueues.c" 1
 630 0244 83F31188 		msr     BASEPRI, r3
 631              	@ 0 "" 2
 632              	.LVL90:
 633              		.thumb
 634              	.LBE35:
 635              		.loc 1 228 0 is_stmt 1 discriminator 2
 636 0248 0222     		movs	r2, #2
 637 024a 2946     		mov	r1, r5
 638 024c 2046     		mov	r0, r4
 639 024e FFF7FEFF 		bl	chOQWriteTimeout
 640              	.LVL91:
 641              		.loc 1 229 0 discriminator 2
 642 0252 A0F10202 		sub	r2, r0, #2
 643 0256 D2F1000C 		rsbs	ip, r2, #0
 644 025a 4CEB0201 		adc	r1, ip, r2
 645 025e 0A20     		movs	r0, #10
 646              	.LVL92:
 647 0260 FFF7FEFF 		bl	_test_assert
 648              	.LVL93:
 649 0264 0346     		mov	r3, r0
 650 0266 0028     		cmp	r0, #0
 651 0268 7FF448AF 		bne	.L5
 652              		.loc 1 230 0
 653 026c 2946     		mov	r1, r5
 654 026e 0222     		movs	r2, #2
 655 0270 2046     		mov	r0, r4
 656 0272 FFF7FEFF 		bl	chOQWriteTimeout
 657              	.LVL94:
 658              		.loc 1 231 0
 659 0276 A0F10200 		sub	r0, r0, #2
 660              	.LVL95:
 661 027a 4342     		rsbs	r3, r0, #0
 662 027c 43EB0001 		adc	r1, r3, r0
 663 0280 0B20     		movs	r0, #11
 664              	.LVL96:
 665 0282 FFF7FEFF 		bl	_test_assert
 666 0286 0028     		cmp	r0, #0
 667 0288 7FF438AF 		bne	.L5
 668              	.LBB36:
 669              		.loc 1 232 0
 670 028c 2023     		movs	r3, #32
 671              	.LVL97:
 672              	@ 232 "../libs/ChibiOS_2.4.0/test/testqueues.c" 1
 673 028e 83F31188 		msr     BASEPRI, r3
 674              	@ 0 "" 2
 675              	.LVL98:
ARM GAS  /tmp/cca9KgQf.s 			page 13


 676              		.thumb
 677              	.LBE36:
 678 0292 A168     		ldr	r1, [r4, #8]
 679 0294 0C30     		adds	r0, r0, #12
 680 0296 D1F10101 		rsbs	r1, r1, #1
 681 029a 38BF     		it	cc
 682 029c 0021     		movcc	r1, #0
 683 029e FFF7FEFF 		bl	_test_assert
 684              	.LVL99:
 685 02a2 78B1     		cbz	r0, .L16
 686              	.LBB37:
 687              		.loc 1 232 0 is_stmt 0 discriminator 1
 688 02a4 0023     		movs	r3, #0
 689              	@ 232 "../libs/ChibiOS_2.4.0/test/testqueues.c" 1
 690 02a6 83F31188 		msr     BASEPRI, r3
 691              	@ 0 "" 2
 692              	.LVL100:
 693              		.thumb
 694 02aa 27E7     		b	.L5
 695              	.L25:
 696              		.align	2
 697              	.L24:
 698 02ac 00000000 		.word	.LANCHOR0
 699 02b0 00000000 		.word	.LC0
 700 02b4 00000000 		.word	wa
 701 02b8 00000000 		.word	rlist
 702 02bc 00000000 		.word	thread2
 703 02c0 00000000 		.word	threads
 704              	.LVL101:
 705              	.L16:
 706              	.LBE37:
 707              	.LBB38:
 708              		.loc 1 232 0 discriminator 2
 709 02c4 0023     		movs	r3, #0
 710              	.LVL102:
 711              	@ 232 "../libs/ChibiOS_2.4.0/test/testqueues.c" 1
 712 02c6 83F31188 		msr     BASEPRI, r3
 713              	@ 0 "" 2
 714              	.LVL103:
 715              		.thumb
 716              	.LBE38:
 717              		.loc 1 235 0 is_stmt 1 discriminator 2
 718 02ca 0A22     		movs	r2, #10
 719 02cc 1946     		mov	r1, r3
 720 02ce 0748     		ldr	r0, .L26
 721 02d0 FFF7FEFF 		bl	chOQPutTimeout
 722              	.LVL104:
 723 02d4 A0F1FF32 		sub	r2, r0, #-1
 724 02d8 D2F1000C 		rsbs	ip, r2, #0
 725 02dc 4CEB0201 		adc	r1, ip, r2
 726 02e0 0D20     		movs	r0, #13
 727              		.loc 1 236 0 discriminator 2
 728 02e2 02B0     		add	sp, sp, #8
 729 02e4 BDE8F041 		pop	{r4, r5, r6, r7, r8, lr}
 730              		.loc 1 235 0 discriminator 2
 731 02e8 FFF7FEBF 		b	_test_assert
 732              	.L27:
ARM GAS  /tmp/cca9KgQf.s 			page 14


 733              		.align	2
 734              	.L26:
 735 02ec 00000000 		.word	.LANCHOR0
 736              		.cfi_endproc
 737              	.LFE13:
 738              		.size	queues2_execute, .-queues2_execute
 739              		.section	.text.queues2_setup,"ax",%progbits
 740              		.align	2
 741              		.p2align 4,,15
 742              		.thumb
 743              		.thumb_func
 744              		.type	queues2_setup, %function
 745              	queues2_setup:
 746              	.LFB11:
 747              		.loc 1 176 0
 748              		.cfi_startproc
 749              		@ args = 0, pretend = 0, frame = 0
 750              		@ frame_needed = 0, uses_anonymous_args = 0
 751              		@ link register save eliminated.
 752              		.loc 1 178 0
 753 0000 034B     		ldr	r3, .L29
 754 0002 0448     		ldr	r0, .L29+4
 755 0004 1968     		ldr	r1, [r3, #0]
 756 0006 044B     		ldr	r3, .L29+8
 757 0008 0422     		movs	r2, #4
 758              		.loc 1 179 0
 759              		.loc 1 178 0
 760 000a FFF7FEBF 		b	chOQInit
 761              	.L30:
 762 000e 00BF     		.align	2
 763              	.L29:
 764 0010 00000000 		.word	wa
 765 0014 00000000 		.word	.LANCHOR0
 766 0018 00000000 		.word	notify
 767              		.cfi_endproc
 768              	.LFE11:
 769              		.size	queues2_setup, .-queues2_setup
 770 001c AFF30080 		.section	.text.thread1,"ax",%progbits
 771              		.align	2
 772              		.p2align 4,,15
 773              		.thumb
 774              		.thumb_func
 775              		.type	thread1, %function
 776              	thread1:
 777              	.LFB9:
 778              		.loc 1 94 0
 779              		.cfi_startproc
 780              		@ args = 0, pretend = 0, frame = 0
 781              		@ frame_needed = 0, uses_anonymous_args = 0
 782              	.LVL105:
 783 0000 08B5     		push	{r3, lr}
 784              	.LCFI3:
 785              		.cfi_def_cfa_offset 8
 786              		.loc 1 97 0
 787 0002 C821     		movs	r1, #200
 788 0004 0248     		ldr	r0, .L32
 789              	.LVL106:
ARM GAS  /tmp/cca9KgQf.s 			page 15


 790              		.cfi_offset 14, -4
 791              		.cfi_offset 3, -8
 792 0006 FFF7FEFF 		bl	chIQGetTimeout
 793              		.loc 1 99 0
 794 000a 0020     		movs	r0, #0
 795 000c 08BD     		pop	{r3, pc}
 796              	.L33:
 797 000e 00BF     		.align	2
 798              	.L32:
 799 0010 00000000 		.word	.LANCHOR1
 800              		.cfi_endproc
 801              	.LFE9:
 802              		.size	thread1, .-thread1
 803 0014 AFF30080 		.section	.text.queues1_execute,"ax",%progbits
 803      AFF30080 
 803      AFF30080 
 804              		.align	2
 805              		.p2align 4,,15
 806              		.thumb
 807              		.thumb_func
 808              		.type	queues1_execute, %function
 809              	queues1_execute:
 810              	.LFB10:
 811              		.loc 1 101 0
 812              		.cfi_startproc
 813              		@ args = 0, pretend = 0, frame = 0
 814              		@ frame_needed = 0, uses_anonymous_args = 0
 815 0000 2DE9F043 		push	{r4, r5, r6, r7, r8, r9, lr}
 816              	.LCFI4:
 817              		.cfi_def_cfa_offset 28
 818              	.LBB39:
 819              		.loc 1 106 0
 820 0004 2023     		movs	r3, #32
 821              	.LVL107:
 822              	.LBE39:
 823              		.loc 1 101 0
 824 0006 83B0     		sub	sp, sp, #12
 825              	.LCFI5:
 826              		.cfi_def_cfa_offset 40
 827              	.LBB40:
 828              		.loc 1 106 0
 829              	@ 106 "../libs/ChibiOS_2.4.0/test/testqueues.c" 1
 830 0008 83F31188 		msr     BASEPRI, r3
 831              	@ 0 "" 2
 832              	.LVL108:
 833              		.thumb
 834              	.LBE40:
 835 000c B14C     		ldr	r4, .L50
 836              		.cfi_offset 14, -4
 837              		.cfi_offset 9, -8
 838              		.cfi_offset 8, -12
 839              		.cfi_offset 7, -16
 840              		.cfi_offset 6, -20
 841              		.cfi_offset 5, -24
 842              		.cfi_offset 4, -28
 843 000e A168     		ldr	r1, [r4, #8]
 844 0010 0120     		movs	r0, #1
ARM GAS  /tmp/cca9KgQf.s 			page 16


 845 0012 D1F10101 		rsbs	r1, r1, #1
 846 0016 38BF     		it	cc
 847 0018 0021     		movcc	r1, #0
 848 001a FFF7FEFF 		bl	_test_assert
 849              	.LVL109:
 850 001e 0546     		mov	r5, r0
 851 0020 0028     		cmp	r0, #0
 852 0022 74D1     		bne	.L46
 853              	.LBB41:
 854              		.loc 1 106 0 is_stmt 0 discriminator 2
 855 0024 0346     		mov	r3, r0
 856              	.LVL110:
 857              	@ 106 "../libs/ChibiOS_2.4.0/test/testqueues.c" 1
 858 0026 83F31188 		msr     BASEPRI, r3
 859              	@ 0 "" 2
 860              	.LVL111:
 861              		.thumb
 862              	.LBE41:
 863              	.LBB42:
 864              		.loc 1 109 0 is_stmt 1 discriminator 2
 865 002a 2023     		movs	r3, #32
 866              	.LVL112:
 867              	@ 109 "../libs/ChibiOS_2.4.0/test/testqueues.c" 1
 868 002c 83F31188 		msr     BASEPRI, r3
 869              	@ 0 "" 2
 870              	.LVL113:
 871              		.thumb
 872              	.LBE42:
 873              		.loc 1 111 0 discriminator 2
 874 0030 4121     		movs	r1, #65
 875 0032 2046     		mov	r0, r4
 876 0034 FFF7FEFF 		bl	chIQPutI
 877              	.LVL114:
 878 0038 4221     		movs	r1, #66
 879 003a 2046     		mov	r0, r4
 880 003c FFF7FEFF 		bl	chIQPutI
 881              	.LVL115:
 882 0040 4321     		movs	r1, #67
 883 0042 2046     		mov	r0, r4
 884 0044 FFF7FEFF 		bl	chIQPutI
 885              	.LVL116:
 886 0048 2046     		mov	r0, r4
 887 004a 4421     		movs	r1, #68
 888 004c FFF7FEFF 		bl	chIQPutI
 889              	.LVL117:
 890              	.LBB43:
 891              		.loc 1 112 0 discriminator 2
 892 0050 2B46     		mov	r3, r5
 893              	.LVL118:
 894              	@ 112 "../libs/ChibiOS_2.4.0/test/testqueues.c" 1
 895 0052 83F31188 		msr     BASEPRI, r3
 896              	@ 0 "" 2
 897              	.LVL119:
 898              		.thumb
 899              	.LBE43:
 900              	.LBB44:
 901              		.loc 1 113 0 discriminator 2
ARM GAS  /tmp/cca9KgQf.s 			page 17


 902 0056 2023     		movs	r3, #32
 903              	.LVL120:
 904              	@ 113 "../libs/ChibiOS_2.4.0/test/testqueues.c" 1
 905 0058 83F31188 		msr     BASEPRI, r3
 906              	@ 0 "" 2
 907              	.LVL121:
 908              		.thumb
 909              	.LBE44:
 910 005c 6269     		ldr	r2, [r4, #20]
 911 005e A369     		ldr	r3, [r4, #24]
 912              	.LVL122:
 913 0060 9A42     		cmp	r2, r3
 914 0062 5CD0     		beq	.L47
 915              		.loc 1 113 0 is_stmt 0
 916 0064 2946     		mov	r1, r5
 917              	.L37:
 918              		.loc 1 113 0 discriminator 4
 919 0066 0220     		movs	r0, #2
 920 0068 FFF7FEFF 		bl	_test_assert
 921 006c 0646     		mov	r6, r0
 922 006e 28B1     		cbz	r0, .L38
 923              	.LBB45:
 924              		.loc 1 113 0 discriminator 5
 925 0070 0023     		movs	r3, #0
 926              	.LVL123:
 927              	@ 113 "../libs/ChibiOS_2.4.0/test/testqueues.c" 1
 928 0072 83F31188 		msr     BASEPRI, r3
 929              	@ 0 "" 2
 930              	.LVL124:
 931              		.thumb
 932              	.L34:
 933              	.LBE45:
 934              		.loc 1 158 0 is_stmt 1
 935 0076 03B0     		add	sp, sp, #12
 936 0078 BDE8F083 		pop	{r4, r5, r6, r7, r8, r9, pc}
 937              	.LVL125:
 938              	.L38:
 939              	.LBB46:
 940              		.loc 1 113 0 discriminator 6
 941 007c 0346     		mov	r3, r0
 942              	.LVL126:
 943              	@ 113 "../libs/ChibiOS_2.4.0/test/testqueues.c" 1
 944 007e 83F31188 		msr     BASEPRI, r3
 945              	@ 0 "" 2
 946              	.LVL127:
 947              		.thumb
 948              	.LBE46:
 949              	.LBB47:
 950              		.loc 1 114 0 discriminator 6
 951 0082 2023     		movs	r3, #32
 952              	.LVL128:
 953              	@ 114 "../libs/ChibiOS_2.4.0/test/testqueues.c" 1
 954 0084 83F31188 		msr     BASEPRI, r3
 955              	@ 0 "" 2
 956              	.LVL129:
 957              		.thumb
 958              	.LBE47:
ARM GAS  /tmp/cca9KgQf.s 			page 18


 959 0088 924D     		ldr	r5, .L50
 960 008a 0146     		mov	r1, r0
 961 008c 2846     		mov	r0, r5
 962 008e FFF7FEFF 		bl	chIQPutI
 963              	.LVL130:
 964 0092 10F1040F 		cmn	r0, #4
 965 0096 14BF     		ite	ne
 966 0098 0021     		movne	r1, #0
 967 009a 0121     		moveq	r1, #1
 968 009c 0320     		movs	r0, #3
 969 009e FFF7FEFF 		bl	_test_assert
 970 00a2 0746     		mov	r7, r0
 971 00a4 0028     		cmp	r0, #0
 972 00a6 36D1     		bne	.L48
 973              	.LBB48:
 974              		.loc 1 114 0 is_stmt 0 discriminator 2
 975 00a8 0346     		mov	r3, r0
 976              	.LVL131:
 977              	@ 114 "../libs/ChibiOS_2.4.0/test/testqueues.c" 1
 978 00aa 83F31188 		msr     BASEPRI, r3
 979              	@ 0 "" 2
 980              	.LVL132:
 981              		.thumb
 982              	.LBE48:
 983              		.loc 1 118 0 is_stmt 1 discriminator 2
 984 00ae 4FF0FF31 		mov	r1, #-1
 985 00b2 2846     		mov	r0, r5
 986 00b4 FFF7FEFF 		bl	chIQGetTimeout
 987              	.LVL133:
 988 00b8 C0B2     		uxtb	r0, r0
 989 00ba FFF7FEFF 		bl	test_emit_token
 990              	.LVL134:
 991 00be 4FF0FF31 		mov	r1, #-1
 992 00c2 2846     		mov	r0, r5
 993 00c4 FFF7FEFF 		bl	chIQGetTimeout
 994 00c8 C0B2     		uxtb	r0, r0
 995 00ca FFF7FEFF 		bl	test_emit_token
 996              	.LVL135:
 997 00ce 4FF0FF31 		mov	r1, #-1
 998 00d2 2846     		mov	r0, r5
 999 00d4 FFF7FEFF 		bl	chIQGetTimeout
 1000 00d8 C0B2     		uxtb	r0, r0
 1001 00da FFF7FEFF 		bl	test_emit_token
 1002              	.LVL136:
 1003 00de 4FF0FF31 		mov	r1, #-1
 1004 00e2 2846     		mov	r0, r5
 1005 00e4 FFF7FEFF 		bl	chIQGetTimeout
 1006 00e8 C0B2     		uxtb	r0, r0
 1007 00ea FFF7FEFF 		bl	test_emit_token
 1008              	.LVL137:
 1009              	.LBB49:
 1010              		.loc 1 119 0 discriminator 2
 1011 00ee 2023     		movs	r3, #32
 1012              	.LVL138:
 1013              	@ 119 "../libs/ChibiOS_2.4.0/test/testqueues.c" 1
 1014 00f0 83F31188 		msr     BASEPRI, r3
 1015              	@ 0 "" 2
ARM GAS  /tmp/cca9KgQf.s 			page 19


 1016              	.LVL139:
 1017              		.thumb
 1018              	.LBE49:
 1019 00f4 A968     		ldr	r1, [r5, #8]
 1020 00f6 0420     		movs	r0, #4
 1021 00f8 D1F10101 		rsbs	r1, r1, #1
 1022 00fc 38BF     		it	cc
 1023 00fe 0021     		movcc	r1, #0
 1024 0100 FFF7FEFF 		bl	_test_assert
 1025              	.LVL140:
 1026 0104 80B1     		cbz	r0, .L40
 1027              	.LBB50:
 1028              		.loc 1 119 0 is_stmt 0 discriminator 1
 1029 0106 3B46     		mov	r3, r7
 1030              	@ 119 "../libs/ChibiOS_2.4.0/test/testqueues.c" 1
 1031 0108 83F31188 		msr     BASEPRI, r3
 1032              	@ 0 "" 2
 1033              	.LVL141:
 1034              		.thumb
 1035              	.LBE50:
 1036 010c B3E7     		b	.L34
 1037              	.LVL142:
 1038              	.L46:
 1039              	.LBB51:
 1040              		.loc 1 106 0 is_stmt 1 discriminator 1
 1041 010e 0023     		movs	r3, #0
 1042              	@ 106 "../libs/ChibiOS_2.4.0/test/testqueues.c" 1
 1043 0110 83F31188 		msr     BASEPRI, r3
 1044              	@ 0 "" 2
 1045              	.LVL143:
 1046              		.thumb
 1047              	.LBE51:
 1048 0114 AFE7     		b	.L34
 1049              	.LVL144:
 1050              	.L48:
 1051              	.LBB52:
 1052              		.loc 1 114 0 discriminator 1
 1053 0116 3346     		mov	r3, r6
 1054              	@ 114 "../libs/ChibiOS_2.4.0/test/testqueues.c" 1
 1055 0118 83F31188 		msr     BASEPRI, r3
 1056              	@ 0 "" 2
 1057              	.LVL145:
 1058              		.thumb
 1059              	.LBE52:
 1060 011c ABE7     		b	.L34
 1061              	.LVL146:
 1062              	.L47:
 1063              		.loc 1 101 0 discriminator 1
 1064 011e A068     		ldr	r0, [r4, #8]
 1065 0120 011E     		subs	r1, r0, #0
 1066 0122 18BF     		it	ne
 1067 0124 0121     		movne	r1, #1
 1068 0126 9EE7     		b	.L37
 1069              	.L40:
 1070              	.LBB53:
 1071              		.loc 1 119 0 discriminator 2
 1072 0128 0346     		mov	r3, r0
ARM GAS  /tmp/cca9KgQf.s 			page 20


 1073              	.LVL147:
 1074              	@ 119 "../libs/ChibiOS_2.4.0/test/testqueues.c" 1
 1075 012a 83F31188 		msr     BASEPRI, r3
 1076              	@ 0 "" 2
 1077              	.LVL148:
 1078              		.thumb
 1079              	.LBE53:
 1080              		.loc 1 120 0 discriminator 2
 1081 012e 0520     		movs	r0, #5
 1082 0130 6949     		ldr	r1, .L50+4
 1083 0132 FFF7FEFF 		bl	_test_assert_sequence
 1084              	.LVL149:
 1085 0136 0646     		mov	r6, r0
 1086 0138 0028     		cmp	r0, #0
 1087 013a 9CD1     		bne	.L34
 1088              	.LBB54:
 1089              		.loc 1 123 0
 1090 013c 2023     		movs	r3, #32
 1091              	.LVL150:
 1092              	@ 123 "../libs/ChibiOS_2.4.0/test/testqueues.c" 1
 1093 013e 83F31188 		msr     BASEPRI, r3
 1094              	@ 0 "" 2
 1095              	.LVL151:
 1096              		.thumb
 1097              	.LBE54:
 1098              		.loc 1 125 0
 1099 0142 4121     		movs	r1, #65
 1100 0144 2846     		mov	r0, r5
 1101 0146 FFF7FEFF 		bl	chIQPutI
 1102              	.LVL152:
 1103 014a 4221     		movs	r1, #66
 1104 014c 2846     		mov	r0, r5
 1105 014e FFF7FEFF 		bl	chIQPutI
 1106              	.LVL153:
 1107 0152 4321     		movs	r1, #67
 1108 0154 2846     		mov	r0, r5
 1109 0156 FFF7FEFF 		bl	chIQPutI
 1110              	.LVL154:
 1111 015a 2846     		mov	r0, r5
 1112 015c 4421     		movs	r1, #68
 1113 015e FFF7FEFF 		bl	chIQPutI
 1114              	.LVL155:
 1115              	.LBB55:
 1116              		.loc 1 126 0
 1117 0162 3346     		mov	r3, r6
 1118              	.LVL156:
 1119              	@ 126 "../libs/ChibiOS_2.4.0/test/testqueues.c" 1
 1120 0164 83F31188 		msr     BASEPRI, r3
 1121              	@ 0 "" 2
 1122              	.LVL157:
 1123              		.thumb
 1124              	.LBE55:
 1125              		.loc 1 129 0
 1126 0168 5C4F     		ldr	r7, .L50+8
 1127 016a 7E68     		ldr	r6, [r7, #4]
 1128 016c 0822     		movs	r2, #8
 1129 016e 3146     		mov	r1, r6
ARM GAS  /tmp/cca9KgQf.s 			page 21


 1130 0170 2846     		mov	r0, r5
 1131 0172 FFF7FEFF 		bl	chIQReadTimeout
 1132              	.LVL158:
 1133              		.loc 1 130 0
 1134 0176 A0F1040C 		sub	ip, r0, #4
 1135 017a DCF10008 		rsbs	r8, ip, #0
 1136 017e 48EB0C01 		adc	r1, r8, ip
 1137 0182 0620     		movs	r0, #6
 1138              	.LVL159:
 1139 0184 FFF7FEFF 		bl	_test_assert
 1140              	.LVL160:
 1141 0188 8046     		mov	r8, r0
 1142 018a 0028     		cmp	r0, #0
 1143 018c 7FF473AF 		bne	.L34
 1144              	.LBB56:
 1145              		.loc 1 131 0
 1146 0190 2023     		movs	r3, #32
 1147              	.LVL161:
 1148              	@ 131 "../libs/ChibiOS_2.4.0/test/testqueues.c" 1
 1149 0192 83F31188 		msr     BASEPRI, r3
 1150              	@ 0 "" 2
 1151              	.LVL162:
 1152              		.thumb
 1153              	.LBE56:
 1154 0196 AA68     		ldr	r2, [r5, #8]
 1155 0198 0720     		movs	r0, #7
 1156 019a D2F10101 		rsbs	r1, r2, #1
 1157 019e 38BF     		it	cc
 1158 01a0 0021     		movcc	r1, #0
 1159 01a2 FFF7FEFF 		bl	_test_assert
 1160              	.LVL163:
 1161 01a6 8146     		mov	r9, r0
 1162 01a8 0028     		cmp	r0, #0
 1163 01aa 4CD1     		bne	.L49
 1164              	.LBB57:
 1165              		.loc 1 131 0 is_stmt 0 discriminator 2
 1166 01ac 0346     		mov	r3, r0
 1167              	.LVL164:
 1168              	@ 131 "../libs/ChibiOS_2.4.0/test/testqueues.c" 1
 1169 01ae 83F31188 		msr     BASEPRI, r3
 1170              	@ 0 "" 2
 1171              	.LVL165:
 1172              		.thumb
 1173              	.LBE57:
 1174              	.LBB58:
 1175              		.loc 1 134 0 is_stmt 1 discriminator 2
 1176 01b2 2023     		movs	r3, #32
 1177              	.LVL166:
 1178              	@ 134 "../libs/ChibiOS_2.4.0/test/testqueues.c" 1
 1179 01b4 83F31188 		msr     BASEPRI, r3
 1180              	@ 0 "" 2
 1181              	.LVL167:
 1182              		.thumb
 1183              	.LBE58:
 1184              		.loc 1 136 0 discriminator 2
 1185 01b8 4121     		movs	r1, #65
 1186 01ba 2846     		mov	r0, r5
ARM GAS  /tmp/cca9KgQf.s 			page 22


 1187 01bc FFF7FEFF 		bl	chIQPutI
 1188              	.LVL168:
 1189 01c0 4221     		movs	r1, #66
 1190 01c2 2846     		mov	r0, r5
 1191 01c4 FFF7FEFF 		bl	chIQPutI
 1192              	.LVL169:
 1193 01c8 4321     		movs	r1, #67
 1194 01ca 2846     		mov	r0, r5
 1195 01cc FFF7FEFF 		bl	chIQPutI
 1196              	.LVL170:
 1197 01d0 2846     		mov	r0, r5
 1198 01d2 4421     		movs	r1, #68
 1199 01d4 FFF7FEFF 		bl	chIQPutI
 1200              	.LVL171:
 1201              	.LBB59:
 1202              		.loc 1 137 0 discriminator 2
 1203 01d8 4B46     		mov	r3, r9
 1204              	.LVL172:
 1205              	@ 137 "../libs/ChibiOS_2.4.0/test/testqueues.c" 1
 1206 01da 83F31188 		msr     BASEPRI, r3
 1207              	@ 0 "" 2
 1208              	.LVL173:
 1209              		.thumb
 1210              	.LBE59:
 1211              		.loc 1 140 0 discriminator 2
 1212 01de 0222     		movs	r2, #2
 1213 01e0 3146     		mov	r1, r6
 1214 01e2 2846     		mov	r0, r5
 1215 01e4 FFF7FEFF 		bl	chIQReadTimeout
 1216              	.LVL174:
 1217              		.loc 1 141 0 discriminator 2
 1218 01e8 A0F1020E 		sub	lr, r0, #2
 1219 01ec DEF10003 		rsbs	r3, lr, #0
 1220 01f0 43EB0E01 		adc	r1, r3, lr
 1221 01f4 0820     		movs	r0, #8
 1222              	.LVL175:
 1223 01f6 FFF7FEFF 		bl	_test_assert
 1224              	.LVL176:
 1225 01fa 0028     		cmp	r0, #0
 1226 01fc 7FF43BAF 		bne	.L34
 1227              		.loc 1 142 0
 1228 0200 0222     		movs	r2, #2
 1229 0202 0346     		mov	r3, r0
 1230 0204 3146     		mov	r1, r6
 1231 0206 2846     		mov	r0, r5
 1232 0208 FFF7FEFF 		bl	chIQReadTimeout
 1233              	.LVL177:
 1234              		.loc 1 143 0
 1235 020c A0F10200 		sub	r0, r0, #2
 1236              	.LVL178:
 1237 0210 4142     		rsbs	r1, r0, #0
 1238 0212 41EB0001 		adc	r1, r1, r0
 1239 0216 0920     		movs	r0, #9
 1240              	.LVL179:
 1241 0218 FFF7FEFF 		bl	_test_assert
 1242 021c 8046     		mov	r8, r0
 1243 021e 0028     		cmp	r0, #0
ARM GAS  /tmp/cca9KgQf.s 			page 23


 1244 0220 7FF429AF 		bne	.L34
 1245              	.LBB60:
 1246              		.loc 1 144 0
 1247 0224 2023     		movs	r3, #32
 1248              	.LVL180:
 1249              	@ 144 "../libs/ChibiOS_2.4.0/test/testqueues.c" 1
 1250 0226 83F31188 		msr     BASEPRI, r3
 1251              	@ 0 "" 2
 1252              	.LVL181:
 1253              		.thumb
 1254              	.LBE60:
 1255 022a AE68     		ldr	r6, [r5, #8]
 1256 022c 0A20     		movs	r0, #10
 1257 022e D6F10101 		rsbs	r1, r6, #1
 1258 0232 38BF     		it	cc
 1259 0234 0021     		movcc	r1, #0
 1260 0236 FFF7FEFF 		bl	_test_assert
 1261              	.LVL182:
 1262 023a 0646     		mov	r6, r0
 1263 023c 38B1     		cbz	r0, .L42
 1264              	.LBB61:
 1265              		.loc 1 144 0 is_stmt 0 discriminator 1
 1266 023e 4346     		mov	r3, r8
 1267              	@ 144 "../libs/ChibiOS_2.4.0/test/testqueues.c" 1
 1268 0240 83F31188 		msr     BASEPRI, r3
 1269              	@ 0 "" 2
 1270              	.LVL183:
 1271              		.thumb
 1272              	.LBE61:
 1273 0244 17E7     		b	.L34
 1274              	.LVL184:
 1275              	.L49:
 1276              	.LBB62:
 1277              		.loc 1 131 0 is_stmt 1 discriminator 1
 1278 0246 4346     		mov	r3, r8
 1279              	@ 131 "../libs/ChibiOS_2.4.0/test/testqueues.c" 1
 1280 0248 83F31188 		msr     BASEPRI, r3
 1281              	@ 0 "" 2
 1282              	.LVL185:
 1283              		.thumb
 1284              	.LBE62:
 1285 024c 13E7     		b	.L34
 1286              	.LVL186:
 1287              	.L42:
 1288              	.LBB63:
 1289              		.loc 1 144 0 discriminator 2
 1290 024e 0346     		mov	r3, r0
 1291              	.LVL187:
 1292              	@ 144 "../libs/ChibiOS_2.4.0/test/testqueues.c" 1
 1293 0250 83F31188 		msr     BASEPRI, r3
 1294              	@ 0 "" 2
 1295              	.LVL188:
 1296              		.thumb
 1297              	.LBE63:
 1298              	.LBB64:
 1299              		.loc 1 147 0 discriminator 2
 1300 0254 2023     		movs	r3, #32
ARM GAS  /tmp/cca9KgQf.s 			page 24


 1301              	.LVL189:
 1302              	@ 147 "../libs/ChibiOS_2.4.0/test/testqueues.c" 1
 1303 0256 83F31188 		msr     BASEPRI, r3
 1304              	@ 0 "" 2
 1305              	.LVL190:
 1306              		.thumb
 1307              	.LBE64:
 1308              		.loc 1 148 0 discriminator 2
 1309 025a 0146     		mov	r1, r0
 1310 025c 2846     		mov	r0, r5
 1311 025e FFF7FEFF 		bl	chIQPutI
 1312              	.LVL191:
 1313              		.loc 1 149 0 discriminator 2
 1314 0262 2846     		mov	r0, r5
 1315 0264 FFF7FEFF 		bl	chIQResetI
 1316              	.LBB65:
 1317              		.loc 1 150 0 discriminator 2
 1318 0268 3346     		mov	r3, r6
 1319              	.LVL192:
 1320              	@ 150 "../libs/ChibiOS_2.4.0/test/testqueues.c" 1
 1321 026a 83F31188 		msr     BASEPRI, r3
 1322              	@ 0 "" 2
 1323              	.LVL193:
 1324              		.thumb
 1325              	.LBE65:
 1326              	.LBB66:
 1327              		.loc 1 151 0 discriminator 2
 1328 026e 2023     		movs	r3, #32
 1329              	.LVL194:
 1330              	@ 151 "../libs/ChibiOS_2.4.0/test/testqueues.c" 1
 1331 0270 83F31188 		msr     BASEPRI, r3
 1332              	@ 0 "" 2
 1333              	.LVL195:
 1334              		.thumb
 1335              	.LBE66:
 1336 0274 AA68     		ldr	r2, [r5, #8]
 1337 0276 0B20     		movs	r0, #11
 1338 0278 D2F10101 		rsbs	r1, r2, #1
 1339 027c 38BF     		it	cc
 1340 027e 0021     		movcc	r1, #0
 1341 0280 FFF7FEFF 		bl	_test_assert
 1342              	.LVL196:
 1343 0284 18B1     		cbz	r0, .L43
 1344              	.LBB67:
 1345              		.loc 1 151 0 is_stmt 0 discriminator 1
 1346 0286 0023     		movs	r3, #0
 1347              	@ 151 "../libs/ChibiOS_2.4.0/test/testqueues.c" 1
 1348 0288 83F31188 		msr     BASEPRI, r3
 1349              	@ 0 "" 2
 1350              	.LVL197:
 1351              		.thumb
 1352              	.LBE67:
 1353 028c F3E6     		b	.L34
 1354              	.LVL198:
 1355              	.L43:
 1356              	.LBB68:
 1357              		.loc 1 151 0 discriminator 2
ARM GAS  /tmp/cca9KgQf.s 			page 25


 1358 028e 0023     		movs	r3, #0
 1359              	.LVL199:
 1360              	@ 151 "../libs/ChibiOS_2.4.0/test/testqueues.c" 1
 1361 0290 83F31188 		msr     BASEPRI, r3
 1362              	@ 0 "" 2
 1363              	.LVL200:
 1364              		.thumb
 1365              	.LBE68:
 1366              		.loc 1 152 0 is_stmt 1 discriminator 2
 1367 0294 1249     		ldr	r1, .L50+12
 1368 0296 3868     		ldr	r0, [r7, #0]
 1369 0298 CD69     		ldr	r5, [r1, #28]
 1370 029a AA68     		ldr	r2, [r5, #8]
 1371 029c 4FF49071 		mov	r1, #288
 1372 02a0 1D46     		mov	r5, r3
 1373 02a2 0132     		adds	r2, r2, #1
 1374 02a4 0F4B     		ldr	r3, .L50+16
 1375              	.LVL201:
 1376 02a6 0095     		str	r5, [sp, #0]
 1377 02a8 FFF7FEFF 		bl	chThdCreateStatic
 1378 02ac 0E4A     		ldr	r2, .L50+20
 1379              	.LBB69:
 1380              		.loc 1 153 0 discriminator 2
 1381 02ae 2023     		movs	r3, #32
 1382              	.LVL202:
 1383              	.LBE69:
 1384              		.loc 1 152 0 discriminator 2
 1385 02b0 1060     		str	r0, [r2, #0]
 1386              	.LBB70:
 1387              		.loc 1 153 0 discriminator 2
 1388              	@ 153 "../libs/ChibiOS_2.4.0/test/testqueues.c" 1
 1389 02b2 83F31188 		msr     BASEPRI, r3
 1390              	@ 0 "" 2
 1391              	.LVL203:
 1392              		.thumb
 1393              	.LBE70:
 1394 02b6 A168     		ldr	r1, [r4, #8]
 1395 02b8 4B1B     		subs	r3, r1, r5
 1396              	.LVL204:
 1397 02ba 0C20     		movs	r0, #12
 1398 02bc D3F1000C 		rsbs	ip, r3, #0
 1399 02c0 4CEB0301 		adc	r1, ip, r3
 1400 02c4 FFF7FEFF 		bl	_test_assert
 1401 02c8 0346     		mov	r3, r0
 1402 02ca 78B1     		cbz	r0, .L44
 1403              	.LBB71:
 1404              		.loc 1 153 0 is_stmt 0 discriminator 1
 1405 02cc 2B46     		mov	r3, r5
 1406              	@ 153 "../libs/ChibiOS_2.4.0/test/testqueues.c" 1
 1407 02ce 83F31188 		msr     BASEPRI, r3
 1408              	@ 0 "" 2
 1409              	.LVL205:
 1410              		.thumb
 1411 02d2 D0E6     		b	.L34
 1412              	.L51:
 1413              		.align	2
 1414              	.L50:
ARM GAS  /tmp/cca9KgQf.s 			page 26


 1415 02d4 00000000 		.word	.LANCHOR1
 1416 02d8 00000000 		.word	.LC0
 1417 02dc 00000000 		.word	wa
 1418 02e0 00000000 		.word	rlist
 1419 02e4 00000000 		.word	thread1
 1420 02e8 00000000 		.word	threads
 1421              	.LVL206:
 1422              	.L44:
 1423              	.LBE71:
 1424              	.LBB72:
 1425              		.loc 1 153 0 discriminator 2
 1426              	@ 153 "../libs/ChibiOS_2.4.0/test/testqueues.c" 1
 1427 02ec 83F31188 		msr     BASEPRI, r3
 1428              	@ 0 "" 2
 1429              	.LVL207:
 1430              		.thumb
 1431              	.LBE72:
 1432              		.loc 1 154 0 is_stmt 1 discriminator 2
 1433 02f0 FFF7FEFF 		bl	test_wait_threads
 1434              	.LVL208:
 1435              		.loc 1 157 0 discriminator 2
 1436 02f4 0A21     		movs	r1, #10
 1437 02f6 0748     		ldr	r0, .L52
 1438 02f8 FFF7FEFF 		bl	chIQGetTimeout
 1439 02fc A0F1FF3C 		sub	ip, r0, #-1
 1440 0300 DCF10000 		rsbs	r0, ip, #0
 1441 0304 40EB0C01 		adc	r1, r0, ip
 1442 0308 0D20     		movs	r0, #13
 1443              		.loc 1 158 0 discriminator 2
 1444 030a 03B0     		add	sp, sp, #12
 1445 030c BDE8F043 		pop	{r4, r5, r6, r7, r8, r9, lr}
 1446              		.loc 1 157 0 discriminator 2
 1447 0310 FFF7FEBF 		b	_test_assert
 1448              	.L53:
 1449              		.align	2
 1450              	.L52:
 1451 0314 00000000 		.word	.LANCHOR1
 1452              		.cfi_endproc
 1453              	.LFE10:
 1454              		.size	queues1_execute, .-queues1_execute
 1455 0318 AFF30080 		.section	.text.queues1_setup,"ax",%progbits
 1455      AFF30080 
 1456              		.align	2
 1457              		.p2align 4,,15
 1458              		.thumb
 1459              		.thumb_func
 1460              		.type	queues1_setup, %function
 1461              	queues1_setup:
 1462              	.LFB8:
 1463              		.loc 1 89 0
 1464              		.cfi_startproc
 1465              		@ args = 0, pretend = 0, frame = 0
 1466              		@ frame_needed = 0, uses_anonymous_args = 0
 1467              		@ link register save eliminated.
 1468              		.loc 1 91 0
 1469 0000 034B     		ldr	r3, .L55
 1470 0002 0448     		ldr	r0, .L55+4
ARM GAS  /tmp/cca9KgQf.s 			page 27


 1471 0004 1968     		ldr	r1, [r3, #0]
 1472 0006 044B     		ldr	r3, .L55+8
 1473 0008 0422     		movs	r2, #4
 1474              		.loc 1 92 0
 1475              		.loc 1 91 0
 1476 000a FFF7FEBF 		b	chIQInit
 1477              	.L56:
 1478 000e 00BF     		.align	2
 1479              	.L55:
 1480 0010 00000000 		.word	wa
 1481 0014 00000000 		.word	.LANCHOR1
 1482 0018 00000000 		.word	notify
 1483              		.cfi_endproc
 1484              	.LFE8:
 1485              		.size	queues1_setup, .-queues1_setup
 1486              		.global	testqueues1
 1487              		.global	testqueues2
 1488              		.global	patternqueues
 1489 001c AFF30080 		.section	.rodata.testqueues1,"a",%progbits
 1490              		.align	2
 1491              		.type	testqueues1, %object
 1492              		.size	testqueues1, 16
 1493              	testqueues1:
 1494 0000 08000000 		.word	.LC1
 1495 0004 00000000 		.word	queues1_setup
 1496 0008 00000000 		.word	0
 1497 000c 00000000 		.word	queues1_execute
 1498              		.section	.rodata.testqueues2,"a",%progbits
 1499              		.align	2
 1500              		.type	testqueues2, %object
 1501              		.size	testqueues2, 16
 1502              	testqueues2:
 1503 0000 20000000 		.word	.LC2
 1504 0004 00000000 		.word	queues2_setup
 1505 0008 00000000 		.word	0
 1506 000c 00000000 		.word	queues2_execute
 1507              		.section	.rodata.str1.4,"aMS",%progbits,1
 1508              		.align	2
 1509              	.LC0:
 1510 0000 41424344 		.ascii	"ABCD\000"
 1510      00
 1511 0005 000000   		.space	3
 1512              	.LC1:
 1513 0008 51756575 		.ascii	"Queues, input queues\000"
 1513      65732C20 
 1513      696E7075 
 1513      74207175 
 1513      65756573 
 1514 001d 000000   		.space	3
 1515              	.LC2:
 1516 0020 51756575 		.ascii	"Queues, output queues\000"
 1516      65732C20 
 1516      6F757470 
 1516      75742071 
 1516      75657565 
 1517 0036 0000     		.section	.rodata.patternqueues,"a",%progbits
 1518              		.align	2
ARM GAS  /tmp/cca9KgQf.s 			page 28


 1519              		.type	patternqueues, %object
 1520              		.size	patternqueues, 12
 1521              	patternqueues:
 1522 0000 00000000 		.word	testqueues1
 1523 0004 00000000 		.word	testqueues2
 1524 0008 00000000 		.word	0
 1525              		.section	.data.oq,"aw",%progbits
 1526              		.align	2
 1527              		.set	.LANCHOR0,. + 0
 1528              		.type	oq, %object
 1529              		.size	oq, 32
 1530              	oq:
 1531 0000 00000000 		.word	oq
 1532 0004 00000000 		.word	oq
 1533 0008 04000000 		.word	4
 1534 000c 20010000 		.word	test+288
 1535 0010 24010000 		.word	test+292
 1536 0014 20010000 		.word	test+288
 1537 0018 20010000 		.word	test+288
 1538 001c 00000000 		.word	notify
 1539              		.section	.data.iq,"aw",%progbits
 1540              		.align	2
 1541              		.set	.LANCHOR1,. + 0
 1542              		.type	iq, %object
 1543              		.size	iq, 32
 1544              	iq:
 1545 0000 00000000 		.word	iq
 1546 0004 00000000 		.word	iq
 1547 0008 00000000 		.word	0
 1548 000c 00000000 		.word	test
 1549 0010 04000000 		.word	test+4
 1550 0014 00000000 		.word	test
 1551 0018 00000000 		.word	test
 1552 001c 00000000 		.word	notify
 1553              		.text
 1554              	.Letext0:
 1555              		.section	.debug_loc,"",%progbits
 1556              	.Ldebug_loc0:
 1557              	.LLST0:
 1558 0000 00000000 		.4byte	.LFB12
 1559 0004 02000000 		.4byte	.LCFI0
 1560 0008 0200     		.2byte	0x2
 1561 000a 7D       		.byte	0x7d
 1562 000b 00       		.sleb128 0
 1563 000c 02000000 		.4byte	.LCFI0
 1564 0010 14000000 		.4byte	.LFE12
 1565 0014 0200     		.2byte	0x2
 1566 0016 7D       		.byte	0x7d
 1567 0017 08       		.sleb128 8
 1568 0018 00000000 		.4byte	0x0
 1569 001c 00000000 		.4byte	0x0
 1570              	.LLST1:
 1571 0020 00000000 		.4byte	.LVL1
 1572 0024 08000000 		.4byte	.LVL2
 1573 0028 0100     		.2byte	0x1
 1574 002a 50       		.byte	0x50
 1575 002b 00000000 		.4byte	0x0
ARM GAS  /tmp/cca9KgQf.s 			page 29


 1576 002f 00000000 		.4byte	0x0
 1577              	.LLST2:
 1578 0033 00000000 		.4byte	.LFB13
 1579 0037 04000000 		.4byte	.LCFI1
 1580 003b 0200     		.2byte	0x2
 1581 003d 7D       		.byte	0x7d
 1582 003e 00       		.sleb128 0
 1583 003f 04000000 		.4byte	.LCFI1
 1584 0043 08000000 		.4byte	.LCFI2
 1585 0047 0200     		.2byte	0x2
 1586 0049 7D       		.byte	0x7d
 1587 004a 18       		.sleb128 24
 1588 004b 08000000 		.4byte	.LCFI2
 1589 004f F0020000 		.4byte	.LFE13
 1590 0053 0200     		.2byte	0x2
 1591 0055 7D       		.byte	0x7d
 1592 0056 20       		.sleb128 32
 1593 0057 00000000 		.4byte	0x0
 1594 005b 00000000 		.4byte	0x0
 1595              	.LLST3:
 1596 005f 2A000000 		.4byte	.LVL7
 1597 0063 38000000 		.4byte	.LVL8
 1598 0067 0200     		.2byte	0x2
 1599 0069 30       		.byte	0x30
 1600 006a 9F       		.byte	0x9f
 1601 006b 38000000 		.4byte	.LVL8
 1602 006f 44000000 		.4byte	.LVL9
 1603 0073 0200     		.2byte	0x2
 1604 0075 31       		.byte	0x31
 1605 0076 9F       		.byte	0x9f
 1606 0077 44000000 		.4byte	.LVL9
 1607 007b 50000000 		.4byte	.LVL10
 1608 007f 0200     		.2byte	0x2
 1609 0081 32       		.byte	0x32
 1610 0082 9F       		.byte	0x9f
 1611 0083 50000000 		.4byte	.LVL10
 1612 0087 5C000000 		.4byte	.LVL11
 1613 008b 0200     		.2byte	0x2
 1614 008d 33       		.byte	0x33
 1615 008e 9F       		.byte	0x9f
 1616 008f 5C000000 		.4byte	.LVL11
 1617 0093 7E000000 		.4byte	.LVL16
 1618 0097 0200     		.2byte	0x2
 1619 0099 34       		.byte	0x34
 1620 009a 9F       		.byte	0x9f
 1621 009b 7E000000 		.4byte	.LVL16
 1622 009f 96000000 		.4byte	.LVL23
 1623 00a3 0200     		.2byte	0x2
 1624 00a5 30       		.byte	0x30
 1625 00a6 9F       		.byte	0x9f
 1626 00a7 96000000 		.4byte	.LVL23
 1627 00ab AE000000 		.4byte	.LVL28
 1628 00af 0200     		.2byte	0x2
 1629 00b1 31       		.byte	0x31
 1630 00b2 9F       		.byte	0x9f
 1631 00b3 AE000000 		.4byte	.LVL28
 1632 00b7 C6000000 		.4byte	.LVL33
ARM GAS  /tmp/cca9KgQf.s 			page 30


 1633 00bb 0200     		.2byte	0x2
 1634 00bd 32       		.byte	0x32
 1635 00be 9F       		.byte	0x9f
 1636 00bf C6000000 		.4byte	.LVL33
 1637 00c3 DE000000 		.4byte	.LVL38
 1638 00c7 0200     		.2byte	0x2
 1639 00c9 33       		.byte	0x33
 1640 00ca 9F       		.byte	0x9f
 1641 00cb DE000000 		.4byte	.LVL38
 1642 00cf FC000000 		.4byte	.LVL43
 1643 00d3 0200     		.2byte	0x2
 1644 00d5 34       		.byte	0x34
 1645 00d6 9F       		.byte	0x9f
 1646 00d7 02010000 		.4byte	.LVL44
 1647 00db 0A010000 		.4byte	.LVL46
 1648 00df 0200     		.2byte	0x2
 1649 00e1 34       		.byte	0x34
 1650 00e2 9F       		.byte	0x9f
 1651 00e3 1C010000 		.4byte	.LVL49
 1652 00e7 F0020000 		.4byte	.LFE13
 1653 00eb 0200     		.2byte	0x2
 1654 00ed 34       		.byte	0x34
 1655 00ee 9F       		.byte	0x9f
 1656 00ef 00000000 		.4byte	0x0
 1657 00f3 00000000 		.4byte	0x0
 1658              	.LLST4:
 1659 00f7 76010000 		.4byte	.LVL61
 1660 00fb 84010000 		.4byte	.LVL62
 1661 00ff 0100     		.2byte	0x1
 1662 0101 50       		.byte	0x50
 1663 0102 84010000 		.4byte	.LVL62
 1664 0106 8A010000 		.4byte	.LVL63
 1665 010a 0300     		.2byte	0x3
 1666 010c 78       		.byte	0x78
 1667 010d 04       		.sleb128 4
 1668 010e 9F       		.byte	0x9f
 1669 010f 52020000 		.4byte	.LVL91
 1670 0113 60020000 		.4byte	.LVL92
 1671 0117 0100     		.2byte	0x1
 1672 0119 50       		.byte	0x50
 1673 011a 60020000 		.4byte	.LVL92
 1674 011e 63020000 		.4byte	.LVL93-1
 1675 0122 0300     		.2byte	0x3
 1676 0124 72       		.byte	0x72
 1677 0125 02       		.sleb128 2
 1678 0126 9F       		.byte	0x9f
 1679 0127 76020000 		.4byte	.LVL94
 1680 012b 7A020000 		.4byte	.LVL95
 1681 012f 0100     		.2byte	0x1
 1682 0131 50       		.byte	0x50
 1683 0132 7A020000 		.4byte	.LVL95
 1684 0136 82020000 		.4byte	.LVL96
 1685 013a 0300     		.2byte	0x3
 1686 013c 70       		.byte	0x70
 1687 013d 02       		.sleb128 2
 1688 013e 9F       		.byte	0x9f
 1689 013f 00000000 		.4byte	0x0
ARM GAS  /tmp/cca9KgQf.s 			page 31


 1690 0143 00000000 		.4byte	0x0
 1691              	.LLST5:
 1692 0147 0C000000 		.4byte	.LVL4
 1693 014b 12000000 		.4byte	.LVL5
 1694 014f 0100     		.2byte	0x1
 1695 0151 53       		.byte	0x53
 1696 0152 00000000 		.4byte	0x0
 1697 0156 00000000 		.4byte	0x0
 1698              	.LLST6:
 1699 015a 2A000000 		.4byte	.LVL7
 1700 015e 37000000 		.4byte	.LVL8-1
 1701 0162 0100     		.2byte	0x1
 1702 0164 53       		.byte	0x53
 1703 0165 00000000 		.4byte	0x0
 1704 0169 00000000 		.4byte	0x0
 1705              	.LLST7:
 1706 016d 62000000 		.4byte	.LVL13
 1707 0171 71000000 		.4byte	.LVL14-1
 1708 0175 0100     		.2byte	0x1
 1709 0177 53       		.byte	0x53
 1710 0178 00000000 		.4byte	0x0
 1711 017c 00000000 		.4byte	0x0
 1712              	.LLST8:
 1713 0180 7E000000 		.4byte	.LVL16
 1714 0184 80000000 		.4byte	.LVL17
 1715 0188 0100     		.2byte	0x1
 1716 018a 53       		.byte	0x53
 1717 018b 00000000 		.4byte	0x0
 1718 018f 00000000 		.4byte	0x0
 1719              	.LLST9:
 1720 0193 8A000000 		.4byte	.LVL19
 1721 0197 92000000 		.4byte	.LVL22
 1722 019b 0100     		.2byte	0x1
 1723 019d 50       		.byte	0x50
 1724 019e A2000000 		.4byte	.LVL25
 1725 01a2 AA000000 		.4byte	.LVL27
 1726 01a6 0100     		.2byte	0x1
 1727 01a8 50       		.byte	0x50
 1728 01a9 BA000000 		.4byte	.LVL30
 1729 01ad C2000000 		.4byte	.LVL32
 1730 01b1 0100     		.2byte	0x1
 1731 01b3 50       		.byte	0x50
 1732 01b4 D2000000 		.4byte	.LVL35
 1733 01b8 DA000000 		.4byte	.LVL37
 1734 01bc 0100     		.2byte	0x1
 1735 01be 50       		.byte	0x50
 1736 01bf 00000000 		.4byte	0x0
 1737 01c3 00000000 		.4byte	0x0
 1738              	.LLST10:
 1739 01c7 84000000 		.4byte	.LVL18
 1740 01cb 89000000 		.4byte	.LVL19-1
 1741 01cf 0100     		.2byte	0x1
 1742 01d1 53       		.byte	0x53
 1743 01d2 9C000000 		.4byte	.LVL24
 1744 01d6 A1000000 		.4byte	.LVL25-1
 1745 01da 0100     		.2byte	0x1
 1746 01dc 53       		.byte	0x53
ARM GAS  /tmp/cca9KgQf.s 			page 32


 1747 01dd B4000000 		.4byte	.LVL29
 1748 01e1 B9000000 		.4byte	.LVL30-1
 1749 01e5 0100     		.2byte	0x1
 1750 01e7 53       		.byte	0x53
 1751 01e8 CC000000 		.4byte	.LVL34
 1752 01ec D1000000 		.4byte	.LVL35-1
 1753 01f0 0100     		.2byte	0x1
 1754 01f2 53       		.byte	0x53
 1755 01f3 00000000 		.4byte	0x0
 1756 01f7 00000000 		.4byte	0x0
 1757              	.LLST11:
 1758 01fb 90000000 		.4byte	.LVL21
 1759 01ff 95000000 		.4byte	.LVL23-1
 1760 0203 0100     		.2byte	0x1
 1761 0205 53       		.byte	0x53
 1762 0206 A8000000 		.4byte	.LVL26
 1763 020a AD000000 		.4byte	.LVL28-1
 1764 020e 0100     		.2byte	0x1
 1765 0210 53       		.byte	0x53
 1766 0211 C0000000 		.4byte	.LVL31
 1767 0215 C5000000 		.4byte	.LVL33-1
 1768 0219 0100     		.2byte	0x1
 1769 021b 53       		.byte	0x53
 1770 021c D8000000 		.4byte	.LVL36
 1771 0220 DD000000 		.4byte	.LVL38-1
 1772 0224 0100     		.2byte	0x1
 1773 0226 53       		.byte	0x53
 1774 0227 00000000 		.4byte	0x0
 1775 022b 00000000 		.4byte	0x0
 1776              	.LLST12:
 1777 022f E4000000 		.4byte	.LVL40
 1778 0233 F3000000 		.4byte	.LVL41-1
 1779 0237 0100     		.2byte	0x1
 1780 0239 53       		.byte	0x53
 1781 023a 58010000 		.4byte	.LVL57
 1782 023e 5A010000 		.4byte	.LVL58
 1783 0242 0100     		.2byte	0x1
 1784 0244 53       		.byte	0x53
 1785 0245 00000000 		.4byte	0x0
 1786 0249 00000000 		.4byte	0x0
 1787              	.LLST13:
 1788 024d FC000000 		.4byte	.LVL43
 1789 0251 02010000 		.4byte	.LVL44
 1790 0255 0100     		.2byte	0x1
 1791 0257 53       		.byte	0x53
 1792 0258 00000000 		.4byte	0x0
 1793 025c 00000000 		.4byte	0x0
 1794              	.LLST14:
 1795 0260 FC000000 		.4byte	.LVL43
 1796 0264 02010000 		.4byte	.LVL44
 1797 0268 0100     		.2byte	0x1
 1798 026a 53       		.byte	0x53
 1799 026b 08010000 		.4byte	.LVL45
 1800 026f 0A010000 		.4byte	.LVL46
 1801 0273 0100     		.2byte	0x1
 1802 0275 53       		.byte	0x53
 1803 0276 00000000 		.4byte	0x0
ARM GAS  /tmp/cca9KgQf.s 			page 33


 1804 027a 00000000 		.4byte	0x0
 1805              	.LLST15:
 1806 027e FC000000 		.4byte	.LVL43
 1807 0282 02010000 		.4byte	.LVL44
 1808 0286 0100     		.2byte	0x1
 1809 0288 53       		.byte	0x53
 1810 0289 10010000 		.4byte	.LVL47
 1811 028d 12010000 		.4byte	.LVL48
 1812 0291 0100     		.2byte	0x1
 1813 0293 53       		.byte	0x53
 1814 0294 00000000 		.4byte	0x0
 1815 0298 00000000 		.4byte	0x0
 1816              	.LLST16:
 1817 029c 22010000 		.4byte	.LVL51
 1818 02a0 29010000 		.4byte	.LVL52-1
 1819 02a4 0100     		.2byte	0x1
 1820 02a6 53       		.byte	0x53
 1821 02a7 00000000 		.4byte	0x0
 1822 02ab 00000000 		.4byte	0x0
 1823              	.LLST17:
 1824 02af 36010000 		.4byte	.LVL54
 1825 02b3 3D010000 		.4byte	.LVL55-1
 1826 02b7 0100     		.2byte	0x1
 1827 02b9 53       		.byte	0x53
 1828 02ba 00000000 		.4byte	0x0
 1829 02be 00000000 		.4byte	0x0
 1830              	.LLST18:
 1831 02c2 FC000000 		.4byte	.LVL43
 1832 02c6 02010000 		.4byte	.LVL44
 1833 02ca 0100     		.2byte	0x1
 1834 02cc 53       		.byte	0x53
 1835 02cd 56010000 		.4byte	.LVL56
 1836 02d1 58010000 		.4byte	.LVL57
 1837 02d5 0100     		.2byte	0x1
 1838 02d7 53       		.byte	0x53
 1839 02d8 00000000 		.4byte	0x0
 1840 02dc 00000000 		.4byte	0x0
 1841              	.LLST19:
 1842 02e0 68010000 		.4byte	.LVL60
 1843 02e4 75010000 		.4byte	.LVL61-1
 1844 02e8 0100     		.2byte	0x1
 1845 02ea 53       		.byte	0x53
 1846 02eb 00000000 		.4byte	0x0
 1847 02ef 00000000 		.4byte	0x0
 1848              	.LLST20:
 1849 02f3 94010000 		.4byte	.LVL65
 1850 02f7 A3010000 		.4byte	.LVL66-1
 1851 02fb 0100     		.2byte	0x1
 1852 02fd 53       		.byte	0x53
 1853 02fe 00000000 		.4byte	0x0
 1854 0302 00000000 		.4byte	0x0
 1855              	.LLST21:
 1856 0306 FC000000 		.4byte	.LVL43
 1857 030a 02010000 		.4byte	.LVL44
 1858 030e 0100     		.2byte	0x1
 1859 0310 53       		.byte	0x53
 1860 0311 AE010000 		.4byte	.LVL67
ARM GAS  /tmp/cca9KgQf.s 			page 34


 1861 0315 B0010000 		.4byte	.LVL68
 1862 0319 0100     		.2byte	0x1
 1863 031b 53       		.byte	0x53
 1864 031c 00000000 		.4byte	0x0
 1865 0320 00000000 		.4byte	0x0
 1866              	.LLST22:
 1867 0324 B6010000 		.4byte	.LVL70
 1868 0328 B8010000 		.4byte	.LVL71
 1869 032c 0100     		.2byte	0x1
 1870 032e 53       		.byte	0x53
 1871 032f 00000000 		.4byte	0x0
 1872 0333 00000000 		.4byte	0x0
 1873              	.LLST23:
 1874 0337 D6010000 		.4byte	.LVL73
 1875 033b DC010000 		.4byte	.LVL74
 1876 033f 0100     		.2byte	0x1
 1877 0341 53       		.byte	0x53
 1878 0342 00000000 		.4byte	0x0
 1879 0346 00000000 		.4byte	0x0
 1880              	.LLST24:
 1881 034a FC000000 		.4byte	.LVL43
 1882 034e 02010000 		.4byte	.LVL44
 1883 0352 0100     		.2byte	0x1
 1884 0354 53       		.byte	0x53
 1885 0355 FA010000 		.4byte	.LVL75
 1886 0359 FC010000 		.4byte	.LVL76
 1887 035d 0100     		.2byte	0x1
 1888 035f 53       		.byte	0x53
 1889 0360 00000000 		.4byte	0x0
 1890 0364 00000000 		.4byte	0x0
 1891              	.LLST25:
 1892 0368 02020000 		.4byte	.LVL78
 1893 036c 05020000 		.4byte	.LVL79-1
 1894 0370 0100     		.2byte	0x1
 1895 0372 53       		.byte	0x53
 1896 0373 00000000 		.4byte	0x0
 1897 0377 00000000 		.4byte	0x0
 1898              	.LLST26:
 1899 037b 0C020000 		.4byte	.LVL81
 1900 037f 11020000 		.4byte	.LVL82-1
 1901 0383 0100     		.2byte	0x1
 1902 0385 53       		.byte	0x53
 1903 0386 00000000 		.4byte	0x0
 1904 038a 00000000 		.4byte	0x0
 1905              	.LLST27:
 1906 038e 18020000 		.4byte	.LVL84
 1907 0392 1A020000 		.4byte	.LVL85
 1908 0396 0100     		.2byte	0x1
 1909 0398 53       		.byte	0x53
 1910 0399 00000000 		.4byte	0x0
 1911 039d 00000000 		.4byte	0x0
 1912              	.LLST28:
 1913 03a1 1E020000 		.4byte	.LVL86
 1914 03a5 24020000 		.4byte	.LVL87
 1915 03a9 0100     		.2byte	0x1
 1916 03ab 53       		.byte	0x53
 1917 03ac 00000000 		.4byte	0x0
ARM GAS  /tmp/cca9KgQf.s 			page 35


 1918 03b0 00000000 		.4byte	0x0
 1919              	.LLST29:
 1920 03b4 FC000000 		.4byte	.LVL43
 1921 03b8 02010000 		.4byte	.LVL44
 1922 03bc 0100     		.2byte	0x1
 1923 03be 53       		.byte	0x53
 1924 03bf 42020000 		.4byte	.LVL88
 1925 03c3 44020000 		.4byte	.LVL89
 1926 03c7 0100     		.2byte	0x1
 1927 03c9 53       		.byte	0x53
 1928 03ca 00000000 		.4byte	0x0
 1929 03ce 00000000 		.4byte	0x0
 1930              	.LLST30:
 1931 03d2 48020000 		.4byte	.LVL90
 1932 03d6 51020000 		.4byte	.LVL91-1
 1933 03da 0100     		.2byte	0x1
 1934 03dc 53       		.byte	0x53
 1935 03dd 00000000 		.4byte	0x0
 1936 03e1 00000000 		.4byte	0x0
 1937              	.LLST31:
 1938 03e5 92020000 		.4byte	.LVL98
 1939 03e9 A1020000 		.4byte	.LVL99-1
 1940 03ed 0100     		.2byte	0x1
 1941 03ef 53       		.byte	0x53
 1942 03f0 00000000 		.4byte	0x0
 1943 03f4 00000000 		.4byte	0x0
 1944              	.LLST32:
 1945 03f8 FC000000 		.4byte	.LVL43
 1946 03fc 02010000 		.4byte	.LVL44
 1947 0400 0100     		.2byte	0x1
 1948 0402 53       		.byte	0x53
 1949 0403 AA020000 		.4byte	.LVL100
 1950 0407 C4020000 		.4byte	.LVL101
 1951 040b 0100     		.2byte	0x1
 1952 040d 53       		.byte	0x53
 1953 040e 00000000 		.4byte	0x0
 1954 0412 00000000 		.4byte	0x0
 1955              	.LLST33:
 1956 0416 CA020000 		.4byte	.LVL103
 1957 041a D3020000 		.4byte	.LVL104-1
 1958 041e 0100     		.2byte	0x1
 1959 0420 53       		.byte	0x53
 1960 0421 00000000 		.4byte	0x0
 1961 0425 00000000 		.4byte	0x0
 1962              	.LLST34:
 1963 0429 00000000 		.4byte	.LFB9
 1964 042d 02000000 		.4byte	.LCFI3
 1965 0431 0200     		.2byte	0x2
 1966 0433 7D       		.byte	0x7d
 1967 0434 00       		.sleb128 0
 1968 0435 02000000 		.4byte	.LCFI3
 1969 0439 14000000 		.4byte	.LFE9
 1970 043d 0200     		.2byte	0x2
 1971 043f 7D       		.byte	0x7d
 1972 0440 08       		.sleb128 8
 1973 0441 00000000 		.4byte	0x0
 1974 0445 00000000 		.4byte	0x0
ARM GAS  /tmp/cca9KgQf.s 			page 36


 1975              	.LLST35:
 1976 0449 00000000 		.4byte	.LVL105
 1977 044d 06000000 		.4byte	.LVL106
 1978 0451 0100     		.2byte	0x1
 1979 0453 50       		.byte	0x50
 1980 0454 00000000 		.4byte	0x0
 1981 0458 00000000 		.4byte	0x0
 1982              	.LLST36:
 1983 045c 00000000 		.4byte	.LFB10
 1984 0460 04000000 		.4byte	.LCFI4
 1985 0464 0200     		.2byte	0x2
 1986 0466 7D       		.byte	0x7d
 1987 0467 00       		.sleb128 0
 1988 0468 04000000 		.4byte	.LCFI4
 1989 046c 08000000 		.4byte	.LCFI5
 1990 0470 0200     		.2byte	0x2
 1991 0472 7D       		.byte	0x7d
 1992 0473 1C       		.sleb128 28
 1993 0474 08000000 		.4byte	.LCFI5
 1994 0478 18030000 		.4byte	.LFE10
 1995 047c 0200     		.2byte	0x2
 1996 047e 7D       		.byte	0x7d
 1997 047f 28       		.sleb128 40
 1998 0480 00000000 		.4byte	0x0
 1999 0484 00000000 		.4byte	0x0
 2000              	.LLST37:
 2001 0488 30000000 		.4byte	.LVL113
 2002 048c 38000000 		.4byte	.LVL114
 2003 0490 0200     		.2byte	0x2
 2004 0492 30       		.byte	0x30
 2005 0493 9F       		.byte	0x9f
 2006 0494 38000000 		.4byte	.LVL114
 2007 0498 40000000 		.4byte	.LVL115
 2008 049c 0200     		.2byte	0x2
 2009 049e 31       		.byte	0x31
 2010 049f 9F       		.byte	0x9f
 2011 04a0 40000000 		.4byte	.LVL115
 2012 04a4 48000000 		.4byte	.LVL116
 2013 04a8 0200     		.2byte	0x2
 2014 04aa 32       		.byte	0x32
 2015 04ab 9F       		.byte	0x9f
 2016 04ac 48000000 		.4byte	.LVL116
 2017 04b0 50000000 		.4byte	.LVL117
 2018 04b4 0200     		.2byte	0x2
 2019 04b6 33       		.byte	0x33
 2020 04b7 9F       		.byte	0x9f
 2021 04b8 50000000 		.4byte	.LVL117
 2022 04bc 76000000 		.4byte	.LVL124
 2023 04c0 0200     		.2byte	0x2
 2024 04c2 34       		.byte	0x34
 2025 04c3 9F       		.byte	0x9f
 2026 04c4 7C000000 		.4byte	.LVL125
 2027 04c8 AE000000 		.4byte	.LVL132
 2028 04cc 0200     		.2byte	0x2
 2029 04ce 34       		.byte	0x34
 2030 04cf 9F       		.byte	0x9f
 2031 04d0 AE000000 		.4byte	.LVL132
ARM GAS  /tmp/cca9KgQf.s 			page 37


 2032 04d4 BE000000 		.4byte	.LVL134
 2033 04d8 0200     		.2byte	0x2
 2034 04da 30       		.byte	0x30
 2035 04db 9F       		.byte	0x9f
 2036 04dc BE000000 		.4byte	.LVL134
 2037 04e0 CE000000 		.4byte	.LVL135
 2038 04e4 0200     		.2byte	0x2
 2039 04e6 31       		.byte	0x31
 2040 04e7 9F       		.byte	0x9f
 2041 04e8 CE000000 		.4byte	.LVL135
 2042 04ec DE000000 		.4byte	.LVL136
 2043 04f0 0200     		.2byte	0x2
 2044 04f2 32       		.byte	0x32
 2045 04f3 9F       		.byte	0x9f
 2046 04f4 DE000000 		.4byte	.LVL136
 2047 04f8 EE000000 		.4byte	.LVL137
 2048 04fc 0200     		.2byte	0x2
 2049 04fe 33       		.byte	0x33
 2050 04ff 9F       		.byte	0x9f
 2051 0500 EE000000 		.4byte	.LVL137
 2052 0504 0E010000 		.4byte	.LVL142
 2053 0508 0200     		.2byte	0x2
 2054 050a 34       		.byte	0x34
 2055 050b 9F       		.byte	0x9f
 2056 050c 16010000 		.4byte	.LVL144
 2057 0510 42010000 		.4byte	.LVL151
 2058 0514 0200     		.2byte	0x2
 2059 0516 34       		.byte	0x34
 2060 0517 9F       		.byte	0x9f
 2061 0518 42010000 		.4byte	.LVL151
 2062 051c 4A010000 		.4byte	.LVL152
 2063 0520 0200     		.2byte	0x2
 2064 0522 30       		.byte	0x30
 2065 0523 9F       		.byte	0x9f
 2066 0524 4A010000 		.4byte	.LVL152
 2067 0528 52010000 		.4byte	.LVL153
 2068 052c 0200     		.2byte	0x2
 2069 052e 31       		.byte	0x31
 2070 052f 9F       		.byte	0x9f
 2071 0530 52010000 		.4byte	.LVL153
 2072 0534 5A010000 		.4byte	.LVL154
 2073 0538 0200     		.2byte	0x2
 2074 053a 32       		.byte	0x32
 2075 053b 9F       		.byte	0x9f
 2076 053c 5A010000 		.4byte	.LVL154
 2077 0540 62010000 		.4byte	.LVL155
 2078 0544 0200     		.2byte	0x2
 2079 0546 33       		.byte	0x33
 2080 0547 9F       		.byte	0x9f
 2081 0548 62010000 		.4byte	.LVL155
 2082 054c B8010000 		.4byte	.LVL167
 2083 0550 0200     		.2byte	0x2
 2084 0552 34       		.byte	0x34
 2085 0553 9F       		.byte	0x9f
 2086 0554 B8010000 		.4byte	.LVL167
 2087 0558 C0010000 		.4byte	.LVL168
 2088 055c 0200     		.2byte	0x2
ARM GAS  /tmp/cca9KgQf.s 			page 38


 2089 055e 30       		.byte	0x30
 2090 055f 9F       		.byte	0x9f
 2091 0560 C0010000 		.4byte	.LVL168
 2092 0564 C8010000 		.4byte	.LVL169
 2093 0568 0200     		.2byte	0x2
 2094 056a 31       		.byte	0x31
 2095 056b 9F       		.byte	0x9f
 2096 056c C8010000 		.4byte	.LVL169
 2097 0570 D0010000 		.4byte	.LVL170
 2098 0574 0200     		.2byte	0x2
 2099 0576 32       		.byte	0x32
 2100 0577 9F       		.byte	0x9f
 2101 0578 D0010000 		.4byte	.LVL170
 2102 057c D8010000 		.4byte	.LVL171
 2103 0580 0200     		.2byte	0x2
 2104 0582 33       		.byte	0x33
 2105 0583 9F       		.byte	0x9f
 2106 0584 D8010000 		.4byte	.LVL171
 2107 0588 18030000 		.4byte	.LFE10
 2108 058c 0200     		.2byte	0x2
 2109 058e 34       		.byte	0x34
 2110 058f 9F       		.byte	0x9f
 2111 0590 00000000 		.4byte	0x0
 2112 0594 00000000 		.4byte	0x0
 2113              	.LLST38:
 2114 0598 76010000 		.4byte	.LVL158
 2115 059c 84010000 		.4byte	.LVL159
 2116 05a0 0100     		.2byte	0x1
 2117 05a2 50       		.byte	0x50
 2118 05a3 84010000 		.4byte	.LVL159
 2119 05a7 87010000 		.4byte	.LVL160-1
 2120 05ab 0300     		.2byte	0x3
 2121 05ad 7C       		.byte	0x7c
 2122 05ae 04       		.sleb128 4
 2123 05af 9F       		.byte	0x9f
 2124 05b0 E8010000 		.4byte	.LVL174
 2125 05b4 F6010000 		.4byte	.LVL175
 2126 05b8 0100     		.2byte	0x1
 2127 05ba 50       		.byte	0x50
 2128 05bb F6010000 		.4byte	.LVL175
 2129 05bf F9010000 		.4byte	.LVL176-1
 2130 05c3 0300     		.2byte	0x3
 2131 05c5 7E       		.byte	0x7e
 2132 05c6 02       		.sleb128 2
 2133 05c7 9F       		.byte	0x9f
 2134 05c8 0C020000 		.4byte	.LVL177
 2135 05cc 10020000 		.4byte	.LVL178
 2136 05d0 0100     		.2byte	0x1
 2137 05d2 50       		.byte	0x50
 2138 05d3 10020000 		.4byte	.LVL178
 2139 05d7 18020000 		.4byte	.LVL179
 2140 05db 0300     		.2byte	0x3
 2141 05dd 70       		.byte	0x70
 2142 05de 02       		.sleb128 2
 2143 05df 9F       		.byte	0x9f
 2144 05e0 00000000 		.4byte	0x0
 2145 05e4 00000000 		.4byte	0x0
ARM GAS  /tmp/cca9KgQf.s 			page 39


 2146              	.LLST39:
 2147 05e8 0C000000 		.4byte	.LVL108
 2148 05ec 1D000000 		.4byte	.LVL109-1
 2149 05f0 0100     		.2byte	0x1
 2150 05f2 53       		.byte	0x53
 2151 05f3 00000000 		.4byte	0x0
 2152 05f7 00000000 		.4byte	0x0
 2153              	.LLST40:
 2154 05fb 2A000000 		.4byte	.LVL111
 2155 05ff 2C000000 		.4byte	.LVL112
 2156 0603 0100     		.2byte	0x1
 2157 0605 53       		.byte	0x53
 2158 0606 00000000 		.4byte	0x0
 2159 060a 00000000 		.4byte	0x0
 2160              	.LLST41:
 2161 060e 30000000 		.4byte	.LVL113
 2162 0612 37000000 		.4byte	.LVL114-1
 2163 0616 0100     		.2byte	0x1
 2164 0618 53       		.byte	0x53
 2165 0619 00000000 		.4byte	0x0
 2166 061d 00000000 		.4byte	0x0
 2167              	.LLST42:
 2168 0621 56000000 		.4byte	.LVL119
 2169 0625 58000000 		.4byte	.LVL120
 2170 0629 0100     		.2byte	0x1
 2171 062b 53       		.byte	0x53
 2172 062c 00000000 		.4byte	0x0
 2173 0630 00000000 		.4byte	0x0
 2174              	.LLST43:
 2175 0634 5C000000 		.4byte	.LVL121
 2176 0638 60000000 		.4byte	.LVL122
 2177 063c 0100     		.2byte	0x1
 2178 063e 53       		.byte	0x53
 2179 063f 00000000 		.4byte	0x0
 2180 0643 00000000 		.4byte	0x0
 2181              	.LLST44:
 2182 0647 76000000 		.4byte	.LVL124
 2183 064b 7C000000 		.4byte	.LVL125
 2184 064f 0100     		.2byte	0x1
 2185 0651 53       		.byte	0x53
 2186 0652 00000000 		.4byte	0x0
 2187 0656 00000000 		.4byte	0x0
 2188              	.LLST45:
 2189 065a 82000000 		.4byte	.LVL127
 2190 065e 84000000 		.4byte	.LVL128
 2191 0662 0100     		.2byte	0x1
 2192 0664 53       		.byte	0x53
 2193 0665 00000000 		.4byte	0x0
 2194 0669 00000000 		.4byte	0x0
 2195              	.LLST46:
 2196 066d 88000000 		.4byte	.LVL129
 2197 0671 91000000 		.4byte	.LVL130-1
 2198 0675 0100     		.2byte	0x1
 2199 0677 53       		.byte	0x53
 2200 0678 00000000 		.4byte	0x0
 2201 067c 00000000 		.4byte	0x0
 2202              	.LLST47:
ARM GAS  /tmp/cca9KgQf.s 			page 40


 2203 0680 AE000000 		.4byte	.LVL132
 2204 0684 B7000000 		.4byte	.LVL133-1
 2205 0688 0100     		.2byte	0x1
 2206 068a 53       		.byte	0x53
 2207 068b 00000000 		.4byte	0x0
 2208 068f 00000000 		.4byte	0x0
 2209              	.LLST48:
 2210 0693 F4000000 		.4byte	.LVL139
 2211 0697 03010000 		.4byte	.LVL140-1
 2212 069b 0100     		.2byte	0x1
 2213 069d 53       		.byte	0x53
 2214 069e 00000000 		.4byte	0x0
 2215 06a2 00000000 		.4byte	0x0
 2216              	.LLST49:
 2217 06a6 76000000 		.4byte	.LVL124
 2218 06aa 7C000000 		.4byte	.LVL125
 2219 06ae 0100     		.2byte	0x1
 2220 06b0 53       		.byte	0x53
 2221 06b1 0C010000 		.4byte	.LVL141
 2222 06b5 0E010000 		.4byte	.LVL142
 2223 06b9 0100     		.2byte	0x1
 2224 06bb 53       		.byte	0x53
 2225 06bc 00000000 		.4byte	0x0
 2226 06c0 00000000 		.4byte	0x0
 2227              	.LLST50:
 2228 06c4 76000000 		.4byte	.LVL124
 2229 06c8 7C000000 		.4byte	.LVL125
 2230 06cc 0100     		.2byte	0x1
 2231 06ce 53       		.byte	0x53
 2232 06cf 14010000 		.4byte	.LVL143
 2233 06d3 16010000 		.4byte	.LVL144
 2234 06d7 0100     		.2byte	0x1
 2235 06d9 53       		.byte	0x53
 2236 06da 00000000 		.4byte	0x0
 2237 06de 00000000 		.4byte	0x0
 2238              	.LLST51:
 2239 06e2 76000000 		.4byte	.LVL124
 2240 06e6 7C000000 		.4byte	.LVL125
 2241 06ea 0100     		.2byte	0x1
 2242 06ec 53       		.byte	0x53
 2243 06ed 1C010000 		.4byte	.LVL145
 2244 06f1 1E010000 		.4byte	.LVL146
 2245 06f5 0100     		.2byte	0x1
 2246 06f7 53       		.byte	0x53
 2247 06f8 00000000 		.4byte	0x0
 2248 06fc 00000000 		.4byte	0x0
 2249              	.LLST52:
 2250 0700 2E010000 		.4byte	.LVL148
 2251 0704 35010000 		.4byte	.LVL149-1
 2252 0708 0100     		.2byte	0x1
 2253 070a 53       		.byte	0x53
 2254 070b 00000000 		.4byte	0x0
 2255 070f 00000000 		.4byte	0x0
 2256              	.LLST53:
 2257 0713 42010000 		.4byte	.LVL151
 2258 0717 49010000 		.4byte	.LVL152-1
 2259 071b 0100     		.2byte	0x1
ARM GAS  /tmp/cca9KgQf.s 			page 41


 2260 071d 53       		.byte	0x53
 2261 071e 00000000 		.4byte	0x0
 2262 0722 00000000 		.4byte	0x0
 2263              	.LLST54:
 2264 0726 68010000 		.4byte	.LVL157
 2265 072a 75010000 		.4byte	.LVL158-1
 2266 072e 0100     		.2byte	0x1
 2267 0730 53       		.byte	0x53
 2268 0731 00000000 		.4byte	0x0
 2269 0735 00000000 		.4byte	0x0
 2270              	.LLST55:
 2271 0739 96010000 		.4byte	.LVL162
 2272 073d A5010000 		.4byte	.LVL163-1
 2273 0741 0100     		.2byte	0x1
 2274 0743 53       		.byte	0x53
 2275 0744 00000000 		.4byte	0x0
 2276 0748 00000000 		.4byte	0x0
 2277              	.LLST56:
 2278 074c B2010000 		.4byte	.LVL165
 2279 0750 B4010000 		.4byte	.LVL166
 2280 0754 0100     		.2byte	0x1
 2281 0756 53       		.byte	0x53
 2282 0757 00000000 		.4byte	0x0
 2283 075b 00000000 		.4byte	0x0
 2284              	.LLST57:
 2285 075f B8010000 		.4byte	.LVL167
 2286 0763 BF010000 		.4byte	.LVL168-1
 2287 0767 0100     		.2byte	0x1
 2288 0769 53       		.byte	0x53
 2289 076a 00000000 		.4byte	0x0
 2290 076e 00000000 		.4byte	0x0
 2291              	.LLST58:
 2292 0772 DE010000 		.4byte	.LVL173
 2293 0776 E7010000 		.4byte	.LVL174-1
 2294 077a 0100     		.2byte	0x1
 2295 077c 53       		.byte	0x53
 2296 077d 00000000 		.4byte	0x0
 2297 0781 00000000 		.4byte	0x0
 2298              	.LLST59:
 2299 0785 2A020000 		.4byte	.LVL181
 2300 0789 39020000 		.4byte	.LVL182-1
 2301 078d 0100     		.2byte	0x1
 2302 078f 53       		.byte	0x53
 2303 0790 00000000 		.4byte	0x0
 2304 0794 00000000 		.4byte	0x0
 2305              	.LLST60:
 2306 0798 76000000 		.4byte	.LVL124
 2307 079c 7C000000 		.4byte	.LVL125
 2308 07a0 0100     		.2byte	0x1
 2309 07a2 53       		.byte	0x53
 2310 07a3 44020000 		.4byte	.LVL183
 2311 07a7 46020000 		.4byte	.LVL184
 2312 07ab 0100     		.2byte	0x1
 2313 07ad 53       		.byte	0x53
 2314 07ae 00000000 		.4byte	0x0
 2315 07b2 00000000 		.4byte	0x0
 2316              	.LLST61:
ARM GAS  /tmp/cca9KgQf.s 			page 42


 2317 07b6 76000000 		.4byte	.LVL124
 2318 07ba 7C000000 		.4byte	.LVL125
 2319 07be 0100     		.2byte	0x1
 2320 07c0 53       		.byte	0x53
 2321 07c1 4C020000 		.4byte	.LVL185
 2322 07c5 4E020000 		.4byte	.LVL186
 2323 07c9 0100     		.2byte	0x1
 2324 07cb 53       		.byte	0x53
 2325 07cc 00000000 		.4byte	0x0
 2326 07d0 00000000 		.4byte	0x0
 2327              	.LLST62:
 2328 07d4 54020000 		.4byte	.LVL188
 2329 07d8 56020000 		.4byte	.LVL189
 2330 07dc 0100     		.2byte	0x1
 2331 07de 53       		.byte	0x53
 2332 07df 00000000 		.4byte	0x0
 2333 07e3 00000000 		.4byte	0x0
 2334              	.LLST63:
 2335 07e7 5A020000 		.4byte	.LVL190
 2336 07eb 61020000 		.4byte	.LVL191-1
 2337 07ef 0100     		.2byte	0x1
 2338 07f1 53       		.byte	0x53
 2339 07f2 00000000 		.4byte	0x0
 2340 07f6 00000000 		.4byte	0x0
 2341              	.LLST64:
 2342 07fa 6E020000 		.4byte	.LVL193
 2343 07fe 70020000 		.4byte	.LVL194
 2344 0802 0100     		.2byte	0x1
 2345 0804 53       		.byte	0x53
 2346 0805 00000000 		.4byte	0x0
 2347 0809 00000000 		.4byte	0x0
 2348              	.LLST65:
 2349 080d 74020000 		.4byte	.LVL195
 2350 0811 83020000 		.4byte	.LVL196-1
 2351 0815 0100     		.2byte	0x1
 2352 0817 53       		.byte	0x53
 2353 0818 00000000 		.4byte	0x0
 2354 081c 00000000 		.4byte	0x0
 2355              	.LLST66:
 2356 0820 76000000 		.4byte	.LVL124
 2357 0824 7C000000 		.4byte	.LVL125
 2358 0828 0100     		.2byte	0x1
 2359 082a 53       		.byte	0x53
 2360 082b 8C020000 		.4byte	.LVL197
 2361 082f 8E020000 		.4byte	.LVL198
 2362 0833 0100     		.2byte	0x1
 2363 0835 53       		.byte	0x53
 2364 0836 00000000 		.4byte	0x0
 2365 083a 00000000 		.4byte	0x0
 2366              	.LLST67:
 2367 083e 94020000 		.4byte	.LVL200
 2368 0842 A6020000 		.4byte	.LVL201
 2369 0846 0100     		.2byte	0x1
 2370 0848 53       		.byte	0x53
 2371 0849 00000000 		.4byte	0x0
 2372 084d 00000000 		.4byte	0x0
 2373              	.LLST68:
ARM GAS  /tmp/cca9KgQf.s 			page 43


 2374 0851 B6020000 		.4byte	.LVL203
 2375 0855 BA020000 		.4byte	.LVL204
 2376 0859 0100     		.2byte	0x1
 2377 085b 53       		.byte	0x53
 2378 085c 00000000 		.4byte	0x0
 2379 0860 00000000 		.4byte	0x0
 2380              	.LLST69:
 2381 0864 76000000 		.4byte	.LVL124
 2382 0868 7C000000 		.4byte	.LVL125
 2383 086c 0100     		.2byte	0x1
 2384 086e 53       		.byte	0x53
 2385 086f D2020000 		.4byte	.LVL205
 2386 0873 EC020000 		.4byte	.LVL206
 2387 0877 0100     		.2byte	0x1
 2388 0879 53       		.byte	0x53
 2389 087a 00000000 		.4byte	0x0
 2390 087e 00000000 		.4byte	0x0
 2391              	.LLST70:
 2392 0882 F0020000 		.4byte	.LVL207
 2393 0886 F3020000 		.4byte	.LVL208-1
 2394 088a 0100     		.2byte	0x1
 2395 088c 53       		.byte	0x53
 2396 088d 00000000 		.4byte	0x0
 2397 0891 00000000 		.4byte	0x0
 2398              		.file 2 "/opt/stm32/arm-none-eabi-2011.03/bin/../lib/gcc/arm-none-eabi/4.5.2/include/stddef.h"
 2399              		.file 3 "/opt/stm32/arm-none-eabi-2011.03/bin/../lib/gcc/arm-none-eabi/4.5.2/../../../../arm-none-
 2400              		.file 4 "../libs/ChibiOS_2.4.0/os/ports/GCC/ARMCMx/chtypes.h"
 2401              		.file 5 "../libs/ChibiOS_2.4.0/os/kernel/include/chlists.h"
 2402              		.file 6 "../libs/ChibiOS_2.4.0/os/kernel/include/chthreads.h"
 2403              		.file 7 "../libs/ChibiOS_2.4.0/os/ports/GCC/ARMCMx/chcore_v7m.h"
 2404              		.file 8 "../libs/ChibiOS_2.4.0/os/kernel/include/chschd.h"
 2405              		.file 9 "../libs/ChibiOS_2.4.0/os/kernel/include/chmtx.h"
 2406              		.file 10 "../libs/ChibiOS_2.4.0/os/kernel/include/chqueues.h"
 2407              		.file 11 "../libs/ChibiOS_2.4.0/test/test.h"
 2408              		.section	.debug_info
 2409 0000 D30E0000 		.4byte	0xed3
 2410 0004 0200     		.2byte	0x2
 2411 0006 00000000 		.4byte	.Ldebug_abbrev0
 2412 000a 04       		.byte	0x4
 2413 000b 01       		.uleb128 0x1
 2414 000c 7E030000 		.4byte	.LASF95
 2415 0010 01       		.byte	0x1
 2416 0011 66020000 		.4byte	.LASF96
 2417 0015 B3030000 		.4byte	.LASF97
 2418 0019 00000000 		.4byte	0x0
 2419 001d 00000000 		.4byte	0x0
 2420 0021 B0000000 		.4byte	.Ldebug_ranges0+0xb0
 2421 0025 00000000 		.4byte	.Ldebug_line0
 2422 0029 02       		.uleb128 0x2
 2423 002a 04       		.byte	0x4
 2424 002b 05       		.byte	0x5
 2425 002c 696E7400 		.ascii	"int\000"
 2426 0030 03       		.uleb128 0x3
 2427 0031 06000000 		.4byte	.LASF2
 2428 0035 02       		.byte	0x2
 2429 0036 D3       		.byte	0xd3
 2430 0037 3B000000 		.4byte	0x3b
ARM GAS  /tmp/cca9KgQf.s 			page 44


 2431 003b 04       		.uleb128 0x4
 2432 003c 04       		.byte	0x4
 2433 003d 07       		.byte	0x7
 2434 003e EE000000 		.4byte	.LASF0
 2435 0042 04       		.uleb128 0x4
 2436 0043 01       		.byte	0x1
 2437 0044 06       		.byte	0x6
 2438 0045 89000000 		.4byte	.LASF1
 2439 0049 03       		.uleb128 0x3
 2440 004a 6F030000 		.4byte	.LASF3
 2441 004e 03       		.byte	0x3
 2442 004f 2A       		.byte	0x2a
 2443 0050 54000000 		.4byte	0x54
 2444 0054 04       		.uleb128 0x4
 2445 0055 01       		.byte	0x1
 2446 0056 08       		.byte	0x8
 2447 0057 58020000 		.4byte	.LASF4
 2448 005b 04       		.uleb128 0x4
 2449 005c 02       		.byte	0x2
 2450 005d 05       		.byte	0x5
 2451 005e 98020000 		.4byte	.LASF5
 2452 0062 04       		.uleb128 0x4
 2453 0063 02       		.byte	0x2
 2454 0064 07       		.byte	0x7
 2455 0065 23010000 		.4byte	.LASF6
 2456 0069 03       		.uleb128 0x3
 2457 006a 50020000 		.4byte	.LASF7
 2458 006e 03       		.byte	0x3
 2459 006f 4F       		.byte	0x4f
 2460 0070 74000000 		.4byte	0x74
 2461 0074 04       		.uleb128 0x4
 2462 0075 04       		.byte	0x4
 2463 0076 05       		.byte	0x5
 2464 0077 AC000000 		.4byte	.LASF8
 2465 007b 03       		.uleb128 0x3
 2466 007c EA020000 		.4byte	.LASF9
 2467 0080 03       		.byte	0x3
 2468 0081 50       		.byte	0x50
 2469 0082 86000000 		.4byte	0x86
 2470 0086 04       		.uleb128 0x4
 2471 0087 04       		.byte	0x4
 2472 0088 07       		.byte	0x7
 2473 0089 FB000000 		.4byte	.LASF10
 2474 008d 04       		.uleb128 0x4
 2475 008e 08       		.byte	0x8
 2476 008f 05       		.byte	0x5
 2477 0090 7B000000 		.4byte	.LASF11
 2478 0094 03       		.uleb128 0x3
 2479 0095 14000000 		.4byte	.LASF12
 2480 0099 03       		.byte	0x3
 2481 009a 78       		.byte	0x78
 2482 009b 9F000000 		.4byte	0x9f
 2483 009f 04       		.uleb128 0x4
 2484 00a0 08       		.byte	0x8
 2485 00a1 07       		.byte	0x7
 2486 00a2 37000000 		.4byte	.LASF13
 2487 00a6 03       		.uleb128 0x3
ARM GAS  /tmp/cca9KgQf.s 			page 45


 2488 00a7 9D000000 		.4byte	.LASF14
 2489 00ab 04       		.byte	0x4
 2490 00ac 2E       		.byte	0x2e
 2491 00ad 69000000 		.4byte	0x69
 2492 00b1 03       		.uleb128 0x3
 2493 00b2 58010000 		.4byte	.LASF15
 2494 00b6 04       		.byte	0x4
 2495 00b7 2F       		.byte	0x2f
 2496 00b8 49000000 		.4byte	0x49
 2497 00bc 03       		.uleb128 0x3
 2498 00bd B5000000 		.4byte	.LASF16
 2499 00c1 04       		.byte	0x4
 2500 00c2 30       		.byte	0x30
 2501 00c3 49000000 		.4byte	0x49
 2502 00c7 03       		.uleb128 0x3
 2503 00c8 1F020000 		.4byte	.LASF17
 2504 00cc 04       		.byte	0x4
 2505 00cd 31       		.byte	0x31
 2506 00ce 49000000 		.4byte	0x49
 2507 00d2 03       		.uleb128 0x3
 2508 00d3 40020000 		.4byte	.LASF18
 2509 00d7 04       		.byte	0x4
 2510 00d8 32       		.byte	0x32
 2511 00d9 7B000000 		.4byte	0x7b
 2512 00dd 03       		.uleb128 0x3
 2513 00de 52010000 		.4byte	.LASF19
 2514 00e2 04       		.byte	0x4
 2515 00e3 33       		.byte	0x33
 2516 00e4 69000000 		.4byte	0x69
 2517 00e8 03       		.uleb128 0x3
 2518 00e9 6C010000 		.4byte	.LASF20
 2519 00ed 04       		.byte	0x4
 2520 00ee 35       		.byte	0x35
 2521 00ef 7B000000 		.4byte	0x7b
 2522 00f3 03       		.uleb128 0x3
 2523 00f4 14030000 		.4byte	.LASF21
 2524 00f8 04       		.byte	0x4
 2525 00f9 36       		.byte	0x36
 2526 00fa 7B000000 		.4byte	0x7b
 2527 00fe 03       		.uleb128 0x3
 2528 00ff E8000000 		.4byte	.LASF22
 2529 0103 04       		.byte	0x4
 2530 0104 37       		.byte	0x37
 2531 0105 69000000 		.4byte	0x69
 2532 0109 03       		.uleb128 0x3
 2533 010a CF020000 		.4byte	.LASF23
 2534 010e 05       		.byte	0x5
 2535 010f 2A       		.byte	0x2a
 2536 0110 14010000 		.4byte	0x114
 2537 0114 05       		.uleb128 0x5
 2538 0115 CF020000 		.4byte	.LASF23
 2539 0119 48       		.byte	0x48
 2540 011a 06       		.byte	0x6
 2541 011b 5E       		.byte	0x5e
 2542 011c 2B020000 		.4byte	0x22b
 2543 0120 06       		.uleb128 0x6
 2544 0121 C0020000 		.4byte	.LASF24
ARM GAS  /tmp/cca9KgQf.s 			page 46


 2545 0125 06       		.byte	0x6
 2546 0126 5F       		.byte	0x5f
 2547 0127 50020000 		.4byte	0x250
 2548 012b 02       		.byte	0x2
 2549 012c 23       		.byte	0x23
 2550 012d 00       		.uleb128 0x0
 2551 012e 06       		.uleb128 0x6
 2552 012f 31020000 		.4byte	.LASF25
 2553 0133 06       		.byte	0x6
 2554 0134 61       		.byte	0x61
 2555 0135 50020000 		.4byte	0x250
 2556 0139 02       		.byte	0x2
 2557 013a 23       		.byte	0x23
 2558 013b 04       		.uleb128 0x4
 2559 013c 06       		.uleb128 0x6
 2560 013d 6A000000 		.4byte	.LASF26
 2561 0141 06       		.byte	0x6
 2562 0142 63       		.byte	0x63
 2563 0143 D2000000 		.4byte	0xd2
 2564 0147 02       		.byte	0x2
 2565 0148 23       		.byte	0x23
 2566 0149 08       		.uleb128 0x8
 2567 014a 06       		.uleb128 0x6
 2568 014b A3030000 		.4byte	.LASF27
 2569 014f 06       		.byte	0x6
 2570 0150 64       		.byte	0x64
 2571 0151 28030000 		.4byte	0x328
 2572 0155 02       		.byte	0x2
 2573 0156 23       		.byte	0x23
 2574 0157 0C       		.uleb128 0xc
 2575 0158 06       		.uleb128 0x6
 2576 0159 CF000000 		.4byte	.LASF28
 2577 015d 06       		.byte	0x6
 2578 015e 66       		.byte	0x66
 2579 015f 50020000 		.4byte	0x250
 2580 0163 02       		.byte	0x2
 2581 0164 23       		.byte	0x23
 2582 0165 10       		.uleb128 0x10
 2583 0166 06       		.uleb128 0x6
 2584 0167 CE010000 		.4byte	.LASF29
 2585 016b 06       		.byte	0x6
 2586 016c 67       		.byte	0x67
 2587 016d 50020000 		.4byte	0x250
 2588 0171 02       		.byte	0x2
 2589 0172 23       		.byte	0x23
 2590 0173 14       		.uleb128 0x14
 2591 0174 06       		.uleb128 0x6
 2592 0175 8A030000 		.4byte	.LASF30
 2593 0179 06       		.byte	0x6
 2594 017a 6E       		.byte	0x6e
 2595 017b 43040000 		.4byte	0x443
 2596 017f 02       		.byte	0x2
 2597 0180 23       		.byte	0x23
 2598 0181 18       		.uleb128 0x18
 2599 0182 06       		.uleb128 0x6
 2600 0183 A2020000 		.4byte	.LASF31
 2601 0187 06       		.byte	0x6
ARM GAS  /tmp/cca9KgQf.s 			page 47


 2602 0188 79       		.byte	0x79
 2603 0189 BC000000 		.4byte	0xbc
 2604 018d 02       		.byte	0x2
 2605 018e 23       		.byte	0x23
 2606 018f 1C       		.uleb128 0x1c
 2607 0190 06       		.uleb128 0x6
 2608 0191 C7020000 		.4byte	.LASF32
 2609 0195 06       		.byte	0x6
 2610 0196 7D       		.byte	0x7d
 2611 0197 B1000000 		.4byte	0xb1
 2612 019b 02       		.byte	0x2
 2613 019c 23       		.byte	0x23
 2614 019d 1D       		.uleb128 0x1d
 2615 019e 06       		.uleb128 0x6
 2616 019f 4F030000 		.4byte	.LASF33
 2617 01a3 06       		.byte	0x6
 2618 01a4 82       		.byte	0x82
 2619 01a5 C7000000 		.4byte	0xc7
 2620 01a9 02       		.byte	0x2
 2621 01aa 23       		.byte	0x23
 2622 01ab 1E       		.uleb128 0x1e
 2623 01ac 06       		.uleb128 0x6
 2624 01ad 30030000 		.4byte	.LASF34
 2625 01b1 06       		.byte	0x6
 2626 01b2 89       		.byte	0x89
 2627 01b3 4B030000 		.4byte	0x34b
 2628 01b7 02       		.byte	0x2
 2629 01b8 23       		.byte	0x23
 2630 01b9 20       		.uleb128 0x20
 2631 01ba 07       		.uleb128 0x7
 2632 01bb 705F7500 		.ascii	"p_u\000"
 2633 01bf 06       		.byte	0x6
 2634 01c0 AE       		.byte	0xae
 2635 01c1 0E040000 		.4byte	0x40e
 2636 01c5 02       		.byte	0x2
 2637 01c6 23       		.byte	0x23
 2638 01c7 24       		.uleb128 0x24
 2639 01c8 06       		.uleb128 0x6
 2640 01c9 A9030000 		.4byte	.LASF35
 2641 01cd 06       		.byte	0x6
 2642 01ce B3       		.byte	0xb3
 2643 01cf 78020000 		.4byte	0x278
 2644 01d3 02       		.byte	0x2
 2645 01d4 23       		.byte	0x23
 2646 01d5 28       		.uleb128 0x28
 2647 01d6 06       		.uleb128 0x6
 2648 01d7 3E030000 		.4byte	.LASF36
 2649 01db 06       		.byte	0x6
 2650 01dc B9       		.byte	0xb9
 2651 01dd 56020000 		.4byte	0x256
 2652 01e1 02       		.byte	0x2
 2653 01e2 23       		.byte	0x23
 2654 01e3 2C       		.uleb128 0x2c
 2655 01e4 06       		.uleb128 0x6
 2656 01e5 00000000 		.4byte	.LASF37
 2657 01e9 06       		.byte	0x6
 2658 01ea BD       		.byte	0xbd
ARM GAS  /tmp/cca9KgQf.s 			page 48


 2659 01eb DD000000 		.4byte	0xdd
 2660 01ef 02       		.byte	0x2
 2661 01f0 23       		.byte	0x23
 2662 01f1 34       		.uleb128 0x34
 2663 01f2 06       		.uleb128 0x6
 2664 01f3 DF020000 		.4byte	.LASF38
 2665 01f7 06       		.byte	0x6
 2666 01f8 C3       		.byte	0xc3
 2667 01f9 E8000000 		.4byte	0xe8
 2668 01fd 02       		.byte	0x2
 2669 01fe 23       		.byte	0x23
 2670 01ff 38       		.uleb128 0x38
 2671 0200 06       		.uleb128 0x6
 2672 0201 8E020000 		.4byte	.LASF39
 2673 0205 06       		.byte	0x6
 2674 0206 CA       		.byte	0xca
 2675 0207 55040000 		.4byte	0x455
 2676 020b 02       		.byte	0x2
 2677 020c 23       		.byte	0x23
 2678 020d 3C       		.uleb128 0x3c
 2679 020e 06       		.uleb128 0x6
 2680 020f 1E030000 		.4byte	.LASF40
 2681 0213 06       		.byte	0x6
 2682 0214 CE       		.byte	0xce
 2683 0215 D2000000 		.4byte	0xd2
 2684 0219 02       		.byte	0x2
 2685 021a 23       		.byte	0x23
 2686 021b 40       		.uleb128 0x40
 2687 021c 06       		.uleb128 0x6
 2688 021d 95000000 		.4byte	.LASF41
 2689 0221 06       		.byte	0x6
 2690 0222 D4       		.byte	0xd4
 2691 0223 8E020000 		.4byte	0x28e
 2692 0227 02       		.byte	0x2
 2693 0228 23       		.byte	0x23
 2694 0229 44       		.uleb128 0x44
 2695 022a 00       		.byte	0x0
 2696 022b 08       		.uleb128 0x8
 2697 022c 08       		.byte	0x8
 2698 022d 05       		.byte	0x5
 2699 022e 61       		.byte	0x61
 2700 022f 50020000 		.4byte	0x250
 2701 0233 06       		.uleb128 0x6
 2702 0234 C0020000 		.4byte	.LASF24
 2703 0238 05       		.byte	0x5
 2704 0239 62       		.byte	0x62
 2705 023a 50020000 		.4byte	0x250
 2706 023e 02       		.byte	0x2
 2707 023f 23       		.byte	0x23
 2708 0240 00       		.uleb128 0x0
 2709 0241 06       		.uleb128 0x6
 2710 0242 31020000 		.4byte	.LASF25
 2711 0246 05       		.byte	0x5
 2712 0247 64       		.byte	0x64
 2713 0248 50020000 		.4byte	0x250
 2714 024c 02       		.byte	0x2
 2715 024d 23       		.byte	0x23
ARM GAS  /tmp/cca9KgQf.s 			page 49


 2716 024e 04       		.uleb128 0x4
 2717 024f 00       		.byte	0x0
 2718 0250 09       		.uleb128 0x9
 2719 0251 04       		.byte	0x4
 2720 0252 09010000 		.4byte	0x109
 2721 0256 03       		.uleb128 0x3
 2722 0257 EC010000 		.4byte	.LASF42
 2723 025b 05       		.byte	0x5
 2724 025c 66       		.byte	0x66
 2725 025d 2B020000 		.4byte	0x22b
 2726 0261 08       		.uleb128 0x8
 2727 0262 04       		.byte	0x4
 2728 0263 05       		.byte	0x5
 2729 0264 6B       		.byte	0x6b
 2730 0265 78020000 		.4byte	0x278
 2731 0269 06       		.uleb128 0x6
 2732 026a C0020000 		.4byte	.LASF24
 2733 026e 05       		.byte	0x5
 2734 026f 6D       		.byte	0x6d
 2735 0270 50020000 		.4byte	0x250
 2736 0274 02       		.byte	0x2
 2737 0275 23       		.byte	0x23
 2738 0276 00       		.uleb128 0x0
 2739 0277 00       		.byte	0x0
 2740 0278 03       		.uleb128 0x3
 2741 0279 60010000 		.4byte	.LASF43
 2742 027d 05       		.byte	0x5
 2743 027e 70       		.byte	0x70
 2744 027f 61020000 		.4byte	0x261
 2745 0283 03       		.uleb128 0x3
 2746 0284 DF000000 		.4byte	.LASF44
 2747 0288 07       		.byte	0x7
 2748 0289 D7       		.byte	0xd7
 2749 028a 8E020000 		.4byte	0x28e
 2750 028e 0A       		.uleb128 0xa
 2751 028f 04       		.byte	0x4
 2752 0290 03       		.uleb128 0x3
 2753 0291 96010000 		.4byte	.LASF45
 2754 0295 07       		.byte	0x7
 2755 0296 DD       		.byte	0xdd
 2756 0297 94000000 		.4byte	0x94
 2757 029b 05       		.uleb128 0x5
 2758 029c 37030000 		.4byte	.LASF46
 2759 02a0 24       		.byte	0x24
 2760 02a1 07       		.byte	0x7
 2761 02a2 FE       		.byte	0xfe
 2762 02a3 28030000 		.4byte	0x328
 2763 02a7 0B       		.uleb128 0xb
 2764 02a8 723400   		.ascii	"r4\000"
 2765 02ab 07       		.byte	0x7
 2766 02ac 1101     		.2byte	0x111
 2767 02ae 83020000 		.4byte	0x283
 2768 02b2 02       		.byte	0x2
 2769 02b3 23       		.byte	0x23
 2770 02b4 00       		.uleb128 0x0
 2771 02b5 0B       		.uleb128 0xb
 2772 02b6 723500   		.ascii	"r5\000"
ARM GAS  /tmp/cca9KgQf.s 			page 50


 2773 02b9 07       		.byte	0x7
 2774 02ba 1201     		.2byte	0x112
 2775 02bc 83020000 		.4byte	0x283
 2776 02c0 02       		.byte	0x2
 2777 02c1 23       		.byte	0x23
 2778 02c2 04       		.uleb128 0x4
 2779 02c3 0B       		.uleb128 0xb
 2780 02c4 723600   		.ascii	"r6\000"
 2781 02c7 07       		.byte	0x7
 2782 02c8 1301     		.2byte	0x113
 2783 02ca 83020000 		.4byte	0x283
 2784 02ce 02       		.byte	0x2
 2785 02cf 23       		.byte	0x23
 2786 02d0 08       		.uleb128 0x8
 2787 02d1 0B       		.uleb128 0xb
 2788 02d2 723700   		.ascii	"r7\000"
 2789 02d5 07       		.byte	0x7
 2790 02d6 1401     		.2byte	0x114
 2791 02d8 83020000 		.4byte	0x283
 2792 02dc 02       		.byte	0x2
 2793 02dd 23       		.byte	0x23
 2794 02de 0C       		.uleb128 0xc
 2795 02df 0B       		.uleb128 0xb
 2796 02e0 723800   		.ascii	"r8\000"
 2797 02e3 07       		.byte	0x7
 2798 02e4 1501     		.2byte	0x115
 2799 02e6 83020000 		.4byte	0x283
 2800 02ea 02       		.byte	0x2
 2801 02eb 23       		.byte	0x23
 2802 02ec 10       		.uleb128 0x10
 2803 02ed 0B       		.uleb128 0xb
 2804 02ee 723900   		.ascii	"r9\000"
 2805 02f1 07       		.byte	0x7
 2806 02f2 1601     		.2byte	0x116
 2807 02f4 83020000 		.4byte	0x283
 2808 02f8 02       		.byte	0x2
 2809 02f9 23       		.byte	0x23
 2810 02fa 14       		.uleb128 0x14
 2811 02fb 0B       		.uleb128 0xb
 2812 02fc 72313000 		.ascii	"r10\000"
 2813 0300 07       		.byte	0x7
 2814 0301 1701     		.2byte	0x117
 2815 0303 83020000 		.4byte	0x283
 2816 0307 02       		.byte	0x2
 2817 0308 23       		.byte	0x23
 2818 0309 18       		.uleb128 0x18
 2819 030a 0B       		.uleb128 0xb
 2820 030b 72313100 		.ascii	"r11\000"
 2821 030f 07       		.byte	0x7
 2822 0310 1801     		.2byte	0x118
 2823 0312 83020000 		.4byte	0x283
 2824 0316 02       		.byte	0x2
 2825 0317 23       		.byte	0x23
 2826 0318 1C       		.uleb128 0x1c
 2827 0319 0B       		.uleb128 0xb
 2828 031a 6C7200   		.ascii	"lr\000"
 2829 031d 07       		.byte	0x7
ARM GAS  /tmp/cca9KgQf.s 			page 51


 2830 031e 1901     		.2byte	0x119
 2831 0320 83020000 		.4byte	0x283
 2832 0324 02       		.byte	0x2
 2833 0325 23       		.byte	0x23
 2834 0326 20       		.uleb128 0x20
 2835 0327 00       		.byte	0x0
 2836 0328 0C       		.uleb128 0xc
 2837 0329 1B010000 		.4byte	.LASF47
 2838 032d 04       		.byte	0x4
 2839 032e 07       		.byte	0x7
 2840 032f 2301     		.2byte	0x123
 2841 0331 45030000 		.4byte	0x345
 2842 0335 0B       		.uleb128 0xb
 2843 0336 72313300 		.ascii	"r13\000"
 2844 033a 07       		.byte	0x7
 2845 033b 2401     		.2byte	0x124
 2846 033d 45030000 		.4byte	0x345
 2847 0341 02       		.byte	0x2
 2848 0342 23       		.byte	0x23
 2849 0343 00       		.uleb128 0x0
 2850 0344 00       		.byte	0x0
 2851 0345 09       		.uleb128 0x9
 2852 0346 04       		.byte	0x4
 2853 0347 9B020000 		.4byte	0x29b
 2854 034b 0D       		.uleb128 0xd
 2855 034c F3000000 		.4byte	0xf3
 2856 0350 08       		.uleb128 0x8
 2857 0351 20       		.byte	0x20
 2858 0352 08       		.byte	0x8
 2859 0353 5E       		.byte	0x5e
 2860 0354 BB030000 		.4byte	0x3bb
 2861 0358 06       		.uleb128 0x6
 2862 0359 F3020000 		.4byte	.LASF48
 2863 035d 08       		.byte	0x8
 2864 035e 5F       		.byte	0x5f
 2865 035f 56020000 		.4byte	0x256
 2866 0363 02       		.byte	0x2
 2867 0364 23       		.byte	0x23
 2868 0365 00       		.uleb128 0x0
 2869 0366 06       		.uleb128 0x6
 2870 0367 B2020000 		.4byte	.LASF49
 2871 036b 08       		.byte	0x8
 2872 036c 60       		.byte	0x60
 2873 036d D2000000 		.4byte	0xd2
 2874 0371 02       		.byte	0x2
 2875 0372 23       		.byte	0x23
 2876 0373 08       		.uleb128 0x8
 2877 0374 06       		.uleb128 0x6
 2878 0375 E6010000 		.4byte	.LASF50
 2879 0379 08       		.byte	0x8
 2880 037a 62       		.byte	0x62
 2881 037b 28030000 		.4byte	0x328
 2882 037f 02       		.byte	0x2
 2883 0380 23       		.byte	0x23
 2884 0381 0C       		.uleb128 0xc
 2885 0382 06       		.uleb128 0x6
 2886 0383 D7000000 		.4byte	.LASF51
ARM GAS  /tmp/cca9KgQf.s 			page 52


 2887 0387 08       		.byte	0x8
 2888 0388 65       		.byte	0x65
 2889 0389 50020000 		.4byte	0x250
 2890 038d 02       		.byte	0x2
 2891 038e 23       		.byte	0x23
 2892 038f 10       		.uleb128 0x10
 2893 0390 06       		.uleb128 0x6
 2894 0391 09020000 		.4byte	.LASF52
 2895 0395 08       		.byte	0x8
 2896 0396 66       		.byte	0x66
 2897 0397 50020000 		.4byte	0x250
 2898 039b 02       		.byte	0x2
 2899 039c 23       		.byte	0x23
 2900 039d 14       		.uleb128 0x14
 2901 039e 06       		.uleb128 0x6
 2902 039f 91030000 		.4byte	.LASF53
 2903 03a3 08       		.byte	0x8
 2904 03a4 6A       		.byte	0x6a
 2905 03a5 FE000000 		.4byte	0xfe
 2906 03a9 02       		.byte	0x2
 2907 03aa 23       		.byte	0x23
 2908 03ab 18       		.uleb128 0x18
 2909 03ac 06       		.uleb128 0x6
 2910 03ad FF010000 		.4byte	.LASF54
 2911 03b1 08       		.byte	0x8
 2912 03b2 6C       		.byte	0x6c
 2913 03b3 50020000 		.4byte	0x250
 2914 03b7 02       		.byte	0x2
 2915 03b8 23       		.byte	0x23
 2916 03b9 1C       		.uleb128 0x1c
 2917 03ba 00       		.byte	0x0
 2918 03bb 03       		.uleb128 0x3
 2919 03bc 56030000 		.4byte	.LASF55
 2920 03c0 08       		.byte	0x8
 2921 03c1 6E       		.byte	0x6e
 2922 03c2 50030000 		.4byte	0x350
 2923 03c6 05       		.uleb128 0x5
 2924 03c7 83010000 		.4byte	.LASF56
 2925 03cb 10       		.byte	0x10
 2926 03cc 09       		.byte	0x9
 2927 03cd 2C       		.byte	0x2c
 2928 03ce FD030000 		.4byte	0x3fd
 2929 03d2 06       		.uleb128 0x6
 2930 03d3 A4000000 		.4byte	.LASF57
 2931 03d7 09       		.byte	0x9
 2932 03d8 2D       		.byte	0x2d
 2933 03d9 56020000 		.4byte	0x256
 2934 03dd 02       		.byte	0x2
 2935 03de 23       		.byte	0x23
 2936 03df 00       		.uleb128 0x0
 2937 03e0 06       		.uleb128 0x6
 2938 03e1 9B030000 		.4byte	.LASF58
 2939 03e5 09       		.byte	0x9
 2940 03e6 2F       		.byte	0x2f
 2941 03e7 50020000 		.4byte	0x250
 2942 03eb 02       		.byte	0x2
 2943 03ec 23       		.byte	0x23
ARM GAS  /tmp/cca9KgQf.s 			page 53


 2944 03ed 08       		.uleb128 0x8
 2945 03ee 06       		.uleb128 0x6
 2946 03ef 0D030000 		.4byte	.LASF59
 2947 03f3 09       		.byte	0x9
 2948 03f4 31       		.byte	0x31
 2949 03f5 FD030000 		.4byte	0x3fd
 2950 03f9 02       		.byte	0x2
 2951 03fa 23       		.byte	0x23
 2952 03fb 0C       		.uleb128 0xc
 2953 03fc 00       		.byte	0x0
 2954 03fd 09       		.uleb128 0x9
 2955 03fe 04       		.byte	0x4
 2956 03ff C6030000 		.4byte	0x3c6
 2957 0403 03       		.uleb128 0x3
 2958 0404 83010000 		.4byte	.LASF56
 2959 0408 09       		.byte	0x9
 2960 0409 33       		.byte	0x33
 2961 040a C6030000 		.4byte	0x3c6
 2962 040e 0E       		.uleb128 0xe
 2963 040f 04       		.byte	0x4
 2964 0410 06       		.byte	0x6
 2965 0411 90       		.byte	0x90
 2966 0412 43040000 		.4byte	0x443
 2967 0416 0F       		.uleb128 0xf
 2968 0417 0D000000 		.4byte	.LASF60
 2969 041b 06       		.byte	0x6
 2970 041c 97       		.byte	0x97
 2971 041d DD000000 		.4byte	0xdd
 2972 0421 0F       		.uleb128 0xf
 2973 0422 4E000000 		.4byte	.LASF61
 2974 0426 06       		.byte	0x6
 2975 0427 9E       		.byte	0x9e
 2976 0428 DD000000 		.4byte	0xdd
 2977 042c 0F       		.uleb128 0xf
 2978 042d 77030000 		.4byte	.LASF62
 2979 0431 06       		.byte	0x6
 2980 0432 A5       		.byte	0xa5
 2981 0433 8E020000 		.4byte	0x28e
 2982 0437 0F       		.uleb128 0xf
 2983 0438 B9020000 		.4byte	.LASF63
 2984 043c 06       		.byte	0x6
 2985 043d AC       		.byte	0xac
 2986 043e E8000000 		.4byte	0xe8
 2987 0442 00       		.byte	0x0
 2988 0443 09       		.uleb128 0x9
 2989 0444 04       		.byte	0x4
 2990 0445 49040000 		.4byte	0x449
 2991 0449 10       		.uleb128 0x10
 2992 044a 4E040000 		.4byte	0x44e
 2993 044e 04       		.uleb128 0x4
 2994 044f 01       		.byte	0x1
 2995 0450 08       		.byte	0x8
 2996 0451 FB020000 		.4byte	.LASF64
 2997 0455 09       		.uleb128 0x9
 2998 0456 04       		.byte	0x4
 2999 0457 03040000 		.4byte	0x403
 3000 045b 03       		.uleb128 0x3
ARM GAS  /tmp/cca9KgQf.s 			page 54


 3001 045c 89010000 		.4byte	.LASF65
 3002 0460 0A       		.byte	0xa
 3003 0461 37       		.byte	0x37
 3004 0462 66040000 		.4byte	0x466
 3005 0466 05       		.uleb128 0x5
 3006 0467 89010000 		.4byte	.LASF65
 3007 046b 20       		.byte	0x20
 3008 046c 0A       		.byte	0xa
 3009 046d 45       		.byte	0x45
 3010 046e D5040000 		.4byte	0x4d5
 3011 0472 06       		.uleb128 0x6
 3012 0473 71000000 		.4byte	.LASF66
 3013 0477 0A       		.byte	0xa
 3014 0478 46       		.byte	0x46
 3015 0479 56020000 		.4byte	0x256
 3016 047d 02       		.byte	0x2
 3017 047e 23       		.byte	0x23
 3018 047f 00       		.uleb128 0x0
 3019 0480 06       		.uleb128 0x6
 3020 0481 B8010000 		.4byte	.LASF67
 3021 0485 0A       		.byte	0xa
 3022 0486 47       		.byte	0x47
 3023 0487 30000000 		.4byte	0x30
 3024 048b 02       		.byte	0x2
 3025 048c 23       		.byte	0x23
 3026 048d 08       		.uleb128 0x8
 3027 048e 06       		.uleb128 0x6
 3028 048f BE000000 		.4byte	.LASF68
 3029 0493 0A       		.byte	0xa
 3030 0494 48       		.byte	0x48
 3031 0495 F8040000 		.4byte	0x4f8
 3032 0499 02       		.byte	0x2
 3033 049a 23       		.byte	0x23
 3034 049b 0C       		.uleb128 0xc
 3035 049c 06       		.uleb128 0x6
 3036 049d 49030000 		.4byte	.LASF69
 3037 04a1 0A       		.byte	0xa
 3038 04a2 49       		.byte	0x49
 3039 04a3 F8040000 		.4byte	0x4f8
 3040 04a7 02       		.byte	0x2
 3041 04a8 23       		.byte	0x23
 3042 04a9 10       		.uleb128 0x10
 3043 04aa 06       		.uleb128 0x6
 3044 04ab C7000000 		.4byte	.LASF70
 3045 04af 0A       		.byte	0xa
 3046 04b0 4B       		.byte	0x4b
 3047 04b1 F8040000 		.4byte	0x4f8
 3048 04b5 02       		.byte	0x2
 3049 04b6 23       		.byte	0x23
 3050 04b7 14       		.uleb128 0x14
 3051 04b8 06       		.uleb128 0x6
 3052 04b9 48020000 		.4byte	.LASF71
 3053 04bd 0A       		.byte	0xa
 3054 04be 4C       		.byte	0x4c
 3055 04bf F8040000 		.4byte	0x4f8
 3056 04c3 02       		.byte	0x2
 3057 04c4 23       		.byte	0x23
ARM GAS  /tmp/cca9KgQf.s 			page 55


 3058 04c5 18       		.uleb128 0x18
 3059 04c6 06       		.uleb128 0x6
 3060 04c7 60030000 		.4byte	.LASF72
 3061 04cb 0A       		.byte	0xa
 3062 04cc 4D       		.byte	0x4d
 3063 04cd D5040000 		.4byte	0x4d5
 3064 04d1 02       		.byte	0x2
 3065 04d2 23       		.byte	0x23
 3066 04d3 1C       		.uleb128 0x1c
 3067 04d4 00       		.byte	0x0
 3068 04d5 03       		.uleb128 0x3
 3069 04d6 27020000 		.4byte	.LASF73
 3070 04da 0A       		.byte	0xa
 3071 04db 3A       		.byte	0x3a
 3072 04dc E0040000 		.4byte	0x4e0
 3073 04e0 09       		.uleb128 0x9
 3074 04e1 04       		.byte	0x4
 3075 04e2 E6040000 		.4byte	0x4e6
 3076 04e6 11       		.uleb128 0x11
 3077 04e7 01       		.byte	0x1
 3078 04e8 F2040000 		.4byte	0x4f2
 3079 04ec 12       		.uleb128 0x12
 3080 04ed F2040000 		.4byte	0x4f2
 3081 04f1 00       		.byte	0x0
 3082 04f2 09       		.uleb128 0x9
 3083 04f3 04       		.byte	0x4
 3084 04f4 5B040000 		.4byte	0x45b
 3085 04f8 09       		.uleb128 0x9
 3086 04f9 04       		.byte	0x4
 3087 04fa 49000000 		.4byte	0x49
 3088 04fe 03       		.uleb128 0x3
 3089 04ff 78010000 		.4byte	.LASF74
 3090 0503 0A       		.byte	0xa
 3091 0504 76       		.byte	0x76
 3092 0505 5B040000 		.4byte	0x45b
 3093 0509 03       		.uleb128 0x3
 3094 050a 1D000000 		.4byte	.LASF75
 3095 050e 0A       		.byte	0xa
 3096 050f E6       		.byte	0xe6
 3097 0510 5B040000 		.4byte	0x45b
 3098 0514 05       		.uleb128 0x5
 3099 0515 D6020000 		.4byte	.LASF76
 3100 0519 10       		.byte	0x10
 3101 051a 0B       		.byte	0xb
 3102 051b 46       		.byte	0x46
 3103 051c 59050000 		.4byte	0x559
 3104 0520 06       		.uleb128 0x6
 3105 0521 16010000 		.4byte	.LASF77
 3106 0525 0B       		.byte	0xb
 3107 0526 47       		.byte	0x47
 3108 0527 43040000 		.4byte	0x443
 3109 052b 02       		.byte	0x2
 3110 052c 23       		.byte	0x23
 3111 052d 00       		.uleb128 0x0
 3112 052e 06       		.uleb128 0x6
 3113 052f F9010000 		.4byte	.LASF78
 3114 0533 0B       		.byte	0xb
ARM GAS  /tmp/cca9KgQf.s 			page 56


 3115 0534 48       		.byte	0x48
 3116 0535 5B050000 		.4byte	0x55b
 3117 0539 02       		.byte	0x2
 3118 053a 23       		.byte	0x23
 3119 053b 04       		.uleb128 0x4
 3120 053c 06       		.uleb128 0x6
 3121 053d 0D010000 		.4byte	.LASF79
 3122 0541 0B       		.byte	0xb
 3123 0542 49       		.byte	0x49
 3124 0543 5B050000 		.4byte	0x55b
 3125 0547 02       		.byte	0x2
 3126 0548 23       		.byte	0x23
 3127 0549 08       		.uleb128 0x8
 3128 054a 06       		.uleb128 0x6
 3129 054b 38020000 		.4byte	.LASF80
 3130 054f 0B       		.byte	0xb
 3131 0550 4A       		.byte	0x4a
 3132 0551 5B050000 		.4byte	0x55b
 3133 0555 02       		.byte	0x2
 3134 0556 23       		.byte	0x23
 3135 0557 0C       		.uleb128 0xc
 3136 0558 00       		.byte	0x0
 3137 0559 13       		.uleb128 0x13
 3138 055a 01       		.byte	0x1
 3139 055b 09       		.uleb128 0x9
 3140 055c 04       		.byte	0x4
 3141 055d 59050000 		.4byte	0x559
 3142 0561 14       		.uleb128 0x14
 3143 0562 A005     		.2byte	0x5a0
 3144 0564 0B       		.byte	0xb
 3145 0565 4F       		.byte	0x4f
 3146 0566 B0050000 		.4byte	0x5b0
 3147 056a 07       		.uleb128 0x7
 3148 056b 543000   		.ascii	"T0\000"
 3149 056e 0B       		.byte	0xb
 3150 056f 50       		.byte	0x50
 3151 0570 B0050000 		.4byte	0x5b0
 3152 0574 02       		.byte	0x2
 3153 0575 23       		.byte	0x23
 3154 0576 00       		.uleb128 0x0
 3155 0577 07       		.uleb128 0x7
 3156 0578 543100   		.ascii	"T1\000"
 3157 057b 0B       		.byte	0xb
 3158 057c 51       		.byte	0x51
 3159 057d B0050000 		.4byte	0x5b0
 3160 0581 03       		.byte	0x3
 3161 0582 23       		.byte	0x23
 3162 0583 A002     		.uleb128 0x120
 3163 0585 07       		.uleb128 0x7
 3164 0586 543200   		.ascii	"T2\000"
 3165 0589 0B       		.byte	0xb
 3166 058a 52       		.byte	0x52
 3167 058b B0050000 		.4byte	0x5b0
 3168 058f 03       		.byte	0x3
 3169 0590 23       		.byte	0x23
 3170 0591 C004     		.uleb128 0x240
 3171 0593 07       		.uleb128 0x7
ARM GAS  /tmp/cca9KgQf.s 			page 57


 3172 0594 543300   		.ascii	"T3\000"
 3173 0597 0B       		.byte	0xb
 3174 0598 53       		.byte	0x53
 3175 0599 B0050000 		.4byte	0x5b0
 3176 059d 03       		.byte	0x3
 3177 059e 23       		.byte	0x23
 3178 059f E006     		.uleb128 0x360
 3179 05a1 07       		.uleb128 0x7
 3180 05a2 543400   		.ascii	"T4\000"
 3181 05a5 0B       		.byte	0xb
 3182 05a6 54       		.byte	0x54
 3183 05a7 B0050000 		.4byte	0x5b0
 3184 05ab 03       		.byte	0x3
 3185 05ac 23       		.byte	0x23
 3186 05ad 8009     		.uleb128 0x480
 3187 05af 00       		.byte	0x0
 3188 05b0 15       		.uleb128 0x15
 3189 05b1 90020000 		.4byte	0x290
 3190 05b5 C0050000 		.4byte	0x5c0
 3191 05b9 16       		.uleb128 0x16
 3192 05ba 3B000000 		.4byte	0x3b
 3193 05be 23       		.byte	0x23
 3194 05bf 00       		.byte	0x0
 3195 05c0 17       		.uleb128 0x17
 3196 05c1 00030000 		.4byte	.LASF98
 3197 05c5 A005     		.2byte	0x5a0
 3198 05c7 0B       		.byte	0xb
 3199 05c8 4E       		.byte	0x4e
 3200 05c9 E3050000 		.4byte	0x5e3
 3201 05cd 18       		.uleb128 0x18
 3202 05ce 776100   		.ascii	"wa\000"
 3203 05d1 0B       		.byte	0xb
 3204 05d2 55       		.byte	0x55
 3205 05d3 61050000 		.4byte	0x561
 3206 05d7 0F       		.uleb128 0xf
 3207 05d8 29030000 		.4byte	.LASF81
 3208 05dc 0B       		.byte	0xb
 3209 05dd 56       		.byte	0x56
 3210 05de E3050000 		.4byte	0x5e3
 3211 05e2 00       		.byte	0x0
 3212 05e3 15       		.uleb128 0x15
 3213 05e4 49000000 		.4byte	0x49
 3214 05e8 F4050000 		.4byte	0x5f4
 3215 05ec 19       		.uleb128 0x19
 3216 05ed 3B000000 		.4byte	0x3b
 3217 05f1 9F05     		.2byte	0x59f
 3218 05f3 00       		.byte	0x0
 3219 05f4 1A       		.uleb128 0x1a
 3220 05f5 A1010000 		.4byte	.LASF82
 3221 05f9 01       		.byte	0x1
 3222 05fa 44       		.byte	0x44
 3223 05fb 01       		.byte	0x1
 3224 05fc 00000000 		.4byte	.LFB7
 3225 0600 02000000 		.4byte	.LFE7
 3226 0604 02       		.byte	0x2
 3227 0605 7D       		.byte	0x7d
 3228 0606 00       		.sleb128 0
ARM GAS  /tmp/cca9KgQf.s 			page 58


 3229 0607 18060000 		.4byte	0x618
 3230 060b 1B       		.uleb128 0x1b
 3231 060c 717000   		.ascii	"qp\000"
 3232 060f 01       		.byte	0x1
 3233 0610 44       		.byte	0x44
 3234 0611 F2040000 		.4byte	0x4f2
 3235 0615 01       		.byte	0x1
 3236 0616 50       		.byte	0x50
 3237 0617 00       		.byte	0x0
 3238 0618 1C       		.uleb128 0x1c
 3239 0619 DE010000 		.4byte	.LASF84
 3240 061d 01       		.byte	0x1
 3241 061e B5       		.byte	0xb5
 3242 061f 01       		.byte	0x1
 3243 0620 DD000000 		.4byte	0xdd
 3244 0624 00000000 		.4byte	.LFB12
 3245 0628 14000000 		.4byte	.LFE12
 3246 062c 00000000 		.4byte	.LLST0
 3247 0630 42060000 		.4byte	0x642
 3248 0634 1D       		.uleb128 0x1d
 3249 0635 7000     		.ascii	"p\000"
 3250 0637 01       		.byte	0x1
 3251 0638 B5       		.byte	0xb5
 3252 0639 8E020000 		.4byte	0x28e
 3253 063d 20000000 		.4byte	.LLST1
 3254 0641 00       		.byte	0x0
 3255 0642 1E       		.uleb128 0x1e
 3256 0643 A8010000 		.4byte	.LASF83
 3257 0647 01       		.byte	0x1
 3258 0648 BC       		.byte	0xbc
 3259 0649 01       		.byte	0x1
 3260 064a 00000000 		.4byte	.LFB13
 3261 064e F0020000 		.4byte	.LFE13
 3262 0652 33000000 		.4byte	.LLST2
 3263 0656 A4090000 		.4byte	0x9a4
 3264 065a 1F       		.uleb128 0x1f
 3265 065b 6900     		.ascii	"i\000"
 3266 065d 01       		.byte	0x1
 3267 065e BD       		.byte	0xbd
 3268 065f 3B000000 		.4byte	0x3b
 3269 0663 5F000000 		.4byte	.LLST3
 3270 0667 1F       		.uleb128 0x1f
 3271 0668 6E00     		.ascii	"n\000"
 3272 066a 01       		.byte	0x1
 3273 066b BE       		.byte	0xbe
 3274 066c 30000000 		.4byte	0x30
 3275 0670 F7000000 		.4byte	.LLST4
 3276 0674 20       		.uleb128 0x20
 3277 0675 00000000 		.4byte	.Ldebug_ranges0+0x0
 3278 0679 8D060000 		.4byte	0x68d
 3279 067d 1F       		.uleb128 0x1f
 3280 067e 746D7000 		.ascii	"tmp\000"
 3281 0682 01       		.byte	0x1
 3282 0683 C1       		.byte	0xc1
 3283 0684 7B000000 		.4byte	0x7b
 3284 0688 47010000 		.4byte	.LLST5
 3285 068c 00       		.byte	0x0
ARM GAS  /tmp/cca9KgQf.s 			page 59


 3286 068d 21       		.uleb128 0x21
 3287 068e 24000000 		.4byte	.LBB4
 3288 0692 2A000000 		.4byte	.LBE4
 3289 0696 AA060000 		.4byte	0x6aa
 3290 069a 1F       		.uleb128 0x1f
 3291 069b 746D7000 		.ascii	"tmp\000"
 3292 069f 01       		.byte	0x1
 3293 06a0 C1       		.byte	0xc1
 3294 06a1 7B000000 		.4byte	0x7b
 3295 06a5 5A010000 		.4byte	.LLST6
 3296 06a9 00       		.byte	0x0
 3297 06aa 21       		.uleb128 0x21
 3298 06ab 5C000000 		.4byte	.LBB5
 3299 06af 62000000 		.4byte	.LBE5
 3300 06b3 C7060000 		.4byte	0x6c7
 3301 06b7 1F       		.uleb128 0x1f
 3302 06b8 746D7000 		.ascii	"tmp\000"
 3303 06bc 01       		.byte	0x1
 3304 06bd C6       		.byte	0xc6
 3305 06be 7B000000 		.4byte	0x7b
 3306 06c2 6D010000 		.4byte	.LLST7
 3307 06c6 00       		.byte	0x0
 3308 06c7 21       		.uleb128 0x21
 3309 06c8 78000000 		.4byte	.LBB6
 3310 06cc 7E000000 		.4byte	.LBE6
 3311 06d0 E4060000 		.4byte	0x6e4
 3312 06d4 1F       		.uleb128 0x1f
 3313 06d5 746D7000 		.ascii	"tmp\000"
 3314 06d9 01       		.byte	0x1
 3315 06da C6       		.byte	0xc6
 3316 06db 7B000000 		.4byte	0x7b
 3317 06df 80010000 		.4byte	.LLST8
 3318 06e3 00       		.byte	0x0
 3319 06e4 21       		.uleb128 0x21
 3320 06e5 7E000000 		.4byte	.LBB7
 3321 06e9 DE000000 		.4byte	.LBE7
 3322 06ed 2D070000 		.4byte	0x72d
 3323 06f1 1F       		.uleb128 0x1f
 3324 06f2 6300     		.ascii	"c\000"
 3325 06f4 01       		.byte	0x1
 3326 06f5 CA       		.byte	0xca
 3327 06f6 4E040000 		.4byte	0x44e
 3328 06fa 93010000 		.4byte	.LLST9
 3329 06fe 20       		.uleb128 0x20
 3330 06ff 18000000 		.4byte	.Ldebug_ranges0+0x18
 3331 0703 17070000 		.4byte	0x717
 3332 0707 1F       		.uleb128 0x1f
 3333 0708 746D7000 		.ascii	"tmp\000"
 3334 070c 01       		.byte	0x1
 3335 070d CC       		.byte	0xcc
 3336 070e 7B000000 		.4byte	0x7b
 3337 0712 C7010000 		.4byte	.LLST10
 3338 0716 00       		.byte	0x0
 3339 0717 22       		.uleb128 0x22
 3340 0718 40000000 		.4byte	.Ldebug_ranges0+0x40
 3341 071c 1F       		.uleb128 0x1f
 3342 071d 746D7000 		.ascii	"tmp\000"
ARM GAS  /tmp/cca9KgQf.s 			page 60


 3343 0721 01       		.byte	0x1
 3344 0722 CE       		.byte	0xce
 3345 0723 7B000000 		.4byte	0x7b
 3346 0727 FB010000 		.4byte	.LLST11
 3347 072b 00       		.byte	0x0
 3348 072c 00       		.byte	0x0
 3349 072d 21       		.uleb128 0x21
 3350 072e DE000000 		.4byte	.LBB16
 3351 0732 E4000000 		.4byte	.LBE16
 3352 0736 4A070000 		.4byte	0x74a
 3353 073a 1F       		.uleb128 0x1f
 3354 073b 746D7000 		.ascii	"tmp\000"
 3355 073f 01       		.byte	0x1
 3356 0740 D1       		.byte	0xd1
 3357 0741 7B000000 		.4byte	0x7b
 3358 0745 2F020000 		.4byte	.LLST12
 3359 0749 00       		.byte	0x0
 3360 074a 21       		.uleb128 0x21
 3361 074b F6000000 		.4byte	.LBB17
 3362 074f FC000000 		.4byte	.LBE17
 3363 0753 67070000 		.4byte	0x767
 3364 0757 1F       		.uleb128 0x1f
 3365 0758 746D7000 		.ascii	"tmp\000"
 3366 075c 01       		.byte	0x1
 3367 075d D1       		.byte	0xd1
 3368 075e 7B000000 		.4byte	0x7b
 3369 0762 4D020000 		.4byte	.LLST13
 3370 0766 00       		.byte	0x0
 3371 0767 21       		.uleb128 0x21
 3372 0768 02010000 		.4byte	.LBB18
 3373 076c 08010000 		.4byte	.LBE18
 3374 0770 84070000 		.4byte	0x784
 3375 0774 1F       		.uleb128 0x1f
 3376 0775 746D7000 		.ascii	"tmp\000"
 3377 0779 01       		.byte	0x1
 3378 077a C6       		.byte	0xc6
 3379 077b 7B000000 		.4byte	0x7b
 3380 077f 60020000 		.4byte	.LLST14
 3381 0783 00       		.byte	0x0
 3382 0784 21       		.uleb128 0x21
 3383 0785 0A010000 		.4byte	.LBB19
 3384 0789 10010000 		.4byte	.LBE19
 3385 078d A1070000 		.4byte	0x7a1
 3386 0791 1F       		.uleb128 0x1f
 3387 0792 746D7000 		.ascii	"tmp\000"
 3388 0796 01       		.byte	0x1
 3389 0797 C1       		.byte	0xc1
 3390 0798 7B000000 		.4byte	0x7b
 3391 079c 7E020000 		.4byte	.LLST15
 3392 07a0 00       		.byte	0x0
 3393 07a1 21       		.uleb128 0x21
 3394 07a2 1C010000 		.4byte	.LBB20
 3395 07a6 22010000 		.4byte	.LBE20
 3396 07aa BE070000 		.4byte	0x7be
 3397 07ae 1F       		.uleb128 0x1f
 3398 07af 746D7000 		.ascii	"tmp\000"
 3399 07b3 01       		.byte	0x1
ARM GAS  /tmp/cca9KgQf.s 			page 61


 3400 07b4 D1       		.byte	0xd1
 3401 07b5 7B000000 		.4byte	0x7b
 3402 07b9 9C020000 		.4byte	.LLST16
 3403 07bd 00       		.byte	0x0
 3404 07be 21       		.uleb128 0x21
 3405 07bf 30010000 		.4byte	.LBB21
 3406 07c3 36010000 		.4byte	.LBE21
 3407 07c7 DB070000 		.4byte	0x7db
 3408 07cb 1F       		.uleb128 0x1f
 3409 07cc 746D7000 		.ascii	"tmp\000"
 3410 07d0 01       		.byte	0x1
 3411 07d1 D3       		.byte	0xd3
 3412 07d2 7B000000 		.4byte	0x7b
 3413 07d6 AF020000 		.4byte	.LLST17
 3414 07da 00       		.byte	0x0
 3415 07db 21       		.uleb128 0x21
 3416 07dc 50010000 		.4byte	.LBB22
 3417 07e0 56010000 		.4byte	.LBE22
 3418 07e4 F8070000 		.4byte	0x7f8
 3419 07e8 1F       		.uleb128 0x1f
 3420 07e9 746D7000 		.ascii	"tmp\000"
 3421 07ed 01       		.byte	0x1
 3422 07ee D3       		.byte	0xd3
 3423 07ef 7B000000 		.4byte	0x7b
 3424 07f3 C2020000 		.4byte	.LLST18
 3425 07f7 00       		.byte	0x0
 3426 07f8 21       		.uleb128 0x21
 3427 07f9 62010000 		.4byte	.LBB23
 3428 07fd 68010000 		.4byte	.LBE23
 3429 0801 15080000 		.4byte	0x815
 3430 0805 1F       		.uleb128 0x1f
 3431 0806 746D7000 		.ascii	"tmp\000"
 3432 080a 01       		.byte	0x1
 3433 080b D3       		.byte	0xd3
 3434 080c 7B000000 		.4byte	0x7b
 3435 0810 E0020000 		.4byte	.LLST19
 3436 0814 00       		.byte	0x0
 3437 0815 21       		.uleb128 0x21
 3438 0816 8E010000 		.4byte	.LBB24
 3439 081a 94010000 		.4byte	.LBE24
 3440 081e 32080000 		.4byte	0x832
 3441 0822 1F       		.uleb128 0x1f
 3442 0823 746D7000 		.ascii	"tmp\000"
 3443 0827 01       		.byte	0x1
 3444 0828 D8       		.byte	0xd8
 3445 0829 7B000000 		.4byte	0x7b
 3446 082d F3020000 		.4byte	.LLST20
 3447 0831 00       		.byte	0x0
 3448 0832 21       		.uleb128 0x21
 3449 0833 A8010000 		.4byte	.LBB25
 3450 0837 AE010000 		.4byte	.LBE25
 3451 083b 4F080000 		.4byte	0x84f
 3452 083f 1F       		.uleb128 0x1f
 3453 0840 746D7000 		.ascii	"tmp\000"
 3454 0844 01       		.byte	0x1
 3455 0845 D8       		.byte	0xd8
 3456 0846 7B000000 		.4byte	0x7b
ARM GAS  /tmp/cca9KgQf.s 			page 62


 3457 084a 06030000 		.4byte	.LLST21
 3458 084e 00       		.byte	0x0
 3459 084f 21       		.uleb128 0x21
 3460 0850 B0010000 		.4byte	.LBB26
 3461 0854 B6010000 		.4byte	.LBE26
 3462 0858 6C080000 		.4byte	0x86c
 3463 085c 1F       		.uleb128 0x1f
 3464 085d 746D7000 		.ascii	"tmp\000"
 3465 0861 01       		.byte	0x1
 3466 0862 D8       		.byte	0xd8
 3467 0863 7B000000 		.4byte	0x7b
 3468 0867 24030000 		.4byte	.LLST22
 3469 086b 00       		.byte	0x0
 3470 086c 20       		.uleb128 0x20
 3471 086d 68000000 		.4byte	.Ldebug_ranges0+0x68
 3472 0871 85080000 		.4byte	0x885
 3473 0875 1F       		.uleb128 0x1f
 3474 0876 746D7000 		.ascii	"tmp\000"
 3475 087a 01       		.byte	0x1
 3476 087b DA       		.byte	0xda
 3477 087c 7B000000 		.4byte	0x7b
 3478 0880 37030000 		.4byte	.LLST23
 3479 0884 00       		.byte	0x0
 3480 0885 21       		.uleb128 0x21
 3481 0886 F4010000 		.4byte	.LBB29
 3482 088a FA010000 		.4byte	.LBE29
 3483 088e A2080000 		.4byte	0x8a2
 3484 0892 1F       		.uleb128 0x1f
 3485 0893 746D7000 		.ascii	"tmp\000"
 3486 0897 01       		.byte	0x1
 3487 0898 DA       		.byte	0xda
 3488 0899 7B000000 		.4byte	0x7b
 3489 089d 4A030000 		.4byte	.LLST24
 3490 08a1 00       		.byte	0x0
 3491 08a2 21       		.uleb128 0x21
 3492 08a3 FC010000 		.4byte	.LBB30
 3493 08a7 02020000 		.4byte	.LBE30
 3494 08ab BF080000 		.4byte	0x8bf
 3495 08af 1F       		.uleb128 0x1f
 3496 08b0 746D7000 		.ascii	"tmp\000"
 3497 08b4 01       		.byte	0x1
 3498 08b5 DA       		.byte	0xda
 3499 08b6 7B000000 		.4byte	0x7b
 3500 08ba 68030000 		.4byte	.LLST25
 3501 08be 00       		.byte	0x0
 3502 08bf 21       		.uleb128 0x21
 3503 08c0 06020000 		.4byte	.LBB31
 3504 08c4 0C020000 		.4byte	.LBE31
 3505 08c8 DC080000 		.4byte	0x8dc
 3506 08cc 1F       		.uleb128 0x1f
 3507 08cd 746D7000 		.ascii	"tmp\000"
 3508 08d1 01       		.byte	0x1
 3509 08d2 DE       		.byte	0xde
 3510 08d3 7B000000 		.4byte	0x7b
 3511 08d7 7B030000 		.4byte	.LLST26
 3512 08db 00       		.byte	0x0
 3513 08dc 21       		.uleb128 0x21
ARM GAS  /tmp/cca9KgQf.s 			page 63


 3514 08dd 12020000 		.4byte	.LBB32
 3515 08e1 18020000 		.4byte	.LBE32
 3516 08e5 F9080000 		.4byte	0x8f9
 3517 08e9 1F       		.uleb128 0x1f
 3518 08ea 746D7000 		.ascii	"tmp\000"
 3519 08ee 01       		.byte	0x1
 3520 08ef E0       		.byte	0xe0
 3521 08f0 7B000000 		.4byte	0x7b
 3522 08f4 8E030000 		.4byte	.LLST27
 3523 08f8 00       		.byte	0x0
 3524 08f9 21       		.uleb128 0x21
 3525 08fa 18020000 		.4byte	.LBB33
 3526 08fe 1E020000 		.4byte	.LBE33
 3527 0902 16090000 		.4byte	0x916
 3528 0906 1F       		.uleb128 0x1f
 3529 0907 746D7000 		.ascii	"tmp\000"
 3530 090b 01       		.byte	0x1
 3531 090c E1       		.byte	0xe1
 3532 090d 7B000000 		.4byte	0x7b
 3533 0911 A1030000 		.4byte	.LLST28
 3534 0915 00       		.byte	0x0
 3535 0916 21       		.uleb128 0x21
 3536 0917 3C020000 		.4byte	.LBB34
 3537 091b 42020000 		.4byte	.LBE34
 3538 091f 33090000 		.4byte	0x933
 3539 0923 1F       		.uleb128 0x1f
 3540 0924 746D7000 		.ascii	"tmp\000"
 3541 0928 01       		.byte	0x1
 3542 0929 E1       		.byte	0xe1
 3543 092a 7B000000 		.4byte	0x7b
 3544 092e B4030000 		.4byte	.LLST29
 3545 0932 00       		.byte	0x0
 3546 0933 21       		.uleb128 0x21
 3547 0934 44020000 		.4byte	.LBB35
 3548 0938 48020000 		.4byte	.LBE35
 3549 093c 50090000 		.4byte	0x950
 3550 0940 1F       		.uleb128 0x1f
 3551 0941 746D7000 		.ascii	"tmp\000"
 3552 0945 01       		.byte	0x1
 3553 0946 E1       		.byte	0xe1
 3554 0947 7B000000 		.4byte	0x7b
 3555 094b D2030000 		.4byte	.LLST30
 3556 094f 00       		.byte	0x0
 3557 0950 21       		.uleb128 0x21
 3558 0951 8C020000 		.4byte	.LBB36
 3559 0955 92020000 		.4byte	.LBE36
 3560 0959 6D090000 		.4byte	0x96d
 3561 095d 1F       		.uleb128 0x1f
 3562 095e 746D7000 		.ascii	"tmp\000"
 3563 0962 01       		.byte	0x1
 3564 0963 E8       		.byte	0xe8
 3565 0964 7B000000 		.4byte	0x7b
 3566 0968 E5030000 		.4byte	.LLST31
 3567 096c 00       		.byte	0x0
 3568 096d 21       		.uleb128 0x21
 3569 096e A4020000 		.4byte	.LBB37
 3570 0972 C4020000 		.4byte	.LBE37
ARM GAS  /tmp/cca9KgQf.s 			page 64


 3571 0976 8A090000 		.4byte	0x98a
 3572 097a 1F       		.uleb128 0x1f
 3573 097b 746D7000 		.ascii	"tmp\000"
 3574 097f 01       		.byte	0x1
 3575 0980 E8       		.byte	0xe8
 3576 0981 7B000000 		.4byte	0x7b
 3577 0985 F8030000 		.4byte	.LLST32
 3578 0989 00       		.byte	0x0
 3579 098a 23       		.uleb128 0x23
 3580 098b C4020000 		.4byte	.LBB38
 3581 098f CA020000 		.4byte	.LBE38
 3582 0993 1F       		.uleb128 0x1f
 3583 0994 746D7000 		.ascii	"tmp\000"
 3584 0998 01       		.byte	0x1
 3585 0999 E8       		.byte	0xe8
 3586 099a 7B000000 		.4byte	0x7b
 3587 099e 16040000 		.4byte	.LLST33
 3588 09a2 00       		.byte	0x0
 3589 09a3 00       		.byte	0x0
 3590 09a4 24       		.uleb128 0x24
 3591 09a5 57000000 		.4byte	.LASF87
 3592 09a9 01       		.byte	0x1
 3593 09aa B0       		.byte	0xb0
 3594 09ab 01       		.byte	0x1
 3595 09ac 00000000 		.4byte	.LFB11
 3596 09b0 1C000000 		.4byte	.LFE11
 3597 09b4 02       		.byte	0x2
 3598 09b5 7D       		.byte	0x7d
 3599 09b6 00       		.sleb128 0
 3600 09b7 1C       		.uleb128 0x1c
 3601 09b8 D6010000 		.4byte	.LASF85
 3602 09bc 01       		.byte	0x1
 3603 09bd 5E       		.byte	0x5e
 3604 09be 01       		.byte	0x1
 3605 09bf DD000000 		.4byte	0xdd
 3606 09c3 00000000 		.4byte	.LFB9
 3607 09c7 14000000 		.4byte	.LFE9
 3608 09cb 29040000 		.4byte	.LLST34
 3609 09cf E1090000 		.4byte	0x9e1
 3610 09d3 1D       		.uleb128 0x1d
 3611 09d4 7000     		.ascii	"p\000"
 3612 09d6 01       		.byte	0x1
 3613 09d7 5E       		.byte	0x5e
 3614 09d8 8E020000 		.4byte	0x28e
 3615 09dc 49040000 		.4byte	.LLST35
 3616 09e0 00       		.byte	0x0
 3617 09e1 1E       		.uleb128 0x1e
 3618 09e2 36010000 		.4byte	.LASF86
 3619 09e6 01       		.byte	0x1
 3620 09e7 65       		.byte	0x65
 3621 09e8 01       		.byte	0x1
 3622 09e9 00000000 		.4byte	.LFB10
 3623 09ed 18030000 		.4byte	.LFE10
 3624 09f1 5C040000 		.4byte	.LLST36
 3625 09f5 A80D0000 		.4byte	0xda8
 3626 09f9 1F       		.uleb128 0x1f
 3627 09fa 6900     		.ascii	"i\000"
ARM GAS  /tmp/cca9KgQf.s 			page 65


 3628 09fc 01       		.byte	0x1
 3629 09fd 66       		.byte	0x66
 3630 09fe 3B000000 		.4byte	0x3b
 3631 0a02 88040000 		.4byte	.LLST37
 3632 0a06 1F       		.uleb128 0x1f
 3633 0a07 6E00     		.ascii	"n\000"
 3634 0a09 01       		.byte	0x1
 3635 0a0a 67       		.byte	0x67
 3636 0a0b 30000000 		.4byte	0x30
 3637 0a0f 98050000 		.4byte	.LLST38
 3638 0a13 20       		.uleb128 0x20
 3639 0a14 80000000 		.4byte	.Ldebug_ranges0+0x80
 3640 0a18 2C0A0000 		.4byte	0xa2c
 3641 0a1c 1F       		.uleb128 0x1f
 3642 0a1d 746D7000 		.ascii	"tmp\000"
 3643 0a21 01       		.byte	0x1
 3644 0a22 6A       		.byte	0x6a
 3645 0a23 7B000000 		.4byte	0x7b
 3646 0a27 E8050000 		.4byte	.LLST39
 3647 0a2b 00       		.byte	0x0
 3648 0a2c 21       		.uleb128 0x21
 3649 0a2d 24000000 		.4byte	.LBB41
 3650 0a31 2A000000 		.4byte	.LBE41
 3651 0a35 490A0000 		.4byte	0xa49
 3652 0a39 1F       		.uleb128 0x1f
 3653 0a3a 746D7000 		.ascii	"tmp\000"
 3654 0a3e 01       		.byte	0x1
 3655 0a3f 6A       		.byte	0x6a
 3656 0a40 7B000000 		.4byte	0x7b
 3657 0a44 FB050000 		.4byte	.LLST40
 3658 0a48 00       		.byte	0x0
 3659 0a49 21       		.uleb128 0x21
 3660 0a4a 2A000000 		.4byte	.LBB42
 3661 0a4e 30000000 		.4byte	.LBE42
 3662 0a52 660A0000 		.4byte	0xa66
 3663 0a56 1F       		.uleb128 0x1f
 3664 0a57 746D7000 		.ascii	"tmp\000"
 3665 0a5b 01       		.byte	0x1
 3666 0a5c 6D       		.byte	0x6d
 3667 0a5d 7B000000 		.4byte	0x7b
 3668 0a61 0E060000 		.4byte	.LLST41
 3669 0a65 00       		.byte	0x0
 3670 0a66 21       		.uleb128 0x21
 3671 0a67 50000000 		.4byte	.LBB43
 3672 0a6b 56000000 		.4byte	.LBE43
 3673 0a6f 830A0000 		.4byte	0xa83
 3674 0a73 1F       		.uleb128 0x1f
 3675 0a74 746D7000 		.ascii	"tmp\000"
 3676 0a78 01       		.byte	0x1
 3677 0a79 70       		.byte	0x70
 3678 0a7a 7B000000 		.4byte	0x7b
 3679 0a7e 21060000 		.4byte	.LLST42
 3680 0a82 00       		.byte	0x0
 3681 0a83 21       		.uleb128 0x21
 3682 0a84 56000000 		.4byte	.LBB44
 3683 0a88 5C000000 		.4byte	.LBE44
 3684 0a8c A00A0000 		.4byte	0xaa0
ARM GAS  /tmp/cca9KgQf.s 			page 66


 3685 0a90 1F       		.uleb128 0x1f
 3686 0a91 746D7000 		.ascii	"tmp\000"
 3687 0a95 01       		.byte	0x1
 3688 0a96 71       		.byte	0x71
 3689 0a97 7B000000 		.4byte	0x7b
 3690 0a9b 34060000 		.4byte	.LLST43
 3691 0a9f 00       		.byte	0x0
 3692 0aa0 21       		.uleb128 0x21
 3693 0aa1 70000000 		.4byte	.LBB45
 3694 0aa5 76000000 		.4byte	.LBE45
 3695 0aa9 BD0A0000 		.4byte	0xabd
 3696 0aad 1F       		.uleb128 0x1f
 3697 0aae 746D7000 		.ascii	"tmp\000"
 3698 0ab2 01       		.byte	0x1
 3699 0ab3 71       		.byte	0x71
 3700 0ab4 7B000000 		.4byte	0x7b
 3701 0ab8 47060000 		.4byte	.LLST44
 3702 0abc 00       		.byte	0x0
 3703 0abd 21       		.uleb128 0x21
 3704 0abe 7C000000 		.4byte	.LBB46
 3705 0ac2 82000000 		.4byte	.LBE46
 3706 0ac6 DA0A0000 		.4byte	0xada
 3707 0aca 1F       		.uleb128 0x1f
 3708 0acb 746D7000 		.ascii	"tmp\000"
 3709 0acf 01       		.byte	0x1
 3710 0ad0 71       		.byte	0x71
 3711 0ad1 7B000000 		.4byte	0x7b
 3712 0ad5 5A060000 		.4byte	.LLST45
 3713 0ad9 00       		.byte	0x0
 3714 0ada 21       		.uleb128 0x21
 3715 0adb 82000000 		.4byte	.LBB47
 3716 0adf 88000000 		.4byte	.LBE47
 3717 0ae3 F70A0000 		.4byte	0xaf7
 3718 0ae7 1F       		.uleb128 0x1f
 3719 0ae8 746D7000 		.ascii	"tmp\000"
 3720 0aec 01       		.byte	0x1
 3721 0aed 72       		.byte	0x72
 3722 0aee 7B000000 		.4byte	0x7b
 3723 0af2 6D060000 		.4byte	.LLST46
 3724 0af6 00       		.byte	0x0
 3725 0af7 21       		.uleb128 0x21
 3726 0af8 A8000000 		.4byte	.LBB48
 3727 0afc AE000000 		.4byte	.LBE48
 3728 0b00 140B0000 		.4byte	0xb14
 3729 0b04 1F       		.uleb128 0x1f
 3730 0b05 746D7000 		.ascii	"tmp\000"
 3731 0b09 01       		.byte	0x1
 3732 0b0a 72       		.byte	0x72
 3733 0b0b 7B000000 		.4byte	0x7b
 3734 0b0f 80060000 		.4byte	.LLST47
 3735 0b13 00       		.byte	0x0
 3736 0b14 21       		.uleb128 0x21
 3737 0b15 EE000000 		.4byte	.LBB49
 3738 0b19 F4000000 		.4byte	.LBE49
 3739 0b1d 310B0000 		.4byte	0xb31
 3740 0b21 1F       		.uleb128 0x1f
 3741 0b22 746D7000 		.ascii	"tmp\000"
ARM GAS  /tmp/cca9KgQf.s 			page 67


 3742 0b26 01       		.byte	0x1
 3743 0b27 77       		.byte	0x77
 3744 0b28 7B000000 		.4byte	0x7b
 3745 0b2c 93060000 		.4byte	.LLST48
 3746 0b30 00       		.byte	0x0
 3747 0b31 21       		.uleb128 0x21
 3748 0b32 06010000 		.4byte	.LBB50
 3749 0b36 0C010000 		.4byte	.LBE50
 3750 0b3a 4E0B0000 		.4byte	0xb4e
 3751 0b3e 1F       		.uleb128 0x1f
 3752 0b3f 746D7000 		.ascii	"tmp\000"
 3753 0b43 01       		.byte	0x1
 3754 0b44 77       		.byte	0x77
 3755 0b45 7B000000 		.4byte	0x7b
 3756 0b49 A6060000 		.4byte	.LLST49
 3757 0b4d 00       		.byte	0x0
 3758 0b4e 21       		.uleb128 0x21
 3759 0b4f 0E010000 		.4byte	.LBB51
 3760 0b53 14010000 		.4byte	.LBE51
 3761 0b57 6B0B0000 		.4byte	0xb6b
 3762 0b5b 1F       		.uleb128 0x1f
 3763 0b5c 746D7000 		.ascii	"tmp\000"
 3764 0b60 01       		.byte	0x1
 3765 0b61 6A       		.byte	0x6a
 3766 0b62 7B000000 		.4byte	0x7b
 3767 0b66 C4060000 		.4byte	.LLST50
 3768 0b6a 00       		.byte	0x0
 3769 0b6b 21       		.uleb128 0x21
 3770 0b6c 16010000 		.4byte	.LBB52
 3771 0b70 1C010000 		.4byte	.LBE52
 3772 0b74 880B0000 		.4byte	0xb88
 3773 0b78 1F       		.uleb128 0x1f
 3774 0b79 746D7000 		.ascii	"tmp\000"
 3775 0b7d 01       		.byte	0x1
 3776 0b7e 72       		.byte	0x72
 3777 0b7f 7B000000 		.4byte	0x7b
 3778 0b83 E2060000 		.4byte	.LLST51
 3779 0b87 00       		.byte	0x0
 3780 0b88 21       		.uleb128 0x21
 3781 0b89 28010000 		.4byte	.LBB53
 3782 0b8d 2E010000 		.4byte	.LBE53
 3783 0b91 A50B0000 		.4byte	0xba5
 3784 0b95 1F       		.uleb128 0x1f
 3785 0b96 746D7000 		.ascii	"tmp\000"
 3786 0b9a 01       		.byte	0x1
 3787 0b9b 77       		.byte	0x77
 3788 0b9c 7B000000 		.4byte	0x7b
 3789 0ba0 00070000 		.4byte	.LLST52
 3790 0ba4 00       		.byte	0x0
 3791 0ba5 21       		.uleb128 0x21
 3792 0ba6 3C010000 		.4byte	.LBB54
 3793 0baa 42010000 		.4byte	.LBE54
 3794 0bae C20B0000 		.4byte	0xbc2
 3795 0bb2 1F       		.uleb128 0x1f
 3796 0bb3 746D7000 		.ascii	"tmp\000"
 3797 0bb7 01       		.byte	0x1
 3798 0bb8 7B       		.byte	0x7b
ARM GAS  /tmp/cca9KgQf.s 			page 68


 3799 0bb9 7B000000 		.4byte	0x7b
 3800 0bbd 13070000 		.4byte	.LLST53
 3801 0bc1 00       		.byte	0x0
 3802 0bc2 21       		.uleb128 0x21
 3803 0bc3 62010000 		.4byte	.LBB55
 3804 0bc7 68010000 		.4byte	.LBE55
 3805 0bcb DF0B0000 		.4byte	0xbdf
 3806 0bcf 1F       		.uleb128 0x1f
 3807 0bd0 746D7000 		.ascii	"tmp\000"
 3808 0bd4 01       		.byte	0x1
 3809 0bd5 7E       		.byte	0x7e
 3810 0bd6 7B000000 		.4byte	0x7b
 3811 0bda 26070000 		.4byte	.LLST54
 3812 0bde 00       		.byte	0x0
 3813 0bdf 21       		.uleb128 0x21
 3814 0be0 90010000 		.4byte	.LBB56
 3815 0be4 96010000 		.4byte	.LBE56
 3816 0be8 FC0B0000 		.4byte	0xbfc
 3817 0bec 1F       		.uleb128 0x1f
 3818 0bed 746D7000 		.ascii	"tmp\000"
 3819 0bf1 01       		.byte	0x1
 3820 0bf2 83       		.byte	0x83
 3821 0bf3 7B000000 		.4byte	0x7b
 3822 0bf7 39070000 		.4byte	.LLST55
 3823 0bfb 00       		.byte	0x0
 3824 0bfc 21       		.uleb128 0x21
 3825 0bfd AC010000 		.4byte	.LBB57
 3826 0c01 B2010000 		.4byte	.LBE57
 3827 0c05 190C0000 		.4byte	0xc19
 3828 0c09 1F       		.uleb128 0x1f
 3829 0c0a 746D7000 		.ascii	"tmp\000"
 3830 0c0e 01       		.byte	0x1
 3831 0c0f 83       		.byte	0x83
 3832 0c10 7B000000 		.4byte	0x7b
 3833 0c14 4C070000 		.4byte	.LLST56
 3834 0c18 00       		.byte	0x0
 3835 0c19 21       		.uleb128 0x21
 3836 0c1a B2010000 		.4byte	.LBB58
 3837 0c1e B8010000 		.4byte	.LBE58
 3838 0c22 360C0000 		.4byte	0xc36
 3839 0c26 1F       		.uleb128 0x1f
 3840 0c27 746D7000 		.ascii	"tmp\000"
 3841 0c2b 01       		.byte	0x1
 3842 0c2c 86       		.byte	0x86
 3843 0c2d 7B000000 		.4byte	0x7b
 3844 0c31 5F070000 		.4byte	.LLST57
 3845 0c35 00       		.byte	0x0
 3846 0c36 21       		.uleb128 0x21
 3847 0c37 D8010000 		.4byte	.LBB59
 3848 0c3b DE010000 		.4byte	.LBE59
 3849 0c3f 530C0000 		.4byte	0xc53
 3850 0c43 1F       		.uleb128 0x1f
 3851 0c44 746D7000 		.ascii	"tmp\000"
 3852 0c48 01       		.byte	0x1
 3853 0c49 89       		.byte	0x89
 3854 0c4a 7B000000 		.4byte	0x7b
 3855 0c4e 72070000 		.4byte	.LLST58
ARM GAS  /tmp/cca9KgQf.s 			page 69


 3856 0c52 00       		.byte	0x0
 3857 0c53 21       		.uleb128 0x21
 3858 0c54 24020000 		.4byte	.LBB60
 3859 0c58 2A020000 		.4byte	.LBE60
 3860 0c5c 700C0000 		.4byte	0xc70
 3861 0c60 1F       		.uleb128 0x1f
 3862 0c61 746D7000 		.ascii	"tmp\000"
 3863 0c65 01       		.byte	0x1
 3864 0c66 90       		.byte	0x90
 3865 0c67 7B000000 		.4byte	0x7b
 3866 0c6b 85070000 		.4byte	.LLST59
 3867 0c6f 00       		.byte	0x0
 3868 0c70 21       		.uleb128 0x21
 3869 0c71 3E020000 		.4byte	.LBB61
 3870 0c75 44020000 		.4byte	.LBE61
 3871 0c79 8D0C0000 		.4byte	0xc8d
 3872 0c7d 1F       		.uleb128 0x1f
 3873 0c7e 746D7000 		.ascii	"tmp\000"
 3874 0c82 01       		.byte	0x1
 3875 0c83 90       		.byte	0x90
 3876 0c84 7B000000 		.4byte	0x7b
 3877 0c88 98070000 		.4byte	.LLST60
 3878 0c8c 00       		.byte	0x0
 3879 0c8d 21       		.uleb128 0x21
 3880 0c8e 46020000 		.4byte	.LBB62
 3881 0c92 4C020000 		.4byte	.LBE62
 3882 0c96 AA0C0000 		.4byte	0xcaa
 3883 0c9a 1F       		.uleb128 0x1f
 3884 0c9b 746D7000 		.ascii	"tmp\000"
 3885 0c9f 01       		.byte	0x1
 3886 0ca0 83       		.byte	0x83
 3887 0ca1 7B000000 		.4byte	0x7b
 3888 0ca5 B6070000 		.4byte	.LLST61
 3889 0ca9 00       		.byte	0x0
 3890 0caa 21       		.uleb128 0x21
 3891 0cab 4E020000 		.4byte	.LBB63
 3892 0caf 54020000 		.4byte	.LBE63
 3893 0cb3 C70C0000 		.4byte	0xcc7
 3894 0cb7 1F       		.uleb128 0x1f
 3895 0cb8 746D7000 		.ascii	"tmp\000"
 3896 0cbc 01       		.byte	0x1
 3897 0cbd 90       		.byte	0x90
 3898 0cbe 7B000000 		.4byte	0x7b
 3899 0cc2 D4070000 		.4byte	.LLST62
 3900 0cc6 00       		.byte	0x0
 3901 0cc7 21       		.uleb128 0x21
 3902 0cc8 54020000 		.4byte	.LBB64
 3903 0ccc 5A020000 		.4byte	.LBE64
 3904 0cd0 E40C0000 		.4byte	0xce4
 3905 0cd4 1F       		.uleb128 0x1f
 3906 0cd5 746D7000 		.ascii	"tmp\000"
 3907 0cd9 01       		.byte	0x1
 3908 0cda 93       		.byte	0x93
 3909 0cdb 7B000000 		.4byte	0x7b
 3910 0cdf E7070000 		.4byte	.LLST63
 3911 0ce3 00       		.byte	0x0
 3912 0ce4 21       		.uleb128 0x21
ARM GAS  /tmp/cca9KgQf.s 			page 70


 3913 0ce5 68020000 		.4byte	.LBB65
 3914 0ce9 6E020000 		.4byte	.LBE65
 3915 0ced 010D0000 		.4byte	0xd01
 3916 0cf1 1F       		.uleb128 0x1f
 3917 0cf2 746D7000 		.ascii	"tmp\000"
 3918 0cf6 01       		.byte	0x1
 3919 0cf7 96       		.byte	0x96
 3920 0cf8 7B000000 		.4byte	0x7b
 3921 0cfc FA070000 		.4byte	.LLST64
 3922 0d00 00       		.byte	0x0
 3923 0d01 21       		.uleb128 0x21
 3924 0d02 6E020000 		.4byte	.LBB66
 3925 0d06 74020000 		.4byte	.LBE66
 3926 0d0a 1E0D0000 		.4byte	0xd1e
 3927 0d0e 1F       		.uleb128 0x1f
 3928 0d0f 746D7000 		.ascii	"tmp\000"
 3929 0d13 01       		.byte	0x1
 3930 0d14 97       		.byte	0x97
 3931 0d15 7B000000 		.4byte	0x7b
 3932 0d19 0D080000 		.4byte	.LLST65
 3933 0d1d 00       		.byte	0x0
 3934 0d1e 21       		.uleb128 0x21
 3935 0d1f 86020000 		.4byte	.LBB67
 3936 0d23 8C020000 		.4byte	.LBE67
 3937 0d27 3B0D0000 		.4byte	0xd3b
 3938 0d2b 1F       		.uleb128 0x1f
 3939 0d2c 746D7000 		.ascii	"tmp\000"
 3940 0d30 01       		.byte	0x1
 3941 0d31 97       		.byte	0x97
 3942 0d32 7B000000 		.4byte	0x7b
 3943 0d36 20080000 		.4byte	.LLST66
 3944 0d3a 00       		.byte	0x0
 3945 0d3b 21       		.uleb128 0x21
 3946 0d3c 8E020000 		.4byte	.LBB68
 3947 0d40 94020000 		.4byte	.LBE68
 3948 0d44 580D0000 		.4byte	0xd58
 3949 0d48 1F       		.uleb128 0x1f
 3950 0d49 746D7000 		.ascii	"tmp\000"
 3951 0d4d 01       		.byte	0x1
 3952 0d4e 97       		.byte	0x97
 3953 0d4f 7B000000 		.4byte	0x7b
 3954 0d53 3E080000 		.4byte	.LLST67
 3955 0d57 00       		.byte	0x0
 3956 0d58 20       		.uleb128 0x20
 3957 0d59 98000000 		.4byte	.Ldebug_ranges0+0x98
 3958 0d5d 710D0000 		.4byte	0xd71
 3959 0d61 1F       		.uleb128 0x1f
 3960 0d62 746D7000 		.ascii	"tmp\000"
 3961 0d66 01       		.byte	0x1
 3962 0d67 99       		.byte	0x99
 3963 0d68 7B000000 		.4byte	0x7b
 3964 0d6c 51080000 		.4byte	.LLST68
 3965 0d70 00       		.byte	0x0
 3966 0d71 21       		.uleb128 0x21
 3967 0d72 CC020000 		.4byte	.LBB71
 3968 0d76 EC020000 		.4byte	.LBE71
 3969 0d7a 8E0D0000 		.4byte	0xd8e
ARM GAS  /tmp/cca9KgQf.s 			page 71


 3970 0d7e 1F       		.uleb128 0x1f
 3971 0d7f 746D7000 		.ascii	"tmp\000"
 3972 0d83 01       		.byte	0x1
 3973 0d84 99       		.byte	0x99
 3974 0d85 7B000000 		.4byte	0x7b
 3975 0d89 64080000 		.4byte	.LLST69
 3976 0d8d 00       		.byte	0x0
 3977 0d8e 23       		.uleb128 0x23
 3978 0d8f EC020000 		.4byte	.LBB72
 3979 0d93 F0020000 		.4byte	.LBE72
 3980 0d97 1F       		.uleb128 0x1f
 3981 0d98 746D7000 		.ascii	"tmp\000"
 3982 0d9c 01       		.byte	0x1
 3983 0d9d 99       		.byte	0x99
 3984 0d9e 7B000000 		.4byte	0x7b
 3985 0da2 82080000 		.4byte	.LLST70
 3986 0da6 00       		.byte	0x0
 3987 0da7 00       		.byte	0x0
 3988 0da8 24       		.uleb128 0x24
 3989 0da9 11020000 		.4byte	.LASF88
 3990 0dad 01       		.byte	0x1
 3991 0dae 59       		.byte	0x59
 3992 0daf 01       		.byte	0x1
 3993 0db0 00000000 		.4byte	.LFB8
 3994 0db4 1C000000 		.4byte	.LFE8
 3995 0db8 02       		.byte	0x2
 3996 0db9 7D       		.byte	0x7d
 3997 0dba 00       		.sleb128 0
 3998 0dbb 25       		.uleb128 0x25
 3999 0dbc 69030000 		.4byte	.LASF89
 4000 0dc0 08       		.byte	0x8
 4001 0dc1 72       		.byte	0x72
 4002 0dc2 BB030000 		.4byte	0x3bb
 4003 0dc6 01       		.byte	0x1
 4004 0dc7 01       		.byte	0x1
 4005 0dc8 15       		.uleb128 0x15
 4006 0dc9 50020000 		.4byte	0x250
 4007 0dcd D80D0000 		.4byte	0xdd8
 4008 0dd1 16       		.uleb128 0x16
 4009 0dd2 3B000000 		.4byte	0x3b
 4010 0dd6 04       		.byte	0x4
 4011 0dd7 00       		.byte	0x0
 4012 0dd8 25       		.uleb128 0x25
 4013 0dd9 AA020000 		.4byte	.LASF90
 4014 0ddd 0B       		.byte	0xb
 4015 0dde B0       		.byte	0xb0
 4016 0ddf C80D0000 		.4byte	0xdc8
 4017 0de3 01       		.byte	0x1
 4018 0de4 01       		.byte	0x1
 4019 0de5 25       		.uleb128 0x25
 4020 0de6 65000000 		.4byte	.LASF91
 4021 0dea 0B       		.byte	0xb
 4022 0deb B1       		.byte	0xb1
 4023 0dec C0050000 		.4byte	0x5c0
 4024 0df0 01       		.byte	0x1
 4025 0df1 01       		.byte	0x1
 4026 0df2 15       		.uleb128 0x15
ARM GAS  /tmp/cca9KgQf.s 			page 72


 4027 0df3 8E020000 		.4byte	0x28e
 4028 0df7 FD0D0000 		.4byte	0xdfd
 4029 0dfb 26       		.uleb128 0x26
 4030 0dfc 00       		.byte	0x0
 4031 0dfd 27       		.uleb128 0x27
 4032 0dfe 776100   		.ascii	"wa\000"
 4033 0e01 0B       		.byte	0xb
 4034 0e02 B2       		.byte	0xb2
 4035 0e03 090E0000 		.4byte	0xe09
 4036 0e07 01       		.byte	0x1
 4037 0e08 01       		.byte	0x1
 4038 0e09 10       		.uleb128 0x10
 4039 0e0a F20D0000 		.4byte	0xdf2
 4040 0e0e 28       		.uleb128 0x28
 4041 0e0f 697100   		.ascii	"iq\000"
 4042 0e12 01       		.byte	0x1
 4043 0e13 4D       		.byte	0x4d
 4044 0e14 FE040000 		.4byte	0x4fe
 4045 0e18 05       		.byte	0x5
 4046 0e19 03       		.byte	0x3
 4047 0e1a 00000000 		.4byte	iq
 4048 0e1e 28       		.uleb128 0x28
 4049 0e1f 6F7100   		.ascii	"oq\000"
 4050 0e22 01       		.byte	0x1
 4051 0e23 4E       		.byte	0x4e
 4052 0e24 09050000 		.4byte	0x509
 4053 0e28 05       		.byte	0x5
 4054 0e29 03       		.byte	0x3
 4055 0e2a 00000000 		.4byte	oq
 4056 0e2e 25       		.uleb128 0x25
 4057 0e2f 46010000 		.4byte	.LASF92
 4058 0e33 01       		.byte	0x1
 4059 0e34 A0       		.byte	0xa0
 4060 0e35 3B0E0000 		.4byte	0xe3b
 4061 0e39 01       		.byte	0x1
 4062 0e3a 01       		.byte	0x1
 4063 0e3b 10       		.uleb128 0x10
 4064 0e3c 14050000 		.4byte	0x514
 4065 0e40 25       		.uleb128 0x25
 4066 0e41 C2010000 		.4byte	.LASF93
 4067 0e45 01       		.byte	0x1
 4068 0e46 EE       		.byte	0xee
 4069 0e47 3B0E0000 		.4byte	0xe3b
 4070 0e4b 01       		.byte	0x1
 4071 0e4c 01       		.byte	0x1
 4072 0e4d 25       		.uleb128 0x25
 4073 0e4e 69030000 		.4byte	.LASF89
 4074 0e52 08       		.byte	0x8
 4075 0e53 72       		.byte	0x72
 4076 0e54 BB030000 		.4byte	0x3bb
 4077 0e58 01       		.byte	0x1
 4078 0e59 01       		.byte	0x1
 4079 0e5a 25       		.uleb128 0x25
 4080 0e5b AA020000 		.4byte	.LASF90
 4081 0e5f 0B       		.byte	0xb
 4082 0e60 B0       		.byte	0xb0
 4083 0e61 C80D0000 		.4byte	0xdc8
ARM GAS  /tmp/cca9KgQf.s 			page 73


 4084 0e65 01       		.byte	0x1
 4085 0e66 01       		.byte	0x1
 4086 0e67 25       		.uleb128 0x25
 4087 0e68 65000000 		.4byte	.LASF91
 4088 0e6c 0B       		.byte	0xb
 4089 0e6d B1       		.byte	0xb1
 4090 0e6e C0050000 		.4byte	0x5c0
 4091 0e72 01       		.byte	0x1
 4092 0e73 01       		.byte	0x1
 4093 0e74 27       		.uleb128 0x27
 4094 0e75 776100   		.ascii	"wa\000"
 4095 0e78 0B       		.byte	0xb
 4096 0e79 B2       		.byte	0xb2
 4097 0e7a 800E0000 		.4byte	0xe80
 4098 0e7e 01       		.byte	0x1
 4099 0e7f 01       		.byte	0x1
 4100 0e80 10       		.uleb128 0x10
 4101 0e81 F20D0000 		.4byte	0xdf2
 4102 0e85 29       		.uleb128 0x29
 4103 0e86 46010000 		.4byte	.LASF92
 4104 0e8a 01       		.byte	0x1
 4105 0e8b A0       		.byte	0xa0
 4106 0e8c 3B0E0000 		.4byte	0xe3b
 4107 0e90 01       		.byte	0x1
 4108 0e91 05       		.byte	0x5
 4109 0e92 03       		.byte	0x3
 4110 0e93 00000000 		.4byte	testqueues1
 4111 0e97 29       		.uleb128 0x29
 4112 0e98 C2010000 		.4byte	.LASF93
 4113 0e9c 01       		.byte	0x1
 4114 0e9d EE       		.byte	0xee
 4115 0e9e 3B0E0000 		.4byte	0xe3b
 4116 0ea2 01       		.byte	0x1
 4117 0ea3 05       		.byte	0x5
 4118 0ea4 03       		.byte	0x3
 4119 0ea5 00000000 		.4byte	testqueues2
 4120 0ea9 15       		.uleb128 0x15
 4121 0eaa B90E0000 		.4byte	0xeb9
 4122 0eae B90E0000 		.4byte	0xeb9
 4123 0eb2 16       		.uleb128 0x16
 4124 0eb3 3B000000 		.4byte	0x3b
 4125 0eb7 02       		.byte	0x2
 4126 0eb8 00       		.byte	0x0
 4127 0eb9 09       		.uleb128 0x9
 4128 0eba 04       		.byte	0x4
 4129 0ebb 3B0E0000 		.4byte	0xe3b
 4130 0ebf 29       		.uleb128 0x29
 4131 0ec0 29000000 		.4byte	.LASF94
 4132 0ec4 01       		.byte	0x1
 4133 0ec5 F9       		.byte	0xf9
 4134 0ec6 D10E0000 		.4byte	0xed1
 4135 0eca 01       		.byte	0x1
 4136 0ecb 05       		.byte	0x5
 4137 0ecc 03       		.byte	0x3
 4138 0ecd 00000000 		.4byte	patternqueues
 4139 0ed1 10       		.uleb128 0x10
 4140 0ed2 A90E0000 		.4byte	0xea9
ARM GAS  /tmp/cca9KgQf.s 			page 74


 4141 0ed6 00       		.byte	0x0
 4142              		.section	.debug_abbrev
 4143 0000 01       		.uleb128 0x1
 4144 0001 11       		.uleb128 0x11
 4145 0002 01       		.byte	0x1
 4146 0003 25       		.uleb128 0x25
 4147 0004 0E       		.uleb128 0xe
 4148 0005 13       		.uleb128 0x13
 4149 0006 0B       		.uleb128 0xb
 4150 0007 03       		.uleb128 0x3
 4151 0008 0E       		.uleb128 0xe
 4152 0009 1B       		.uleb128 0x1b
 4153 000a 0E       		.uleb128 0xe
 4154 000b 11       		.uleb128 0x11
 4155 000c 01       		.uleb128 0x1
 4156 000d 52       		.uleb128 0x52
 4157 000e 01       		.uleb128 0x1
 4158 000f 55       		.uleb128 0x55
 4159 0010 06       		.uleb128 0x6
 4160 0011 10       		.uleb128 0x10
 4161 0012 06       		.uleb128 0x6
 4162 0013 00       		.byte	0x0
 4163 0014 00       		.byte	0x0
 4164 0015 02       		.uleb128 0x2
 4165 0016 24       		.uleb128 0x24
 4166 0017 00       		.byte	0x0
 4167 0018 0B       		.uleb128 0xb
 4168 0019 0B       		.uleb128 0xb
 4169 001a 3E       		.uleb128 0x3e
 4170 001b 0B       		.uleb128 0xb
 4171 001c 03       		.uleb128 0x3
 4172 001d 08       		.uleb128 0x8
 4173 001e 00       		.byte	0x0
 4174 001f 00       		.byte	0x0
 4175 0020 03       		.uleb128 0x3
 4176 0021 16       		.uleb128 0x16
 4177 0022 00       		.byte	0x0
 4178 0023 03       		.uleb128 0x3
 4179 0024 0E       		.uleb128 0xe
 4180 0025 3A       		.uleb128 0x3a
 4181 0026 0B       		.uleb128 0xb
 4182 0027 3B       		.uleb128 0x3b
 4183 0028 0B       		.uleb128 0xb
 4184 0029 49       		.uleb128 0x49
 4185 002a 13       		.uleb128 0x13
 4186 002b 00       		.byte	0x0
 4187 002c 00       		.byte	0x0
 4188 002d 04       		.uleb128 0x4
 4189 002e 24       		.uleb128 0x24
 4190 002f 00       		.byte	0x0
 4191 0030 0B       		.uleb128 0xb
 4192 0031 0B       		.uleb128 0xb
 4193 0032 3E       		.uleb128 0x3e
 4194 0033 0B       		.uleb128 0xb
 4195 0034 03       		.uleb128 0x3
 4196 0035 0E       		.uleb128 0xe
 4197 0036 00       		.byte	0x0
ARM GAS  /tmp/cca9KgQf.s 			page 75


 4198 0037 00       		.byte	0x0
 4199 0038 05       		.uleb128 0x5
 4200 0039 13       		.uleb128 0x13
 4201 003a 01       		.byte	0x1
 4202 003b 03       		.uleb128 0x3
 4203 003c 0E       		.uleb128 0xe
 4204 003d 0B       		.uleb128 0xb
 4205 003e 0B       		.uleb128 0xb
 4206 003f 3A       		.uleb128 0x3a
 4207 0040 0B       		.uleb128 0xb
 4208 0041 3B       		.uleb128 0x3b
 4209 0042 0B       		.uleb128 0xb
 4210 0043 01       		.uleb128 0x1
 4211 0044 13       		.uleb128 0x13
 4212 0045 00       		.byte	0x0
 4213 0046 00       		.byte	0x0
 4214 0047 06       		.uleb128 0x6
 4215 0048 0D       		.uleb128 0xd
 4216 0049 00       		.byte	0x0
 4217 004a 03       		.uleb128 0x3
 4218 004b 0E       		.uleb128 0xe
 4219 004c 3A       		.uleb128 0x3a
 4220 004d 0B       		.uleb128 0xb
 4221 004e 3B       		.uleb128 0x3b
 4222 004f 0B       		.uleb128 0xb
 4223 0050 49       		.uleb128 0x49
 4224 0051 13       		.uleb128 0x13
 4225 0052 38       		.uleb128 0x38
 4226 0053 0A       		.uleb128 0xa
 4227 0054 00       		.byte	0x0
 4228 0055 00       		.byte	0x0
 4229 0056 07       		.uleb128 0x7
 4230 0057 0D       		.uleb128 0xd
 4231 0058 00       		.byte	0x0
 4232 0059 03       		.uleb128 0x3
 4233 005a 08       		.uleb128 0x8
 4234 005b 3A       		.uleb128 0x3a
 4235 005c 0B       		.uleb128 0xb
 4236 005d 3B       		.uleb128 0x3b
 4237 005e 0B       		.uleb128 0xb
 4238 005f 49       		.uleb128 0x49
 4239 0060 13       		.uleb128 0x13
 4240 0061 38       		.uleb128 0x38
 4241 0062 0A       		.uleb128 0xa
 4242 0063 00       		.byte	0x0
 4243 0064 00       		.byte	0x0
 4244 0065 08       		.uleb128 0x8
 4245 0066 13       		.uleb128 0x13
 4246 0067 01       		.byte	0x1
 4247 0068 0B       		.uleb128 0xb
 4248 0069 0B       		.uleb128 0xb
 4249 006a 3A       		.uleb128 0x3a
 4250 006b 0B       		.uleb128 0xb
 4251 006c 3B       		.uleb128 0x3b
 4252 006d 0B       		.uleb128 0xb
 4253 006e 01       		.uleb128 0x1
 4254 006f 13       		.uleb128 0x13
ARM GAS  /tmp/cca9KgQf.s 			page 76


 4255 0070 00       		.byte	0x0
 4256 0071 00       		.byte	0x0
 4257 0072 09       		.uleb128 0x9
 4258 0073 0F       		.uleb128 0xf
 4259 0074 00       		.byte	0x0
 4260 0075 0B       		.uleb128 0xb
 4261 0076 0B       		.uleb128 0xb
 4262 0077 49       		.uleb128 0x49
 4263 0078 13       		.uleb128 0x13
 4264 0079 00       		.byte	0x0
 4265 007a 00       		.byte	0x0
 4266 007b 0A       		.uleb128 0xa
 4267 007c 0F       		.uleb128 0xf
 4268 007d 00       		.byte	0x0
 4269 007e 0B       		.uleb128 0xb
 4270 007f 0B       		.uleb128 0xb
 4271 0080 00       		.byte	0x0
 4272 0081 00       		.byte	0x0
 4273 0082 0B       		.uleb128 0xb
 4274 0083 0D       		.uleb128 0xd
 4275 0084 00       		.byte	0x0
 4276 0085 03       		.uleb128 0x3
 4277 0086 08       		.uleb128 0x8
 4278 0087 3A       		.uleb128 0x3a
 4279 0088 0B       		.uleb128 0xb
 4280 0089 3B       		.uleb128 0x3b
 4281 008a 05       		.uleb128 0x5
 4282 008b 49       		.uleb128 0x49
 4283 008c 13       		.uleb128 0x13
 4284 008d 38       		.uleb128 0x38
 4285 008e 0A       		.uleb128 0xa
 4286 008f 00       		.byte	0x0
 4287 0090 00       		.byte	0x0
 4288 0091 0C       		.uleb128 0xc
 4289 0092 13       		.uleb128 0x13
 4290 0093 01       		.byte	0x1
 4291 0094 03       		.uleb128 0x3
 4292 0095 0E       		.uleb128 0xe
 4293 0096 0B       		.uleb128 0xb
 4294 0097 0B       		.uleb128 0xb
 4295 0098 3A       		.uleb128 0x3a
 4296 0099 0B       		.uleb128 0xb
 4297 009a 3B       		.uleb128 0x3b
 4298 009b 05       		.uleb128 0x5
 4299 009c 01       		.uleb128 0x1
 4300 009d 13       		.uleb128 0x13
 4301 009e 00       		.byte	0x0
 4302 009f 00       		.byte	0x0
 4303 00a0 0D       		.uleb128 0xd
 4304 00a1 35       		.uleb128 0x35
 4305 00a2 00       		.byte	0x0
 4306 00a3 49       		.uleb128 0x49
 4307 00a4 13       		.uleb128 0x13
 4308 00a5 00       		.byte	0x0
 4309 00a6 00       		.byte	0x0
 4310 00a7 0E       		.uleb128 0xe
 4311 00a8 17       		.uleb128 0x17
ARM GAS  /tmp/cca9KgQf.s 			page 77


 4312 00a9 01       		.byte	0x1
 4313 00aa 0B       		.uleb128 0xb
 4314 00ab 0B       		.uleb128 0xb
 4315 00ac 3A       		.uleb128 0x3a
 4316 00ad 0B       		.uleb128 0xb
 4317 00ae 3B       		.uleb128 0x3b
 4318 00af 0B       		.uleb128 0xb
 4319 00b0 01       		.uleb128 0x1
 4320 00b1 13       		.uleb128 0x13
 4321 00b2 00       		.byte	0x0
 4322 00b3 00       		.byte	0x0
 4323 00b4 0F       		.uleb128 0xf
 4324 00b5 0D       		.uleb128 0xd
 4325 00b6 00       		.byte	0x0
 4326 00b7 03       		.uleb128 0x3
 4327 00b8 0E       		.uleb128 0xe
 4328 00b9 3A       		.uleb128 0x3a
 4329 00ba 0B       		.uleb128 0xb
 4330 00bb 3B       		.uleb128 0x3b
 4331 00bc 0B       		.uleb128 0xb
 4332 00bd 49       		.uleb128 0x49
 4333 00be 13       		.uleb128 0x13
 4334 00bf 00       		.byte	0x0
 4335 00c0 00       		.byte	0x0
 4336 00c1 10       		.uleb128 0x10
 4337 00c2 26       		.uleb128 0x26
 4338 00c3 00       		.byte	0x0
 4339 00c4 49       		.uleb128 0x49
 4340 00c5 13       		.uleb128 0x13
 4341 00c6 00       		.byte	0x0
 4342 00c7 00       		.byte	0x0
 4343 00c8 11       		.uleb128 0x11
 4344 00c9 15       		.uleb128 0x15
 4345 00ca 01       		.byte	0x1
 4346 00cb 27       		.uleb128 0x27
 4347 00cc 0C       		.uleb128 0xc
 4348 00cd 01       		.uleb128 0x1
 4349 00ce 13       		.uleb128 0x13
 4350 00cf 00       		.byte	0x0
 4351 00d0 00       		.byte	0x0
 4352 00d1 12       		.uleb128 0x12
 4353 00d2 05       		.uleb128 0x5
 4354 00d3 00       		.byte	0x0
 4355 00d4 49       		.uleb128 0x49
 4356 00d5 13       		.uleb128 0x13
 4357 00d6 00       		.byte	0x0
 4358 00d7 00       		.byte	0x0
 4359 00d8 13       		.uleb128 0x13
 4360 00d9 15       		.uleb128 0x15
 4361 00da 00       		.byte	0x0
 4362 00db 27       		.uleb128 0x27
 4363 00dc 0C       		.uleb128 0xc
 4364 00dd 00       		.byte	0x0
 4365 00de 00       		.byte	0x0
 4366 00df 14       		.uleb128 0x14
 4367 00e0 13       		.uleb128 0x13
 4368 00e1 01       		.byte	0x1
ARM GAS  /tmp/cca9KgQf.s 			page 78


 4369 00e2 0B       		.uleb128 0xb
 4370 00e3 05       		.uleb128 0x5
 4371 00e4 3A       		.uleb128 0x3a
 4372 00e5 0B       		.uleb128 0xb
 4373 00e6 3B       		.uleb128 0x3b
 4374 00e7 0B       		.uleb128 0xb
 4375 00e8 01       		.uleb128 0x1
 4376 00e9 13       		.uleb128 0x13
 4377 00ea 00       		.byte	0x0
 4378 00eb 00       		.byte	0x0
 4379 00ec 15       		.uleb128 0x15
 4380 00ed 01       		.uleb128 0x1
 4381 00ee 01       		.byte	0x1
 4382 00ef 49       		.uleb128 0x49
 4383 00f0 13       		.uleb128 0x13
 4384 00f1 01       		.uleb128 0x1
 4385 00f2 13       		.uleb128 0x13
 4386 00f3 00       		.byte	0x0
 4387 00f4 00       		.byte	0x0
 4388 00f5 16       		.uleb128 0x16
 4389 00f6 21       		.uleb128 0x21
 4390 00f7 00       		.byte	0x0
 4391 00f8 49       		.uleb128 0x49
 4392 00f9 13       		.uleb128 0x13
 4393 00fa 2F       		.uleb128 0x2f
 4394 00fb 0B       		.uleb128 0xb
 4395 00fc 00       		.byte	0x0
 4396 00fd 00       		.byte	0x0
 4397 00fe 17       		.uleb128 0x17
 4398 00ff 17       		.uleb128 0x17
 4399 0100 01       		.byte	0x1
 4400 0101 03       		.uleb128 0x3
 4401 0102 0E       		.uleb128 0xe
 4402 0103 0B       		.uleb128 0xb
 4403 0104 05       		.uleb128 0x5
 4404 0105 3A       		.uleb128 0x3a
 4405 0106 0B       		.uleb128 0xb
 4406 0107 3B       		.uleb128 0x3b
 4407 0108 0B       		.uleb128 0xb
 4408 0109 01       		.uleb128 0x1
 4409 010a 13       		.uleb128 0x13
 4410 010b 00       		.byte	0x0
 4411 010c 00       		.byte	0x0
 4412 010d 18       		.uleb128 0x18
 4413 010e 0D       		.uleb128 0xd
 4414 010f 00       		.byte	0x0
 4415 0110 03       		.uleb128 0x3
 4416 0111 08       		.uleb128 0x8
 4417 0112 3A       		.uleb128 0x3a
 4418 0113 0B       		.uleb128 0xb
 4419 0114 3B       		.uleb128 0x3b
 4420 0115 0B       		.uleb128 0xb
 4421 0116 49       		.uleb128 0x49
 4422 0117 13       		.uleb128 0x13
 4423 0118 00       		.byte	0x0
 4424 0119 00       		.byte	0x0
 4425 011a 19       		.uleb128 0x19
ARM GAS  /tmp/cca9KgQf.s 			page 79


 4426 011b 21       		.uleb128 0x21
 4427 011c 00       		.byte	0x0
 4428 011d 49       		.uleb128 0x49
 4429 011e 13       		.uleb128 0x13
 4430 011f 2F       		.uleb128 0x2f
 4431 0120 05       		.uleb128 0x5
 4432 0121 00       		.byte	0x0
 4433 0122 00       		.byte	0x0
 4434 0123 1A       		.uleb128 0x1a
 4435 0124 2E       		.uleb128 0x2e
 4436 0125 01       		.byte	0x1
 4437 0126 03       		.uleb128 0x3
 4438 0127 0E       		.uleb128 0xe
 4439 0128 3A       		.uleb128 0x3a
 4440 0129 0B       		.uleb128 0xb
 4441 012a 3B       		.uleb128 0x3b
 4442 012b 0B       		.uleb128 0xb
 4443 012c 27       		.uleb128 0x27
 4444 012d 0C       		.uleb128 0xc
 4445 012e 11       		.uleb128 0x11
 4446 012f 01       		.uleb128 0x1
 4447 0130 12       		.uleb128 0x12
 4448 0131 01       		.uleb128 0x1
 4449 0132 40       		.uleb128 0x40
 4450 0133 0A       		.uleb128 0xa
 4451 0134 01       		.uleb128 0x1
 4452 0135 13       		.uleb128 0x13
 4453 0136 00       		.byte	0x0
 4454 0137 00       		.byte	0x0
 4455 0138 1B       		.uleb128 0x1b
 4456 0139 05       		.uleb128 0x5
 4457 013a 00       		.byte	0x0
 4458 013b 03       		.uleb128 0x3
 4459 013c 08       		.uleb128 0x8
 4460 013d 3A       		.uleb128 0x3a
 4461 013e 0B       		.uleb128 0xb
 4462 013f 3B       		.uleb128 0x3b
 4463 0140 0B       		.uleb128 0xb
 4464 0141 49       		.uleb128 0x49
 4465 0142 13       		.uleb128 0x13
 4466 0143 02       		.uleb128 0x2
 4467 0144 0A       		.uleb128 0xa
 4468 0145 00       		.byte	0x0
 4469 0146 00       		.byte	0x0
 4470 0147 1C       		.uleb128 0x1c
 4471 0148 2E       		.uleb128 0x2e
 4472 0149 01       		.byte	0x1
 4473 014a 03       		.uleb128 0x3
 4474 014b 0E       		.uleb128 0xe
 4475 014c 3A       		.uleb128 0x3a
 4476 014d 0B       		.uleb128 0xb
 4477 014e 3B       		.uleb128 0x3b
 4478 014f 0B       		.uleb128 0xb
 4479 0150 27       		.uleb128 0x27
 4480 0151 0C       		.uleb128 0xc
 4481 0152 49       		.uleb128 0x49
 4482 0153 13       		.uleb128 0x13
ARM GAS  /tmp/cca9KgQf.s 			page 80


 4483 0154 11       		.uleb128 0x11
 4484 0155 01       		.uleb128 0x1
 4485 0156 12       		.uleb128 0x12
 4486 0157 01       		.uleb128 0x1
 4487 0158 40       		.uleb128 0x40
 4488 0159 06       		.uleb128 0x6
 4489 015a 01       		.uleb128 0x1
 4490 015b 13       		.uleb128 0x13
 4491 015c 00       		.byte	0x0
 4492 015d 00       		.byte	0x0
 4493 015e 1D       		.uleb128 0x1d
 4494 015f 05       		.uleb128 0x5
 4495 0160 00       		.byte	0x0
 4496 0161 03       		.uleb128 0x3
 4497 0162 08       		.uleb128 0x8
 4498 0163 3A       		.uleb128 0x3a
 4499 0164 0B       		.uleb128 0xb
 4500 0165 3B       		.uleb128 0x3b
 4501 0166 0B       		.uleb128 0xb
 4502 0167 49       		.uleb128 0x49
 4503 0168 13       		.uleb128 0x13
 4504 0169 02       		.uleb128 0x2
 4505 016a 06       		.uleb128 0x6
 4506 016b 00       		.byte	0x0
 4507 016c 00       		.byte	0x0
 4508 016d 1E       		.uleb128 0x1e
 4509 016e 2E       		.uleb128 0x2e
 4510 016f 01       		.byte	0x1
 4511 0170 03       		.uleb128 0x3
 4512 0171 0E       		.uleb128 0xe
 4513 0172 3A       		.uleb128 0x3a
 4514 0173 0B       		.uleb128 0xb
 4515 0174 3B       		.uleb128 0x3b
 4516 0175 0B       		.uleb128 0xb
 4517 0176 27       		.uleb128 0x27
 4518 0177 0C       		.uleb128 0xc
 4519 0178 11       		.uleb128 0x11
 4520 0179 01       		.uleb128 0x1
 4521 017a 12       		.uleb128 0x12
 4522 017b 01       		.uleb128 0x1
 4523 017c 40       		.uleb128 0x40
 4524 017d 06       		.uleb128 0x6
 4525 017e 01       		.uleb128 0x1
 4526 017f 13       		.uleb128 0x13
 4527 0180 00       		.byte	0x0
 4528 0181 00       		.byte	0x0
 4529 0182 1F       		.uleb128 0x1f
 4530 0183 34       		.uleb128 0x34
 4531 0184 00       		.byte	0x0
 4532 0185 03       		.uleb128 0x3
 4533 0186 08       		.uleb128 0x8
 4534 0187 3A       		.uleb128 0x3a
 4535 0188 0B       		.uleb128 0xb
 4536 0189 3B       		.uleb128 0x3b
 4537 018a 0B       		.uleb128 0xb
 4538 018b 49       		.uleb128 0x49
 4539 018c 13       		.uleb128 0x13
ARM GAS  /tmp/cca9KgQf.s 			page 81


 4540 018d 02       		.uleb128 0x2
 4541 018e 06       		.uleb128 0x6
 4542 018f 00       		.byte	0x0
 4543 0190 00       		.byte	0x0
 4544 0191 20       		.uleb128 0x20
 4545 0192 0B       		.uleb128 0xb
 4546 0193 01       		.byte	0x1
 4547 0194 55       		.uleb128 0x55
 4548 0195 06       		.uleb128 0x6
 4549 0196 01       		.uleb128 0x1
 4550 0197 13       		.uleb128 0x13
 4551 0198 00       		.byte	0x0
 4552 0199 00       		.byte	0x0
 4553 019a 21       		.uleb128 0x21
 4554 019b 0B       		.uleb128 0xb
 4555 019c 01       		.byte	0x1
 4556 019d 11       		.uleb128 0x11
 4557 019e 01       		.uleb128 0x1
 4558 019f 12       		.uleb128 0x12
 4559 01a0 01       		.uleb128 0x1
 4560 01a1 01       		.uleb128 0x1
 4561 01a2 13       		.uleb128 0x13
 4562 01a3 00       		.byte	0x0
 4563 01a4 00       		.byte	0x0
 4564 01a5 22       		.uleb128 0x22
 4565 01a6 0B       		.uleb128 0xb
 4566 01a7 01       		.byte	0x1
 4567 01a8 55       		.uleb128 0x55
 4568 01a9 06       		.uleb128 0x6
 4569 01aa 00       		.byte	0x0
 4570 01ab 00       		.byte	0x0
 4571 01ac 23       		.uleb128 0x23
 4572 01ad 0B       		.uleb128 0xb
 4573 01ae 01       		.byte	0x1
 4574 01af 11       		.uleb128 0x11
 4575 01b0 01       		.uleb128 0x1
 4576 01b1 12       		.uleb128 0x12
 4577 01b2 01       		.uleb128 0x1
 4578 01b3 00       		.byte	0x0
 4579 01b4 00       		.byte	0x0
 4580 01b5 24       		.uleb128 0x24
 4581 01b6 2E       		.uleb128 0x2e
 4582 01b7 00       		.byte	0x0
 4583 01b8 03       		.uleb128 0x3
 4584 01b9 0E       		.uleb128 0xe
 4585 01ba 3A       		.uleb128 0x3a
 4586 01bb 0B       		.uleb128 0xb
 4587 01bc 3B       		.uleb128 0x3b
 4588 01bd 0B       		.uleb128 0xb
 4589 01be 27       		.uleb128 0x27
 4590 01bf 0C       		.uleb128 0xc
 4591 01c0 11       		.uleb128 0x11
 4592 01c1 01       		.uleb128 0x1
 4593 01c2 12       		.uleb128 0x12
 4594 01c3 01       		.uleb128 0x1
 4595 01c4 40       		.uleb128 0x40
 4596 01c5 0A       		.uleb128 0xa
ARM GAS  /tmp/cca9KgQf.s 			page 82


 4597 01c6 00       		.byte	0x0
 4598 01c7 00       		.byte	0x0
 4599 01c8 25       		.uleb128 0x25
 4600 01c9 34       		.uleb128 0x34
 4601 01ca 00       		.byte	0x0
 4602 01cb 03       		.uleb128 0x3
 4603 01cc 0E       		.uleb128 0xe
 4604 01cd 3A       		.uleb128 0x3a
 4605 01ce 0B       		.uleb128 0xb
 4606 01cf 3B       		.uleb128 0x3b
 4607 01d0 0B       		.uleb128 0xb
 4608 01d1 49       		.uleb128 0x49
 4609 01d2 13       		.uleb128 0x13
 4610 01d3 3F       		.uleb128 0x3f
 4611 01d4 0C       		.uleb128 0xc
 4612 01d5 3C       		.uleb128 0x3c
 4613 01d6 0C       		.uleb128 0xc
 4614 01d7 00       		.byte	0x0
 4615 01d8 00       		.byte	0x0
 4616 01d9 26       		.uleb128 0x26
 4617 01da 21       		.uleb128 0x21
 4618 01db 00       		.byte	0x0
 4619 01dc 00       		.byte	0x0
 4620 01dd 00       		.byte	0x0
 4621 01de 27       		.uleb128 0x27
 4622 01df 34       		.uleb128 0x34
 4623 01e0 00       		.byte	0x0
 4624 01e1 03       		.uleb128 0x3
 4625 01e2 08       		.uleb128 0x8
 4626 01e3 3A       		.uleb128 0x3a
 4627 01e4 0B       		.uleb128 0xb
 4628 01e5 3B       		.uleb128 0x3b
 4629 01e6 0B       		.uleb128 0xb
 4630 01e7 49       		.uleb128 0x49
 4631 01e8 13       		.uleb128 0x13
 4632 01e9 3F       		.uleb128 0x3f
 4633 01ea 0C       		.uleb128 0xc
 4634 01eb 3C       		.uleb128 0x3c
 4635 01ec 0C       		.uleb128 0xc
 4636 01ed 00       		.byte	0x0
 4637 01ee 00       		.byte	0x0
 4638 01ef 28       		.uleb128 0x28
 4639 01f0 34       		.uleb128 0x34
 4640 01f1 00       		.byte	0x0
 4641 01f2 03       		.uleb128 0x3
 4642 01f3 08       		.uleb128 0x8
 4643 01f4 3A       		.uleb128 0x3a
 4644 01f5 0B       		.uleb128 0xb
 4645 01f6 3B       		.uleb128 0x3b
 4646 01f7 0B       		.uleb128 0xb
 4647 01f8 49       		.uleb128 0x49
 4648 01f9 13       		.uleb128 0x13
 4649 01fa 02       		.uleb128 0x2
 4650 01fb 0A       		.uleb128 0xa
 4651 01fc 00       		.byte	0x0
 4652 01fd 00       		.byte	0x0
 4653 01fe 29       		.uleb128 0x29
ARM GAS  /tmp/cca9KgQf.s 			page 83


 4654 01ff 34       		.uleb128 0x34
 4655 0200 00       		.byte	0x0
 4656 0201 03       		.uleb128 0x3
 4657 0202 0E       		.uleb128 0xe
 4658 0203 3A       		.uleb128 0x3a
 4659 0204 0B       		.uleb128 0xb
 4660 0205 3B       		.uleb128 0x3b
 4661 0206 0B       		.uleb128 0xb
 4662 0207 49       		.uleb128 0x49
 4663 0208 13       		.uleb128 0x13
 4664 0209 3F       		.uleb128 0x3f
 4665 020a 0C       		.uleb128 0xc
 4666 020b 02       		.uleb128 0x2
 4667 020c 0A       		.uleb128 0xa
 4668 020d 00       		.byte	0x0
 4669 020e 00       		.byte	0x0
 4670 020f 00       		.byte	0x0
 4671              		.section	.debug_pubnames,"",%progbits
 4672 0000 40000000 		.4byte	0x40
 4673 0004 0200     		.2byte	0x2
 4674 0006 00000000 		.4byte	.Ldebug_info0
 4675 000a D70E0000 		.4byte	0xed7
 4676 000e 850E0000 		.4byte	0xe85
 4677 0012 74657374 		.ascii	"testqueues1\000"
 4677      71756575 
 4677      65733100 
 4678 001e 970E0000 		.4byte	0xe97
 4679 0022 74657374 		.ascii	"testqueues2\000"
 4679      71756575 
 4679      65733200 
 4680 002e BF0E0000 		.4byte	0xebf
 4681 0032 70617474 		.ascii	"patternqueues\000"
 4681      65726E71 
 4681      75657565 
 4681      7300
 4682 0040 00000000 		.4byte	0x0
 4683              		.section	.debug_pubtypes,"",%progbits
 4684 0000 B2010000 		.4byte	0x1b2
 4685 0004 0200     		.2byte	0x2
 4686 0006 00000000 		.4byte	.Ldebug_info0
 4687 000a D70E0000 		.4byte	0xed7
 4688 000e 30000000 		.4byte	0x30
 4689 0012 73697A65 		.ascii	"size_t\000"
 4689      5F7400
 4690 0019 49000000 		.4byte	0x49
 4691 001d 75696E74 		.ascii	"uint8_t\000"
 4691      385F7400 
 4692 0025 69000000 		.4byte	0x69
 4693 0029 696E7433 		.ascii	"int32_t\000"
 4693      325F7400 
 4694 0031 7B000000 		.4byte	0x7b
 4695 0035 75696E74 		.ascii	"uint32_t\000"
 4695      33325F74 
 4695      00
 4696 003e 94000000 		.4byte	0x94
 4697 0042 75696E74 		.ascii	"uint64_t\000"
 4697      36345F74 
ARM GAS  /tmp/cca9KgQf.s 			page 84


 4697      00
 4698 004b A6000000 		.4byte	0xa6
 4699 004f 626F6F6C 		.ascii	"bool_t\000"
 4699      5F7400
 4700 0056 B1000000 		.4byte	0xb1
 4701 005a 746D6F64 		.ascii	"tmode_t\000"
 4701      655F7400 
 4702 0062 BC000000 		.4byte	0xbc
 4703 0066 74737461 		.ascii	"tstate_t\000"
 4703      74655F74 
 4703      00
 4704 006f C7000000 		.4byte	0xc7
 4705 0073 74726566 		.ascii	"trefs_t\000"
 4705      735F7400 
 4706 007b D2000000 		.4byte	0xd2
 4707 007f 74707269 		.ascii	"tprio_t\000"
 4707      6F5F7400 
 4708 0087 DD000000 		.4byte	0xdd
 4709 008b 6D73675F 		.ascii	"msg_t\000"
 4709      7400
 4710 0091 E8000000 		.4byte	0xe8
 4711 0095 6576656E 		.ascii	"eventmask_t\000"
 4711      746D6173 
 4711      6B5F7400 
 4712 00a1 F3000000 		.4byte	0xf3
 4713 00a5 73797374 		.ascii	"systime_t\000"
 4713      696D655F 
 4713      7400
 4714 00af FE000000 		.4byte	0xfe
 4715 00b3 636E745F 		.ascii	"cnt_t\000"
 4715      7400
 4716 00b9 09010000 		.4byte	0x109
 4717 00bd 54687265 		.ascii	"Thread\000"
 4717      616400
 4718 00c4 56020000 		.4byte	0x256
 4719 00c8 54687265 		.ascii	"ThreadsQueue\000"
 4719      61647351 
 4719      75657565 
 4719      00
 4720 00d5 78020000 		.4byte	0x278
 4721 00d9 54687265 		.ascii	"ThreadsList\000"
 4721      6164734C 
 4721      69737400 
 4722 00e5 83020000 		.4byte	0x283
 4723 00e9 72656761 		.ascii	"regarm_t\000"
 4723      726D5F74 
 4723      00
 4724 00f2 90020000 		.4byte	0x290
 4725 00f6 73746B61 		.ascii	"stkalign_t\000"
 4725      6C69676E 
 4725      5F7400
 4726 0101 9B020000 		.4byte	0x29b
 4727 0105 696E7463 		.ascii	"intctx\000"
 4727      747800
 4728 010c 28030000 		.4byte	0x328
 4729 0110 636F6E74 		.ascii	"context\000"
 4729      65787400 
ARM GAS  /tmp/cca9KgQf.s 			page 85


 4730 0118 BB030000 		.4byte	0x3bb
 4731 011c 52656164 		.ascii	"ReadyList\000"
 4731      794C6973 
 4731      7400
 4732 0126 C6030000 		.4byte	0x3c6
 4733 012a 4D757465 		.ascii	"Mutex\000"
 4733      7800
 4734 0130 03040000 		.4byte	0x403
 4735 0134 4D757465 		.ascii	"Mutex\000"
 4735      7800
 4736 013a 14010000 		.4byte	0x114
 4737 013e 54687265 		.ascii	"Thread\000"
 4737      616400
 4738 0145 5B040000 		.4byte	0x45b
 4739 0149 47656E65 		.ascii	"GenericQueue\000"
 4739      72696351 
 4739      75657565 
 4739      00
 4740 0156 D5040000 		.4byte	0x4d5
 4741 015a 716E6F74 		.ascii	"qnotify_t\000"
 4741      6966795F 
 4741      7400
 4742 0164 66040000 		.4byte	0x466
 4743 0168 47656E65 		.ascii	"GenericQueue\000"
 4743      72696351 
 4743      75657565 
 4743      00
 4744 0175 FE040000 		.4byte	0x4fe
 4745 0179 496E7075 		.ascii	"InputQueue\000"
 4745      74517565 
 4745      756500
 4746 0184 09050000 		.4byte	0x509
 4747 0188 4F757470 		.ascii	"OutputQueue\000"
 4747      75745175 
 4747      65756500 
 4748 0194 14050000 		.4byte	0x514
 4749 0198 74657374 		.ascii	"testcase\000"
 4749      63617365 
 4749      00
 4750 01a1 C0050000 		.4byte	0x5c0
 4751 01a5 74657374 		.ascii	"test_buffers\000"
 4751      5F627566 
 4751      66657273 
 4751      00
 4752 01b2 00000000 		.4byte	0x0
 4753              		.section	.debug_aranges,"",%progbits
 4754 0000 4C000000 		.4byte	0x4c
 4755 0004 0200     		.2byte	0x2
 4756 0006 00000000 		.4byte	.Ldebug_info0
 4757 000a 04       		.byte	0x4
 4758 000b 00       		.byte	0x0
 4759 000c 0000     		.2byte	0x0
 4760 000e 0000     		.2byte	0x0
 4761 0010 00000000 		.4byte	.LFB7
 4762 0014 02000000 		.4byte	.LFE7-.LFB7
 4763 0018 00000000 		.4byte	.LFB12
 4764 001c 14000000 		.4byte	.LFE12-.LFB12
ARM GAS  /tmp/cca9KgQf.s 			page 86


 4765 0020 00000000 		.4byte	.LFB13
 4766 0024 F0020000 		.4byte	.LFE13-.LFB13
 4767 0028 00000000 		.4byte	.LFB11
 4768 002c 1C000000 		.4byte	.LFE11-.LFB11
 4769 0030 00000000 		.4byte	.LFB9
 4770 0034 14000000 		.4byte	.LFE9-.LFB9
 4771 0038 00000000 		.4byte	.LFB10
 4772 003c 18030000 		.4byte	.LFE10-.LFB10
 4773 0040 00000000 		.4byte	.LFB8
 4774 0044 1C000000 		.4byte	.LFE8-.LFB8
 4775 0048 00000000 		.4byte	0x0
 4776 004c 00000000 		.4byte	0x0
 4777              		.section	.debug_ranges,"",%progbits
 4778              	.Ldebug_ranges0:
 4779 0000 04000000 		.4byte	.LBB2
 4780 0004 06000000 		.4byte	.LBE2
 4781 0008 08000000 		.4byte	.LBB3
 4782 000c 0C000000 		.4byte	.LBE3
 4783 0010 00000000 		.4byte	0x0
 4784 0014 00000000 		.4byte	0x0
 4785 0018 7E000000 		.4byte	.LBB8
 4786 001c 84000000 		.4byte	.LBE8
 4787 0020 C6000000 		.4byte	.LBB14
 4788 0024 CC000000 		.4byte	.LBE14
 4789 0028 AE000000 		.4byte	.LBB12
 4790 002c B4000000 		.4byte	.LBE12
 4791 0030 96000000 		.4byte	.LBB10
 4792 0034 9C000000 		.4byte	.LBE10
 4793 0038 00000000 		.4byte	0x0
 4794 003c 00000000 		.4byte	0x0
 4795 0040 8A000000 		.4byte	.LBB9
 4796 0044 90000000 		.4byte	.LBE9
 4797 0048 D2000000 		.4byte	.LBB15
 4798 004c D8000000 		.4byte	.LBE15
 4799 0050 BA000000 		.4byte	.LBB13
 4800 0054 C0000000 		.4byte	.LBE13
 4801 0058 A2000000 		.4byte	.LBB11
 4802 005c A8000000 		.4byte	.LBE11
 4803 0060 00000000 		.4byte	0x0
 4804 0064 00000000 		.4byte	0x0
 4805 0068 CE010000 		.4byte	.LBB27
 4806 006c D0010000 		.4byte	.LBE27
 4807 0070 D2010000 		.4byte	.LBB28
 4808 0074 D6010000 		.4byte	.LBE28
 4809 0078 00000000 		.4byte	0x0
 4810 007c 00000000 		.4byte	0x0
 4811 0080 04000000 		.4byte	.LBB39
 4812 0084 06000000 		.4byte	.LBE39
 4813 0088 08000000 		.4byte	.LBB40
 4814 008c 0C000000 		.4byte	.LBE40
 4815 0090 00000000 		.4byte	0x0
 4816 0094 00000000 		.4byte	0x0
 4817 0098 AE020000 		.4byte	.LBB69
 4818 009c B0020000 		.4byte	.LBE69
 4819 00a0 B2020000 		.4byte	.LBB70
 4820 00a4 B6020000 		.4byte	.LBE70
 4821 00a8 00000000 		.4byte	0x0
ARM GAS  /tmp/cca9KgQf.s 			page 87


 4822 00ac 00000000 		.4byte	0x0
 4823 00b0 00000000 		.4byte	.LFB7
 4824 00b4 02000000 		.4byte	.LFE7
 4825 00b8 00000000 		.4byte	.LFB12
 4826 00bc 14000000 		.4byte	.LFE12
 4827 00c0 00000000 		.4byte	.LFB13
 4828 00c4 F0020000 		.4byte	.LFE13
 4829 00c8 00000000 		.4byte	.LFB11
 4830 00cc 1C000000 		.4byte	.LFE11
 4831 00d0 00000000 		.4byte	.LFB9
 4832 00d4 14000000 		.4byte	.LFE9
 4833 00d8 00000000 		.4byte	.LFB10
 4834 00dc 18030000 		.4byte	.LFE10
 4835 00e0 00000000 		.4byte	.LFB8
 4836 00e4 1C000000 		.4byte	.LFE8
 4837 00e8 00000000 		.4byte	0x0
 4838 00ec 00000000 		.4byte	0x0
 4839              		.section	.debug_str,"MS",%progbits,1
 4840              	.LASF37:
 4841 0000 705F6D73 		.ascii	"p_msg\000"
 4841      6700
 4842              	.LASF2:
 4843 0006 73697A65 		.ascii	"size_t\000"
 4843      5F7400
 4844              	.LASF60:
 4845 000d 7264796D 		.ascii	"rdymsg\000"
 4845      736700
 4846              	.LASF12:
 4847 0014 75696E74 		.ascii	"uint64_t\000"
 4847      36345F74 
 4847      00
 4848              	.LASF75:
 4849 001d 4F757470 		.ascii	"OutputQueue\000"
 4849      75745175 
 4849      65756500 
 4850              	.LASF94:
 4851 0029 70617474 		.ascii	"patternqueues\000"
 4851      65726E71 
 4851      75657565 
 4851      7300
 4852              	.LASF13:
 4853 0037 6C6F6E67 		.ascii	"long long unsigned int\000"
 4853      206C6F6E 
 4853      6720756E 
 4853      7369676E 
 4853      65642069 
 4854              	.LASF61:
 4855 004e 65786974 		.ascii	"exitcode\000"
 4855      636F6465 
 4855      00
 4856              	.LASF87:
 4857 0057 71756575 		.ascii	"queues2_setup\000"
 4857      6573325F 
 4857      73657475 
 4857      7000
 4858              	.LASF91:
 4859 0065 74657374 		.ascii	"test\000"
ARM GAS  /tmp/cca9KgQf.s 			page 88


 4859      00
 4860              	.LASF26:
 4861 006a 705F7072 		.ascii	"p_prio\000"
 4861      696F00
 4862              	.LASF66:
 4863 0071 715F7761 		.ascii	"q_waiting\000"
 4863      6974696E 
 4863      6700
 4864              	.LASF11:
 4865 007b 6C6F6E67 		.ascii	"long long int\000"
 4865      206C6F6E 
 4865      6720696E 
 4865      7400
 4866              	.LASF1:
 4867 0089 7369676E 		.ascii	"signed char\000"
 4867      65642063 
 4867      68617200 
 4868              	.LASF41:
 4869 0095 705F6D70 		.ascii	"p_mpool\000"
 4869      6F6F6C00 
 4870              	.LASF14:
 4871 009d 626F6F6C 		.ascii	"bool_t\000"
 4871      5F7400
 4872              	.LASF57:
 4873 00a4 6D5F7175 		.ascii	"m_queue\000"
 4873      65756500 
 4874              	.LASF8:
 4875 00ac 6C6F6E67 		.ascii	"long int\000"
 4875      20696E74 
 4875      00
 4876              	.LASF16:
 4877 00b5 74737461 		.ascii	"tstate_t\000"
 4877      74655F74 
 4877      00
 4878              	.LASF68:
 4879 00be 715F6275 		.ascii	"q_buffer\000"
 4879      66666572 
 4879      00
 4880              	.LASF70:
 4881 00c7 715F7772 		.ascii	"q_wrptr\000"
 4881      70747200 
 4882              	.LASF28:
 4883 00cf 705F6E65 		.ascii	"p_newer\000"
 4883      77657200 
 4884              	.LASF51:
 4885 00d7 725F6E65 		.ascii	"r_newer\000"
 4885      77657200 
 4886              	.LASF44:
 4887 00df 72656761 		.ascii	"regarm_t\000"
 4887      726D5F74 
 4887      00
 4888              	.LASF22:
 4889 00e8 636E745F 		.ascii	"cnt_t\000"
 4889      7400
 4890              	.LASF0:
 4891 00ee 756E7369 		.ascii	"unsigned int\000"
 4891      676E6564 
ARM GAS  /tmp/cca9KgQf.s 			page 89


 4891      20696E74 
 4891      00
 4892              	.LASF10:
 4893 00fb 6C6F6E67 		.ascii	"long unsigned int\000"
 4893      20756E73 
 4893      69676E65 
 4893      6420696E 
 4893      7400
 4894              	.LASF79:
 4895 010d 74656172 		.ascii	"teardown\000"
 4895      646F776E 
 4895      00
 4896              	.LASF77:
 4897 0116 6E616D65 		.ascii	"name\000"
 4897      00
 4898              	.LASF47:
 4899 011b 636F6E74 		.ascii	"context\000"
 4899      65787400 
 4900              	.LASF6:
 4901 0123 73686F72 		.ascii	"short unsigned int\000"
 4901      7420756E 
 4901      7369676E 
 4901      65642069 
 4901      6E7400
 4902              	.LASF86:
 4903 0136 71756575 		.ascii	"queues1_execute\000"
 4903      6573315F 
 4903      65786563 
 4903      75746500 
 4904              	.LASF92:
 4905 0146 74657374 		.ascii	"testqueues1\000"
 4905      71756575 
 4905      65733100 
 4906              	.LASF19:
 4907 0152 6D73675F 		.ascii	"msg_t\000"
 4907      7400
 4908              	.LASF15:
 4909 0158 746D6F64 		.ascii	"tmode_t\000"
 4909      655F7400 
 4910              	.LASF43:
 4911 0160 54687265 		.ascii	"ThreadsList\000"
 4911      6164734C 
 4911      69737400 
 4912              	.LASF20:
 4913 016c 6576656E 		.ascii	"eventmask_t\000"
 4913      746D6173 
 4913      6B5F7400 
 4914              	.LASF74:
 4915 0178 496E7075 		.ascii	"InputQueue\000"
 4915      74517565 
 4915      756500
 4916              	.LASF56:
 4917 0183 4D757465 		.ascii	"Mutex\000"
 4917      7800
 4918              	.LASF65:
 4919 0189 47656E65 		.ascii	"GenericQueue\000"
 4919      72696351 
ARM GAS  /tmp/cca9KgQf.s 			page 90


 4919      75657565 
 4919      00
 4920              	.LASF45:
 4921 0196 73746B61 		.ascii	"stkalign_t\000"
 4921      6C69676E 
 4921      5F7400
 4922              	.LASF82:
 4923 01a1 6E6F7469 		.ascii	"notify\000"
 4923      667900
 4924              	.LASF83:
 4925 01a8 71756575 		.ascii	"queues2_execute\000"
 4925      6573325F 
 4925      65786563 
 4925      75746500 
 4926              	.LASF67:
 4927 01b8 715F636F 		.ascii	"q_counter\000"
 4927      756E7465 
 4927      7200
 4928              	.LASF93:
 4929 01c2 74657374 		.ascii	"testqueues2\000"
 4929      71756575 
 4929      65733200 
 4930              	.LASF29:
 4931 01ce 705F6F6C 		.ascii	"p_older\000"
 4931      64657200 
 4932              	.LASF85:
 4933 01d6 74687265 		.ascii	"thread1\000"
 4933      61643100 
 4934              	.LASF84:
 4935 01de 74687265 		.ascii	"thread2\000"
 4935      61643200 
 4936              	.LASF50:
 4937 01e6 725F6374 		.ascii	"r_ctx\000"
 4937      7800
 4938              	.LASF42:
 4939 01ec 54687265 		.ascii	"ThreadsQueue\000"
 4939      61647351 
 4939      75657565 
 4939      00
 4940              	.LASF78:
 4941 01f9 73657475 		.ascii	"setup\000"
 4941      7000
 4942              	.LASF54:
 4943 01ff 725F6375 		.ascii	"r_current\000"
 4943      7272656E 
 4943      7400
 4944              	.LASF52:
 4945 0209 725F6F6C 		.ascii	"r_older\000"
 4945      64657200 
 4946              	.LASF88:
 4947 0211 71756575 		.ascii	"queues1_setup\000"
 4947      6573315F 
 4947      73657475 
 4947      7000
 4948              	.LASF17:
 4949 021f 74726566 		.ascii	"trefs_t\000"
 4949      735F7400 
ARM GAS  /tmp/cca9KgQf.s 			page 91


 4950              	.LASF73:
 4951 0227 716E6F74 		.ascii	"qnotify_t\000"
 4951      6966795F 
 4951      7400
 4952              	.LASF25:
 4953 0231 705F7072 		.ascii	"p_prev\000"
 4953      657600
 4954              	.LASF80:
 4955 0238 65786563 		.ascii	"execute\000"
 4955      75746500 
 4956              	.LASF18:
 4957 0240 74707269 		.ascii	"tprio_t\000"
 4957      6F5F7400 
 4958              	.LASF71:
 4959 0248 715F7264 		.ascii	"q_rdptr\000"
 4959      70747200 
 4960              	.LASF7:
 4961 0250 696E7433 		.ascii	"int32_t\000"
 4961      325F7400 
 4962              	.LASF4:
 4963 0258 756E7369 		.ascii	"unsigned char\000"
 4963      676E6564 
 4963      20636861 
 4963      7200
 4964              	.LASF96:
 4965 0266 2E2E2F6C 		.ascii	"../libs/ChibiOS_2.4.0/test/testqueues.c\000"
 4965      6962732F 
 4965      43686962 
 4965      694F535F 
 4965      322E342E 
 4966              	.LASF39:
 4967 028e 705F6D74 		.ascii	"p_mtxlist\000"
 4967      786C6973 
 4967      7400
 4968              	.LASF5:
 4969 0298 73686F72 		.ascii	"short int\000"
 4969      7420696E 
 4969      7400
 4970              	.LASF31:
 4971 02a2 705F7374 		.ascii	"p_state\000"
 4971      61746500 
 4972              	.LASF90:
 4973 02aa 74687265 		.ascii	"threads\000"
 4973      61647300 
 4974              	.LASF49:
 4975 02b2 725F7072 		.ascii	"r_prio\000"
 4975      696F00
 4976              	.LASF63:
 4977 02b9 65776D61 		.ascii	"ewmask\000"
 4977      736B00
 4978              	.LASF24:
 4979 02c0 705F6E65 		.ascii	"p_next\000"
 4979      787400
 4980              	.LASF32:
 4981 02c7 705F666C 		.ascii	"p_flags\000"
 4981      61677300 
 4982              	.LASF23:
ARM GAS  /tmp/cca9KgQf.s 			page 92


 4983 02cf 54687265 		.ascii	"Thread\000"
 4983      616400
 4984              	.LASF76:
 4985 02d6 74657374 		.ascii	"testcase\000"
 4985      63617365 
 4985      00
 4986              	.LASF38:
 4987 02df 705F6570 		.ascii	"p_epending\000"
 4987      656E6469 
 4987      6E6700
 4988              	.LASF9:
 4989 02ea 75696E74 		.ascii	"uint32_t\000"
 4989      33325F74 
 4989      00
 4990              	.LASF48:
 4991 02f3 725F7175 		.ascii	"r_queue\000"
 4991      65756500 
 4992              	.LASF64:
 4993 02fb 63686172 		.ascii	"char\000"
 4993      00
 4994              	.LASF98:
 4995 0300 74657374 		.ascii	"test_buffers\000"
 4995      5F627566 
 4995      66657273 
 4995      00
 4996              	.LASF59:
 4997 030d 6D5F6E65 		.ascii	"m_next\000"
 4997      787400
 4998              	.LASF21:
 4999 0314 73797374 		.ascii	"systime_t\000"
 4999      696D655F 
 4999      7400
 5000              	.LASF40:
 5001 031e 705F7265 		.ascii	"p_realprio\000"
 5001      616C7072 
 5001      696F00
 5002              	.LASF81:
 5003 0329 62756666 		.ascii	"buffer\000"
 5003      657200
 5004              	.LASF34:
 5005 0330 705F7469 		.ascii	"p_time\000"
 5005      6D6500
 5006              	.LASF46:
 5007 0337 696E7463 		.ascii	"intctx\000"
 5007      747800
 5008              	.LASF36:
 5009 033e 705F6D73 		.ascii	"p_msgqueue\000"
 5009      67717565 
 5009      756500
 5010              	.LASF69:
 5011 0349 715F746F 		.ascii	"q_top\000"
 5011      7000
 5012              	.LASF33:
 5013 034f 705F7265 		.ascii	"p_refs\000"
 5013      667300
 5014              	.LASF55:
 5015 0356 52656164 		.ascii	"ReadyList\000"
ARM GAS  /tmp/cca9KgQf.s 			page 93


 5015      794C6973 
 5015      7400
 5016              	.LASF72:
 5017 0360 715F6E6F 		.ascii	"q_notify\000"
 5017      74696679 
 5017      00
 5018              	.LASF89:
 5019 0369 726C6973 		.ascii	"rlist\000"
 5019      7400
 5020              	.LASF3:
 5021 036f 75696E74 		.ascii	"uint8_t\000"
 5021      385F7400 
 5022              	.LASF62:
 5023 0377 77746F62 		.ascii	"wtobjp\000"
 5023      6A7000
 5024              	.LASF95:
 5025 037e 474E5520 		.ascii	"GNU C 4.5.2\000"
 5025      4320342E 
 5025      352E3200 
 5026              	.LASF30:
 5027 038a 705F6E61 		.ascii	"p_name\000"
 5027      6D6500
 5028              	.LASF53:
 5029 0391 725F7072 		.ascii	"r_preempt\000"
 5029      65656D70 
 5029      7400
 5030              	.LASF58:
 5031 039b 6D5F6F77 		.ascii	"m_owner\000"
 5031      6E657200 
 5032              	.LASF27:
 5033 03a3 705F6374 		.ascii	"p_ctx\000"
 5033      7800
 5034              	.LASF35:
 5035 03a9 705F7761 		.ascii	"p_waiting\000"
 5035      6974696E 
 5035      6700
 5036              	.LASF97:
 5037 03b3 2F686F6D 		.ascii	"/home/stm32/Workspace/FirmwareSpykee\000"
 5037      652F7374 
 5037      6D33322F 
 5037      576F726B 
 5037      73706163 
 5038              		.ident	"GCC: (Sourcery G++ Lite 2011.03-42) 4.5.2"
ARM GAS  /tmp/cca9KgQf.s 			page 94


DEFINED SYMBOLS
                            *ABS*:00000000 testqueues.c
     /tmp/cca9KgQf.s:26     .text.notify:00000000 $t
     /tmp/cca9KgQf.s:31     .text.notify:00000000 notify
     /tmp/cca9KgQf.s:46     .text.thread2:00000000 $t
     /tmp/cca9KgQf.s:51     .text.thread2:00000000 thread2
     /tmp/cca9KgQf.s:75     .text.thread2:00000010 $d
     /tmp/cca9KgQf.s:80     .text.queues2_execute:00000000 $t
     /tmp/cca9KgQf.s:85     .text.queues2_execute:00000000 queues2_execute
     /tmp/cca9KgQf.s:698    .text.queues2_execute:000002ac $d
     /tmp/cca9KgQf.s:709    .text.queues2_execute:000002c4 $t
     /tmp/cca9KgQf.s:735    .text.queues2_execute:000002ec $d
     /tmp/cca9KgQf.s:740    .text.queues2_setup:00000000 $t
     /tmp/cca9KgQf.s:745    .text.queues2_setup:00000000 queues2_setup
     /tmp/cca9KgQf.s:764    .text.queues2_setup:00000010 $d
     /tmp/cca9KgQf.s:771    .text.thread1:00000000 $t
     /tmp/cca9KgQf.s:776    .text.thread1:00000000 thread1
     /tmp/cca9KgQf.s:799    .text.thread1:00000010 $d
     /tmp/cca9KgQf.s:804    .text.queues1_execute:00000000 $t
     /tmp/cca9KgQf.s:809    .text.queues1_execute:00000000 queues1_execute
     /tmp/cca9KgQf.s:1415   .text.queues1_execute:000002d4 $d
     /tmp/cca9KgQf.s:1427   .text.queues1_execute:000002ec $t
     /tmp/cca9KgQf.s:1451   .text.queues1_execute:00000314 $d
     /tmp/cca9KgQf.s:1456   .text.queues1_setup:00000000 $t
     /tmp/cca9KgQf.s:1461   .text.queues1_setup:00000000 queues1_setup
     /tmp/cca9KgQf.s:1480   .text.queues1_setup:00000010 $d
     /tmp/cca9KgQf.s:1493   .rodata.testqueues1:00000000 testqueues1
     /tmp/cca9KgQf.s:1502   .rodata.testqueues2:00000000 testqueues2
     /tmp/cca9KgQf.s:1521   .rodata.patternqueues:00000000 patternqueues
     /tmp/cca9KgQf.s:1490   .rodata.testqueues1:00000000 $d
     /tmp/cca9KgQf.s:1499   .rodata.testqueues2:00000000 $d
     /tmp/cca9KgQf.s:1508   .rodata.str1.4:00000000 $d
     /tmp/cca9KgQf.s:1518   .rodata.patternqueues:00000000 $d
     /tmp/cca9KgQf.s:1526   .data.oq:00000000 $d
     /tmp/cca9KgQf.s:1530   .data.oq:00000000 oq
     /tmp/cca9KgQf.s:1540   .data.iq:00000000 $d
     /tmp/cca9KgQf.s:1544   .data.iq:00000000 iq
                     .debug_frame:00000010 $d
     /tmp/cca9KgQf.s:79     .text.thread2:00000014 $t
     /tmp/cca9KgQf.s:770    .text.queues2_setup:0000001c $t
     /tmp/cca9KgQf.s:803    .text.thread1:00000014 $t
     /tmp/cca9KgQf.s:1455   .text.queues1_execute:00000318 $t
     /tmp/cca9KgQf.s:1489   .text.queues1_setup:0000001c $t

UNDEFINED SYMBOLS
chOQPutTimeout
_test_assert
chOQGetI
test_emit_token
_test_assert_sequence
chOQWriteTimeout
chThdCreateStatic
test_wait_threads
chOQResetI
wa
rlist
threads
ARM GAS  /tmp/cca9KgQf.s 			page 95


chOQInit
chIQGetTimeout
chIQPutI
chIQReadTimeout
chIQResetI
chIQInit
test
