ARM GAS  /tmp/ccFueNYe.s 			page 1


   1              		.syntax unified
   2              		.cpu cortex-m4
   3              		.eabi_attribute 27, 3
   4              		.eabi_attribute 28, 1
   5              		.fpu fpv4-sp-d16
   6              		.eabi_attribute 20, 1
   7              		.eabi_attribute 21, 1
   8              		.eabi_attribute 23, 3
   9              		.eabi_attribute 24, 1
  10              		.eabi_attribute 25, 1
  11              		.eabi_attribute 26, 1
  12              		.eabi_attribute 30, 2
  13              		.eabi_attribute 18, 4
  14              		.thumb
  15              		.file	"test.c"
  22 0000 DC040000 		.text
  22      0200A302 
  22      00000201 
  22      FB0E0D00 
  22      01010101 
  23              	.Ltext0:
  24              		.cfi_sections	.debug_frame
  25              		.section	.text.tmr,"ax",%progbits
  26              		.align	2
  27              		.p2align 4,,15
  28              		.thumb
  29              		.thumb_func
  30              		.type	tmr, %function
  31              	tmr:
  32              	.LFB131:
  33              		.file 1 "../libs/ChibiOS_2.4.0/test/test.c"
  34              		.loc 1 273 0
  35              		.cfi_startproc
  36              		@ args = 0, pretend = 0, frame = 0
  37              		@ frame_needed = 0, uses_anonymous_args = 0
  38              		@ link register save eliminated.
  39              	.LVL0:
  40              		.loc 1 276 0
  41 0000 014B     		ldr	r3, .L2
  42 0002 0122     		movs	r2, #1
  43 0004 1A60     		str	r2, [r3, #0]
  44              		.loc 1 277 0
  45 0006 7047     		bx	lr
  46              	.L3:
  47              		.align	2
  48              	.L2:
  49 0008 00000000 		.word	.LANCHOR0
  50              		.cfi_endproc
  51              	.LFE131:
  52              		.size	tmr, .-tmr
  53 000c AFF30080 		.section	.text.print_line,"ax",%progbits
ARM GAS  /tmp/ccFueNYe.s 			page 2


  54              		.align	2
  55              		.p2align 4,,15
  56              		.thumb
  57              		.thumb_func
  58              		.type	print_line, %function
  59              	print_line:
  60              	.LFB134:
  61              		.loc 1 314 0
  62              		.cfi_startproc
  63              		@ args = 0, pretend = 0, frame = 0
  64              		@ frame_needed = 0, uses_anonymous_args = 0
  65              	.LVL1:
  66 0000 70B5     		push	{r4, r5, r6, lr}
  67              	.LCFI0:
  68              		.cfi_def_cfa_offset 16
  69 0002 114D     		ldr	r5, .L9
  70              		.cfi_offset 14, -4
  71              		.cfi_offset 6, -8
  72              		.cfi_offset 5, -12
  73              		.cfi_offset 4, -16
  74              		.loc 1 314 0
  75 0004 4C24     		movs	r4, #76
  76              	.LVL2:
  77              	.L5:
  78              		.loc 1 318 0 discriminator 2
  79 0006 2868     		ldr	r0, [r5, #0]
  80 0008 0F4E     		ldr	r6, .L9
  81 000a 0368     		ldr	r3, [r0, #0]
  82 000c 2D21     		movs	r1, #45
  83 000e 4FF0FF32 		mov	r2, #-1
  84 0012 1B69     		ldr	r3, [r3, #16]
  85 0014 9847     		blx	r3
  86 0016 2868     		ldr	r0, [r5, #0]
  87 0018 0168     		ldr	r1, [r0, #0]
  88 001a 013C     		subs	r4, r4, #1
  89 001c 0B69     		ldr	r3, [r1, #16]
  90 001e 4FF0FF32 		mov	r2, #-1
  91 0022 2D21     		movs	r1, #45
  92 0024 9847     		blx	r3
  93              		.loc 1 317 0 discriminator 2
  94 0026 013C     		subs	r4, r4, #1
  95 0028 EDD1     		bne	.L5
  96              		.loc 1 319 0
  97 002a 3068     		ldr	r0, [r6, #0]
  98 002c 0368     		ldr	r3, [r0, #0]
  99 002e 0D21     		movs	r1, #13
 100 0030 4FF0FF32 		mov	r2, #-1
 101 0034 1B69     		ldr	r3, [r3, #16]
 102 0036 9847     		blx	r3
 103              		.loc 1 320 0
 104 0038 3068     		ldr	r0, [r6, #0]
 105 003a 0268     		ldr	r2, [r0, #0]
 106 003c 0A21     		movs	r1, #10
 107 003e 1369     		ldr	r3, [r2, #16]
 108 0040 4FF0FF32 		mov	r2, #-1
 109 0044 9847     		blx	r3
 110              		.loc 1 321 0
ARM GAS  /tmp/ccFueNYe.s 			page 3


 111 0046 70BD     		pop	{r4, r5, r6, pc}
 112              	.L10:
 113              		.align	2
 114              	.L9:
 115 0048 00000000 		.word	.LANCHOR1
 116              		.cfi_endproc
 117              	.LFE134:
 118              		.size	print_line, .-print_line
 119 004c AFF30080 		.section	.text.test_printn,"ax",%progbits
 120              		.align	2
 121              		.p2align 4,,15
 122              		.global	test_printn
 123              		.thumb
 124              		.thumb_func
 125              		.type	test_printn, %function
 126              	test_printn:
 127              	.LFB117:
 128              		.loc 1 102 0
 129              		.cfi_startproc
 130              		@ args = 0, pretend = 0, frame = 16
 131              		@ frame_needed = 0, uses_anonymous_args = 0
 132              	.LVL3:
 133 0000 F0B5     		push	{r4, r5, r6, r7, lr}
 134              	.LCFI1:
 135              		.cfi_def_cfa_offset 20
 136 0002 85B0     		sub	sp, sp, #20
 137              	.LCFI2:
 138              		.cfi_def_cfa_offset 40
 139              		.loc 1 105 0
 140 0004 0028     		cmp	r0, #0
 141 0006 37D0     		beq	.L24
 142              		.cfi_offset 14, -4
 143              		.cfi_offset 7, -8
 144              		.cfi_offset 6, -12
 145              		.cfi_offset 5, -16
 146              		.cfi_offset 4, -20
 147              		.loc 1 110 0
 148 0008 2049     		ldr	r1, .L25
 149              		.loc 1 108 0
 150 000a 6E46     		mov	r6, sp
 151 000c 6F46     		mov	r7, sp
 152              	.LVL4:
 153              	.L14:
 154              		.loc 1 110 0
 155 000e A1FB0023 		umull	r2, r3, r1, r0
 156 0012 DB08     		lsrs	r3, r3, #3
 157 0014 03EB8302 		add	r2, r3, r3, lsl #2
 158 0018 A0EB420C 		sub	ip, r0, r2, lsl #1
 159 001c 0CF13002 		add	r2, ip, #48
 160              		.loc 1 109 0
 161 0020 1846     		mov	r0, r3
 162              		.loc 1 110 0
 163 0022 07F8012B 		strb	r2, [r7], #1
 164              	.LVL5:
 165              		.loc 1 109 0
 166 0026 002B     		cmp	r3, #0
 167 0028 F1D1     		bne	.L14
ARM GAS  /tmp/ccFueNYe.s 			page 4


 168              		.loc 1 111 0
 169 002a B742     		cmp	r7, r6
 170 002c 22D9     		bls	.L11
 171 002e 184D     		ldr	r5, .L25+4
 172              		.loc 1 112 0
 173 0030 2868     		ldr	r0, [r5, #0]
 174              	.LVL6:
 175 0032 3C46     		mov	r4, r7
 176 0034 0368     		ldr	r3, [r0, #0]
 177 0036 14F8011D 		ldrb	r1, [r4, #-1]!	@ zero_extendqisi2
 178 003a 1B69     		ldr	r3, [r3, #16]
 179 003c F21B     		subs	r2, r6, r7
 180 003e D743     		mvns	r7, r2
 181 0040 4FF0FF32 		mov	r2, #-1
 182 0044 9847     		blx	r3
 183              		.loc 1 111 0
 184 0046 B442     		cmp	r4, r6
 185 0048 07F00107 		and	r7, r7, #1
 186 004c 12D0     		beq	.L11
 187 004e 3FB9     		cbnz	r7, .L23
 188              	.L15:
 189              		.loc 1 112 0
 190 0050 2868     		ldr	r0, [r5, #0]
 191 0052 14F8011D 		ldrb	r1, [r4, #-1]!	@ zero_extendqisi2
 192 0056 0368     		ldr	r3, [r0, #0]
 193 0058 4FF0FF32 		mov	r2, #-1
 194 005c 1B69     		ldr	r3, [r3, #16]
 195 005e 9847     		blx	r3
 196              	.L23:
 197 0060 2868     		ldr	r0, [r5, #0]
 198 0062 14F8011D 		ldrb	r1, [r4, #-1]!	@ zero_extendqisi2
 199 0066 0268     		ldr	r2, [r0, #0]
 200 0068 1369     		ldr	r3, [r2, #16]
 201 006a 4FF0FF32 		mov	r2, #-1
 202 006e 9847     		blx	r3
 203              		.loc 1 111 0
 204 0070 B442     		cmp	r4, r6
 205 0072 EDD1     		bne	.L15
 206              	.L11:
 207              		.loc 1 114 0
 208 0074 05B0     		add	sp, sp, #20
 209 0076 F0BD     		pop	{r4, r5, r6, r7, pc}
 210              	.LVL7:
 211              	.L24:
 212              		.loc 1 106 0
 213 0078 0548     		ldr	r0, .L25+4
 214              	.LVL8:
 215 007a 0068     		ldr	r0, [r0, #0]
 216 007c 0168     		ldr	r1, [r0, #0]
 217 007e 4FF0FF32 		mov	r2, #-1
 218 0082 0B69     		ldr	r3, [r1, #16]
 219 0084 3021     		movs	r1, #48
 220 0086 9847     		blx	r3
 221 0088 F4E7     		b	.L11
 222              	.L26:
 223 008a 00BF     		.align	2
 224              	.L25:
ARM GAS  /tmp/ccFueNYe.s 			page 5


 225 008c CDCCCCCC 		.word	-858993459
 226 0090 00000000 		.word	.LANCHOR1
 227              		.cfi_endproc
 228              	.LFE117:
 229              		.size	test_printn, .-test_printn
 230 0094 AFF30080 		.section	.text.test_print,"ax",%progbits
 230      AFF30080 
 230      AFF30080 
 231              		.align	2
 232              		.p2align 4,,15
 233              		.global	test_print
 234              		.thumb
 235              		.thumb_func
 236              		.type	test_print, %function
 237              	test_print:
 238              	.LFB118:
 239              		.loc 1 121 0
 240              		.cfi_startproc
 241              		@ args = 0, pretend = 0, frame = 0
 242              		@ frame_needed = 0, uses_anonymous_args = 0
 243              	.LVL9:
 244 0000 38B5     		push	{r3, r4, r5, lr}
 245              	.LCFI3:
 246              		.cfi_def_cfa_offset 16
 247              		.loc 1 123 0
 248 0002 0178     		ldrb	r1, [r0, #0]	@ zero_extendqisi2
 249 0004 59B1     		cbz	r1, .L27
 250              		.cfi_offset 14, -4
 251              		.cfi_offset 5, -8
 252              		.cfi_offset 4, -12
 253              		.cfi_offset 3, -16
 254 0006 064D     		ldr	r5, .L31
 255 0008 0446     		mov	r4, r0
 256              	.LVL10:
 257              	.L29:
 258              		.loc 1 124 0
 259 000a 2868     		ldr	r0, [r5, #0]
 260 000c 0268     		ldr	r2, [r0, #0]
 261 000e 1369     		ldr	r3, [r2, #16]
 262 0010 4FF0FF32 		mov	r2, #-1
 263 0014 9847     		blx	r3
 264              		.loc 1 123 0
 265 0016 14F8011F 		ldrb	r1, [r4, #1]!	@ zero_extendqisi2
 266 001a 0029     		cmp	r1, #0
 267 001c F5D1     		bne	.L29
 268              	.L27:
 269 001e 38BD     		pop	{r3, r4, r5, pc}
 270              	.L32:
 271              		.align	2
 272              	.L31:
 273 0020 00000000 		.word	.LANCHOR1
 274              		.cfi_endproc
 275              	.LFE118:
 276              		.size	test_print, .-test_print
 277 0024 AFF30080 		.section	.text.test_println,"ax",%progbits
 277      AFF30080 
 277      AFF30080 
ARM GAS  /tmp/ccFueNYe.s 			page 6


 278              		.align	2
 279              		.p2align 4,,15
 280              		.global	test_println
 281              		.thumb
 282              		.thumb_func
 283              		.type	test_println, %function
 284              	test_println:
 285              	.LFB119:
 286              		.loc 1 132 0
 287              		.cfi_startproc
 288              		@ args = 0, pretend = 0, frame = 0
 289              		@ frame_needed = 0, uses_anonymous_args = 0
 290              	.LVL11:
 291 0000 10B5     		push	{r4, lr}
 292              	.LCFI4:
 293              		.cfi_def_cfa_offset 8
 294              		.loc 1 135 0
 295 0002 094C     		ldr	r4, .L34
 296              		.cfi_offset 14, -4
 297              		.cfi_offset 4, -8
 298              		.loc 1 134 0
 299 0004 FFF7FEFF 		bl	test_print
 300              	.LVL12:
 301              		.loc 1 135 0
 302 0008 2068     		ldr	r0, [r4, #0]
 303 000a 0368     		ldr	r3, [r0, #0]
 304 000c 0D21     		movs	r1, #13
 305 000e 4FF0FF32 		mov	r2, #-1
 306 0012 1B69     		ldr	r3, [r3, #16]
 307 0014 9847     		blx	r3
 308              		.loc 1 136 0
 309 0016 2068     		ldr	r0, [r4, #0]
 310 0018 0168     		ldr	r1, [r0, #0]
 311 001a 4FF0FF32 		mov	r2, #-1
 312 001e 0B69     		ldr	r3, [r1, #16]
 313 0020 0A21     		movs	r1, #10
 314 0022 9847     		blx	r3
 315              		.loc 1 137 0
 316 0024 10BD     		pop	{r4, pc}
 317              	.L35:
 318 0026 00BF     		.align	2
 319              	.L34:
 320 0028 00000000 		.word	.LANCHOR1
 321              		.cfi_endproc
 322              	.LFE119:
 323              		.size	test_println, .-test_println
 324 002c AFF30080 		.section	.text.test_emit_token,"ax",%progbits
 325              		.align	2
 326              		.p2align 4,,15
 327              		.global	test_emit_token
 328              		.thumb
 329              		.thumb_func
 330              		.type	test_emit_token, %function
 331              	test_emit_token:
 332              	.LFB122:
 333              		.loc 1 159 0
 334              		.cfi_startproc
ARM GAS  /tmp/ccFueNYe.s 			page 7


 335              		@ args = 0, pretend = 0, frame = 0
 336              		@ frame_needed = 0, uses_anonymous_args = 0
 337              		@ link register save eliminated.
 338              	.LVL13:
 339              	.LBB22:
 340              		.loc 1 161 0
 341 0000 2023     		movs	r3, #32
 342              	.LVL14:
 343              	@ 161 "../libs/ChibiOS_2.4.0/test/test.c" 1
 344 0002 83F31188 		msr     BASEPRI, r3
 345              	@ 0 "" 2
 346              	.LVL15:
 347              		.thumb
 348              	.LBE22:
 349              		.loc 1 162 0
 350 0006 0449     		ldr	r1, .L37
 351 0008 0A68     		ldr	r2, [r1, #0]
 352 000a 02F8010B 		strb	r0, [r2], #1
 353              	.LBB23:
 354              		.loc 1 163 0
 355 000e 0023     		movs	r3, #0
 356              	.LVL16:
 357              	.LBE23:
 358              		.loc 1 162 0
 359 0010 0A60     		str	r2, [r1, #0]
 360              	.LBB24:
 361              		.loc 1 163 0
 362              	@ 163 "../libs/ChibiOS_2.4.0/test/test.c" 1
 363 0012 83F31188 		msr     BASEPRI, r3
 364              	@ 0 "" 2
 365              	.LVL17:
 366              		.thumb
 367              	.LBE24:
 368              		.loc 1 164 0
 369 0016 7047     		bx	lr
 370              	.L38:
 371              		.align	2
 372              	.L37:
 373 0018 00000000 		.word	.LANCHOR2
 374              		.cfi_endproc
 375              	.LFE122:
 376              		.size	test_emit_token, .-test_emit_token
 377 001c AFF30080 		.section	.text._test_fail,"ax",%progbits
 378              		.align	2
 379              		.p2align 4,,15
 380              		.global	_test_fail
 381              		.thumb
 382              		.thumb_func
 383              		.type	_test_fail, %function
 384              	_test_fail:
 385              	.LFB123:
 386              		.loc 1 169 0
 387              		.cfi_startproc
 388              		@ args = 0, pretend = 0, frame = 0
 389              		@ frame_needed = 0, uses_anonymous_args = 0
 390              		@ link register save eliminated.
 391              	.LVL18:
ARM GAS  /tmp/ccFueNYe.s 			page 8


 392              		.loc 1 173 0
 393 0000 0449     		ldr	r1, .L40
 394              		.loc 1 172 0
 395 0002 054A     		ldr	r2, .L40+4
 396              		.loc 1 173 0
 397 0004 0860     		str	r0, [r1, #0]
 398              		.loc 1 171 0
 399 0006 0548     		ldr	r0, .L40+8
 400              	.LVL19:
 401 0008 0123     		movs	r3, #1
 402 000a 0360     		str	r3, [r0, #0]
 403              		.loc 1 172 0
 404 000c 1360     		str	r3, [r2, #0]
 405              		.loc 1 175 0
 406 000e 1846     		mov	r0, r3
 407 0010 7047     		bx	lr
 408              	.L41:
 409 0012 00BF     		.align	2
 410              	.L40:
 411 0014 00000000 		.word	.LANCHOR5
 412 0018 00000000 		.word	.LANCHOR4
 413 001c 00000000 		.word	.LANCHOR3
 414              		.cfi_endproc
 415              	.LFE123:
 416              		.size	_test_fail, .-_test_fail
 417              		.section	.text._test_assert,"ax",%progbits
 418              		.align	2
 419              		.p2align 4,,15
 420              		.global	_test_assert
 421              		.thumb
 422              		.thumb_func
 423              		.type	_test_assert, %function
 424              	_test_assert:
 425              	.LFB124:
 426              		.loc 1 177 0
 427              		.cfi_startproc
 428              		@ args = 0, pretend = 0, frame = 0
 429              		@ frame_needed = 0, uses_anonymous_args = 0
 430              		@ link register save eliminated.
 431              	.LVL20:
 432              		.loc 1 179 0
 433 0000 41B9     		cbnz	r1, .L44
 434              	.LVL21:
 435              	.LBB25:
 436              	.LBB26:
 437              		.loc 1 171 0
 438 0002 054A     		ldr	r2, .L45
 439              		.loc 1 172 0
 440 0004 0549     		ldr	r1, .L45+4
 441              	.LVL22:
 442              		.loc 1 171 0
 443 0006 0123     		movs	r3, #1
 444 0008 1360     		str	r3, [r2, #0]
 445              		.loc 1 173 0
 446 000a 054A     		ldr	r2, .L45+8
 447              		.loc 1 172 0
 448 000c 0B60     		str	r3, [r1, #0]
ARM GAS  /tmp/ccFueNYe.s 			page 9


 449              		.loc 1 173 0
 450 000e 1060     		str	r0, [r2, #0]
 451              	.LBE26:
 452              	.LBE25:
 453              		.loc 1 180 0
 454 0010 1846     		mov	r0, r3
 455              	.LVL23:
 456 0012 7047     		bx	lr
 457              	.LVL24:
 458              	.L44:
 459              		.loc 1 181 0
 460 0014 0020     		movs	r0, #0
 461              	.LVL25:
 462              		.loc 1 182 0
 463 0016 7047     		bx	lr
 464              	.L46:
 465              		.align	2
 466              	.L45:
 467 0018 00000000 		.word	.LANCHOR3
 468 001c 00000000 		.word	.LANCHOR4
 469 0020 00000000 		.word	.LANCHOR5
 470              		.cfi_endproc
 471              	.LFE124:
 472              		.size	_test_assert, .-_test_assert
 473 0024 AFF30080 		.section	.text._test_assert_sequence,"ax",%progbits
 473      AFF30080 
 473      AFF30080 
 474              		.align	2
 475              		.p2align 4,,15
 476              		.global	_test_assert_sequence
 477              		.thumb
 478              		.thumb_func
 479              		.type	_test_assert_sequence, %function
 480              	_test_assert_sequence:
 481              	.LFB125:
 482              		.loc 1 184 0
 483              		.cfi_startproc
 484              		@ args = 0, pretend = 0, frame = 0
 485              		@ frame_needed = 0, uses_anonymous_args = 0
 486              		@ link register save eliminated.
 487              	.LVL26:
 488 0000 2DE9F001 		push	{r4, r5, r6, r7, r8}
 489              	.LCFI5:
 490              		.cfi_def_cfa_offset 20
 491              		.loc 1 193 0
 492 0004 194C     		ldr	r4, .L63
 493              		.cfi_offset 8, -4
 494              		.cfi_offset 7, -8
 495              		.cfi_offset 6, -12
 496              		.cfi_offset 5, -16
 497              		.cfi_offset 4, -20
 498              		.loc 1 185 0
 499 0006 1A4A     		ldr	r2, .L63+4
 500              		.loc 1 193 0
 501 0008 2368     		ldr	r3, [r4, #0]
 502 000a 9D1A     		subs	r5, r3, r2
 503 000c 15F0010F 		tst	r5, #1
ARM GAS  /tmp/ccFueNYe.s 			page 10


 504              		.loc 1 185 0
 505 0010 1646     		mov	r6, r2
 506 0012 19D0     		beq	.L48
 507              	.LVL27:
 508              		.loc 1 186 0
 509 0014 9342     		cmp	r3, r2
 510 0016 19D9     		bls	.L60
 511              		.loc 1 187 0
 512 0018 1646     		mov	r6, r2
 513 001a 11F8015B 		ldrb	r5, [r1], #1	@ zero_extendqisi2
 514              	.LVL28:
 515 001e 16F8017B 		ldrb	r7, [r6], #1	@ zero_extendqisi2
 516 0022 AF42     		cmp	r7, r5
 517 0024 10D0     		beq	.L48
 518 0026 16E0     		b	.L62
 519              	.LVL29:
 520              	.L50:
 521 0028 3746     		mov	r7, r6
 522 002a 0D46     		mov	r5, r1
 523 002c 17F8018B 		ldrb	r8, [r7], #1	@ zero_extendqisi2
 524 0030 15F801CB 		ldrb	ip, [r5], #1	@ zero_extendqisi2
 525              	.LVL30:
 526 0034 E045     		cmp	r8, ip
 527 0036 0ED1     		bne	.L62
 528 0038 96F80180 		ldrb	r8, [r6, #1]	@ zero_extendqisi2
 529 003c 91F801C0 		ldrb	ip, [r1, #1]	@ zero_extendqisi2
 530 0040 7E1C     		adds	r6, r7, #1
 531 0042 691C     		adds	r1, r5, #1
 532 0044 E045     		cmp	r8, ip
 533 0046 06D1     		bne	.L62
 534              	.L48:
 535              	.LVL31:
 536              		.loc 1 186 0 discriminator 1
 537 0048 B342     		cmp	r3, r6
 538 004a EDD8     		bhi	.L50
 539              	.L60:
 540              		.loc 1 190 0
 541 004c 0B78     		ldrb	r3, [r1, #0]	@ zero_extendqisi2
 542 004e 13B9     		cbnz	r3, .L62
 543              	.LBB27:
 544              	.LBB28:
 545              		.loc 1 144 0
 546 0050 2260     		str	r2, [r4, #0]
 547              	.LBE28:
 548              	.LBE27:
 549              		.loc 1 193 0
 550 0052 1846     		mov	r0, r3
 551              	.LVL32:
 552 0054 07E0     		b	.L49
 553              	.LVL33:
 554              	.L62:
 555              	.LBB29:
 556              	.LBB30:
 557              		.loc 1 171 0
 558 0056 074A     		ldr	r2, .L63+8
 559              		.loc 1 172 0
 560 0058 0749     		ldr	r1, .L63+12
ARM GAS  /tmp/ccFueNYe.s 			page 11


 561              		.loc 1 171 0
 562 005a 0123     		movs	r3, #1
 563 005c 1360     		str	r3, [r2, #0]
 564              		.loc 1 173 0
 565 005e 074A     		ldr	r2, .L63+16
 566              		.loc 1 172 0
 567 0060 0B60     		str	r3, [r1, #0]
 568              		.loc 1 173 0
 569 0062 1060     		str	r0, [r2, #0]
 570              	.LBE30:
 571              	.LBE29:
 572              		.loc 1 191 0
 573 0064 1846     		mov	r0, r3
 574              	.LVL34:
 575              	.L49:
 576              		.loc 1 194 0
 577 0066 BDE8F001 		pop	{r4, r5, r6, r7, r8}
 578 006a 7047     		bx	lr
 579              	.L64:
 580              		.align	2
 581              	.L63:
 582 006c 00000000 		.word	.LANCHOR2
 583 0070 00000000 		.word	.LANCHOR6
 584 0074 00000000 		.word	.LANCHOR3
 585 0078 00000000 		.word	.LANCHOR4
 586 007c 00000000 		.word	.LANCHOR5
 587              		.cfi_endproc
 588              	.LFE125:
 589              		.size	_test_assert_sequence, .-_test_assert_sequence
 590              		.section	.text._test_assert_time_window,"ax",%progbits
 591              		.align	2
 592              		.p2align 4,,15
 593              		.global	_test_assert_time_window
 594              		.thumb
 595              		.thumb_func
 596              		.type	_test_assert_time_window, %function
 597              	_test_assert_time_window:
 598              	.LFB126:
 599              		.loc 1 196 0
 600              		.cfi_startproc
 601              		@ args = 0, pretend = 0, frame = 0
 602              		@ frame_needed = 0, uses_anonymous_args = 0
 603              	.LVL35:
 604 0000 10B5     		push	{r4, lr}
 605              	.LCFI6:
 606              		.cfi_def_cfa_offset 8
 607              		.loc 1 196 0
 608 0002 0446     		mov	r4, r0
 609              		.cfi_offset 14, -4
 610              		.cfi_offset 4, -8
 611              		.loc 1 198 0
 612 0004 0846     		mov	r0, r1
 613              	.LVL36:
 614 0006 1146     		mov	r1, r2
 615              	.LVL37:
 616 0008 FFF7FEFF 		bl	chTimeIsWithin
 617              	.LVL38:
ARM GAS  /tmp/ccFueNYe.s 			page 12


 618              	.LBB31:
 619              	.LBB32:
 620              		.loc 1 179 0
 621 000c 38B9     		cbnz	r0, .L67
 622              	.LVL39:
 623              	.LBB33:
 624              	.LBB34:
 625              		.loc 1 171 0
 626 000e 054A     		ldr	r2, .L68
 627              		.loc 1 172 0
 628 0010 0549     		ldr	r1, .L68+4
 629              		.loc 1 173 0
 630 0012 064B     		ldr	r3, .L68+8
 631              		.loc 1 171 0
 632 0014 0120     		movs	r0, #1
 633              	.LVL40:
 634 0016 1060     		str	r0, [r2, #0]
 635              		.loc 1 172 0
 636 0018 0860     		str	r0, [r1, #0]
 637              		.loc 1 173 0
 638 001a 1C60     		str	r4, [r3, #0]
 639 001c 10BD     		pop	{r4, pc}
 640              	.LVL41:
 641              	.L67:
 642              	.LBE34:
 643              	.LBE33:
 644              		.loc 1 181 0
 645 001e 0020     		movs	r0, #0
 646              	.LVL42:
 647              	.LBE32:
 648              	.LBE31:
 649              		.loc 1 199 0
 650 0020 10BD     		pop	{r4, pc}
 651              	.L69:
 652 0022 00BF     		.align	2
 653              	.L68:
 654 0024 00000000 		.word	.LANCHOR3
 655 0028 00000000 		.word	.LANCHOR4
 656 002c 00000000 		.word	.LANCHOR5
 657              		.cfi_endproc
 658              	.LFE126:
 659              		.size	_test_assert_time_window, .-_test_assert_time_window
 660              		.section	.text.test_terminate_threads,"ax",%progbits
 661              		.align	2
 662              		.p2align 4,,15
 663              		.global	test_terminate_threads
 664              		.thumb
 665              		.thumb_func
 666              		.type	test_terminate_threads, %function
 667              	test_terminate_threads:
 668              	.LFB127:
 669              		.loc 1 208 0
 670              		.cfi_startproc
 671              		@ args = 0, pretend = 0, frame = 0
 672              		@ frame_needed = 0, uses_anonymous_args = 0
 673              	.LVL43:
 674 0000 10B5     		push	{r4, lr}
ARM GAS  /tmp/ccFueNYe.s 			page 13


 675              	.LCFI7:
 676              		.cfi_def_cfa_offset 8
 677              		.loc 1 212 0
 678 0002 0C4C     		ldr	r4, .L76
 679              		.cfi_offset 14, -4
 680              		.cfi_offset 4, -8
 681 0004 2068     		ldr	r0, [r4, #0]
 682 0006 08B1     		cbz	r0, .L71
 683              		.loc 1 213 0
 684 0008 FFF7FEFF 		bl	chThdTerminate
 685              	.L71:
 686              	.LVL44:
 687              		.loc 1 212 0
 688 000c 6068     		ldr	r0, [r4, #4]
 689 000e 08B1     		cbz	r0, .L72
 690              		.loc 1 213 0
 691 0010 FFF7FEFF 		bl	chThdTerminate
 692              	.L72:
 693              	.LVL45:
 694              		.loc 1 212 0
 695 0014 A068     		ldr	r0, [r4, #8]
 696 0016 08B1     		cbz	r0, .L73
 697              		.loc 1 213 0
 698 0018 FFF7FEFF 		bl	chThdTerminate
 699              	.L73:
 700              	.LVL46:
 701              		.loc 1 212 0
 702 001c E068     		ldr	r0, [r4, #12]
 703 001e 08B1     		cbz	r0, .L74
 704              		.loc 1 213 0
 705 0020 FFF7FEFF 		bl	chThdTerminate
 706              	.L74:
 707              	.LVL47:
 708              		.loc 1 212 0
 709 0024 2069     		ldr	r0, [r4, #16]
 710 0026 18B1     		cbz	r0, .L70
 711              		.loc 1 214 0
 712 0028 BDE81040 		pop	{r4, lr}
 713              		.loc 1 213 0
 714 002c FFF7FEBF 		b	chThdTerminate
 715              	.L70:
 716 0030 10BD     		pop	{r4, pc}
 717              	.L77:
 718 0032 00BF     		.align	2
 719              	.L76:
 720 0034 00000000 		.word	.LANCHOR7
 721              		.cfi_endproc
 722              	.LFE127:
 723              		.size	test_terminate_threads, .-test_terminate_threads
 724 0038 AFF30080 		.section	.text.test_wait_threads,"ax",%progbits
 724      AFF30080 
 725              		.align	2
 726              		.p2align 4,,15
 727              		.global	test_wait_threads
 728              		.thumb
 729              		.thumb_func
 730              		.type	test_wait_threads, %function
ARM GAS  /tmp/ccFueNYe.s 			page 14


 731              	test_wait_threads:
 732              	.LFB128:
 733              		.loc 1 219 0
 734              		.cfi_startproc
 735              		@ args = 0, pretend = 0, frame = 0
 736              		@ frame_needed = 0, uses_anonymous_args = 0
 737              	.LVL48:
 738 0000 10B5     		push	{r4, lr}
 739              	.LCFI8:
 740              		.cfi_def_cfa_offset 8
 741              		.loc 1 223 0
 742 0002 124C     		ldr	r4, .L84
 743              		.cfi_offset 14, -4
 744              		.cfi_offset 4, -8
 745 0004 2068     		ldr	r0, [r4, #0]
 746 0006 18B1     		cbz	r0, .L79
 747              		.loc 1 224 0
 748 0008 FFF7FEFF 		bl	chThdWait
 749              		.loc 1 225 0
 750 000c 0023     		movs	r3, #0
 751 000e 2360     		str	r3, [r4, #0]
 752              	.L79:
 753              	.LVL49:
 754              		.loc 1 223 0
 755 0010 6068     		ldr	r0, [r4, #4]
 756 0012 20B1     		cbz	r0, .L80
 757              		.loc 1 224 0
 758 0014 FFF7FEFF 		bl	chThdWait
 759              		.loc 1 225 0
 760 0018 0C48     		ldr	r0, .L84
 761 001a 0022     		movs	r2, #0
 762 001c 4260     		str	r2, [r0, #4]
 763              	.L80:
 764              	.LVL50:
 765              		.loc 1 223 0
 766 001e A068     		ldr	r0, [r4, #8]
 767 0020 20B1     		cbz	r0, .L81
 768              		.loc 1 224 0
 769 0022 FFF7FEFF 		bl	chThdWait
 770              		.loc 1 225 0
 771 0026 094B     		ldr	r3, .L84
 772 0028 0021     		movs	r1, #0
 773 002a 9960     		str	r1, [r3, #8]
 774              	.L81:
 775              	.LVL51:
 776              		.loc 1 223 0
 777 002c E068     		ldr	r0, [r4, #12]
 778 002e 20B1     		cbz	r0, .L82
 779              		.loc 1 224 0
 780 0030 FFF7FEFF 		bl	chThdWait
 781              		.loc 1 225 0
 782 0034 0548     		ldr	r0, .L84
 783 0036 0022     		movs	r2, #0
 784 0038 C260     		str	r2, [r0, #12]
 785              	.L82:
 786              	.LVL52:
 787              		.loc 1 223 0
ARM GAS  /tmp/ccFueNYe.s 			page 15


 788 003a 2069     		ldr	r0, [r4, #16]
 789 003c 20B1     		cbz	r0, .L78
 790              		.loc 1 224 0
 791 003e FFF7FEFF 		bl	chThdWait
 792              		.loc 1 225 0
 793 0042 024B     		ldr	r3, .L84
 794 0044 0021     		movs	r1, #0
 795 0046 1961     		str	r1, [r3, #16]
 796              	.LVL53:
 797              	.L78:
 798 0048 10BD     		pop	{r4, pc}
 799              	.L85:
 800 004a 00BF     		.align	2
 801              	.L84:
 802 004c 00000000 		.word	.LANCHOR7
 803              		.cfi_endproc
 804              	.LFE128:
 805              		.size	test_wait_threads, .-test_wait_threads
 806              		.section	.text.test_cpu_pulse,"ax",%progbits
 807              		.align	2
 808              		.p2align 4,,15
 809              		.global	test_cpu_pulse
 810              		.thumb
 811              		.thumb_func
 812              		.type	test_cpu_pulse, %function
 813              	test_cpu_pulse:
 814              	.LFB129:
 815              		.loc 1 236 0
 816              		.cfi_startproc
 817              		@ args = 0, pretend = 0, frame = 0
 818              		@ frame_needed = 0, uses_anonymous_args = 0
 819              		@ link register save eliminated.
 820              	.LVL54:
 821              		.loc 1 239 0
 822 0000 0F4B     		ldr	r3, .L98
 823 0002 DA69     		ldr	r2, [r3, #28]
 824              		.loc 1 236 0
 825 0004 30B4     		push	{r4, r5}
 826              	.LCFI9:
 827              		.cfi_def_cfa_offset 8
 828              		.loc 1 240 0
 829 0006 4FF47A75 		mov	r5, #1000
 830              		.cfi_offset 5, -4
 831              		.cfi_offset 4, -8
 832 000a 05FB00F4 		mul	r4, r5, r0
 833              		.loc 1 239 0
 834 000e 136A     		ldr	r3, [r2, #32]
 835              	.LVL55:
 836              		.loc 1 240 0
 837 0010 0C4D     		ldr	r5, .L98+4
 838 0012 A4F57A71 		sub	r1, r4, #1000
 839 0016 A5FB0110 		umull	r1, r0, r5, r1
 840              	.LVL56:
 841 001a 5C1C     		adds	r4, r3, #1
 842 001c 04EB9010 		add	r0, r4, r0, lsr #6
 843              	.LVL57:
 844              	.L96:
ARM GAS  /tmp/ccFueNYe.s 			page 16


 845              		.loc 1 247 0
 846 0020 8342     		cmp	r3, r0
 847              		.loc 1 242 0
 848 0022 116A     		ldr	r1, [r2, #32]
 849              	.LVL58:
 850              		.loc 1 247 0
 851 0024 03D2     		bcs	.L87
 852              		.loc 1 247 0 is_stmt 0 discriminator 1
 853 0026 8B42     		cmp	r3, r1
 854 0028 03D9     		bls	.L97
 855              	.LVL59:
 856              	.L95:
 857              		.loc 1 249 0 is_stmt 1
 858 002a 30BC     		pop	{r4, r5}
 859 002c 7047     		bx	lr
 860              	.LVL60:
 861              	.L87:
 862              		.loc 1 247 0 discriminator 2
 863 002e 8B42     		cmp	r3, r1
 864 0030 F6D9     		bls	.L96
 865              	.L97:
 866              		.loc 1 247 0 is_stmt 0
 867 0032 8842     		cmp	r0, r1
 868 0034 94BF     		ite	ls
 869 0036 0021     		movls	r1, #0
 870              	.LVL61:
 871 0038 0121     		movhi	r1, #1
 872              		.loc 1 248 0 is_stmt 1
 873 003a 0029     		cmp	r1, #0
 874 003c F0D1     		bne	.L96
 875 003e F4E7     		b	.L95
 876              	.L99:
 877              		.align	2
 878              	.L98:
 879 0040 00000000 		.word	rlist
 880 0044 D34D6210 		.word	274877907
 881              		.cfi_endproc
 882              	.LFE129:
 883              		.size	test_cpu_pulse, .-test_cpu_pulse
 884 0048 AFF30080 		.section	.text.test_wait_tick,"ax",%progbits
 884      AFF30080 
 885              		.align	2
 886              		.p2align 4,,15
 887              		.global	test_wait_tick
 888              		.thumb
 889              		.thumb_func
 890              		.type	test_wait_tick, %function
 891              	test_wait_tick:
 892              	.LFB130:
 893              		.loc 1 257 0
 894              		.cfi_startproc
 895              		@ args = 0, pretend = 0, frame = 0
 896              		@ frame_needed = 0, uses_anonymous_args = 0
 897 0000 08B5     		push	{r3, lr}
 898              	.LCFI10:
 899              		.cfi_def_cfa_offset 8
 900              		.loc 1 259 0
ARM GAS  /tmp/ccFueNYe.s 			page 17


 901 0002 0120     		movs	r0, #1
 902              		.cfi_offset 14, -4
 903              		.cfi_offset 3, -8
 904 0004 FFF7FEFF 		bl	chThdSleep
 905              		.loc 1 260 0
 906 0008 014B     		ldr	r3, .L101
 907 000a D868     		ldr	r0, [r3, #12]
 908              		.loc 1 261 0
 909 000c 08BD     		pop	{r3, pc}
 910              	.L102:
 911 000e 00BF     		.align	2
 912              	.L101:
 913 0010 00000000 		.word	vtlist
 914              		.cfi_endproc
 915              	.LFE130:
 916              		.size	test_wait_tick, .-test_wait_tick
 917 0014 AFF30080 		.section	.text.test_start_timer,"ax",%progbits
 917      AFF30080 
 917      AFF30080 
 918              		.align	2
 919              		.p2align 4,,15
 920              		.global	test_start_timer
 921              		.thumb
 922              		.thumb_func
 923              		.type	test_start_timer, %function
 924              	test_start_timer:
 925              	.LFB132:
 926              		.loc 1 284 0
 927              		.cfi_startproc
 928              		@ args = 0, pretend = 0, frame = 0
 929              		@ frame_needed = 0, uses_anonymous_args = 0
 930              	.LVL62:
 931 0000 38B5     		push	{r3, r4, r5, lr}
 932              	.LCFI11:
 933              		.cfi_def_cfa_offset 16
 934              		.loc 1 287 0
 935 0002 0D4B     		ldr	r3, .L104
 936              		.cfi_offset 14, -4
 937              		.cfi_offset 5, -8
 938              		.cfi_offset 4, -12
 939              		.cfi_offset 3, -16
 940 0004 0024     		movs	r4, #0
 941 0006 1C60     		str	r4, [r3, #0]
 942              	.LVL63:
 943              	.LBB35:
 944              		.loc 1 288 0
 945 0008 2023     		movs	r3, #32
 946              	.LVL64:
 947              	@ 288 "../libs/ChibiOS_2.4.0/test/test.c" 1
 948 000a 83F31188 		msr     BASEPRI, r3
 949              	@ 0 "" 2
 950              	.LVL65:
 951              		.thumb
 952              	.LBE35:
 953              		.loc 1 286 0
 954 000e 4FF47A72 		mov	r2, #1000
 955 0012 02FB00FC 		mul	ip, r2, r0
ARM GAS  /tmp/ccFueNYe.s 			page 18


 956 0016 0949     		ldr	r1, .L104+4
 957              		.loc 1 289 0
 958 0018 0948     		ldr	r0, .L104+8
 959              	.LVL66:
 960 001a 0A4A     		ldr	r2, .L104+12
 961              		.loc 1 286 0
 962 001c ACF57A75 		sub	r5, ip, #1000
 963 0020 A1FB0553 		umull	r5, r3, r1, r5
 964              	.LVL67:
 965 0024 9909     		lsrs	r1, r3, #6
 966              		.loc 1 289 0
 967 0026 0131     		adds	r1, r1, #1
 968 0028 2346     		mov	r3, r4
 969 002a FFF7FEFF 		bl	chVTSetI
 970              	.LBB36:
 971              		.loc 1 290 0
 972 002e 2346     		mov	r3, r4
 973              	.LVL68:
 974              	@ 290 "../libs/ChibiOS_2.4.0/test/test.c" 1
 975 0030 83F31188 		msr     BASEPRI, r3
 976              	@ 0 "" 2
 977              	.LVL69:
 978              		.thumb
 979              	.LBE36:
 980              		.loc 1 291 0
 981 0034 38BD     		pop	{r3, r4, r5, pc}
 982              	.L105:
 983 0036 00BF     		.align	2
 984              	.L104:
 985 0038 00000000 		.word	.LANCHOR0
 986 003c D34D6210 		.word	274877907
 987 0040 00000000 		.word	.LANCHOR8
 988 0044 00000000 		.word	tmr
 989              		.cfi_endproc
 990              	.LFE132:
 991              		.size	test_start_timer, .-test_start_timer
 992 0048 AFF30080 		.section	.text.TestThread,"ax",%progbits
 992      AFF30080 
 993              		.align	2
 994              		.p2align 4,,15
 995              		.global	TestThread
 996              		.thumb
 997              		.thumb_func
 998              		.type	TestThread, %function
 999              	TestThread:
 1000              	.LFB135:
 1001              		.loc 1 329 0
 1002              		.cfi_startproc
 1003              		@ args = 0, pretend = 0, frame = 8
 1004              		@ frame_needed = 0, uses_anonymous_args = 0
 1005              	.LVL70:
 1006 0000 2DE9F04F 		push	{r4, r5, r6, r7, r8, r9, sl, fp, lr}
 1007              	.LCFI12:
 1008              		.cfi_def_cfa_offset 36
 1009              		.loc 1 332 0
 1010 0004 6B4F     		ldr	r7, .L123
 1011              		.cfi_offset 14, -4
ARM GAS  /tmp/ccFueNYe.s 			page 19


 1012              		.cfi_offset 11, -8
 1013              		.cfi_offset 10, -12
 1014              		.cfi_offset 9, -16
 1015              		.cfi_offset 8, -20
 1016              		.cfi_offset 7, -24
 1017              		.cfi_offset 6, -28
 1018              		.cfi_offset 5, -32
 1019              		.cfi_offset 4, -36
 1020              		.loc 1 364 0
 1021 0006 6C4C     		ldr	r4, .L123+4
 1022              		.loc 1 332 0
 1023 0008 3860     		str	r0, [r7, #0]
 1024              		.loc 1 329 0
 1025 000a 83B0     		sub	sp, sp, #12
 1026              	.LCFI13:
 1027              		.cfi_def_cfa_offset 48
 1028              		.loc 1 333 0
 1029 000c 6B48     		ldr	r0, .L123+8
 1030              	.LVL71:
 1031              		.loc 1 364 0
 1032 000e DFF834B2 		ldr	fp, .L123+144
 1033              	.LBB37:
 1034              	.LBB38:
 1035              	.LBB39:
 1036              	.LBB40:
 1037              		.loc 1 144 0
 1038 0012 6B4D     		ldr	r5, .L123+12
 1039 0014 DFF814A2 		ldr	sl, .L123+120
 1040              	.LBE40:
 1041              	.LBE39:
 1042              		.loc 1 301 0
 1043 0018 DFF82C92 		ldr	r9, .L123+148
 1044              		.loc 1 303 0
 1045 001c DFF82C82 		ldr	r8, .L123+152
 1046              	.LBE38:
 1047              	.LBE37:
 1048              		.loc 1 333 0
 1049 0020 FFF7FEFF 		bl	test_println
 1050              	.LVL72:
 1051              		.loc 1 334 0
 1052 0024 6748     		ldr	r0, .L123+16
 1053 0026 FFF7FEFF 		bl	test_println
 1054              		.loc 1 335 0
 1055 002a 6748     		ldr	r0, .L123+20
 1056 002c FFF7FEFF 		bl	test_println
 1057              		.loc 1 336 0
 1058 0030 6648     		ldr	r0, .L123+24
 1059 0032 FFF7FEFF 		bl	test_print
 1060              		.loc 1 337 0
 1061 0036 6648     		ldr	r0, .L123+28
 1062 0038 FFF7FEFF 		bl	test_println
 1063              		.loc 1 338 0
 1064 003c 6548     		ldr	r0, .L123+32
 1065 003e FFF7FEFF 		bl	test_print
 1066              		.loc 1 339 0
 1067 0042 6548     		ldr	r0, .L123+36
 1068 0044 FFF7FEFF 		bl	test_println
ARM GAS  /tmp/ccFueNYe.s 			page 20


 1069              		.loc 1 341 0
 1070 0048 6448     		ldr	r0, .L123+40
 1071 004a FFF7FEFF 		bl	test_print
 1072              		.loc 1 342 0
 1073 004e 6448     		ldr	r0, .L123+44
 1074 0050 FFF7FEFF 		bl	test_println
 1075              		.loc 1 344 0
 1076 0054 6348     		ldr	r0, .L123+48
 1077 0056 FFF7FEFF 		bl	test_print
 1078              		.loc 1 345 0
 1079 005a 6348     		ldr	r0, .L123+52
 1080 005c FFF7FEFF 		bl	test_println
 1081              		.loc 1 347 0
 1082 0060 6248     		ldr	r0, .L123+56
 1083 0062 FFF7FEFF 		bl	test_print
 1084              		.loc 1 348 0
 1085 0066 6248     		ldr	r0, .L123+60
 1086 0068 FFF7FEFF 		bl	test_println
 1087              		.loc 1 351 0
 1088 006c 6148     		ldr	r0, .L123+64
 1089 006e FFF7FEFF 		bl	test_print
 1090              		.loc 1 352 0
 1091 0072 6148     		ldr	r0, .L123+68
 1092 0074 FFF7FEFF 		bl	test_println
 1093              		.loc 1 355 0
 1094 0078 6048     		ldr	r0, .L123+72
 1095 007a FFF7FEFF 		bl	test_print
 1096              		.loc 1 356 0
 1097 007e 6048     		ldr	r0, .L123+76
 1098 0080 FFF7FEFF 		bl	test_println
 1099              		.loc 1 359 0
 1100 0084 5F48     		ldr	r0, .L123+80
 1101 0086 FFF7FEFF 		bl	test_print
 1102              		.loc 1 360 0
 1103 008a 5F48     		ldr	r0, .L123+84
 1104 008c FFF7FEFF 		bl	test_println
 1105              		.loc 1 362 0
 1106 0090 4A48     		ldr	r0, .L123+8
 1107 0092 FFF7FEFF 		bl	test_println
 1108              		.loc 1 364 0
 1109 0096 5D4A     		ldr	r2, .L123+88
 1110 0098 0023     		movs	r3, #0
 1111 009a 1360     		str	r3, [r2, #0]
 1112              	.LVL73:
 1113              		.loc 1 365 0
 1114 009c 0193     		str	r3, [sp, #4]
 1115              	.LVL74:
 1116              	.L107:
 1117              		.loc 1 366 0 discriminator 1
 1118 009e 0199     		ldr	r1, [sp, #4]
 1119 00a0 4E1C     		adds	r6, r1, #1
 1120 00a2 0196     		str	r6, [sp, #4]
 1121              		.loc 1 329 0 discriminator 1
 1122 00a4 0026     		movs	r6, #0
 1123              	.LVL75:
 1124              		.loc 1 368 0 discriminator 1
 1125 00a6 B300     		lsls	r3, r6, #2
ARM GAS  /tmp/ccFueNYe.s 			page 21


 1126 00a8 54F82600 		ldr	r0, [r4, r6, lsl #2]
 1127 00ac 0028     		cmp	r0, #0
 1128 00ae 5FD0     		beq	.L120
 1129              	.LVL76:
 1130              	.L114:
 1131              		.loc 1 369 0
 1132 00b0 0093     		str	r3, [sp, #0]
 1133 00b2 FFF7FEFF 		bl	print_line
 1134              		.loc 1 370 0
 1135 00b6 5648     		ldr	r0, .L123+92
 1136 00b8 FFF7FEFF 		bl	test_print
 1137              		.loc 1 371 0
 1138 00bc 0198     		ldr	r0, [sp, #4]
 1139 00be FFF7FEFF 		bl	test_printn
 1140              		.loc 1 373 0
 1141 00c2 0136     		adds	r6, r6, #1
 1142              	.LVL77:
 1143              		.loc 1 372 0
 1144 00c4 5348     		ldr	r0, .L123+96
 1145 00c6 FFF7FEFF 		bl	test_print
 1146              		.loc 1 373 0
 1147 00ca 3046     		mov	r0, r6
 1148 00cc FFF7FEFF 		bl	test_printn
 1149              		.loc 1 374 0
 1150 00d0 5148     		ldr	r0, .L123+100
 1151 00d2 FFF7FEFF 		bl	test_print
 1152              		.loc 1 375 0
 1153 00d6 009A     		ldr	r2, [sp, #0]
 1154 00d8 A358     		ldr	r3, [r4, r2]
 1155 00da 1868     		ldr	r0, [r3, #0]
 1156 00dc FFF7FEFF 		bl	test_print
 1157              		.loc 1 376 0
 1158 00e0 4E48     		ldr	r0, .L123+104
 1159 00e2 FFF7FEFF 		bl	test_println
 1160              		.loc 1 378 0
 1161 00e6 C820     		movs	r0, #200
 1162 00e8 FFF7FEFF 		bl	chThdSleep
 1163              		.loc 1 380 0
 1164 00ec 0099     		ldr	r1, [sp, #0]
 1165 00ee 6458     		ldr	r4, [r4, r1]
 1166              	.LVL78:
 1167              	.LBB44:
 1168              	.LBB43:
 1169              	.LBB42:
 1170              	.LBB41:
 1171              		.loc 1 144 0
 1172 00f0 C5F800A0 		str	sl, [r5, #0]
 1173              	.LBE41:
 1174              	.LBE42:
 1175              		.loc 1 305 0
 1176 00f4 6368     		ldr	r3, [r4, #4]
 1177              		.loc 1 301 0
 1178 00f6 0020     		movs	r0, #0
 1179 00f8 C9F80000 		str	r0, [r9, #0]
 1180              	.LVL79:
 1181              		.loc 1 303 0
 1182 00fc C8F80000 		str	r0, [r8, #0]
ARM GAS  /tmp/ccFueNYe.s 			page 22


 1183              	.LVL80:
 1184 0100 C8F80400 		str	r0, [r8, #4]
 1185              	.LVL81:
 1186 0104 C8F80800 		str	r0, [r8, #8]
 1187              	.LVL82:
 1188 0108 C8F80C00 		str	r0, [r8, #12]
 1189              	.LVL83:
 1190 010c C8F81000 		str	r0, [r8, #16]
 1191              	.LVL84:
 1192              		.loc 1 305 0
 1193 0110 03B1     		cbz	r3, .L108
 1194              		.loc 1 306 0
 1195 0112 9847     		blx	r3
 1196              	.L108:
 1197              		.loc 1 307 0
 1198 0114 E068     		ldr	r0, [r4, #12]
 1199 0116 8047     		blx	r0
 1200              		.loc 1 308 0
 1201 0118 A368     		ldr	r3, [r4, #8]
 1202 011a 03B1     		cbz	r3, .L109
 1203              		.loc 1 309 0
 1204 011c 9847     		blx	r3
 1205              	.L109:
 1206              		.loc 1 311 0
 1207 011e FFF7FEFF 		bl	test_wait_threads
 1208              	.LBE43:
 1209              	.LBE44:
 1210              		.loc 1 381 0
 1211 0122 D9F80040 		ldr	r4, [r9, #0]
 1212              	.LVL85:
 1213 0126 002C     		cmp	r4, #0
 1214 0128 39D0     		beq	.L110
 1215              		.loc 1 382 0
 1216 012a 3D48     		ldr	r0, .L123+108
 1217 012c FFF7FEFF 		bl	test_print
 1218              		.loc 1 383 0
 1219 0130 3C4B     		ldr	r3, .L123+112
 1220 0132 1868     		ldr	r0, [r3, #0]
 1221 0134 FFF7FEFF 		bl	test_printn
 1222              		.loc 1 384 0
 1223 0138 3B48     		ldr	r0, .L123+116
 1224 013a FFF7FEFF 		bl	test_print
 1225              	.LVL86:
 1226              	.LBB45:
 1227              	.LBB46:
 1228              		.loc 1 150 0
 1229 013e 2968     		ldr	r1, [r5, #0]
 1230 0140 5145     		cmp	r1, sl
 1231 0142 0BD9     		bls	.L111
 1232 0144 394C     		ldr	r4, .L123+120
 1233              	.LVL87:
 1234              	.L112:
 1235              		.loc 1 151 0
 1236 0146 3868     		ldr	r0, [r7, #0]
 1237 0148 14F8011B 		ldrb	r1, [r4], #1	@ zero_extendqisi2
 1238              	.LVL88:
 1239 014c 0268     		ldr	r2, [r0, #0]
ARM GAS  /tmp/ccFueNYe.s 			page 23


 1240 014e 1369     		ldr	r3, [r2, #16]
 1241 0150 4FF0FF32 		mov	r2, #-1
 1242 0154 9847     		blx	r3
 1243              	.LVL89:
 1244              		.loc 1 150 0
 1245 0156 2A68     		ldr	r2, [r5, #0]
 1246 0158 A242     		cmp	r2, r4
 1247 015a F4D8     		bhi	.L112
 1248              	.LVL90:
 1249              	.L111:
 1250              	.LBE46:
 1251              	.LBE45:
 1252              		.loc 1 386 0
 1253 015c 3448     		ldr	r0, .L123+124
 1254 015e FFF7FEFF 		bl	test_println
 1255              	.LVL91:
 1256              		.loc 1 389 0
 1257 0162 5BF8044C 		ldr	r4, [fp, #-4]
 1258              	.L122:
 1259              		.loc 1 368 0
 1260 0166 54F82600 		ldr	r0, [r4, r6, lsl #2]
 1261 016a B300     		lsls	r3, r6, #2
 1262 016c 0028     		cmp	r0, #0
 1263 016e 9FD1     		bne	.L114
 1264              	.LVL92:
 1265              	.L120:
 1266              		.loc 1 366 0
 1267 0170 5BF8044B 		ldr	r4, [fp], #4
 1268 0174 002C     		cmp	r4, #0
 1269 0176 92D1     		bne	.L107
 1270              		.loc 1 394 0
 1271 0178 FFF7FEFF 		bl	print_line
 1272              		.loc 1 395 0
 1273 017c 0F48     		ldr	r0, .L123+8
 1274 017e FFF7FEFF 		bl	test_println
 1275              		.loc 1 396 0
 1276 0182 2C48     		ldr	r0, .L123+128
 1277 0184 FFF7FEFF 		bl	test_print
 1278              		.loc 1 397 0
 1279 0188 204A     		ldr	r2, .L123+88
 1280 018a 1368     		ldr	r3, [r2, #0]
 1281 018c 6BB9     		cbnz	r3, .L121
 1282              		.loc 1 400 0
 1283 018e 2A48     		ldr	r0, .L123+132
 1284 0190 FFF7FEFF 		bl	test_println
 1285              	.L118:
 1286              		.loc 1 403 0
 1287 0194 1D48     		ldr	r0, .L123+88
 1288 0196 0068     		ldr	r0, [r0, #0]
 1289 0198 03B0     		add	sp, sp, #12
 1290 019a BDE8F08F 		pop	{r4, r5, r6, r7, r8, r9, sl, fp, pc}
 1291              	.LVL93:
 1292              	.L110:
 1293              		.loc 1 389 0
 1294 019e 2748     		ldr	r0, .L123+136
 1295 01a0 FFF7FEFF 		bl	test_println
 1296              	.LVL94:
ARM GAS  /tmp/ccFueNYe.s 			page 24


 1297 01a4 5BF8044C 		ldr	r4, [fp, #-4]
 1298 01a8 DDE7     		b	.L122
 1299              	.LVL95:
 1300              	.L121:
 1301              		.loc 1 398 0
 1302 01aa 2548     		ldr	r0, .L123+140
 1303 01ac FFF7FEFF 		bl	test_println
 1304 01b0 F0E7     		b	.L118
 1305              	.L124:
 1306 01b2 00BF     		.align	2
 1307              	.L123:
 1308 01b4 00000000 		.word	.LANCHOR1
 1309 01b8 00000000 		.word	patternthd
 1310 01bc 00000000 		.word	.LC0
 1311 01c0 00000000 		.word	.LANCHOR2
 1312 01c4 04000000 		.word	.LC1
 1313 01c8 20000000 		.word	.LC2
 1314 01cc 24000000 		.word	.LC3
 1315 01d0 38000000 		.word	.LC4
 1316 01d4 40000000 		.word	.LC5
 1317 01d8 54000000 		.word	.LC6
 1318 01dc 6C000000 		.word	.LC7
 1319 01e0 80000000 		.word	.LC8
 1320 01e4 8C000000 		.word	.LC9
 1321 01e8 A0000000 		.word	.LC10
 1322 01ec AC000000 		.word	.LC11
 1323 01f0 C0000000 		.word	.LC12
 1324 01f4 CC000000 		.word	.LC13
 1325 01f8 E0000000 		.word	.LC14
 1326 01fc F8000000 		.word	.LC15
 1327 0200 0C010000 		.word	.LC16
 1328 0204 2C010000 		.word	.LC17
 1329 0208 40010000 		.word	.LC18
 1330 020c 00000000 		.word	.LANCHOR4
 1331 0210 58010000 		.word	.LC19
 1332 0214 68010000 		.word	.LC20
 1333 0218 6C010000 		.word	.LC21
 1334 021c 70010000 		.word	.LC22
 1335 0220 74010000 		.word	.LC23
 1336 0224 00000000 		.word	.LANCHOR5
 1337 0228 8C010000 		.word	.LC24
 1338 022c 00000000 		.word	.LANCHOR6
 1339 0230 90010000 		.word	.LC25
 1340 0234 A8010000 		.word	.LC27
 1341 0238 C0010000 		.word	.LC29
 1342 023c 94010000 		.word	.LC26
 1343 0240 B8010000 		.word	.LC28
 1344 0244 04000000 		.word	.LANCHOR9+4
 1345 0248 00000000 		.word	.LANCHOR3
 1346 024c 00000000 		.word	.LANCHOR7
 1347              		.cfi_endproc
 1348              	.LFE135:
 1349              		.size	TestThread, .-TestThread
 1350              		.global	wa
 1351              		.global	threads
 1352              		.global	test
 1353              		.global	test_timer_done
ARM GAS  /tmp/ccFueNYe.s 			page 25


 1354              		.section	.bss.test,"aw",%nobits
 1355              		.align	3
 1356              		.type	test, %object
 1357              		.size	test, 1440
 1358              	test:
 1359 0000 00000000 		.space	1440
 1359      00000000 
 1359      00000000 
 1359      00000000 
 1359      00000000 
 1360              		.section	.bss.failpoint,"aw",%nobits
 1361              		.align	2
 1362              		.set	.LANCHOR5,. + 0
 1363              		.type	failpoint, %object
 1364              		.size	failpoint, 4
 1365              	failpoint:
 1366 0000 00000000 		.space	4
 1367              		.section	.bss.local_fail,"aw",%nobits
 1368              		.align	2
 1369              		.set	.LANCHOR3,. + 0
 1370              		.type	local_fail, %object
 1371              		.size	local_fail, 4
 1372              	local_fail:
 1373 0000 00000000 		.space	4
 1374              		.section	.bss.test_timer_done,"aw",%nobits
 1375              		.align	2
 1376              		.set	.LANCHOR0,. + 0
 1377              		.type	test_timer_done, %object
 1378              		.size	test_timer_done, 4
 1379              	test_timer_done:
 1380 0000 00000000 		.space	4
 1381              		.section	.rodata.wa,"a",%progbits
 1382              		.align	2
 1383              		.type	wa, %object
 1384              		.size	wa, 20
 1385              	wa:
 1386 0000 00000000 		.word	test
 1387 0004 20010000 		.word	test+288
 1388 0008 40020000 		.word	test+576
 1389 000c 60030000 		.word	test+864
 1390 0010 80040000 		.word	test+1152
 1391              		.section	.bss.tokp,"aw",%nobits
 1392              		.align	2
 1393              		.set	.LANCHOR2,. + 0
 1394              		.type	tokp, %object
 1395              		.size	tokp, 4
 1396              	tokp:
 1397 0000 00000000 		.space	4
 1398              		.section	.bss.global_fail,"aw",%nobits
 1399              		.align	2
 1400              		.set	.LANCHOR4,. + 0
 1401              		.type	global_fail, %object
 1402              		.size	global_fail, 4
 1403              	global_fail:
 1404 0000 00000000 		.space	4
 1405              		.section	.rodata.str1.4,"aMS",%progbits,1
 1406              		.align	2
ARM GAS  /tmp/ccFueNYe.s 			page 26


 1407              	.LC0:
 1408 0000 00       		.ascii	"\000"
 1409 0001 000000   		.space	3
 1410              	.LC1:
 1411 0004 2A2A2A20 		.ascii	"*** ChibiOS/RT test suite\000"
 1411      43686962 
 1411      694F532F 
 1411      52542074 
 1411      65737420 
 1412 001e 0000     		.space	2
 1413              	.LC2:
 1414 0020 2A2A2A00 		.ascii	"***\000"
 1415              	.LC3:
 1416 0024 2A2A2A20 		.ascii	"*** Kernel:       \000"
 1416      4B65726E 
 1416      656C3A20 
 1416      20202020 
 1416      202000
 1417 0037 00       		.space	1
 1418              	.LC4:
 1419 0038 322E342E 		.ascii	"2.4.0\000"
 1419      3000
 1420 003e 0000     		.space	2
 1421              	.LC5:
 1422 0040 2A2A2A20 		.ascii	"*** Compiled:     \000"
 1422      436F6D70 
 1422      696C6564 
 1422      3A202020 
 1422      202000
 1423 0053 00       		.space	1
 1424              	.LC6:
 1425 0054 4D617920 		.ascii	"May 28 2012 - 19:22:51\000"
 1425      32382032 
 1425      30313220 
 1425      2D203139 
 1425      3A32323A 
 1426 006b 00       		.space	1
 1427              	.LC7:
 1428 006c 2A2A2A20 		.ascii	"*** Compiler:     \000"
 1428      436F6D70 
 1428      696C6572 
 1428      3A202020 
 1428      202000
 1429 007f 00       		.space	1
 1430              	.LC8:
 1431 0080 47434320 		.ascii	"GCC 4.5.2\000"
 1431      342E352E 
 1431      3200
 1432 008a 0000     		.space	2
 1433              	.LC9:
 1434 008c 2A2A2A20 		.ascii	"*** Architecture: \000"
 1434      41726368 
 1434      69746563 
 1434      74757265 
 1434      3A2000
 1435 009f 00       		.space	1
 1436              	.LC10:
ARM GAS  /tmp/ccFueNYe.s 			page 27


 1437 00a0 41524D76 		.ascii	"ARMv7-ME\000"
 1437      372D4D45 
 1437      00
 1438 00a9 000000   		.space	3
 1439              	.LC11:
 1440 00ac 2A2A2A20 		.ascii	"*** Core Variant: \000"
 1440      436F7265 
 1440      20566172 
 1440      69616E74 
 1440      3A2000
 1441 00bf 00       		.space	1
 1442              	.LC12:
 1443 00c0 436F7274 		.ascii	"Cortex-M4\000"
 1443      65782D4D 
 1443      3400
 1444 00ca 0000     		.space	2
 1445              	.LC13:
 1446 00cc 2A2A2A20 		.ascii	"*** Port Info:    \000"
 1446      506F7274 
 1446      20496E66 
 1446      6F3A2020 
 1446      202000
 1447 00df 00       		.space	1
 1448              	.LC14:
 1449 00e0 41647661 		.ascii	"Advanced kernel mode\000"
 1449      6E636564 
 1449      206B6572 
 1449      6E656C20 
 1449      6D6F6465 
 1450 00f5 000000   		.space	3
 1451              	.LC15:
 1452 00f8 2A2A2A20 		.ascii	"*** Platform:     \000"
 1452      506C6174 
 1452      666F726D 
 1452      3A202020 
 1452      202000
 1453 010b 00       		.space	1
 1454              	.LC16:
 1455 010c 53544D33 		.ascii	"STM32F4 High Performance & DSP\000"
 1455      32463420 
 1455      48696768 
 1455      20506572 
 1455      666F726D 
 1456 012b 00       		.space	1
 1457              	.LC17:
 1458 012c 2A2A2A20 		.ascii	"*** Test Board:   \000"
 1458      54657374 
 1458      20426F61 
 1458      72643A20 
 1458      202000
 1459 013f 00       		.space	1
 1460              	.LC18:
 1461 0140 53542053 		.ascii	"ST STM32F4-Discovery\000"
 1461      544D3332 
 1461      46342D44 
 1461      6973636F 
 1461      76657279 
ARM GAS  /tmp/ccFueNYe.s 			page 28


 1462 0155 000000   		.space	3
 1463              	.LC19:
 1464 0158 2D2D2D20 		.ascii	"--- Test Case \000"
 1464      54657374 
 1464      20436173 
 1464      652000
 1465 0167 00       		.space	1
 1466              	.LC20:
 1467 0168 2E00     		.ascii	".\000"
 1468 016a 0000     		.space	2
 1469              	.LC21:
 1470 016c 202800   		.ascii	" (\000"
 1471 016f 00       		.space	1
 1472              	.LC22:
 1473 0170 2900     		.ascii	")\000"
 1474 0172 0000     		.space	2
 1475              	.LC23:
 1476 0174 2D2D2D20 		.ascii	"--- Result: FAILURE (#\000"
 1476      52657375 
 1476      6C743A20 
 1476      4641494C 
 1476      55524520 
 1477 018b 00       		.space	1
 1478              	.LC24:
 1479 018c 205B00   		.ascii	" [\000"
 1480 018f 00       		.space	1
 1481              	.LC25:
 1482 0190 5D2900   		.ascii	"])\000"
 1483 0193 00       		.space	1
 1484              	.LC26:
 1485 0194 2D2D2D20 		.ascii	"--- Result: SUCCESS\000"
 1485      52657375 
 1485      6C743A20 
 1485      53554343 
 1485      45535300 
 1486              	.LC27:
 1487 01a8 46696E61 		.ascii	"Final result: \000"
 1487      6C207265 
 1487      73756C74 
 1487      3A2000
 1488 01b7 00       		.space	1
 1489              	.LC28:
 1490 01b8 4641494C 		.ascii	"FAILURE\000"
 1490      55524500 
 1491              	.LC29:
 1492 01c0 53554343 		.ascii	"SUCCESS\000"
 1492      45535300 
 1493              		.section	.bss.vt,"aw",%nobits
 1494              		.align	2
 1495              		.set	.LANCHOR8,. + 0
 1496              		.type	vt, %object
 1497              		.size	vt, 20
 1498              	vt:
 1499 0000 00000000 		.space	20
 1499      00000000 
 1499      00000000 
 1499      00000000 
ARM GAS  /tmp/ccFueNYe.s 			page 29


 1499      00000000 
 1500              		.section	.bss.threads,"aw",%nobits
 1501              		.align	2
 1502              		.set	.LANCHOR7,. + 0
 1503              		.type	threads, %object
 1504              		.size	threads, 20
 1505              	threads:
 1506 0000 00000000 		.space	20
 1506      00000000 
 1506      00000000 
 1506      00000000 
 1506      00000000 
 1507              		.section	.rodata.patterns,"a",%progbits
 1508              		.align	2
 1509              		.set	.LANCHOR9,. + 0
 1510              		.type	patterns, %object
 1511              		.size	patterns, 48
 1512              	patterns:
 1513 0000 00000000 		.word	patternthd
 1514 0004 00000000 		.word	patternsem
 1515 0008 00000000 		.word	patternmtx
 1516 000c 00000000 		.word	patternmsg
 1517 0010 00000000 		.word	patternmbox
 1518 0014 00000000 		.word	patternevt
 1519 0018 00000000 		.word	patternheap
 1520 001c 00000000 		.word	patternpools
 1521 0020 00000000 		.word	patterndyn
 1522 0024 00000000 		.word	patternqueues
 1523 0028 00000000 		.word	patternbmk
 1524 002c 00000000 		.word	0
 1525              		.section	.bss.chp,"aw",%nobits
 1526              		.align	2
 1527              		.set	.LANCHOR1,. + 0
 1528              		.type	chp, %object
 1529              		.size	chp, 4
 1530              	chp:
 1531 0000 00000000 		.space	4
 1532              		.section	.bss.tokens_buffer,"aw",%nobits
 1533              		.align	2
 1534              		.set	.LANCHOR6,. + 0
 1535              		.type	tokens_buffer, %object
 1536              		.size	tokens_buffer, 16
 1537              	tokens_buffer:
 1538 0000 00000000 		.space	16
 1538      00000000 
 1538      00000000 
 1538      00000000 
 1539              		.text
 1540              	.Letext0: