ARM GAS  /tmp/ccgU6v6L.s 			page 1


   1              		.syntax unified
   2              		.cpu cortex-m4
   3              		.eabi_attribute 27, 3
   4              		.eabi_attribute 28, 1
   5              		.fpu fpv4-sp-d16
   6              		.eabi_attribute 20, 1
   7              		.eabi_attribute 21, 1
   8              		.eabi_attribute 23, 3
   9              		.eabi_attribute 24, 1
  10              		.eabi_attribute 25, 1
  11              		.eabi_attribute 26, 1
  12              		.eabi_attribute 30, 2
  13              		.eabi_attribute 18, 4
  14              		.thumb
  15              		.file	"testdyn.c"
  16              		.section	.debug_abbrev,"",%progbits
  17              	.Ldebug_abbrev0:
  18              		.section	.debug_info,"",%progbits
  19              	.Ldebug_info0:
  20              		.section	.debug_line,"",%progbits
  21              	.Ldebug_line0:
  22 0000 22030000 		.text
  22      0200DC01 
  22      00000201 
  22      FB0E0D00 
  22      01010101 
  23              	.Ltext0:
  24              		.cfi_sections	.debug_frame
  25              		.section	.text.regfind,"ax",%progbits
  26              		.align	2
  27              		.p2align 4,,15
  28              		.thumb
  29              		.thumb_func
  30              		.type	regfind, %function
  31              	regfind:
  32              	.LFB12:
  33              		.file 1 "../libs/ChibiOS_2.4.0/test/testdyn.c"
  34              		.loc 1 202 0
  35              		.cfi_startproc
  36              		@ args = 0, pretend = 0, frame = 0
  37              		@ frame_needed = 0, uses_anonymous_args = 0
  38              	.LVL0:
  39 0000 38B5     		push	{r3, r4, r5, lr}
  40              	.LCFI0:
  41              		.cfi_def_cfa_offset 16
  42              		.loc 1 202 0
  43 0002 0546     		mov	r5, r0
  44              		.cfi_offset 14, -4
  45              		.cfi_offset 5, -8
  46              		.cfi_offset 4, -12
  47              		.cfi_offset 3, -16
  48              		.loc 1 206 0
  49 0004 FFF7FEFF 		bl	chRegFirstThread
  50              	.LVL1:
  51              		.loc 1 204 0
  52 0008 0024     		movs	r4, #0
  53              		.loc 1 206 0
ARM GAS  /tmp/ccgU6v6L.s 			page 2


  54 000a 0346     		mov	r3, r0
  55              	.LVL2:
  56              	.L2:
  57              		.loc 1 209 0 discriminator 1
  58 000c 1846     		mov	r0, r3
  59              	.LVL3:
  60              		.loc 1 208 0 discriminator 1
  61 000e AB42     		cmp	r3, r5
  62 0010 08BF     		it	eq
  63 0012 44F00104 		orreq	r4, r4, #1
  64              	.LVL4:
  65              		.loc 1 209 0 discriminator 1
  66 0016 FFF7FEFF 		bl	chRegNextThread
  67              	.LVL5:
  68              		.loc 1 210 0 discriminator 1
  69 001a 0346     		mov	r3, r0
  70 001c 0028     		cmp	r0, #0
  71 001e F5D1     		bne	.L2
  72              		.loc 1 212 0
  73 0020 2046     		mov	r0, r4
  74              	.LVL6:
  75 0022 38BD     		pop	{r3, r4, r5, pc}
  76              		.cfi_endproc
  77              	.LFE12:
  78              		.size	regfind, .-regfind
  79 0024 AFF30080 		.section	.text.dyn3_execute,"ax",%progbits
  79      AFF30080 
  79      AFF30080 
  80              		.align	2
  81              		.p2align 4,,15
  82              		.thumb
  83              		.thumb_func
  84              		.type	dyn3_execute, %function
  85              	dyn3_execute:
  86              	.LFB14:
  87              		.loc 1 219 0
  88              		.cfi_startproc
  89              		@ args = 0, pretend = 0, frame = 0
  90              		@ frame_needed = 0, uses_anonymous_args = 0
  91              	.LVL7:
  92 0000 10B5     		push	{r4, lr}
  93              	.LCFI1:
  94              		.cfi_def_cfa_offset 8
  95              		.loc 1 221 0
  96 0002 4D48     		ldr	r0, .L8
  97              		.loc 1 224 0
  98 0004 4D49     		ldr	r1, .L8+4
  99              		.loc 1 221 0
 100 0006 C369     		ldr	r3, [r0, #28]
 101              		.loc 1 224 0
 102 0008 4D48     		ldr	r0, .L8+8
 103 000a 9C68     		ldr	r4, [r3, #8]
 104              		.cfi_offset 14, -4
 105              		.cfi_offset 4, -8
 106 000c 4D4B     		ldr	r3, .L8+12
 107              		.loc 1 219 0
 108 000e 82B0     		sub	sp, sp, #8
ARM GAS  /tmp/ccgU6v6L.s 			page 3


 109              	.LCFI2:
 110              		.cfi_def_cfa_offset 16
 111              		.loc 1 224 0
 112 0010 621E     		subs	r2, r4, #1
 113 0012 0091     		str	r1, [sp, #0]
 114 0014 4FF49071 		mov	r1, #288
 115 0018 FFF7FEFF 		bl	chThdCreateFromHeap
 116              	.LVL8:
 117 001c 0446     		mov	r4, r0
 118              	.LVL9:
 119              		.loc 1 225 0
 120 001e 0120     		movs	r0, #1
 121              	.LVL10:
 122 0020 A27F     		ldrb	r2, [r4, #30]	@ zero_extendqisi2
 123 0022 C0EB020C 		rsb	ip, r0, r2
 124 0026 DCF10001 		rsbs	r1, ip, #0
 125 002a 41EB0C01 		adc	r1, r1, ip
 126 002e FFF7FEFF 		bl	_test_assert
 127 0032 08B1     		cbz	r0, .L7
 128              	.L5:
 129              		.loc 1 247 0
 130 0034 02B0     		add	sp, sp, #8
 131 0036 10BD     		pop	{r4, pc}
 132              	.L7:
 133              		.loc 1 226 0
 134 0038 2046     		mov	r0, r4
 135 003a FFF7FEFF 		bl	chThdAddRef
 136              		.loc 1 227 0
 137 003e A27F     		ldrb	r2, [r4, #30]	@ zero_extendqisi2
 138 0040 0220     		movs	r0, #2
 139 0042 C0EB020E 		rsb	lr, r0, r2
 140 0046 DEF1000C 		rsbs	ip, lr, #0
 141 004a 4CEB0E01 		adc	r1, ip, lr
 142 004e FFF7FEFF 		bl	_test_assert
 143 0052 0028     		cmp	r0, #0
 144 0054 EED1     		bne	.L5
 145              		.loc 1 228 0
 146 0056 2046     		mov	r0, r4
 147 0058 FFF7FEFF 		bl	chThdRelease
 148              		.loc 1 229 0
 149 005c 94F81EC0 		ldrb	ip, [r4, #30]	@ zero_extendqisi2
 150 0060 ACF10103 		sub	r3, ip, #1
 151 0064 0320     		movs	r0, #3
 152 0066 5942     		rsbs	r1, r3, #0
 153 0068 41EB0301 		adc	r1, r1, r3
 154 006c FFF7FEFF 		bl	_test_assert
 155 0070 0028     		cmp	r0, #0
 156 0072 DFD1     		bne	.L5
 157              		.loc 1 232 0
 158 0074 2046     		mov	r0, r4
 159 0076 FFF7FEFF 		bl	regfind
 160 007a 0146     		mov	r1, r0
 161 007c 0420     		movs	r0, #4
 162 007e FFF7FEFF 		bl	_test_assert
 163 0082 0028     		cmp	r0, #0
 164 0084 D6D1     		bne	.L5
 165              		.loc 1 233 0
ARM GAS  /tmp/ccgU6v6L.s 			page 4


 166 0086 2046     		mov	r0, r4
 167 0088 FFF7FEFF 		bl	regfind
 168 008c 0146     		mov	r1, r0
 169 008e 0520     		movs	r0, #5
 170 0090 FFF7FEFF 		bl	_test_assert
 171 0094 0028     		cmp	r0, #0
 172 0096 CDD1     		bne	.L5
 173              		.loc 1 236 0
 174 0098 2046     		mov	r0, r4
 175 009a FFF7FEFF 		bl	chThdRelease
 176              		.loc 1 237 0
 177 009e A27F     		ldrb	r2, [r4, #30]	@ zero_extendqisi2
 178 00a0 0620     		movs	r0, #6
 179 00a2 D2F10101 		rsbs	r1, r2, #1
 180 00a6 38BF     		it	cc
 181 00a8 0021     		movcc	r1, #0
 182 00aa FFF7FEFF 		bl	_test_assert
 183 00ae 0028     		cmp	r0, #0
 184 00b0 C0D1     		bne	.L5
 185              		.loc 1 238 0
 186 00b2 94F81CE0 		ldrb	lr, [r4, #28]	@ zero_extendqisi2
 187 00b6 0720     		movs	r0, #7
 188 00b8 DEF10101 		rsbs	r1, lr, #1
 189 00bc 38BF     		it	cc
 190 00be 0021     		movcc	r1, #0
 191 00c0 FFF7FEFF 		bl	_test_assert
 192 00c4 0028     		cmp	r0, #0
 193 00c6 B5D1     		bne	.L5
 194              		.loc 1 239 0
 195 00c8 2046     		mov	r0, r4
 196 00ca FFF7FEFF 		bl	regfind
 197 00ce 0146     		mov	r1, r0
 198 00d0 0820     		movs	r0, #8
 199 00d2 FFF7FEFF 		bl	_test_assert
 200 00d6 0028     		cmp	r0, #0
 201 00d8 ACD1     		bne	.L5
 202              		.loc 1 240 0
 203 00da 2046     		mov	r0, r4
 204 00dc FFF7FEFF 		bl	regfind
 205 00e0 0146     		mov	r1, r0
 206 00e2 0920     		movs	r0, #9
 207 00e4 FFF7FEFF 		bl	_test_assert
 208 00e8 0028     		cmp	r0, #0
 209 00ea A3D1     		bne	.L5
 210              		.loc 1 241 0
 211 00ec 3230     		adds	r0, r0, #50
 212 00ee FFF7FEFF 		bl	chThdSleep
 213              		.loc 1 242 0
 214 00f2 94F81CC0 		ldrb	ip, [r4, #28]	@ zero_extendqisi2
 215 00f6 ACF10E03 		sub	r3, ip, #14
 216 00fa 0A20     		movs	r0, #10
 217 00fc 5942     		rsbs	r1, r3, #0
 218 00fe 41EB0301 		adc	r1, r1, r3
 219 0102 FFF7FEFF 		bl	_test_assert
 220 0106 0028     		cmp	r0, #0
 221 0108 94D1     		bne	.L5
 222              		.loc 1 245 0
ARM GAS  /tmp/ccgU6v6L.s 			page 5


 223 010a 2046     		mov	r0, r4
 224 010c FFF7FEFF 		bl	regfind
 225 0110 0146     		mov	r1, r0
 226 0112 0B20     		movs	r0, #11
 227 0114 FFF7FEFF 		bl	_test_assert
 228 0118 0028     		cmp	r0, #0
 229 011a 8BD1     		bne	.L5
 230              		.loc 1 246 0
 231 011c 2046     		mov	r0, r4
 232 011e FFF7FEFF 		bl	regfind
 233 0122 D0F10101 		rsbs	r1, r0, #1
 234 0126 38BF     		it	cc
 235 0128 0021     		movcc	r1, #0
 236 012a 0C20     		movs	r0, #12
 237              		.loc 1 247 0
 238 012c 02B0     		add	sp, sp, #8
 239 012e BDE81040 		pop	{r4, lr}
 240              		.loc 1 246 0
 241 0132 FFF7FEBF 		b	_test_assert
 242              	.L9:
 243 0136 00BF     		.align	2
 244              	.L8:
 245 0138 00000000 		.word	rlist
 246 013c 00000000 		.word	.LC0
 247 0140 00000000 		.word	.LANCHOR0
 248 0144 00000000 		.word	thread
 249              		.cfi_endproc
 250              	.LFE14:
 251              		.size	dyn3_execute, .-dyn3_execute
 252 0148 AFF30080 		.section	.text.thread,"ax",%progbits
 252      AFF30080 
 253              		.align	2
 254              		.p2align 4,,15
 255              		.thumb
 256              		.thumb_func
 257              		.type	thread, %function
 258              	thread:
 259              	.LFB7:
 260              		.loc 1 82 0
 261              		.cfi_startproc
 262              		@ args = 0, pretend = 0, frame = 0
 263              		@ frame_needed = 0, uses_anonymous_args = 0
 264              	.LVL11:
 265 0000 08B5     		push	{r3, lr}
 266              	.LCFI3:
 267              		.cfi_def_cfa_offset 8
 268              		.loc 1 84 0
 269 0002 0078     		ldrb	r0, [r0, #0]	@ zero_extendqisi2
 270              	.LVL12:
 271              		.cfi_offset 14, -4
 272              		.cfi_offset 3, -8
 273 0004 FFF7FEFF 		bl	test_emit_token
 274              		.loc 1 86 0
 275 0008 0020     		movs	r0, #0
 276 000a 08BD     		pop	{r3, pc}
 277              		.cfi_endproc
 278              	.LFE7:
ARM GAS  /tmp/ccgU6v6L.s 			page 6


 279              		.size	thread, .-thread
 280 000c AFF30080 		.section	.text.dyn3_setup,"ax",%progbits
 281              		.align	2
 282              		.p2align 4,,15
 283              		.thumb
 284              		.thumb_func
 285              		.type	dyn3_setup, %function
 286              	dyn3_setup:
 287              	.LFB13:
 288              		.loc 1 214 0
 289              		.cfi_startproc
 290              		@ args = 0, pretend = 0, frame = 0
 291              		@ frame_needed = 0, uses_anonymous_args = 0
 292              		@ link register save eliminated.
 293              		.loc 1 216 0
 294 0000 0248     		ldr	r0, .L12
 295 0002 0349     		ldr	r1, .L12+4
 296 0004 4FF4B462 		mov	r2, #1440
 297              		.loc 1 217 0
 298              		.loc 1 216 0
 299 0008 FFF7FEBF 		b	chHeapInit
 300              	.L13:
 301              		.align	2
 302              	.L12:
 303 000c 00000000 		.word	.LANCHOR0
 304 0010 00000000 		.word	test
 305              		.cfi_endproc
 306              	.LFE13:
 307              		.size	dyn3_setup, .-dyn3_setup
 308 0014 AFF30080 		.section	.text.dyn1_setup,"ax",%progbits
 308      AFF30080 
 308      AFF30080 
 309              		.align	2
 310              		.p2align 4,,15
 311              		.thumb
 312              		.thumb_func
 313              		.type	dyn1_setup, %function
 314              	dyn1_setup:
 315              	.LFB8:
 316              		.loc 1 89 0
 317              		.cfi_startproc
 318              		@ args = 0, pretend = 0, frame = 0
 319              		@ frame_needed = 0, uses_anonymous_args = 0
 320              		@ link register save eliminated.
 321              		.loc 1 91 0
 322 0000 0248     		ldr	r0, .L15
 323 0002 0349     		ldr	r1, .L15+4
 324 0004 4FF4B462 		mov	r2, #1440
 325              		.loc 1 92 0
 326              		.loc 1 91 0
 327 0008 FFF7FEBF 		b	chHeapInit
 328              	.L16:
 329              		.align	2
 330              	.L15:
 331 000c 00000000 		.word	.LANCHOR0
 332 0010 00000000 		.word	test
 333              		.cfi_endproc
ARM GAS  /tmp/ccgU6v6L.s 			page 7


 334              	.LFE8:
 335              		.size	dyn1_setup, .-dyn1_setup
 336 0014 AFF30080 		.section	.text.dyn2_execute,"ax",%progbits
 336      AFF30080 
 336      AFF30080 
 337              		.align	2
 338              		.p2align 4,,15
 339              		.thumb
 340              		.thumb_func
 341              		.type	dyn2_execute, %function
 342              	dyn2_execute:
 343              	.LFB11:
 344              		.loc 1 152 0
 345              		.cfi_startproc
 346              		@ args = 0, pretend = 0, frame = 0
 347              		@ frame_needed = 0, uses_anonymous_args = 0
 348              		.loc 1 154 0
 349 0000 4448     		ldr	r0, .L25
 350              		.loc 1 152 0
 351 0002 70B5     		push	{r4, r5, r6, lr}
 352              	.LCFI4:
 353              		.cfi_def_cfa_offset 16
 354              		.loc 1 158 0
 355 0004 444E     		ldr	r6, .L25+4
 356              		.cfi_offset 14, -4
 357              		.cfi_offset 6, -8
 358              		.cfi_offset 5, -12
 359              		.cfi_offset 4, -16
 360              		.loc 1 154 0
 361 0006 C369     		ldr	r3, [r0, #28]
 362              		.loc 1 158 0
 363 0008 3168     		ldr	r1, [r6, #0]
 364 000a 4448     		ldr	r0, .L25+8
 365              		.loc 1 154 0
 366 000c 9D68     		ldr	r5, [r3, #8]
 367              	.LVL13:
 368              		.loc 1 161 0
 369 000e 444C     		ldr	r4, .L25+12
 370              		.loc 1 158 0
 371 0010 FFF7FEFF 		bl	chPoolFree
 372              	.LVL14:
 373 0014 4148     		ldr	r0, .L25+8
 374 0016 7168     		ldr	r1, [r6, #4]
 375 0018 FFF7FEFF 		bl	chPoolFree
 376              	.LVL15:
 377 001c 3F48     		ldr	r0, .L25+8
 378 001e B168     		ldr	r1, [r6, #8]
 379 0020 FFF7FEFF 		bl	chPoolFree
 380              	.LVL16:
 381 0024 3D48     		ldr	r0, .L25+8
 382 0026 F168     		ldr	r1, [r6, #12]
 383 0028 FFF7FEFF 		bl	chPoolFree
 384              	.LVL17:
 385              		.loc 1 161 0
 386 002c 691E     		subs	r1, r5, #1
 387 002e 3D4A     		ldr	r2, .L25+16
 388 0030 3D4B     		ldr	r3, .L25+20
ARM GAS  /tmp/ccgU6v6L.s 			page 8


 389 0032 3A48     		ldr	r0, .L25+8
 390 0034 FFF7FEFF 		bl	chThdCreateFromMemoryPool
 391              		.loc 1 162 0
 392 0038 A91E     		subs	r1, r5, #2
 393              		.loc 1 161 0
 394 003a 2060     		str	r0, [r4, #0]
 395              		.loc 1 162 0
 396 003c 394A     		ldr	r2, .L25+16
 397 003e 3B4B     		ldr	r3, .L25+24
 398 0040 3648     		ldr	r0, .L25+8
 399 0042 FFF7FEFF 		bl	chThdCreateFromMemoryPool
 400              		.loc 1 163 0
 401 0046 E91E     		subs	r1, r5, #3
 402              		.loc 1 162 0
 403 0048 6060     		str	r0, [r4, #4]
 404              		.loc 1 163 0
 405 004a 364A     		ldr	r2, .L25+16
 406 004c 384B     		ldr	r3, .L25+28
 407 004e 3348     		ldr	r0, .L25+8
 408 0050 FFF7FEFF 		bl	chThdCreateFromMemoryPool
 409              		.loc 1 164 0
 410 0054 291F     		subs	r1, r5, #4
 411              		.loc 1 163 0
 412 0056 A060     		str	r0, [r4, #8]
 413              		.loc 1 164 0
 414 0058 324A     		ldr	r2, .L25+16
 415 005a 364B     		ldr	r3, .L25+32
 416 005c 2F48     		ldr	r0, .L25+8
 417 005e FFF7FEFF 		bl	chThdCreateFromMemoryPool
 418              		.loc 1 165 0
 419 0062 691F     		subs	r1, r5, #5
 420              		.loc 1 164 0
 421 0064 E060     		str	r0, [r4, #12]
 422              		.loc 1 165 0
 423 0066 2F4A     		ldr	r2, .L25+16
 424 0068 2C48     		ldr	r0, .L25+8
 425 006a 334B     		ldr	r3, .L25+36
 426 006c FFF7FEFF 		bl	chThdCreateFromMemoryPool
 427              		.loc 1 167 0
 428 0070 2168     		ldr	r1, [r4, #0]
 429              		.loc 1 165 0
 430 0072 2061     		str	r0, [r4, #16]
 431              		.loc 1 167 0
 432 0074 49B1     		cbz	r1, .L18
 433              		.loc 1 167 0 is_stmt 0 discriminator 1
 434 0076 6168     		ldr	r1, [r4, #4]
 435 0078 39B1     		cbz	r1, .L18
 436              		.loc 1 167 0 discriminator 3
 437 007a A168     		ldr	r1, [r4, #8]
 438 007c 29B1     		cbz	r1, .L18
 439              		.loc 1 167 0 discriminator 4
 440 007e E168     		ldr	r1, [r4, #12]
 441 0080 19B1     		cbz	r1, .L18
 442              		.loc 1 152 0 is_stmt 1 discriminator 5
 443 0082 D0F10101 		rsbs	r1, r0, #1
 444 0086 38BF     		it	cc
 445 0088 0021     		movcc	r1, #0
ARM GAS  /tmp/ccgU6v6L.s 			page 9


 446              	.L18:
 447              		.loc 1 167 0 discriminator 7
 448 008a 0120     		movs	r0, #1
 449 008c FFF7FEFF 		bl	_test_assert
 450 0090 00B1     		cbz	r0, .L24
 451              	.LVL18:
 452              	.L17:
 453 0092 70BD     		pop	{r4, r5, r6, pc}
 454              	.LVL19:
 455              	.L24:
 456              		.loc 1 175 0
 457 0094 FFF7FEFF 		bl	test_wait_threads
 458              		.loc 1 176 0
 459 0098 0220     		movs	r0, #2
 460 009a 2849     		ldr	r1, .L25+40
 461 009c FFF7FEFF 		bl	_test_assert_sequence
 462 00a0 0028     		cmp	r0, #0
 463 00a2 F6D1     		bne	.L17
 464              		.loc 1 180 0
 465 00a4 1D48     		ldr	r0, .L25+8
 466 00a6 FFF7FEFF 		bl	chPoolAlloc
 467 00aa 011E     		subs	r1, r0, #0
 468 00ac 18BF     		it	ne
 469 00ae 0121     		movne	r1, #1
 470 00b0 0320     		movs	r0, #3
 471 00b2 FFF7FEFF 		bl	_test_assert
 472 00b6 0028     		cmp	r0, #0
 473 00b8 EBD1     		bne	.L17
 474              	.LVL20:
 475 00ba 1848     		ldr	r0, .L25+8
 476 00bc FFF7FEFF 		bl	chPoolAlloc
 477 00c0 011E     		subs	r1, r0, #0
 478 00c2 18BF     		it	ne
 479 00c4 0121     		movne	r1, #1
 480 00c6 0320     		movs	r0, #3
 481 00c8 FFF7FEFF 		bl	_test_assert
 482 00cc 0028     		cmp	r0, #0
 483 00ce E0D1     		bne	.L17
 484              	.LVL21:
 485 00d0 1248     		ldr	r0, .L25+8
 486 00d2 FFF7FEFF 		bl	chPoolAlloc
 487 00d6 011E     		subs	r1, r0, #0
 488 00d8 18BF     		it	ne
 489 00da 0121     		movne	r1, #1
 490 00dc 0320     		movs	r0, #3
 491 00de FFF7FEFF 		bl	_test_assert
 492 00e2 0028     		cmp	r0, #0
 493 00e4 D5D1     		bne	.L17
 494              	.LVL22:
 495 00e6 0D48     		ldr	r0, .L25+8
 496 00e8 FFF7FEFF 		bl	chPoolAlloc
 497 00ec 011E     		subs	r1, r0, #0
 498 00ee 18BF     		it	ne
 499 00f0 0121     		movne	r1, #1
 500 00f2 0320     		movs	r0, #3
 501 00f4 FFF7FEFF 		bl	_test_assert
 502 00f8 0028     		cmp	r0, #0
ARM GAS  /tmp/ccgU6v6L.s 			page 10


 503 00fa CAD1     		bne	.L17
 504              	.LVL23:
 505              		.loc 1 181 0
 506 00fc 0748     		ldr	r0, .L25+8
 507 00fe FFF7FEFF 		bl	chPoolAlloc
 508 0102 D0F10101 		rsbs	r1, r0, #1
 509 0106 38BF     		it	cc
 510 0108 0021     		movcc	r1, #0
 511 010a 0420     		movs	r0, #4
 512              		.loc 1 182 0
 513 010c BDE87040 		pop	{r4, r5, r6, lr}
 514              		.loc 1 181 0
 515 0110 FFF7FEBF 		b	_test_assert
 516              	.L26:
 517              		.align	2
 518              	.L25:
 519 0114 00000000 		.word	rlist
 520 0118 00000000 		.word	wa
 521 011c 00000000 		.word	.LANCHOR1
 522 0120 00000000 		.word	threads
 523 0124 00000000 		.word	thread
 524 0128 00000000 		.word	.LC0
 525 012c 04000000 		.word	.LC1
 526 0130 08000000 		.word	.LC2
 527 0134 0C000000 		.word	.LC3
 528 0138 10000000 		.word	.LC4
 529 013c 14000000 		.word	.LC5
 530              		.cfi_endproc
 531              	.LFE11:
 532              		.size	dyn2_execute, .-dyn2_execute
 533              		.section	.text.dyn2_setup,"ax",%progbits
 534              		.align	2
 535              		.p2align 4,,15
 536              		.thumb
 537              		.thumb_func
 538              		.type	dyn2_setup, %function
 539              	dyn2_setup:
 540              	.LFB10:
 541              		.loc 1 147 0
 542              		.cfi_startproc
 543              		@ args = 0, pretend = 0, frame = 0
 544              		@ frame_needed = 0, uses_anonymous_args = 0
 545              		@ link register save eliminated.
 546              		.loc 1 149 0
 547 0000 0248     		ldr	r0, .L28
 548 0002 4FF49071 		mov	r1, #288
 549 0006 0022     		movs	r2, #0
 550              		.loc 1 150 0
 551              		.loc 1 149 0
 552 0008 FFF7FEBF 		b	chPoolInit
 553              	.L29:
 554              		.align	2
 555              	.L28:
 556 000c 00000000 		.word	.LANCHOR1
 557              		.cfi_endproc
 558              	.LFE10:
 559              		.size	dyn2_setup, .-dyn2_setup
ARM GAS  /tmp/ccgU6v6L.s 			page 11


 560              		.section	.text.dyn1_execute,"ax",%progbits
 561              		.align	2
 562              		.p2align 4,,15
 563              		.thumb
 564              		.thumb_func
 565              		.type	dyn1_execute, %function
 566              	dyn1_execute:
 567              	.LFB9:
 568              		.loc 1 94 0
 569              		.cfi_startproc
 570              		@ args = 0, pretend = 0, frame = 8
 571              		@ frame_needed = 0, uses_anonymous_args = 0
 572 0000 70B5     		push	{r4, r5, r6, lr}
 573              	.LCFI5:
 574              		.cfi_def_cfa_offset 16
 575              		.loc 1 97 0
 576 0002 364C     		ldr	r4, .L39
 577              		.cfi_offset 14, -4
 578              		.cfi_offset 6, -8
 579              		.cfi_offset 5, -12
 580              		.cfi_offset 4, -16
 581              		.loc 1 99 0
 582 0004 3648     		ldr	r0, .L39+4
 583              		.loc 1 97 0
 584 0006 E369     		ldr	r3, [r4, #28]
 585              		.loc 1 101 0
 586 0008 364C     		ldr	r4, .L39+8
 587              		.loc 1 97 0
 588 000a 9D68     		ldr	r5, [r3, #8]
 589              	.LVL24:
 590              		.loc 1 103 0
 591 000c 364E     		ldr	r6, .L39+12
 592              		.loc 1 94 0
 593 000e 84B0     		sub	sp, sp, #16
 594              	.LCFI6:
 595              		.cfi_def_cfa_offset 32
 596              		.loc 1 99 0
 597 0010 02A9     		add	r1, sp, #8
 598 0012 FFF7FEFF 		bl	chHeapStatus
 599              		.loc 1 101 0
 600 0016 3549     		ldr	r1, .L39+16
 601 0018 354B     		ldr	r3, .L39+20
 602 001a 0091     		str	r1, [sp, #0]
 603 001c 6A1E     		subs	r2, r5, #1
 604 001e 4FF49071 		mov	r1, #288
 605 0022 2F48     		ldr	r0, .L39+4
 606 0024 FFF7FEFF 		bl	chThdCreateFromHeap
 607              		.loc 1 103 0
 608 0028 314B     		ldr	r3, .L39+20
 609              		.loc 1 101 0
 610 002a 2060     		str	r0, [r4, #0]
 611              		.loc 1 103 0
 612 002c AA1E     		subs	r2, r5, #2
 613 002e 4FF49071 		mov	r1, #288
 614 0032 2B48     		ldr	r0, .L39+4
 615 0034 0096     		str	r6, [sp, #0]
 616 0036 FFF7FEFF 		bl	chThdCreateFromHeap
ARM GAS  /tmp/ccgU6v6L.s 			page 12


 617              		.loc 1 106 0
 618 003a 03A9     		add	r1, sp, #12
 619              		.loc 1 103 0
 620 003c 6060     		str	r0, [r4, #4]
 621              		.loc 1 106 0
 622 003e 2848     		ldr	r0, .L39+4
 623 0040 FFF7FEFF 		bl	chHeapStatus
 624              	.LVL25:
 625              		.loc 1 107 0
 626 0044 0399     		ldr	r1, [sp, #12]
 627 0046 2648     		ldr	r0, .L39+4
 628 0048 FFF7FEFF 		bl	chHeapAlloc
 629              		.loc 1 108 0
 630 004c 294A     		ldr	r2, .L39+24
 631 004e 284B     		ldr	r3, .L39+20
 632 0050 0092     		str	r2, [sp, #0]
 633 0052 4FF49071 		mov	r1, #288
 634              		.loc 1 107 0
 635 0056 0646     		mov	r6, r0
 636              	.LVL26:
 637              		.loc 1 108 0
 638 0058 EA1E     		subs	r2, r5, #3
 639 005a 2148     		ldr	r0, .L39+4
 640              	.LVL27:
 641 005c FFF7FEFF 		bl	chThdCreateFromHeap
 642 0060 A060     		str	r0, [r4, #8]
 643              		.loc 1 110 0
 644 0062 3046     		mov	r0, r6
 645 0064 FFF7FEFF 		bl	chHeapFree
 646              		.loc 1 112 0
 647 0068 2168     		ldr	r1, [r4, #0]
 648 006a 29B1     		cbz	r1, .L31
 649              		.loc 1 112 0 is_stmt 0 discriminator 1
 650 006c 6168     		ldr	r1, [r4, #4]
 651 006e 19B1     		cbz	r1, .L31
 652              		.loc 1 112 0 discriminator 3
 653 0070 A168     		ldr	r1, [r4, #8]
 654 0072 0029     		cmp	r1, #0
 655 0074 28D0     		beq	.L37
 656              		.loc 1 112 0
 657 0076 0021     		movs	r1, #0
 658              	.L31:
 659              		.loc 1 112 0 discriminator 7
 660 0078 0120     		movs	r0, #1
 661 007a FFF7FEFF 		bl	_test_assert
 662 007e 08B1     		cbz	r0, .L38
 663              	.LVL28:
 664              	.L30:
 665              		.loc 1 126 0 is_stmt 1
 666 0080 04B0     		add	sp, sp, #16
 667 0082 70BD     		pop	{r4, r5, r6, pc}
 668              	.LVL29:
 669              	.L38:
 670              		.loc 1 120 0
 671 0084 FFF7FEFF 		bl	test_wait_threads
 672              		.loc 1 121 0
 673 0088 0220     		movs	r0, #2
ARM GAS  /tmp/ccgU6v6L.s 			page 13


 674 008a 1B49     		ldr	r1, .L39+28
 675 008c FFF7FEFF 		bl	_test_assert_sequence
 676 0090 0028     		cmp	r0, #0
 677 0092 F5D1     		bne	.L30
 678              		.loc 1 124 0
 679 0094 03A9     		add	r1, sp, #12
 680 0096 1248     		ldr	r0, .L39+4
 681 0098 FFF7FEFF 		bl	chHeapStatus
 682 009c A0F10101 		sub	r1, r0, #1
 683 00a0 D1F1000C 		rsbs	ip, r1, #0
 684 00a4 4CEB0101 		adc	r1, ip, r1
 685 00a8 0320     		movs	r0, #3
 686 00aa FFF7FEFF 		bl	_test_assert
 687 00ae 0028     		cmp	r0, #0
 688 00b0 E6D1     		bne	.L30
 689              		.loc 1 125 0
 690 00b2 0399     		ldr	r1, [sp, #12]
 691              	.LVL30:
 692 00b4 029A     		ldr	r2, [sp, #8]
 693 00b6 8B1A     		subs	r3, r1, r2
 694 00b8 0420     		movs	r0, #4
 695 00ba D3F1000E 		rsbs	lr, r3, #0
 696 00be 4EEB0301 		adc	r1, lr, r3
 697 00c2 FFF7FEFF 		bl	_test_assert
 698 00c6 DBE7     		b	.L30
 699              	.LVL31:
 700              	.L37:
 701              		.loc 1 112 0 discriminator 4
 702 00c8 E068     		ldr	r0, [r4, #12]
 703 00ca 0028     		cmp	r0, #0
 704 00cc D4D1     		bne	.L31
 705              		.loc 1 94 0 discriminator 5
 706 00ce 2269     		ldr	r2, [r4, #16]
 707 00d0 D2F10101 		rsbs	r1, r2, #1
 708 00d4 38BF     		it	cc
 709 00d6 0021     		movcc	r1, #0
 710 00d8 CEE7     		b	.L31
 711              	.L40:
 712 00da 00BF     		.align	2
 713              	.L39:
 714 00dc 00000000 		.word	rlist
 715 00e0 00000000 		.word	.LANCHOR0
 716 00e4 00000000 		.word	threads
 717 00e8 04000000 		.word	.LC1
 718 00ec 00000000 		.word	.LC0
 719 00f0 00000000 		.word	thread
 720 00f4 08000000 		.word	.LC2
 721 00f8 1C000000 		.word	.LC6
 722              		.cfi_endproc
 723              	.LFE9:
 724              		.size	dyn1_execute, .-dyn1_execute
 725              		.global	testdyn1
 726              		.global	testdyn2
 727              		.global	testdyn3
 728              		.global	patterndyn
 729 00fc AFF30080 		.section	.rodata.testdyn1,"a",%progbits
 730              		.align	2
ARM GAS  /tmp/ccgU6v6L.s 			page 14


 731              		.type	testdyn1, %object
 732              		.size	testdyn1, 16
 733              	testdyn1:
 734 0000 20000000 		.word	.LC7
 735 0004 00000000 		.word	dyn1_setup
 736 0008 00000000 		.word	0
 737 000c 00000000 		.word	dyn1_execute
 738              		.section	.rodata.testdyn2,"a",%progbits
 739              		.align	2
 740              		.type	testdyn2, %object
 741              		.size	testdyn2, 16
 742              	testdyn2:
 743 0000 4C000000 		.word	.LC8
 744 0004 00000000 		.word	dyn2_setup
 745 0008 00000000 		.word	0
 746 000c 00000000 		.word	dyn2_execute
 747              		.section	.rodata.testdyn3,"a",%progbits
 748              		.align	2
 749              		.type	testdyn3, %object
 750              		.size	testdyn3, 16
 751              	testdyn3:
 752 0000 7C000000 		.word	.LC9
 753 0004 00000000 		.word	dyn3_setup
 754 0008 00000000 		.word	0
 755 000c 00000000 		.word	dyn3_execute
 756              		.section	.bss.mp1,"aw",%nobits
 757              		.align	2
 758              		.set	.LANCHOR1,. + 0
 759              		.type	mp1, %object
 760              		.size	mp1, 12
 761              	mp1:
 762 0000 00000000 		.space	12
 762      00000000 
 762      00000000 
 763              		.section	.rodata.str1.4,"aMS",%progbits,1
 764              		.align	2
 765              	.LC0:
 766 0000 4100     		.ascii	"A\000"
 767 0002 0000     		.space	2
 768              	.LC1:
 769 0004 4200     		.ascii	"B\000"
 770 0006 0000     		.space	2
 771              	.LC2:
 772 0008 4300     		.ascii	"C\000"
 773 000a 0000     		.space	2
 774              	.LC3:
 775 000c 4400     		.ascii	"D\000"
 776 000e 0000     		.space	2
 777              	.LC4:
 778 0010 4500     		.ascii	"E\000"
 779 0012 0000     		.space	2
 780              	.LC5:
 781 0014 41424344 		.ascii	"ABCD\000"
 781      00
 782 0019 000000   		.space	3
 783              	.LC6:
 784 001c 414200   		.ascii	"AB\000"
ARM GAS  /tmp/ccgU6v6L.s 			page 15


 785 001f 00       		.space	1
 786              	.LC7:
 787 0020 44796E61 		.ascii	"Dynamic APIs, threads creation from heap\000"
 787      6D696320 
 787      41504973 
 787      2C207468 
 787      72656164 
 788 0049 000000   		.space	3
 789              	.LC8:
 790 004c 44796E61 		.ascii	"Dynamic APIs, threads creation from memory pool\000"
 790      6D696320 
 790      41504973 
 790      2C207468 
 790      72656164 
 791              	.LC9:
 792 007c 44796E61 		.ascii	"Dynamic APIs, registry and references\000"
 792      6D696320 
 792      41504973 
 792      2C207265 
 792      67697374 
 793 00a2 0000     		.section	.rodata.patterndyn,"a",%progbits
 794              		.align	2
 795              		.type	patterndyn, %object
 796              		.size	patterndyn, 16
 797              	patterndyn:
 798 0000 00000000 		.word	testdyn1
 799 0004 00000000 		.word	testdyn2
 800 0008 00000000 		.word	testdyn3
 801 000c 00000000 		.word	0
 802              		.section	.bss.heap1,"aw",%nobits
 803              		.align	3
 804              		.set	.LANCHOR0,. + 0
 805              		.type	heap1, %object
 806              		.size	heap1, 32
 807              	heap1:
 808 0000 00000000 		.space	32
 808      00000000 
 808      00000000 
 808      00000000 
 808      00000000 
 809              		.text
 810              	.Letext0:
 811              		.section	.debug_loc,"",%progbits
 812              	.Ldebug_loc0:
 813              	.LLST0:
 814 0000 00000000 		.4byte	.LFB12
 815 0004 02000000 		.4byte	.LCFI0
 816 0008 0200     		.2byte	0x2
 817 000a 7D       		.byte	0x7d
 818 000b 00       		.sleb128 0
 819 000c 02000000 		.4byte	.LCFI0
 820 0010 24000000 		.4byte	.LFE12
 821 0014 0200     		.2byte	0x2
 822 0016 7D       		.byte	0x7d
 823 0017 10       		.sleb128 16
 824 0018 00000000 		.4byte	0x0
 825 001c 00000000 		.4byte	0x0
ARM GAS  /tmp/ccgU6v6L.s 			page 16


 826              	.LLST1:
 827 0020 00000000 		.4byte	.LVL0
 828 0024 07000000 		.4byte	.LVL1-1
 829 0028 0100     		.2byte	0x1
 830 002a 50       		.byte	0x50
 831 002b 07000000 		.4byte	.LVL1-1
 832 002f 24000000 		.4byte	.LFE12
 833 0033 0100     		.2byte	0x1
 834 0035 55       		.byte	0x55
 835 0036 00000000 		.4byte	0x0
 836 003a 00000000 		.4byte	0x0
 837              	.LLST2:
 838 003e 0C000000 		.4byte	.LVL2
 839 0042 0E000000 		.4byte	.LVL3
 840 0046 0100     		.2byte	0x1
 841 0048 50       		.byte	0x50
 842 0049 0E000000 		.4byte	.LVL3
 843 004d 19000000 		.4byte	.LVL5-1
 844 0051 0100     		.2byte	0x1
 845 0053 53       		.byte	0x53
 846 0054 1A000000 		.4byte	.LVL5
 847 0058 22000000 		.4byte	.LVL6
 848 005c 0100     		.2byte	0x1
 849 005e 50       		.byte	0x50
 850 005f 22000000 		.4byte	.LVL6
 851 0063 24000000 		.4byte	.LFE12
 852 0067 0100     		.2byte	0x1
 853 0069 53       		.byte	0x53
 854 006a 00000000 		.4byte	0x0
 855 006e 00000000 		.4byte	0x0
 856              	.LLST3:
 857 0072 00000000 		.4byte	.LVL0
 858 0076 0C000000 		.4byte	.LVL2
 859 007a 0200     		.2byte	0x2
 860 007c 30       		.byte	0x30
 861 007d 9F       		.byte	0x9f
 862 007e 0C000000 		.4byte	.LVL2
 863 0082 16000000 		.4byte	.LVL4
 864 0086 0100     		.2byte	0x1
 865 0088 54       		.byte	0x54
 866 0089 16000000 		.4byte	.LVL4
 867 008d 24000000 		.4byte	.LFE12
 868 0091 0100     		.2byte	0x1
 869 0093 54       		.byte	0x54
 870 0094 00000000 		.4byte	0x0
 871 0098 00000000 		.4byte	0x0
 872              	.LLST4:
 873 009c 00000000 		.4byte	.LFB14
 874 00a0 02000000 		.4byte	.LCFI1
 875 00a4 0200     		.2byte	0x2
 876 00a6 7D       		.byte	0x7d
 877 00a7 00       		.sleb128 0
 878 00a8 02000000 		.4byte	.LCFI1
 879 00ac 10000000 		.4byte	.LCFI2
 880 00b0 0200     		.2byte	0x2
 881 00b2 7D       		.byte	0x7d
 882 00b3 08       		.sleb128 8
ARM GAS  /tmp/ccgU6v6L.s 			page 17


 883 00b4 10000000 		.4byte	.LCFI2
 884 00b8 48010000 		.4byte	.LFE14
 885 00bc 0200     		.2byte	0x2
 886 00be 7D       		.byte	0x7d
 887 00bf 10       		.sleb128 16
 888 00c0 00000000 		.4byte	0x0
 889 00c4 00000000 		.4byte	0x0
 890              	.LLST5:
 891 00c8 1E000000 		.4byte	.LVL9
 892 00cc 20000000 		.4byte	.LVL10
 893 00d0 0100     		.2byte	0x1
 894 00d2 50       		.byte	0x50
 895 00d3 20000000 		.4byte	.LVL10
 896 00d7 48010000 		.4byte	.LFE14
 897 00db 0100     		.2byte	0x1
 898 00dd 54       		.byte	0x54
 899 00de 00000000 		.4byte	0x0
 900 00e2 00000000 		.4byte	0x0
 901              	.LLST6:
 902 00e6 00000000 		.4byte	.LFB7
 903 00ea 02000000 		.4byte	.LCFI3
 904 00ee 0200     		.2byte	0x2
 905 00f0 7D       		.byte	0x7d
 906 00f1 00       		.sleb128 0
 907 00f2 02000000 		.4byte	.LCFI3
 908 00f6 0C000000 		.4byte	.LFE7
 909 00fa 0200     		.2byte	0x2
 910 00fc 7D       		.byte	0x7d
 911 00fd 08       		.sleb128 8
 912 00fe 00000000 		.4byte	0x0
 913 0102 00000000 		.4byte	0x0
 914              	.LLST7:
 915 0106 00000000 		.4byte	.LVL11
 916 010a 04000000 		.4byte	.LVL12
 917 010e 0100     		.2byte	0x1
 918 0110 50       		.byte	0x50
 919 0111 00000000 		.4byte	0x0
 920 0115 00000000 		.4byte	0x0
 921              	.LLST8:
 922 0119 00000000 		.4byte	.LFB11
 923 011d 04000000 		.4byte	.LCFI4
 924 0121 0200     		.2byte	0x2
 925 0123 7D       		.byte	0x7d
 926 0124 00       		.sleb128 0
 927 0125 04000000 		.4byte	.LCFI4
 928 0129 40010000 		.4byte	.LFE11
 929 012d 0200     		.2byte	0x2
 930 012f 7D       		.byte	0x7d
 931 0130 10       		.sleb128 16
 932 0131 00000000 		.4byte	0x0
 933 0135 00000000 		.4byte	0x0
 934              	.LLST9:
 935 0139 0E000000 		.4byte	.LVL13
 936 013d 14000000 		.4byte	.LVL14
 937 0141 0200     		.2byte	0x2
 938 0143 30       		.byte	0x30
 939 0144 9F       		.byte	0x9f
ARM GAS  /tmp/ccgU6v6L.s 			page 18


 940 0145 14000000 		.4byte	.LVL14
 941 0149 1C000000 		.4byte	.LVL15
 942 014d 0200     		.2byte	0x2
 943 014f 31       		.byte	0x31
 944 0150 9F       		.byte	0x9f
 945 0151 1C000000 		.4byte	.LVL15
 946 0155 24000000 		.4byte	.LVL16
 947 0159 0200     		.2byte	0x2
 948 015b 32       		.byte	0x32
 949 015c 9F       		.byte	0x9f
 950 015d 24000000 		.4byte	.LVL16
 951 0161 2C000000 		.4byte	.LVL17
 952 0165 0200     		.2byte	0x2
 953 0167 33       		.byte	0x33
 954 0168 9F       		.byte	0x9f
 955 0169 2C000000 		.4byte	.LVL17
 956 016d 92000000 		.4byte	.LVL18
 957 0171 0200     		.2byte	0x2
 958 0173 34       		.byte	0x34
 959 0174 9F       		.byte	0x9f
 960 0175 94000000 		.4byte	.LVL19
 961 0179 BA000000 		.4byte	.LVL20
 962 017d 0200     		.2byte	0x2
 963 017f 34       		.byte	0x34
 964 0180 9F       		.byte	0x9f
 965 0181 BA000000 		.4byte	.LVL20
 966 0185 D0000000 		.4byte	.LVL21
 967 0189 0200     		.2byte	0x2
 968 018b 31       		.byte	0x31
 969 018c 9F       		.byte	0x9f
 970 018d D0000000 		.4byte	.LVL21
 971 0191 E6000000 		.4byte	.LVL22
 972 0195 0200     		.2byte	0x2
 973 0197 32       		.byte	0x32
 974 0198 9F       		.byte	0x9f
 975 0199 E6000000 		.4byte	.LVL22
 976 019d FC000000 		.4byte	.LVL23
 977 01a1 0200     		.2byte	0x2
 978 01a3 33       		.byte	0x33
 979 01a4 9F       		.byte	0x9f
 980 01a5 FC000000 		.4byte	.LVL23
 981 01a9 40010000 		.4byte	.LFE11
 982 01ad 0200     		.2byte	0x2
 983 01af 34       		.byte	0x34
 984 01b0 9F       		.byte	0x9f
 985 01b1 00000000 		.4byte	0x0
 986 01b5 00000000 		.4byte	0x0
 987              	.LLST10:
 988 01b9 00000000 		.4byte	.LFB9
 989 01bd 02000000 		.4byte	.LCFI5
 990 01c1 0200     		.2byte	0x2
 991 01c3 7D       		.byte	0x7d
 992 01c4 00       		.sleb128 0
 993 01c5 02000000 		.4byte	.LCFI5
 994 01c9 10000000 		.4byte	.LCFI6
 995 01cd 0200     		.2byte	0x2
 996 01cf 7D       		.byte	0x7d
ARM GAS  /tmp/ccgU6v6L.s 			page 19


 997 01d0 10       		.sleb128 16
 998 01d1 10000000 		.4byte	.LCFI6
 999 01d5 FC000000 		.4byte	.LFE9
 1000 01d9 0200     		.2byte	0x2
 1001 01db 7D       		.byte	0x7d
 1002 01dc 20       		.sleb128 32
 1003 01dd 00000000 		.4byte	0x0
 1004 01e1 00000000 		.4byte	0x0
 1005              	.LLST11:
 1006 01e5 80000000 		.4byte	.LVL28
 1007 01e9 84000000 		.4byte	.LVL29
 1008 01ed 0200     		.2byte	0x2
 1009 01ef 91       		.byte	0x91
 1010 01f0 68       		.sleb128 -24
 1011 01f1 B4000000 		.4byte	.LVL30
 1012 01f5 C8000000 		.4byte	.LVL31
 1013 01f9 0200     		.2byte	0x2
 1014 01fb 91       		.byte	0x91
 1015 01fc 68       		.sleb128 -24
 1016 01fd 00000000 		.4byte	0x0
 1017 0201 00000000 		.4byte	0x0
 1018              	.LLST12:
 1019 0205 58000000 		.4byte	.LVL26
 1020 0209 5C000000 		.4byte	.LVL27
 1021 020d 0100     		.2byte	0x1
 1022 020f 50       		.byte	0x50
 1023 0210 5C000000 		.4byte	.LVL27
 1024 0214 FC000000 		.4byte	.LFE9
 1025 0218 0100     		.2byte	0x1
 1026 021a 56       		.byte	0x56
 1027 021b 00000000 		.4byte	0x0
 1028 021f 00000000 		.4byte	0x0
 1029              		.file 2 "/opt/stm32/arm-none-eabi-2011.03/bin/../lib/gcc/arm-none-eabi/4.5.2/include/stddef.h"
 1030              		.file 3 "/opt/stm32/arm-none-eabi-2011.03/bin/../lib/gcc/arm-none-eabi/4.5.2/../../../../arm-none-
 1031              		.file 4 "../libs/ChibiOS_2.4.0/os/ports/GCC/ARMCMx/chtypes.h"
 1032              		.file 5 "../libs/ChibiOS_2.4.0/os/kernel/include/chlists.h"
 1033              		.file 6 "../libs/ChibiOS_2.4.0/os/kernel/include/chthreads.h"
 1034              		.file 7 "../libs/ChibiOS_2.4.0/os/ports/GCC/ARMCMx/chcore_v7m.h"
 1035              		.file 8 "../libs/ChibiOS_2.4.0/os/kernel/include/chschd.h"
 1036              		.file 9 "../libs/ChibiOS_2.4.0/os/kernel/include/chmtx.h"
 1037              		.file 10 "../libs/ChibiOS_2.4.0/os/kernel/include/chmemcore.h"
 1038              		.file 11 "../libs/ChibiOS_2.4.0/os/kernel/include/chheap.h"
 1039              		.file 12 "../libs/ChibiOS_2.4.0/os/kernel/include/chmempools.h"
 1040              		.file 13 "../libs/ChibiOS_2.4.0/test/test.h"
 1041              		.section	.debug_info
 1042 0000 05090000 		.4byte	0x905
 1043 0004 0200     		.2byte	0x2
 1044 0006 00000000 		.4byte	.Ldebug_abbrev0
 1045 000a 04       		.byte	0x4
 1046 000b 01       		.uleb128 0x1
 1047 000c BF030000 		.4byte	.LASF107
 1048 0010 01       		.byte	0x1
 1049 0011 CF010000 		.4byte	.LASF108
 1050 0015 FA030000 		.4byte	.LASF109
 1051 0019 00000000 		.4byte	0x0
 1052 001d 00000000 		.4byte	0x0
 1053 0021 00000000 		.4byte	.Ldebug_ranges0+0x0
ARM GAS  /tmp/ccgU6v6L.s 			page 20


 1054 0025 00000000 		.4byte	.Ldebug_line0
 1055 0029 02       		.uleb128 0x2
 1056 002a 04       		.byte	0x4
 1057 002b 05       		.byte	0x5
 1058 002c 696E7400 		.ascii	"int\000"
 1059 0030 03       		.uleb128 0x3
 1060 0031 06000000 		.4byte	.LASF2
 1061 0035 02       		.byte	0x2
 1062 0036 D3       		.byte	0xd3
 1063 0037 3B000000 		.4byte	0x3b
 1064 003b 04       		.uleb128 0x4
 1065 003c 04       		.byte	0x4
 1066 003d 07       		.byte	0x7
 1067 003e 0C010000 		.4byte	.LASF0
 1068 0042 04       		.uleb128 0x4
 1069 0043 01       		.byte	0x1
 1070 0044 06       		.byte	0x6
 1071 0045 8B000000 		.4byte	.LASF1
 1072 0049 03       		.uleb128 0x3
 1073 004a B0030000 		.4byte	.LASF3
 1074 004e 03       		.byte	0x3
 1075 004f 2A       		.byte	0x2a
 1076 0050 54000000 		.4byte	0x54
 1077 0054 04       		.uleb128 0x4
 1078 0055 01       		.byte	0x1
 1079 0056 08       		.byte	0x8
 1080 0057 84020000 		.4byte	.LASF4
 1081 005b 04       		.uleb128 0x4
 1082 005c 02       		.byte	0x2
 1083 005d 05       		.byte	0x5
 1084 005e A7020000 		.4byte	.LASF5
 1085 0062 04       		.uleb128 0x4
 1086 0063 02       		.byte	0x2
 1087 0064 07       		.byte	0x7
 1088 0065 51010000 		.4byte	.LASF6
 1089 0069 03       		.uleb128 0x3
 1090 006a 7C020000 		.4byte	.LASF7
 1091 006e 03       		.byte	0x3
 1092 006f 4F       		.byte	0x4f
 1093 0070 74000000 		.4byte	0x74
 1094 0074 04       		.uleb128 0x4
 1095 0075 04       		.byte	0x4
 1096 0076 05       		.byte	0x5
 1097 0077 B4000000 		.4byte	.LASF8
 1098 007b 03       		.uleb128 0x3
 1099 007c 05030000 		.4byte	.LASF9
 1100 0080 03       		.byte	0x3
 1101 0081 50       		.byte	0x50
 1102 0082 86000000 		.4byte	0x86
 1103 0086 04       		.uleb128 0x4
 1104 0087 04       		.byte	0x4
 1105 0088 07       		.byte	0x7
 1106 0089 19010000 		.4byte	.LASF10
 1107 008d 04       		.uleb128 0x4
 1108 008e 08       		.byte	0x8
 1109 008f 05       		.byte	0x5
 1110 0090 7D000000 		.4byte	.LASF11
ARM GAS  /tmp/ccgU6v6L.s 			page 21


 1111 0094 03       		.uleb128 0x3
 1112 0095 19000000 		.4byte	.LASF12
 1113 0099 03       		.byte	0x3
 1114 009a 78       		.byte	0x78
 1115 009b 9F000000 		.4byte	0x9f
 1116 009f 04       		.uleb128 0x4
 1117 00a0 08       		.byte	0x8
 1118 00a1 07       		.byte	0x7
 1119 00a2 3A000000 		.4byte	.LASF13
 1120 00a6 03       		.uleb128 0x3
 1121 00a7 A5000000 		.4byte	.LASF14
 1122 00ab 04       		.byte	0x4
 1123 00ac 2E       		.byte	0x2e
 1124 00ad 69000000 		.4byte	0x69
 1125 00b1 03       		.uleb128 0x3
 1126 00b2 77010000 		.4byte	.LASF15
 1127 00b6 04       		.byte	0x4
 1128 00b7 2F       		.byte	0x2f
 1129 00b8 49000000 		.4byte	0x49
 1130 00bc 03       		.uleb128 0x3
 1131 00bd BD000000 		.4byte	.LASF16
 1132 00c1 04       		.byte	0x4
 1133 00c2 30       		.byte	0x30
 1134 00c3 49000000 		.4byte	0x49
 1135 00c7 03       		.uleb128 0x3
 1136 00c8 56020000 		.4byte	.LASF17
 1137 00cc 04       		.byte	0x4
 1138 00cd 31       		.byte	0x31
 1139 00ce 49000000 		.4byte	0x49
 1140 00d2 03       		.uleb128 0x3
 1141 00d3 6D020000 		.4byte	.LASF18
 1142 00d7 04       		.byte	0x4
 1143 00d8 32       		.byte	0x32
 1144 00d9 7B000000 		.4byte	0x7b
 1145 00dd 03       		.uleb128 0x3
 1146 00de 71010000 		.4byte	.LASF19
 1147 00e2 04       		.byte	0x4
 1148 00e3 33       		.byte	0x33
 1149 00e4 69000000 		.4byte	0x69
 1150 00e8 03       		.uleb128 0x3
 1151 00e9 8B010000 		.4byte	.LASF20
 1152 00ed 04       		.byte	0x4
 1153 00ee 35       		.byte	0x35
 1154 00ef 7B000000 		.4byte	0x7b
 1155 00f3 03       		.uleb128 0x3
 1156 00f4 32030000 		.4byte	.LASF21
 1157 00f8 04       		.byte	0x4
 1158 00f9 36       		.byte	0x36
 1159 00fa 7B000000 		.4byte	0x7b
 1160 00fe 03       		.uleb128 0x3
 1161 00ff 06010000 		.4byte	.LASF22
 1162 0103 04       		.byte	0x4
 1163 0104 37       		.byte	0x37
 1164 0105 69000000 		.4byte	0x69
 1165 0109 03       		.uleb128 0x3
 1166 010a EA020000 		.4byte	.LASF23
 1167 010e 05       		.byte	0x5
ARM GAS  /tmp/ccgU6v6L.s 			page 22


 1168 010f 2A       		.byte	0x2a
 1169 0110 14010000 		.4byte	0x114
 1170 0114 05       		.uleb128 0x5
 1171 0115 EA020000 		.4byte	.LASF23
 1172 0119 48       		.byte	0x48
 1173 011a 06       		.byte	0x6
 1174 011b 5E       		.byte	0x5e
 1175 011c 2B020000 		.4byte	0x22b
 1176 0120 06       		.uleb128 0x6
 1177 0121 DB020000 		.4byte	.LASF24
 1178 0125 06       		.byte	0x6
 1179 0126 5F       		.byte	0x5f
 1180 0127 50020000 		.4byte	0x250
 1181 012b 02       		.byte	0x2
 1182 012c 23       		.byte	0x23
 1183 012d 00       		.uleb128 0x0
 1184 012e 06       		.uleb128 0x6
 1185 012f 5E020000 		.4byte	.LASF25
 1186 0133 06       		.byte	0x6
 1187 0134 61       		.byte	0x61
 1188 0135 50020000 		.4byte	0x250
 1189 0139 02       		.byte	0x2
 1190 013a 23       		.byte	0x23
 1191 013b 04       		.uleb128 0x4
 1192 013c 06       		.uleb128 0x6
 1193 013d 6B000000 		.4byte	.LASF26
 1194 0141 06       		.byte	0x6
 1195 0142 63       		.byte	0x63
 1196 0143 D2000000 		.4byte	0xd2
 1197 0147 02       		.byte	0x2
 1198 0148 23       		.byte	0x23
 1199 0149 08       		.uleb128 0x8
 1200 014a 06       		.uleb128 0x6
 1201 014b E4030000 		.4byte	.LASF27
 1202 014f 06       		.byte	0x6
 1203 0150 64       		.byte	0x64
 1204 0151 28030000 		.4byte	0x328
 1205 0155 02       		.byte	0x2
 1206 0156 23       		.byte	0x23
 1207 0157 0C       		.uleb128 0xc
 1208 0158 06       		.uleb128 0x6
 1209 0159 DB000000 		.4byte	.LASF28
 1210 015d 06       		.byte	0x6
 1211 015e 66       		.byte	0x66
 1212 015f 50020000 		.4byte	0x250
 1213 0163 02       		.byte	0x2
 1214 0164 23       		.byte	0x23
 1215 0165 10       		.uleb128 0x10
 1216 0166 06       		.uleb128 0x6
 1217 0167 01020000 		.4byte	.LASF29
 1218 016b 06       		.byte	0x6
 1219 016c 67       		.byte	0x67
 1220 016d 50020000 		.4byte	0x250
 1221 0171 02       		.byte	0x2
 1222 0172 23       		.byte	0x23
 1223 0173 14       		.uleb128 0x14
 1224 0174 06       		.uleb128 0x6
ARM GAS  /tmp/ccgU6v6L.s 			page 23


 1225 0175 CB030000 		.4byte	.LASF30
 1226 0179 06       		.byte	0x6
 1227 017a 6E       		.byte	0x6e
 1228 017b 74050000 		.4byte	0x574
 1229 017f 02       		.byte	0x2
 1230 0180 23       		.byte	0x23
 1231 0181 18       		.uleb128 0x18
 1232 0182 06       		.uleb128 0x6
 1233 0183 B1020000 		.4byte	.LASF31
 1234 0187 06       		.byte	0x6
 1235 0188 79       		.byte	0x79
 1236 0189 BC000000 		.4byte	0xbc
 1237 018d 02       		.byte	0x2
 1238 018e 23       		.byte	0x23
 1239 018f 1C       		.uleb128 0x1c
 1240 0190 06       		.uleb128 0x6
 1241 0191 E2020000 		.4byte	.LASF32
 1242 0195 06       		.byte	0x6
 1243 0196 7D       		.byte	0x7d
 1244 0197 B1000000 		.4byte	0xb1
 1245 019b 02       		.byte	0x2
 1246 019c 23       		.byte	0x23
 1247 019d 1D       		.uleb128 0x1d
 1248 019e 06       		.uleb128 0x6
 1249 019f 91030000 		.4byte	.LASF33
 1250 01a3 06       		.byte	0x6
 1251 01a4 82       		.byte	0x82
 1252 01a5 C7000000 		.4byte	0xc7
 1253 01a9 02       		.byte	0x2
 1254 01aa 23       		.byte	0x23
 1255 01ab 1E       		.uleb128 0x1e
 1256 01ac 06       		.uleb128 0x6
 1257 01ad 59030000 		.4byte	.LASF34
 1258 01b1 06       		.byte	0x6
 1259 01b2 89       		.byte	0x89
 1260 01b3 4B030000 		.4byte	0x34b
 1261 01b7 02       		.byte	0x2
 1262 01b8 23       		.byte	0x23
 1263 01b9 20       		.uleb128 0x20
 1264 01ba 07       		.uleb128 0x7
 1265 01bb 705F7500 		.ascii	"p_u\000"
 1266 01bf 06       		.byte	0x6
 1267 01c0 AE       		.byte	0xae
 1268 01c1 3F050000 		.4byte	0x53f
 1269 01c5 02       		.byte	0x2
 1270 01c6 23       		.byte	0x23
 1271 01c7 24       		.uleb128 0x24
 1272 01c8 06       		.uleb128 0x6
 1273 01c9 EA030000 		.4byte	.LASF35
 1274 01cd 06       		.byte	0x6
 1275 01ce B3       		.byte	0xb3
 1276 01cf 78020000 		.4byte	0x278
 1277 01d3 02       		.byte	0x2
 1278 01d4 23       		.byte	0x23
 1279 01d5 28       		.uleb128 0x28
 1280 01d6 06       		.uleb128 0x6
 1281 01d7 67030000 		.4byte	.LASF36
ARM GAS  /tmp/ccgU6v6L.s 			page 24


 1282 01db 06       		.byte	0x6
 1283 01dc B9       		.byte	0xb9
 1284 01dd 56020000 		.4byte	0x256
 1285 01e1 02       		.byte	0x2
 1286 01e2 23       		.byte	0x23
 1287 01e3 2C       		.uleb128 0x2c
 1288 01e4 06       		.uleb128 0x6
 1289 01e5 00000000 		.4byte	.LASF37
 1290 01e9 06       		.byte	0x6
 1291 01ea BD       		.byte	0xbd
 1292 01eb DD000000 		.4byte	0xdd
 1293 01ef 02       		.byte	0x2
 1294 01f0 23       		.byte	0x23
 1295 01f1 34       		.uleb128 0x34
 1296 01f2 06       		.uleb128 0x6
 1297 01f3 FA020000 		.4byte	.LASF38
 1298 01f7 06       		.byte	0x6
 1299 01f8 C3       		.byte	0xc3
 1300 01f9 E8000000 		.4byte	0xe8
 1301 01fd 02       		.byte	0x2
 1302 01fe 23       		.byte	0x23
 1303 01ff 38       		.uleb128 0x38
 1304 0200 06       		.uleb128 0x6
 1305 0201 9D020000 		.4byte	.LASF39
 1306 0205 06       		.byte	0x6
 1307 0206 CA       		.byte	0xca
 1308 0207 86050000 		.4byte	0x586
 1309 020b 02       		.byte	0x2
 1310 020c 23       		.byte	0x23
 1311 020d 3C       		.uleb128 0x3c
 1312 020e 06       		.uleb128 0x6
 1313 020f 3C030000 		.4byte	.LASF40
 1314 0213 06       		.byte	0x6
 1315 0214 CE       		.byte	0xce
 1316 0215 D2000000 		.4byte	0xd2
 1317 0219 02       		.byte	0x2
 1318 021a 23       		.byte	0x23
 1319 021b 40       		.uleb128 0x40
 1320 021c 06       		.uleb128 0x6
 1321 021d 9D000000 		.4byte	.LASF41
 1322 0221 06       		.byte	0x6
 1323 0222 D4       		.byte	0xd4
 1324 0223 8E020000 		.4byte	0x28e
 1325 0227 02       		.byte	0x2
 1326 0228 23       		.byte	0x23
 1327 0229 44       		.uleb128 0x44
 1328 022a 00       		.byte	0x0
 1329 022b 08       		.uleb128 0x8
 1330 022c 08       		.byte	0x8
 1331 022d 05       		.byte	0x5
 1332 022e 61       		.byte	0x61
 1333 022f 50020000 		.4byte	0x250
 1334 0233 06       		.uleb128 0x6
 1335 0234 DB020000 		.4byte	.LASF24
 1336 0238 05       		.byte	0x5
 1337 0239 62       		.byte	0x62
 1338 023a 50020000 		.4byte	0x250
ARM GAS  /tmp/ccgU6v6L.s 			page 25


 1339 023e 02       		.byte	0x2
 1340 023f 23       		.byte	0x23
 1341 0240 00       		.uleb128 0x0
 1342 0241 06       		.uleb128 0x6
 1343 0242 5E020000 		.4byte	.LASF25
 1344 0246 05       		.byte	0x5
 1345 0247 64       		.byte	0x64
 1346 0248 50020000 		.4byte	0x250
 1347 024c 02       		.byte	0x2
 1348 024d 23       		.byte	0x23
 1349 024e 04       		.uleb128 0x4
 1350 024f 00       		.byte	0x0
 1351 0250 09       		.uleb128 0x9
 1352 0251 04       		.byte	0x4
 1353 0252 09010000 		.4byte	0x109
 1354 0256 03       		.uleb128 0x3
 1355 0257 0F020000 		.4byte	.LASF42
 1356 025b 05       		.byte	0x5
 1357 025c 66       		.byte	0x66
 1358 025d 2B020000 		.4byte	0x22b
 1359 0261 08       		.uleb128 0x8
 1360 0262 04       		.byte	0x4
 1361 0263 05       		.byte	0x5
 1362 0264 6B       		.byte	0x6b
 1363 0265 78020000 		.4byte	0x278
 1364 0269 06       		.uleb128 0x6
 1365 026a DB020000 		.4byte	.LASF24
 1366 026e 05       		.byte	0x5
 1367 026f 6D       		.byte	0x6d
 1368 0270 50020000 		.4byte	0x250
 1369 0274 02       		.byte	0x2
 1370 0275 23       		.byte	0x23
 1371 0276 00       		.uleb128 0x0
 1372 0277 00       		.byte	0x0
 1373 0278 03       		.uleb128 0x3
 1374 0279 7F010000 		.4byte	.LASF43
 1375 027d 05       		.byte	0x5
 1376 027e 70       		.byte	0x70
 1377 027f 61020000 		.4byte	0x261
 1378 0283 03       		.uleb128 0x3
 1379 0284 F7000000 		.4byte	.LASF44
 1380 0288 07       		.byte	0x7
 1381 0289 D7       		.byte	0xd7
 1382 028a 8E020000 		.4byte	0x28e
 1383 028e 0A       		.uleb128 0xa
 1384 028f 04       		.byte	0x4
 1385 0290 03       		.uleb128 0x3
 1386 0291 9D010000 		.4byte	.LASF45
 1387 0295 07       		.byte	0x7
 1388 0296 DD       		.byte	0xdd
 1389 0297 94000000 		.4byte	0x94
 1390 029b 05       		.uleb128 0x5
 1391 029c 60030000 		.4byte	.LASF46
 1392 02a0 24       		.byte	0x24
 1393 02a1 07       		.byte	0x7
 1394 02a2 FE       		.byte	0xfe
 1395 02a3 28030000 		.4byte	0x328
ARM GAS  /tmp/ccgU6v6L.s 			page 26


 1396 02a7 0B       		.uleb128 0xb
 1397 02a8 723400   		.ascii	"r4\000"
 1398 02ab 07       		.byte	0x7
 1399 02ac 1101     		.2byte	0x111
 1400 02ae 83020000 		.4byte	0x283
 1401 02b2 02       		.byte	0x2
 1402 02b3 23       		.byte	0x23
 1403 02b4 00       		.uleb128 0x0
 1404 02b5 0B       		.uleb128 0xb
 1405 02b6 723500   		.ascii	"r5\000"
 1406 02b9 07       		.byte	0x7
 1407 02ba 1201     		.2byte	0x112
 1408 02bc 83020000 		.4byte	0x283
 1409 02c0 02       		.byte	0x2
 1410 02c1 23       		.byte	0x23
 1411 02c2 04       		.uleb128 0x4
 1412 02c3 0B       		.uleb128 0xb
 1413 02c4 723600   		.ascii	"r6\000"
 1414 02c7 07       		.byte	0x7
 1415 02c8 1301     		.2byte	0x113
 1416 02ca 83020000 		.4byte	0x283
 1417 02ce 02       		.byte	0x2
 1418 02cf 23       		.byte	0x23
 1419 02d0 08       		.uleb128 0x8
 1420 02d1 0B       		.uleb128 0xb
 1421 02d2 723700   		.ascii	"r7\000"
 1422 02d5 07       		.byte	0x7
 1423 02d6 1401     		.2byte	0x114
 1424 02d8 83020000 		.4byte	0x283
 1425 02dc 02       		.byte	0x2
 1426 02dd 23       		.byte	0x23
 1427 02de 0C       		.uleb128 0xc
 1428 02df 0B       		.uleb128 0xb
 1429 02e0 723800   		.ascii	"r8\000"
 1430 02e3 07       		.byte	0x7
 1431 02e4 1501     		.2byte	0x115
 1432 02e6 83020000 		.4byte	0x283
 1433 02ea 02       		.byte	0x2
 1434 02eb 23       		.byte	0x23
 1435 02ec 10       		.uleb128 0x10
 1436 02ed 0B       		.uleb128 0xb
 1437 02ee 723900   		.ascii	"r9\000"
 1438 02f1 07       		.byte	0x7
 1439 02f2 1601     		.2byte	0x116
 1440 02f4 83020000 		.4byte	0x283
 1441 02f8 02       		.byte	0x2
 1442 02f9 23       		.byte	0x23
 1443 02fa 14       		.uleb128 0x14
 1444 02fb 0B       		.uleb128 0xb
 1445 02fc 72313000 		.ascii	"r10\000"
 1446 0300 07       		.byte	0x7
 1447 0301 1701     		.2byte	0x117
 1448 0303 83020000 		.4byte	0x283
 1449 0307 02       		.byte	0x2
 1450 0308 23       		.byte	0x23
 1451 0309 18       		.uleb128 0x18
 1452 030a 0B       		.uleb128 0xb
ARM GAS  /tmp/ccgU6v6L.s 			page 27


 1453 030b 72313100 		.ascii	"r11\000"
 1454 030f 07       		.byte	0x7
 1455 0310 1801     		.2byte	0x118
 1456 0312 83020000 		.4byte	0x283
 1457 0316 02       		.byte	0x2
 1458 0317 23       		.byte	0x23
 1459 0318 1C       		.uleb128 0x1c
 1460 0319 0B       		.uleb128 0xb
 1461 031a 6C7200   		.ascii	"lr\000"
 1462 031d 07       		.byte	0x7
 1463 031e 1901     		.2byte	0x119
 1464 0320 83020000 		.4byte	0x283
 1465 0324 02       		.byte	0x2
 1466 0325 23       		.byte	0x23
 1467 0326 20       		.uleb128 0x20
 1468 0327 00       		.byte	0x0
 1469 0328 0C       		.uleb128 0xc
 1470 0329 44010000 		.4byte	.LASF47
 1471 032d 04       		.byte	0x4
 1472 032e 07       		.byte	0x7
 1473 032f 2301     		.2byte	0x123
 1474 0331 45030000 		.4byte	0x345
 1475 0335 0B       		.uleb128 0xb
 1476 0336 72313300 		.ascii	"r13\000"
 1477 033a 07       		.byte	0x7
 1478 033b 2401     		.2byte	0x124
 1479 033d 45030000 		.4byte	0x345
 1480 0341 02       		.byte	0x2
 1481 0342 23       		.byte	0x23
 1482 0343 00       		.uleb128 0x0
 1483 0344 00       		.byte	0x0
 1484 0345 09       		.uleb128 0x9
 1485 0346 04       		.byte	0x4
 1486 0347 9B020000 		.4byte	0x29b
 1487 034b 0D       		.uleb128 0xd
 1488 034c F3000000 		.4byte	0xf3
 1489 0350 08       		.uleb128 0x8
 1490 0351 20       		.byte	0x20
 1491 0352 08       		.byte	0x8
 1492 0353 5E       		.byte	0x5e
 1493 0354 BB030000 		.4byte	0x3bb
 1494 0358 06       		.uleb128 0x6
 1495 0359 0E030000 		.4byte	.LASF48
 1496 035d 08       		.byte	0x8
 1497 035e 5F       		.byte	0x5f
 1498 035f 56020000 		.4byte	0x256
 1499 0363 02       		.byte	0x2
 1500 0364 23       		.byte	0x23
 1501 0365 00       		.uleb128 0x0
 1502 0366 06       		.uleb128 0x6
 1503 0367 C1020000 		.4byte	.LASF49
 1504 036b 08       		.byte	0x8
 1505 036c 60       		.byte	0x60
 1506 036d D2000000 		.4byte	0xd2
 1507 0371 02       		.byte	0x2
 1508 0372 23       		.byte	0x23
 1509 0373 08       		.uleb128 0x8
ARM GAS  /tmp/ccgU6v6L.s 			page 28


 1510 0374 06       		.uleb128 0x6
 1511 0375 09020000 		.4byte	.LASF50
 1512 0379 08       		.byte	0x8
 1513 037a 62       		.byte	0x62
 1514 037b 28030000 		.4byte	0x328
 1515 037f 02       		.byte	0x2
 1516 0380 23       		.byte	0x23
 1517 0381 0C       		.uleb128 0xc
 1518 0382 06       		.uleb128 0x6
 1519 0383 E3000000 		.4byte	.LASF51
 1520 0387 08       		.byte	0x8
 1521 0388 65       		.byte	0x65
 1522 0389 50020000 		.4byte	0x250
 1523 038d 02       		.byte	0x2
 1524 038e 23       		.byte	0x23
 1525 038f 10       		.uleb128 0x10
 1526 0390 06       		.uleb128 0x6
 1527 0391 3B020000 		.4byte	.LASF52
 1528 0395 08       		.byte	0x8
 1529 0396 66       		.byte	0x66
 1530 0397 50020000 		.4byte	0x250
 1531 039b 02       		.byte	0x2
 1532 039c 23       		.byte	0x23
 1533 039d 14       		.uleb128 0x14
 1534 039e 06       		.uleb128 0x6
 1535 039f D2030000 		.4byte	.LASF53
 1536 03a3 08       		.byte	0x8
 1537 03a4 6A       		.byte	0x6a
 1538 03a5 FE000000 		.4byte	0xfe
 1539 03a9 02       		.byte	0x2
 1540 03aa 23       		.byte	0x23
 1541 03ab 18       		.uleb128 0x18
 1542 03ac 06       		.uleb128 0x6
 1543 03ad 31020000 		.4byte	.LASF54
 1544 03b1 08       		.byte	0x8
 1545 03b2 6C       		.byte	0x6c
 1546 03b3 50020000 		.4byte	0x250
 1547 03b7 02       		.byte	0x2
 1548 03b8 23       		.byte	0x23
 1549 03b9 1C       		.uleb128 0x1c
 1550 03ba 00       		.byte	0x0
 1551 03bb 03       		.uleb128 0x3
 1552 03bc 98030000 		.4byte	.LASF55
 1553 03c0 08       		.byte	0x8
 1554 03c1 6E       		.byte	0x6e
 1555 03c2 50030000 		.4byte	0x350
 1556 03c6 05       		.uleb128 0x5
 1557 03c7 97010000 		.4byte	.LASF56
 1558 03cb 10       		.byte	0x10
 1559 03cc 09       		.byte	0x9
 1560 03cd 2C       		.byte	0x2c
 1561 03ce FD030000 		.4byte	0x3fd
 1562 03d2 06       		.uleb128 0x6
 1563 03d3 AC000000 		.4byte	.LASF57
 1564 03d7 09       		.byte	0x9
 1565 03d8 2D       		.byte	0x2d
 1566 03d9 56020000 		.4byte	0x256
ARM GAS  /tmp/ccgU6v6L.s 			page 29


 1567 03dd 02       		.byte	0x2
 1568 03de 23       		.byte	0x23
 1569 03df 00       		.uleb128 0x0
 1570 03e0 06       		.uleb128 0x6
 1571 03e1 DC030000 		.4byte	.LASF58
 1572 03e5 09       		.byte	0x9
 1573 03e6 2F       		.byte	0x2f
 1574 03e7 50020000 		.4byte	0x250
 1575 03eb 02       		.byte	0x2
 1576 03ec 23       		.byte	0x23
 1577 03ed 08       		.uleb128 0x8
 1578 03ee 06       		.uleb128 0x6
 1579 03ef 2B030000 		.4byte	.LASF59
 1580 03f3 09       		.byte	0x9
 1581 03f4 31       		.byte	0x31
 1582 03f5 FD030000 		.4byte	0x3fd
 1583 03f9 02       		.byte	0x2
 1584 03fa 23       		.byte	0x23
 1585 03fb 0C       		.uleb128 0xc
 1586 03fc 00       		.byte	0x0
 1587 03fd 09       		.uleb128 0x9
 1588 03fe 04       		.byte	0x4
 1589 03ff C6030000 		.4byte	0x3c6
 1590 0403 03       		.uleb128 0x3
 1591 0404 97010000 		.4byte	.LASF56
 1592 0408 09       		.byte	0x9
 1593 0409 33       		.byte	0x33
 1594 040a C6030000 		.4byte	0x3c6
 1595 040e 03       		.uleb128 0x3
 1596 040f 2D000000 		.4byte	.LASF60
 1597 0413 0A       		.byte	0xa
 1598 0414 2C       		.byte	0x2c
 1599 0415 19040000 		.4byte	0x419
 1600 0419 09       		.uleb128 0x9
 1601 041a 04       		.byte	0x4
 1602 041b 1F040000 		.4byte	0x41f
 1603 041f 0E       		.uleb128 0xe
 1604 0420 01       		.byte	0x1
 1605 0421 8E020000 		.4byte	0x28e
 1606 0425 2F040000 		.4byte	0x42f
 1607 0429 0F       		.uleb128 0xf
 1608 042a 30000000 		.4byte	0x30
 1609 042e 00       		.byte	0x0
 1610 042f 03       		.uleb128 0x3
 1611 0430 43020000 		.4byte	.LASF61
 1612 0434 0B       		.byte	0xb
 1613 0435 34       		.byte	0x34
 1614 0436 3A040000 		.4byte	0x43a
 1615 043a 05       		.uleb128 0x5
 1616 043b A8010000 		.4byte	.LASF62
 1617 043f 20       		.byte	0x20
 1618 0440 0B       		.byte	0xb
 1619 0441 47       		.byte	0x47
 1620 0442 71040000 		.4byte	0x471
 1621 0446 06       		.uleb128 0x6
 1622 0447 92020000 		.4byte	.LASF63
 1623 044b 0B       		.byte	0xb
ARM GAS  /tmp/ccgU6v6L.s 			page 30


 1624 044c 48       		.byte	0x48
 1625 044d 0E040000 		.4byte	0x40e
 1626 0451 02       		.byte	0x2
 1627 0452 23       		.byte	0x23
 1628 0453 00       		.uleb128 0x0
 1629 0454 06       		.uleb128 0x6
 1630 0455 5A000000 		.4byte	.LASF64
 1631 0459 0B       		.byte	0xb
 1632 045a 4A       		.byte	0x4a
 1633 045b 90040000 		.4byte	0x490
 1634 045f 02       		.byte	0x2
 1635 0460 23       		.byte	0x23
 1636 0461 08       		.uleb128 0x8
 1637 0462 06       		.uleb128 0x6
 1638 0463 97000000 		.4byte	.LASF65
 1639 0467 0B       		.byte	0xb
 1640 0468 4C       		.byte	0x4c
 1641 0469 03040000 		.4byte	0x403
 1642 046d 02       		.byte	0x2
 1643 046e 23       		.byte	0x23
 1644 046f 10       		.uleb128 0x10
 1645 0470 00       		.byte	0x0
 1646 0471 10       		.uleb128 0x10
 1647 0472 04       		.byte	0x4
 1648 0473 0B       		.byte	0xb
 1649 0474 3C       		.byte	0x3c
 1650 0475 90040000 		.4byte	0x490
 1651 0479 11       		.uleb128 0x11
 1652 047a 66000000 		.4byte	.LASF66
 1653 047e 0B       		.byte	0xb
 1654 047f 3D       		.byte	0x3d
 1655 0480 B1040000 		.4byte	0x4b1
 1656 0484 11       		.uleb128 0x11
 1657 0485 16030000 		.4byte	.LASF67
 1658 0489 0B       		.byte	0xb
 1659 048a 3E       		.byte	0x3e
 1660 048b B7040000 		.4byte	0x4b7
 1661 048f 00       		.byte	0x0
 1662 0490 12       		.uleb128 0x12
 1663 0491 C8020000 		.4byte	.LASF86
 1664 0495 08       		.byte	0x8
 1665 0496 0B       		.byte	0xb
 1666 0497 39       		.byte	0x39
 1667 0498 B1040000 		.4byte	0x4b1
 1668 049c 11       		.uleb128 0x11
 1669 049d 00010000 		.4byte	.LASF68
 1670 04a1 0B       		.byte	0xb
 1671 04a2 3A       		.byte	0x3a
 1672 04a3 90020000 		.4byte	0x290
 1673 04a7 13       		.uleb128 0x13
 1674 04a8 6800     		.ascii	"h\000"
 1675 04aa 0B       		.byte	0xb
 1676 04ab 41       		.byte	0x41
 1677 04ac BD040000 		.4byte	0x4bd
 1678 04b0 00       		.byte	0x0
 1679 04b1 09       		.uleb128 0x9
 1680 04b2 04       		.byte	0x4
ARM GAS  /tmp/ccgU6v6L.s 			page 31


 1681 04b3 90040000 		.4byte	0x490
 1682 04b7 09       		.uleb128 0x9
 1683 04b8 04       		.byte	0x4
 1684 04b9 2F040000 		.4byte	0x42f
 1685 04bd 08       		.uleb128 0x8
 1686 04be 08       		.byte	0x8
 1687 04bf 0B       		.byte	0xb
 1688 04c0 3B       		.byte	0x3b
 1689 04c1 E0040000 		.4byte	0x4e0
 1690 04c5 07       		.uleb128 0x7
 1691 04c6 7500     		.ascii	"u\000"
 1692 04c8 0B       		.byte	0xb
 1693 04c9 3F       		.byte	0x3f
 1694 04ca 71040000 		.4byte	0x471
 1695 04ce 02       		.byte	0x2
 1696 04cf 23       		.byte	0x23
 1697 04d0 00       		.uleb128 0x0
 1698 04d1 06       		.uleb128 0x6
 1699 04d2 4C010000 		.4byte	.LASF69
 1700 04d6 0B       		.byte	0xb
 1701 04d7 40       		.byte	0x40
 1702 04d8 30000000 		.4byte	0x30
 1703 04dc 02       		.byte	0x2
 1704 04dd 23       		.byte	0x23
 1705 04de 04       		.uleb128 0x4
 1706 04df 00       		.byte	0x0
 1707 04e0 05       		.uleb128 0x5
 1708 04e1 85030000 		.4byte	.LASF70
 1709 04e5 04       		.byte	0x4
 1710 04e6 0C       		.byte	0xc
 1711 04e7 2C       		.byte	0x2c
 1712 04e8 FB040000 		.4byte	0x4fb
 1713 04ec 06       		.uleb128 0x6
 1714 04ed 4E020000 		.4byte	.LASF71
 1715 04f1 0C       		.byte	0xc
 1716 04f2 2D       		.byte	0x2d
 1717 04f3 FB040000 		.4byte	0x4fb
 1718 04f7 02       		.byte	0x2
 1719 04f8 23       		.byte	0x23
 1720 04f9 00       		.uleb128 0x0
 1721 04fa 00       		.byte	0x0
 1722 04fb 09       		.uleb128 0x9
 1723 04fc 04       		.byte	0x4
 1724 04fd E0040000 		.4byte	0x4e0
 1725 0501 08       		.uleb128 0x8
 1726 0502 0C       		.byte	0xc
 1727 0503 0C       		.byte	0xc
 1728 0504 34       		.byte	0x34
 1729 0505 34050000 		.4byte	0x534
 1730 0509 06       		.uleb128 0x6
 1731 050a C6000000 		.4byte	.LASF72
 1732 050e 0C       		.byte	0xc
 1733 050f 35       		.byte	0x35
 1734 0510 FB040000 		.4byte	0x4fb
 1735 0514 02       		.byte	0x2
 1736 0515 23       		.byte	0x23
 1737 0516 00       		.uleb128 0x0
ARM GAS  /tmp/ccgU6v6L.s 			page 32


 1738 0517 06       		.uleb128 0x6
 1739 0518 1C020000 		.4byte	.LASF73
 1740 051c 0C       		.byte	0xc
 1741 051d 36       		.byte	0x36
 1742 051e 30000000 		.4byte	0x30
 1743 0522 02       		.byte	0x2
 1744 0523 23       		.byte	0x23
 1745 0524 04       		.uleb128 0x4
 1746 0525 06       		.uleb128 0x6
 1747 0526 EB000000 		.4byte	.LASF74
 1748 052a 0C       		.byte	0xc
 1749 052b 38       		.byte	0x38
 1750 052c 0E040000 		.4byte	0x40e
 1751 0530 02       		.byte	0x2
 1752 0531 23       		.byte	0x23
 1753 0532 08       		.uleb128 0x8
 1754 0533 00       		.byte	0x0
 1755 0534 03       		.uleb128 0x3
 1756 0535 22000000 		.4byte	.LASF75
 1757 0539 0C       		.byte	0xc
 1758 053a 3A       		.byte	0x3a
 1759 053b 01050000 		.4byte	0x501
 1760 053f 10       		.uleb128 0x10
 1761 0540 04       		.byte	0x4
 1762 0541 06       		.byte	0x6
 1763 0542 90       		.byte	0x90
 1764 0543 74050000 		.4byte	0x574
 1765 0547 11       		.uleb128 0x11
 1766 0548 12000000 		.4byte	.LASF76
 1767 054c 06       		.byte	0x6
 1768 054d 97       		.byte	0x97
 1769 054e DD000000 		.4byte	0xdd
 1770 0552 11       		.uleb128 0x11
 1771 0553 51000000 		.4byte	.LASF77
 1772 0557 06       		.byte	0x6
 1773 0558 9E       		.byte	0x9e
 1774 0559 DD000000 		.4byte	0xdd
 1775 055d 11       		.uleb128 0x11
 1776 055e B8030000 		.4byte	.LASF78
 1777 0562 06       		.byte	0x6
 1778 0563 A5       		.byte	0xa5
 1779 0564 8E020000 		.4byte	0x28e
 1780 0568 11       		.uleb128 0x11
 1781 0569 D4020000 		.4byte	.LASF79
 1782 056d 06       		.byte	0x6
 1783 056e AC       		.byte	0xac
 1784 056f E8000000 		.4byte	0xe8
 1785 0573 00       		.byte	0x0
 1786 0574 09       		.uleb128 0x9
 1787 0575 04       		.byte	0x4
 1788 0576 7A050000 		.4byte	0x57a
 1789 057a 14       		.uleb128 0x14
 1790 057b 7F050000 		.4byte	0x57f
 1791 057f 04       		.uleb128 0x4
 1792 0580 01       		.byte	0x1
 1793 0581 08       		.byte	0x8
 1794 0582 1B030000 		.4byte	.LASF80
ARM GAS  /tmp/ccgU6v6L.s 			page 33


 1795 0586 09       		.uleb128 0x9
 1796 0587 04       		.byte	0x4
 1797 0588 03040000 		.4byte	0x403
 1798 058c 05       		.uleb128 0x5
 1799 058d F1020000 		.4byte	.LASF81
 1800 0591 10       		.byte	0x10
 1801 0592 0D       		.byte	0xd
 1802 0593 46       		.byte	0x46
 1803 0594 D1050000 		.4byte	0x5d1
 1804 0598 06       		.uleb128 0x6
 1805 0599 3F010000 		.4byte	.LASF82
 1806 059d 0D       		.byte	0xd
 1807 059e 47       		.byte	0x47
 1808 059f 74050000 		.4byte	0x574
 1809 05a3 02       		.byte	0x2
 1810 05a4 23       		.byte	0x23
 1811 05a5 00       		.uleb128 0x0
 1812 05a6 06       		.uleb128 0x6
 1813 05a7 2B020000 		.4byte	.LASF83
 1814 05ab 0D       		.byte	0xd
 1815 05ac 48       		.byte	0x48
 1816 05ad D3050000 		.4byte	0x5d3
 1817 05b1 02       		.byte	0x2
 1818 05b2 23       		.byte	0x23
 1819 05b3 04       		.uleb128 0x4
 1820 05b4 06       		.uleb128 0x6
 1821 05b5 2B010000 		.4byte	.LASF84
 1822 05b9 0D       		.byte	0xd
 1823 05ba 49       		.byte	0x49
 1824 05bb D3050000 		.4byte	0x5d3
 1825 05bf 02       		.byte	0x2
 1826 05c0 23       		.byte	0x23
 1827 05c1 08       		.uleb128 0x8
 1828 05c2 06       		.uleb128 0x6
 1829 05c3 65020000 		.4byte	.LASF85
 1830 05c7 0D       		.byte	0xd
 1831 05c8 4A       		.byte	0x4a
 1832 05c9 D3050000 		.4byte	0x5d3
 1833 05cd 02       		.byte	0x2
 1834 05ce 23       		.byte	0x23
 1835 05cf 0C       		.uleb128 0xc
 1836 05d0 00       		.byte	0x0
 1837 05d1 15       		.uleb128 0x15
 1838 05d2 01       		.byte	0x1
 1839 05d3 09       		.uleb128 0x9
 1840 05d4 04       		.byte	0x4
 1841 05d5 D1050000 		.4byte	0x5d1
 1842 05d9 16       		.uleb128 0x16
 1843 05da A005     		.2byte	0x5a0
 1844 05dc 0D       		.byte	0xd
 1845 05dd 4F       		.byte	0x4f
 1846 05de 28060000 		.4byte	0x628
 1847 05e2 07       		.uleb128 0x7
 1848 05e3 543000   		.ascii	"T0\000"
 1849 05e6 0D       		.byte	0xd
 1850 05e7 50       		.byte	0x50
 1851 05e8 28060000 		.4byte	0x628
ARM GAS  /tmp/ccgU6v6L.s 			page 34


 1852 05ec 02       		.byte	0x2
 1853 05ed 23       		.byte	0x23
 1854 05ee 00       		.uleb128 0x0
 1855 05ef 07       		.uleb128 0x7
 1856 05f0 543100   		.ascii	"T1\000"
 1857 05f3 0D       		.byte	0xd
 1858 05f4 51       		.byte	0x51
 1859 05f5 28060000 		.4byte	0x628
 1860 05f9 03       		.byte	0x3
 1861 05fa 23       		.byte	0x23
 1862 05fb A002     		.uleb128 0x120
 1863 05fd 07       		.uleb128 0x7
 1864 05fe 543200   		.ascii	"T2\000"
 1865 0601 0D       		.byte	0xd
 1866 0602 52       		.byte	0x52
 1867 0603 28060000 		.4byte	0x628
 1868 0607 03       		.byte	0x3
 1869 0608 23       		.byte	0x23
 1870 0609 C004     		.uleb128 0x240
 1871 060b 07       		.uleb128 0x7
 1872 060c 543300   		.ascii	"T3\000"
 1873 060f 0D       		.byte	0xd
 1874 0610 53       		.byte	0x53
 1875 0611 28060000 		.4byte	0x628
 1876 0615 03       		.byte	0x3
 1877 0616 23       		.byte	0x23
 1878 0617 E006     		.uleb128 0x360
 1879 0619 07       		.uleb128 0x7
 1880 061a 543400   		.ascii	"T4\000"
 1881 061d 0D       		.byte	0xd
 1882 061e 54       		.byte	0x54
 1883 061f 28060000 		.4byte	0x628
 1884 0623 03       		.byte	0x3
 1885 0624 23       		.byte	0x23
 1886 0625 8009     		.uleb128 0x480
 1887 0627 00       		.byte	0x0
 1888 0628 17       		.uleb128 0x17
 1889 0629 90020000 		.4byte	0x290
 1890 062d 38060000 		.4byte	0x638
 1891 0631 18       		.uleb128 0x18
 1892 0632 3B000000 		.4byte	0x3b
 1893 0636 23       		.byte	0x23
 1894 0637 00       		.byte	0x0
 1895 0638 19       		.uleb128 0x19
 1896 0639 78030000 		.4byte	.LASF87
 1897 063d A005     		.2byte	0x5a0
 1898 063f 0D       		.byte	0xd
 1899 0640 4E       		.byte	0x4e
 1900 0641 5B060000 		.4byte	0x65b
 1901 0645 13       		.uleb128 0x13
 1902 0646 776100   		.ascii	"wa\000"
 1903 0649 0D       		.byte	0xd
 1904 064a 55       		.byte	0x55
 1905 064b D9050000 		.4byte	0x5d9
 1906 064f 11       		.uleb128 0x11
 1907 0650 47030000 		.4byte	.LASF88
 1908 0654 0D       		.byte	0xd
ARM GAS  /tmp/ccgU6v6L.s 			page 35


 1909 0655 56       		.byte	0x56
 1910 0656 5B060000 		.4byte	0x65b
 1911 065a 00       		.byte	0x0
 1912 065b 17       		.uleb128 0x17
 1913 065c 49000000 		.4byte	0x49
 1914 0660 6C060000 		.4byte	0x66c
 1915 0664 1A       		.uleb128 0x1a
 1916 0665 3B000000 		.4byte	0x3b
 1917 0669 9F05     		.2byte	0x59f
 1918 066b 00       		.byte	0x0
 1919 066c 1B       		.uleb128 0x1b
 1920 066d A2030000 		.4byte	.LASF90
 1921 0671 01       		.byte	0x1
 1922 0672 CA       		.byte	0xca
 1923 0673 01       		.byte	0x1
 1924 0674 A6000000 		.4byte	0xa6
 1925 0678 00000000 		.4byte	.LFB12
 1926 067c 24000000 		.4byte	.LFE12
 1927 0680 00000000 		.4byte	.LLST0
 1928 0684 B5060000 		.4byte	0x6b5
 1929 0688 1C       		.uleb128 0x1c
 1930 0689 747000   		.ascii	"tp\000"
 1931 068c 01       		.byte	0x1
 1932 068d CA       		.byte	0xca
 1933 068e 50020000 		.4byte	0x250
 1934 0692 20000000 		.4byte	.LLST1
 1935 0696 1D       		.uleb128 0x1d
 1936 0697 66747000 		.ascii	"ftp\000"
 1937 069b 01       		.byte	0x1
 1938 069c CB       		.byte	0xcb
 1939 069d 50020000 		.4byte	0x250
 1940 06a1 3E000000 		.4byte	.LLST2
 1941 06a5 1E       		.uleb128 0x1e
 1942 06a6 72030000 		.4byte	.LASF89
 1943 06aa 01       		.byte	0x1
 1944 06ab CC       		.byte	0xcc
 1945 06ac A6000000 		.4byte	0xa6
 1946 06b0 72000000 		.4byte	.LLST3
 1947 06b4 00       		.byte	0x0
 1948 06b5 1F       		.uleb128 0x1f
 1949 06b6 F4010000 		.4byte	.LASF94
 1950 06ba 01       		.byte	0x1
 1951 06bb DB       		.byte	0xdb
 1952 06bc 01       		.byte	0x1
 1953 06bd 00000000 		.4byte	.LFB14
 1954 06c1 48010000 		.4byte	.LFE14
 1955 06c5 9C000000 		.4byte	.LLST4
 1956 06c9 E7060000 		.4byte	0x6e7
 1957 06cd 1D       		.uleb128 0x1d
 1958 06ce 747000   		.ascii	"tp\000"
 1959 06d1 01       		.byte	0x1
 1960 06d2 DC       		.byte	0xdc
 1961 06d3 50020000 		.4byte	0x250
 1962 06d7 C8000000 		.4byte	.LLST5
 1963 06db 20       		.uleb128 0x20
 1964 06dc 0D000000 		.4byte	.LASF96
 1965 06e0 01       		.byte	0x1
ARM GAS  /tmp/ccgU6v6L.s 			page 36


 1966 06e1 DD       		.byte	0xdd
 1967 06e2 D2000000 		.4byte	0xd2
 1968 06e6 00       		.byte	0x0
 1969 06e7 1B       		.uleb128 0x1b
 1970 06e8 75020000 		.4byte	.LASF91
 1971 06ec 01       		.byte	0x1
 1972 06ed 52       		.byte	0x52
 1973 06ee 01       		.byte	0x1
 1974 06ef DD000000 		.4byte	0xdd
 1975 06f3 00000000 		.4byte	.LFB7
 1976 06f7 0C000000 		.4byte	.LFE7
 1977 06fb E6000000 		.4byte	.LLST6
 1978 06ff 11070000 		.4byte	0x711
 1979 0703 1C       		.uleb128 0x1c
 1980 0704 7000     		.ascii	"p\000"
 1981 0706 01       		.byte	0x1
 1982 0707 52       		.byte	0x52
 1983 0708 8E020000 		.4byte	0x28e
 1984 070c 06010000 		.4byte	.LLST7
 1985 0710 00       		.byte	0x0
 1986 0711 21       		.uleb128 0x21
 1987 0712 20030000 		.4byte	.LASF92
 1988 0716 01       		.byte	0x1
 1989 0717 D6       		.byte	0xd6
 1990 0718 01       		.byte	0x1
 1991 0719 00000000 		.4byte	.LFB13
 1992 071d 14000000 		.4byte	.LFE13
 1993 0721 02       		.byte	0x2
 1994 0722 7D       		.byte	0x7d
 1995 0723 00       		.sleb128 0
 1996 0724 21       		.uleb128 0x21
 1997 0725 34010000 		.4byte	.LASF93
 1998 0729 01       		.byte	0x1
 1999 072a 59       		.byte	0x59
 2000 072b 01       		.byte	0x1
 2001 072c 00000000 		.4byte	.LFB8
 2002 0730 14000000 		.4byte	.LFE8
 2003 0734 02       		.byte	0x2
 2004 0735 7D       		.byte	0x7d
 2005 0736 00       		.sleb128 0
 2006 0737 1F       		.uleb128 0x1f
 2007 0738 64010000 		.4byte	.LASF95
 2008 073c 01       		.byte	0x1
 2009 073d 98       		.byte	0x98
 2010 073e 01       		.byte	0x1
 2011 073f 00000000 		.4byte	.LFB11
 2012 0743 40010000 		.4byte	.LFE11
 2013 0747 19010000 		.4byte	.LLST8
 2014 074b 6A070000 		.4byte	0x76a
 2015 074f 1D       		.uleb128 0x1d
 2016 0750 6900     		.ascii	"i\000"
 2017 0752 01       		.byte	0x1
 2018 0753 99       		.byte	0x99
 2019 0754 29000000 		.4byte	0x29
 2020 0758 39010000 		.4byte	.LLST9
 2021 075c 22       		.uleb128 0x22
 2022 075d 0D000000 		.4byte	.LASF96
ARM GAS  /tmp/ccgU6v6L.s 			page 37


 2023 0761 01       		.byte	0x1
 2024 0762 9A       		.byte	0x9a
 2025 0763 D2000000 		.4byte	0xd2
 2026 0767 01       		.byte	0x1
 2027 0768 55       		.byte	0x55
 2028 0769 00       		.byte	0x0
 2029 076a 21       		.uleb128 0x21
 2030 076b 72000000 		.4byte	.LASF97
 2031 076f 01       		.byte	0x1
 2032 0770 93       		.byte	0x93
 2033 0771 01       		.byte	0x1
 2034 0772 00000000 		.4byte	.LFB10
 2035 0776 10000000 		.4byte	.LFE10
 2036 077a 02       		.byte	0x2
 2037 077b 7D       		.byte	0x7d
 2038 077c 00       		.sleb128 0
 2039 077d 1F       		.uleb128 0x1f
 2040 077e CE000000 		.4byte	.LASF98
 2041 0782 01       		.byte	0x1
 2042 0783 5E       		.byte	0x5e
 2043 0784 01       		.byte	0x1
 2044 0785 00000000 		.4byte	.LFB9
 2045 0789 FC000000 		.4byte	.LFE9
 2046 078d B9010000 		.4byte	.LLST10
 2047 0791 CB070000 		.4byte	0x7cb
 2048 0795 23       		.uleb128 0x23
 2049 0796 6E00     		.ascii	"n\000"
 2050 0798 01       		.byte	0x1
 2051 0799 5F       		.byte	0x5f
 2052 079a 30000000 		.4byte	0x30
 2053 079e 02       		.byte	0x2
 2054 079f 91       		.byte	0x91
 2055 07a0 6C       		.sleb128 -20
 2056 07a1 1D       		.uleb128 0x1d
 2057 07a2 737A00   		.ascii	"sz\000"
 2058 07a5 01       		.byte	0x1
 2059 07a6 5F       		.byte	0x5f
 2060 07a7 30000000 		.4byte	0x30
 2061 07ab E5010000 		.4byte	.LLST11
 2062 07af 1D       		.uleb128 0x1d
 2063 07b0 703100   		.ascii	"p1\000"
 2064 07b3 01       		.byte	0x1
 2065 07b4 60       		.byte	0x60
 2066 07b5 8E020000 		.4byte	0x28e
 2067 07b9 05020000 		.4byte	.LLST12
 2068 07bd 22       		.uleb128 0x22
 2069 07be 0D000000 		.4byte	.LASF96
 2070 07c2 01       		.byte	0x1
 2071 07c3 61       		.byte	0x61
 2072 07c4 D2000000 		.4byte	0xd2
 2073 07c8 01       		.byte	0x1
 2074 07c9 55       		.byte	0x55
 2075 07ca 00       		.byte	0x0
 2076 07cb 24       		.uleb128 0x24
 2077 07cc AA030000 		.4byte	.LASF99
 2078 07d0 08       		.byte	0x8
 2079 07d1 72       		.byte	0x72
ARM GAS  /tmp/ccgU6v6L.s 			page 38


 2080 07d2 BB030000 		.4byte	0x3bb
 2081 07d6 01       		.byte	0x1
 2082 07d7 01       		.byte	0x1
 2083 07d8 17       		.uleb128 0x17
 2084 07d9 50020000 		.4byte	0x250
 2085 07dd E8070000 		.4byte	0x7e8
 2086 07e1 18       		.uleb128 0x18
 2087 07e2 3B000000 		.4byte	0x3b
 2088 07e6 04       		.byte	0x4
 2089 07e7 00       		.byte	0x0
 2090 07e8 24       		.uleb128 0x24
 2091 07e9 B9020000 		.4byte	.LASF100
 2092 07ed 0D       		.byte	0xd
 2093 07ee B0       		.byte	0xb0
 2094 07ef D8070000 		.4byte	0x7d8
 2095 07f3 01       		.byte	0x1
 2096 07f4 01       		.byte	0x1
 2097 07f5 24       		.uleb128 0x24
 2098 07f6 61000000 		.4byte	.LASF101
 2099 07fa 0D       		.byte	0xd
 2100 07fb B1       		.byte	0xb1
 2101 07fc 38060000 		.4byte	0x638
 2102 0800 01       		.byte	0x1
 2103 0801 01       		.byte	0x1
 2104 0802 17       		.uleb128 0x17
 2105 0803 8E020000 		.4byte	0x28e
 2106 0807 0D080000 		.4byte	0x80d
 2107 080b 25       		.uleb128 0x25
 2108 080c 00       		.byte	0x0
 2109 080d 26       		.uleb128 0x26
 2110 080e 776100   		.ascii	"wa\000"
 2111 0811 0D       		.byte	0xd
 2112 0812 B2       		.byte	0xb2
 2113 0813 19080000 		.4byte	0x819
 2114 0817 01       		.byte	0x1
 2115 0818 01       		.byte	0x1
 2116 0819 14       		.uleb128 0x14
 2117 081a 02080000 		.4byte	0x802
 2118 081e 22       		.uleb128 0x22
 2119 081f F4030000 		.4byte	.LASF102
 2120 0823 01       		.byte	0x1
 2121 0824 41       		.byte	0x41
 2122 0825 2F040000 		.4byte	0x42f
 2123 0829 05       		.byte	0x5
 2124 082a 03       		.byte	0x3
 2125 082b 00000000 		.4byte	heap1
 2126 082f 23       		.uleb128 0x23
 2127 0830 6D703100 		.ascii	"mp1\000"
 2128 0834 01       		.byte	0x1
 2129 0835 44       		.byte	0x44
 2130 0836 34050000 		.4byte	0x534
 2131 083a 05       		.byte	0x5
 2132 083b 03       		.byte	0x3
 2133 083c 00000000 		.4byte	mp1
 2134 0840 24       		.uleb128 0x24
 2135 0841 B4010000 		.4byte	.LASF103
 2136 0845 01       		.byte	0x1
ARM GAS  /tmp/ccgU6v6L.s 			page 39


 2137 0846 80       		.byte	0x80
 2138 0847 4D080000 		.4byte	0x84d
 2139 084b 01       		.byte	0x1
 2140 084c 01       		.byte	0x1
 2141 084d 14       		.uleb128 0x14
 2142 084e 8C050000 		.4byte	0x58c
 2143 0852 24       		.uleb128 0x24
 2144 0853 BD010000 		.4byte	.LASF104
 2145 0857 01       		.byte	0x1
 2146 0858 B8       		.byte	0xb8
 2147 0859 4D080000 		.4byte	0x84d
 2148 085d 01       		.byte	0x1
 2149 085e 01       		.byte	0x1
 2150 085f 24       		.uleb128 0x24
 2151 0860 C6010000 		.4byte	.LASF105
 2152 0864 01       		.byte	0x1
 2153 0865 F9       		.byte	0xf9
 2154 0866 4D080000 		.4byte	0x84d
 2155 086a 01       		.byte	0x1
 2156 086b 01       		.byte	0x1
 2157 086c 24       		.uleb128 0x24
 2158 086d AA030000 		.4byte	.LASF99
 2159 0871 08       		.byte	0x8
 2160 0872 72       		.byte	0x72
 2161 0873 BB030000 		.4byte	0x3bb
 2162 0877 01       		.byte	0x1
 2163 0878 01       		.byte	0x1
 2164 0879 24       		.uleb128 0x24
 2165 087a B9020000 		.4byte	.LASF100
 2166 087e 0D       		.byte	0xd
 2167 087f B0       		.byte	0xb0
 2168 0880 D8070000 		.4byte	0x7d8
 2169 0884 01       		.byte	0x1
 2170 0885 01       		.byte	0x1
 2171 0886 24       		.uleb128 0x24
 2172 0887 61000000 		.4byte	.LASF101
 2173 088b 0D       		.byte	0xd
 2174 088c B1       		.byte	0xb1
 2175 088d 38060000 		.4byte	0x638
 2176 0891 01       		.byte	0x1
 2177 0892 01       		.byte	0x1
 2178 0893 26       		.uleb128 0x26
 2179 0894 776100   		.ascii	"wa\000"
 2180 0897 0D       		.byte	0xd
 2181 0898 B2       		.byte	0xb2
 2182 0899 9F080000 		.4byte	0x89f
 2183 089d 01       		.byte	0x1
 2184 089e 01       		.byte	0x1
 2185 089f 14       		.uleb128 0x14
 2186 08a0 02080000 		.4byte	0x802
 2187 08a4 27       		.uleb128 0x27
 2188 08a5 B4010000 		.4byte	.LASF103
 2189 08a9 01       		.byte	0x1
 2190 08aa 80       		.byte	0x80
 2191 08ab 4D080000 		.4byte	0x84d
 2192 08af 01       		.byte	0x1
 2193 08b0 05       		.byte	0x5
ARM GAS  /tmp/ccgU6v6L.s 			page 40


 2194 08b1 03       		.byte	0x3
 2195 08b2 00000000 		.4byte	testdyn1
 2196 08b6 27       		.uleb128 0x27
 2197 08b7 BD010000 		.4byte	.LASF104
 2198 08bb 01       		.byte	0x1
 2199 08bc B8       		.byte	0xb8
 2200 08bd 4D080000 		.4byte	0x84d
 2201 08c1 01       		.byte	0x1
 2202 08c2 05       		.byte	0x5
 2203 08c3 03       		.byte	0x3
 2204 08c4 00000000 		.4byte	testdyn2
 2205 08c8 27       		.uleb128 0x27
 2206 08c9 C6010000 		.4byte	.LASF105
 2207 08cd 01       		.byte	0x1
 2208 08ce F9       		.byte	0xf9
 2209 08cf 4D080000 		.4byte	0x84d
 2210 08d3 01       		.byte	0x1
 2211 08d4 05       		.byte	0x5
 2212 08d5 03       		.byte	0x3
 2213 08d6 00000000 		.4byte	testdyn3
 2214 08da 17       		.uleb128 0x17
 2215 08db EA080000 		.4byte	0x8ea
 2216 08df EA080000 		.4byte	0x8ea
 2217 08e3 18       		.uleb128 0x18
 2218 08e4 3B000000 		.4byte	0x3b
 2219 08e8 03       		.byte	0x3
 2220 08e9 00       		.byte	0x0
 2221 08ea 09       		.uleb128 0x9
 2222 08eb 04       		.byte	0x4
 2223 08ec 4D080000 		.4byte	0x84d
 2224 08f0 28       		.uleb128 0x28
 2225 08f1 4E030000 		.4byte	.LASF106
 2226 08f5 01       		.byte	0x1
 2227 08f6 0501     		.2byte	0x105
 2228 08f8 03090000 		.4byte	0x903
 2229 08fc 01       		.byte	0x1
 2230 08fd 05       		.byte	0x5
 2231 08fe 03       		.byte	0x3
 2232 08ff 00000000 		.4byte	patterndyn
 2233 0903 14       		.uleb128 0x14
 2234 0904 DA080000 		.4byte	0x8da
 2235 0908 00       		.byte	0x0
 2236              		.section	.debug_abbrev
 2237 0000 01       		.uleb128 0x1
 2238 0001 11       		.uleb128 0x11
 2239 0002 01       		.byte	0x1
 2240 0003 25       		.uleb128 0x25
 2241 0004 0E       		.uleb128 0xe
 2242 0005 13       		.uleb128 0x13
 2243 0006 0B       		.uleb128 0xb
 2244 0007 03       		.uleb128 0x3
 2245 0008 0E       		.uleb128 0xe
 2246 0009 1B       		.uleb128 0x1b
 2247 000a 0E       		.uleb128 0xe
 2248 000b 11       		.uleb128 0x11
 2249 000c 01       		.uleb128 0x1
 2250 000d 52       		.uleb128 0x52
ARM GAS  /tmp/ccgU6v6L.s 			page 41


 2251 000e 01       		.uleb128 0x1
 2252 000f 55       		.uleb128 0x55
 2253 0010 06       		.uleb128 0x6
 2254 0011 10       		.uleb128 0x10
 2255 0012 06       		.uleb128 0x6
 2256 0013 00       		.byte	0x0
 2257 0014 00       		.byte	0x0
 2258 0015 02       		.uleb128 0x2
 2259 0016 24       		.uleb128 0x24
 2260 0017 00       		.byte	0x0
 2261 0018 0B       		.uleb128 0xb
 2262 0019 0B       		.uleb128 0xb
 2263 001a 3E       		.uleb128 0x3e
 2264 001b 0B       		.uleb128 0xb
 2265 001c 03       		.uleb128 0x3
 2266 001d 08       		.uleb128 0x8
 2267 001e 00       		.byte	0x0
 2268 001f 00       		.byte	0x0
 2269 0020 03       		.uleb128 0x3
 2270 0021 16       		.uleb128 0x16
 2271 0022 00       		.byte	0x0
 2272 0023 03       		.uleb128 0x3
 2273 0024 0E       		.uleb128 0xe
 2274 0025 3A       		.uleb128 0x3a
 2275 0026 0B       		.uleb128 0xb
 2276 0027 3B       		.uleb128 0x3b
 2277 0028 0B       		.uleb128 0xb
 2278 0029 49       		.uleb128 0x49
 2279 002a 13       		.uleb128 0x13
 2280 002b 00       		.byte	0x0
 2281 002c 00       		.byte	0x0
 2282 002d 04       		.uleb128 0x4
 2283 002e 24       		.uleb128 0x24
 2284 002f 00       		.byte	0x0
 2285 0030 0B       		.uleb128 0xb
 2286 0031 0B       		.uleb128 0xb
 2287 0032 3E       		.uleb128 0x3e
 2288 0033 0B       		.uleb128 0xb
 2289 0034 03       		.uleb128 0x3
 2290 0035 0E       		.uleb128 0xe
 2291 0036 00       		.byte	0x0
 2292 0037 00       		.byte	0x0
 2293 0038 05       		.uleb128 0x5
 2294 0039 13       		.uleb128 0x13
 2295 003a 01       		.byte	0x1
 2296 003b 03       		.uleb128 0x3
 2297 003c 0E       		.uleb128 0xe
 2298 003d 0B       		.uleb128 0xb
 2299 003e 0B       		.uleb128 0xb
 2300 003f 3A       		.uleb128 0x3a
 2301 0040 0B       		.uleb128 0xb
 2302 0041 3B       		.uleb128 0x3b
 2303 0042 0B       		.uleb128 0xb
 2304 0043 01       		.uleb128 0x1
 2305 0044 13       		.uleb128 0x13
 2306 0045 00       		.byte	0x0
 2307 0046 00       		.byte	0x0
ARM GAS  /tmp/ccgU6v6L.s 			page 42


 2308 0047 06       		.uleb128 0x6
 2309 0048 0D       		.uleb128 0xd
 2310 0049 00       		.byte	0x0
 2311 004a 03       		.uleb128 0x3
 2312 004b 0E       		.uleb128 0xe
 2313 004c 3A       		.uleb128 0x3a
 2314 004d 0B       		.uleb128 0xb
 2315 004e 3B       		.uleb128 0x3b
 2316 004f 0B       		.uleb128 0xb
 2317 0050 49       		.uleb128 0x49
 2318 0051 13       		.uleb128 0x13
 2319 0052 38       		.uleb128 0x38
 2320 0053 0A       		.uleb128 0xa
 2321 0054 00       		.byte	0x0
 2322 0055 00       		.byte	0x0
 2323 0056 07       		.uleb128 0x7
 2324 0057 0D       		.uleb128 0xd
 2325 0058 00       		.byte	0x0
 2326 0059 03       		.uleb128 0x3
 2327 005a 08       		.uleb128 0x8
 2328 005b 3A       		.uleb128 0x3a
 2329 005c 0B       		.uleb128 0xb
 2330 005d 3B       		.uleb128 0x3b
 2331 005e 0B       		.uleb128 0xb
 2332 005f 49       		.uleb128 0x49
 2333 0060 13       		.uleb128 0x13
 2334 0061 38       		.uleb128 0x38
 2335 0062 0A       		.uleb128 0xa
 2336 0063 00       		.byte	0x0
 2337 0064 00       		.byte	0x0
 2338 0065 08       		.uleb128 0x8
 2339 0066 13       		.uleb128 0x13
 2340 0067 01       		.byte	0x1
 2341 0068 0B       		.uleb128 0xb
 2342 0069 0B       		.uleb128 0xb
 2343 006a 3A       		.uleb128 0x3a
 2344 006b 0B       		.uleb128 0xb
 2345 006c 3B       		.uleb128 0x3b
 2346 006d 0B       		.uleb128 0xb
 2347 006e 01       		.uleb128 0x1
 2348 006f 13       		.uleb128 0x13
 2349 0070 00       		.byte	0x0
 2350 0071 00       		.byte	0x0
 2351 0072 09       		.uleb128 0x9
 2352 0073 0F       		.uleb128 0xf
 2353 0074 00       		.byte	0x0
 2354 0075 0B       		.uleb128 0xb
 2355 0076 0B       		.uleb128 0xb
 2356 0077 49       		.uleb128 0x49
 2357 0078 13       		.uleb128 0x13
 2358 0079 00       		.byte	0x0
 2359 007a 00       		.byte	0x0
 2360 007b 0A       		.uleb128 0xa
 2361 007c 0F       		.uleb128 0xf
 2362 007d 00       		.byte	0x0
 2363 007e 0B       		.uleb128 0xb
 2364 007f 0B       		.uleb128 0xb
ARM GAS  /tmp/ccgU6v6L.s 			page 43


 2365 0080 00       		.byte	0x0
 2366 0081 00       		.byte	0x0
 2367 0082 0B       		.uleb128 0xb
 2368 0083 0D       		.uleb128 0xd
 2369 0084 00       		.byte	0x0
 2370 0085 03       		.uleb128 0x3
 2371 0086 08       		.uleb128 0x8
 2372 0087 3A       		.uleb128 0x3a
 2373 0088 0B       		.uleb128 0xb
 2374 0089 3B       		.uleb128 0x3b
 2375 008a 05       		.uleb128 0x5
 2376 008b 49       		.uleb128 0x49
 2377 008c 13       		.uleb128 0x13
 2378 008d 38       		.uleb128 0x38
 2379 008e 0A       		.uleb128 0xa
 2380 008f 00       		.byte	0x0
 2381 0090 00       		.byte	0x0
 2382 0091 0C       		.uleb128 0xc
 2383 0092 13       		.uleb128 0x13
 2384 0093 01       		.byte	0x1
 2385 0094 03       		.uleb128 0x3
 2386 0095 0E       		.uleb128 0xe
 2387 0096 0B       		.uleb128 0xb
 2388 0097 0B       		.uleb128 0xb
 2389 0098 3A       		.uleb128 0x3a
 2390 0099 0B       		.uleb128 0xb
 2391 009a 3B       		.uleb128 0x3b
 2392 009b 05       		.uleb128 0x5
 2393 009c 01       		.uleb128 0x1
 2394 009d 13       		.uleb128 0x13
 2395 009e 00       		.byte	0x0
 2396 009f 00       		.byte	0x0
 2397 00a0 0D       		.uleb128 0xd
 2398 00a1 35       		.uleb128 0x35
 2399 00a2 00       		.byte	0x0
 2400 00a3 49       		.uleb128 0x49
 2401 00a4 13       		.uleb128 0x13
 2402 00a5 00       		.byte	0x0
 2403 00a6 00       		.byte	0x0
 2404 00a7 0E       		.uleb128 0xe
 2405 00a8 15       		.uleb128 0x15
 2406 00a9 01       		.byte	0x1
 2407 00aa 27       		.uleb128 0x27
 2408 00ab 0C       		.uleb128 0xc
 2409 00ac 49       		.uleb128 0x49
 2410 00ad 13       		.uleb128 0x13
 2411 00ae 01       		.uleb128 0x1
 2412 00af 13       		.uleb128 0x13
 2413 00b0 00       		.byte	0x0
 2414 00b1 00       		.byte	0x0
 2415 00b2 0F       		.uleb128 0xf
 2416 00b3 05       		.uleb128 0x5
 2417 00b4 00       		.byte	0x0
 2418 00b5 49       		.uleb128 0x49
 2419 00b6 13       		.uleb128 0x13
 2420 00b7 00       		.byte	0x0
 2421 00b8 00       		.byte	0x0
ARM GAS  /tmp/ccgU6v6L.s 			page 44


 2422 00b9 10       		.uleb128 0x10
 2423 00ba 17       		.uleb128 0x17
 2424 00bb 01       		.byte	0x1
 2425 00bc 0B       		.uleb128 0xb
 2426 00bd 0B       		.uleb128 0xb
 2427 00be 3A       		.uleb128 0x3a
 2428 00bf 0B       		.uleb128 0xb
 2429 00c0 3B       		.uleb128 0x3b
 2430 00c1 0B       		.uleb128 0xb
 2431 00c2 01       		.uleb128 0x1
 2432 00c3 13       		.uleb128 0x13
 2433 00c4 00       		.byte	0x0
 2434 00c5 00       		.byte	0x0
 2435 00c6 11       		.uleb128 0x11
 2436 00c7 0D       		.uleb128 0xd
 2437 00c8 00       		.byte	0x0
 2438 00c9 03       		.uleb128 0x3
 2439 00ca 0E       		.uleb128 0xe
 2440 00cb 3A       		.uleb128 0x3a
 2441 00cc 0B       		.uleb128 0xb
 2442 00cd 3B       		.uleb128 0x3b
 2443 00ce 0B       		.uleb128 0xb
 2444 00cf 49       		.uleb128 0x49
 2445 00d0 13       		.uleb128 0x13
 2446 00d1 00       		.byte	0x0
 2447 00d2 00       		.byte	0x0
 2448 00d3 12       		.uleb128 0x12
 2449 00d4 17       		.uleb128 0x17
 2450 00d5 01       		.byte	0x1
 2451 00d6 03       		.uleb128 0x3
 2452 00d7 0E       		.uleb128 0xe
 2453 00d8 0B       		.uleb128 0xb
 2454 00d9 0B       		.uleb128 0xb
 2455 00da 3A       		.uleb128 0x3a
 2456 00db 0B       		.uleb128 0xb
 2457 00dc 3B       		.uleb128 0x3b
 2458 00dd 0B       		.uleb128 0xb
 2459 00de 01       		.uleb128 0x1
 2460 00df 13       		.uleb128 0x13
 2461 00e0 00       		.byte	0x0
 2462 00e1 00       		.byte	0x0
 2463 00e2 13       		.uleb128 0x13
 2464 00e3 0D       		.uleb128 0xd
 2465 00e4 00       		.byte	0x0
 2466 00e5 03       		.uleb128 0x3
 2467 00e6 08       		.uleb128 0x8
 2468 00e7 3A       		.uleb128 0x3a
 2469 00e8 0B       		.uleb128 0xb
 2470 00e9 3B       		.uleb128 0x3b
 2471 00ea 0B       		.uleb128 0xb
 2472 00eb 49       		.uleb128 0x49
 2473 00ec 13       		.uleb128 0x13
 2474 00ed 00       		.byte	0x0
 2475 00ee 00       		.byte	0x0
 2476 00ef 14       		.uleb128 0x14
 2477 00f0 26       		.uleb128 0x26
 2478 00f1 00       		.byte	0x0
ARM GAS  /tmp/ccgU6v6L.s 			page 45


 2479 00f2 49       		.uleb128 0x49
 2480 00f3 13       		.uleb128 0x13
 2481 00f4 00       		.byte	0x0
 2482 00f5 00       		.byte	0x0
 2483 00f6 15       		.uleb128 0x15
 2484 00f7 15       		.uleb128 0x15
 2485 00f8 00       		.byte	0x0
 2486 00f9 27       		.uleb128 0x27
 2487 00fa 0C       		.uleb128 0xc
 2488 00fb 00       		.byte	0x0
 2489 00fc 00       		.byte	0x0
 2490 00fd 16       		.uleb128 0x16
 2491 00fe 13       		.uleb128 0x13
 2492 00ff 01       		.byte	0x1
 2493 0100 0B       		.uleb128 0xb
 2494 0101 05       		.uleb128 0x5
 2495 0102 3A       		.uleb128 0x3a
 2496 0103 0B       		.uleb128 0xb
 2497 0104 3B       		.uleb128 0x3b
 2498 0105 0B       		.uleb128 0xb
 2499 0106 01       		.uleb128 0x1
 2500 0107 13       		.uleb128 0x13
 2501 0108 00       		.byte	0x0
 2502 0109 00       		.byte	0x0
 2503 010a 17       		.uleb128 0x17
 2504 010b 01       		.uleb128 0x1
 2505 010c 01       		.byte	0x1
 2506 010d 49       		.uleb128 0x49
 2507 010e 13       		.uleb128 0x13
 2508 010f 01       		.uleb128 0x1
 2509 0110 13       		.uleb128 0x13
 2510 0111 00       		.byte	0x0
 2511 0112 00       		.byte	0x0
 2512 0113 18       		.uleb128 0x18
 2513 0114 21       		.uleb128 0x21
 2514 0115 00       		.byte	0x0
 2515 0116 49       		.uleb128 0x49
 2516 0117 13       		.uleb128 0x13
 2517 0118 2F       		.uleb128 0x2f
 2518 0119 0B       		.uleb128 0xb
 2519 011a 00       		.byte	0x0
 2520 011b 00       		.byte	0x0
 2521 011c 19       		.uleb128 0x19
 2522 011d 17       		.uleb128 0x17
 2523 011e 01       		.byte	0x1
 2524 011f 03       		.uleb128 0x3
 2525 0120 0E       		.uleb128 0xe
 2526 0121 0B       		.uleb128 0xb
 2527 0122 05       		.uleb128 0x5
 2528 0123 3A       		.uleb128 0x3a
 2529 0124 0B       		.uleb128 0xb
 2530 0125 3B       		.uleb128 0x3b
 2531 0126 0B       		.uleb128 0xb
 2532 0127 01       		.uleb128 0x1
 2533 0128 13       		.uleb128 0x13
 2534 0129 00       		.byte	0x0
 2535 012a 00       		.byte	0x0
ARM GAS  /tmp/ccgU6v6L.s 			page 46


 2536 012b 1A       		.uleb128 0x1a
 2537 012c 21       		.uleb128 0x21
 2538 012d 00       		.byte	0x0
 2539 012e 49       		.uleb128 0x49
 2540 012f 13       		.uleb128 0x13
 2541 0130 2F       		.uleb128 0x2f
 2542 0131 05       		.uleb128 0x5
 2543 0132 00       		.byte	0x0
 2544 0133 00       		.byte	0x0
 2545 0134 1B       		.uleb128 0x1b
 2546 0135 2E       		.uleb128 0x2e
 2547 0136 01       		.byte	0x1
 2548 0137 03       		.uleb128 0x3
 2549 0138 0E       		.uleb128 0xe
 2550 0139 3A       		.uleb128 0x3a
 2551 013a 0B       		.uleb128 0xb
 2552 013b 3B       		.uleb128 0x3b
 2553 013c 0B       		.uleb128 0xb
 2554 013d 27       		.uleb128 0x27
 2555 013e 0C       		.uleb128 0xc
 2556 013f 49       		.uleb128 0x49
 2557 0140 13       		.uleb128 0x13
 2558 0141 11       		.uleb128 0x11
 2559 0142 01       		.uleb128 0x1
 2560 0143 12       		.uleb128 0x12
 2561 0144 01       		.uleb128 0x1
 2562 0145 40       		.uleb128 0x40
 2563 0146 06       		.uleb128 0x6
 2564 0147 01       		.uleb128 0x1
 2565 0148 13       		.uleb128 0x13
 2566 0149 00       		.byte	0x0
 2567 014a 00       		.byte	0x0
 2568 014b 1C       		.uleb128 0x1c
 2569 014c 05       		.uleb128 0x5
 2570 014d 00       		.byte	0x0
 2571 014e 03       		.uleb128 0x3
 2572 014f 08       		.uleb128 0x8
 2573 0150 3A       		.uleb128 0x3a
 2574 0151 0B       		.uleb128 0xb
 2575 0152 3B       		.uleb128 0x3b
 2576 0153 0B       		.uleb128 0xb
 2577 0154 49       		.uleb128 0x49
 2578 0155 13       		.uleb128 0x13
 2579 0156 02       		.uleb128 0x2
 2580 0157 06       		.uleb128 0x6
 2581 0158 00       		.byte	0x0
 2582 0159 00       		.byte	0x0
 2583 015a 1D       		.uleb128 0x1d
 2584 015b 34       		.uleb128 0x34
 2585 015c 00       		.byte	0x0
 2586 015d 03       		.uleb128 0x3
 2587 015e 08       		.uleb128 0x8
 2588 015f 3A       		.uleb128 0x3a
 2589 0160 0B       		.uleb128 0xb
 2590 0161 3B       		.uleb128 0x3b
 2591 0162 0B       		.uleb128 0xb
 2592 0163 49       		.uleb128 0x49
ARM GAS  /tmp/ccgU6v6L.s 			page 47


 2593 0164 13       		.uleb128 0x13
 2594 0165 02       		.uleb128 0x2
 2595 0166 06       		.uleb128 0x6
 2596 0167 00       		.byte	0x0
 2597 0168 00       		.byte	0x0
 2598 0169 1E       		.uleb128 0x1e
 2599 016a 34       		.uleb128 0x34
 2600 016b 00       		.byte	0x0
 2601 016c 03       		.uleb128 0x3
 2602 016d 0E       		.uleb128 0xe
 2603 016e 3A       		.uleb128 0x3a
 2604 016f 0B       		.uleb128 0xb
 2605 0170 3B       		.uleb128 0x3b
 2606 0171 0B       		.uleb128 0xb
 2607 0172 49       		.uleb128 0x49
 2608 0173 13       		.uleb128 0x13
 2609 0174 02       		.uleb128 0x2
 2610 0175 06       		.uleb128 0x6
 2611 0176 00       		.byte	0x0
 2612 0177 00       		.byte	0x0
 2613 0178 1F       		.uleb128 0x1f
 2614 0179 2E       		.uleb128 0x2e
 2615 017a 01       		.byte	0x1
 2616 017b 03       		.uleb128 0x3
 2617 017c 0E       		.uleb128 0xe
 2618 017d 3A       		.uleb128 0x3a
 2619 017e 0B       		.uleb128 0xb
 2620 017f 3B       		.uleb128 0x3b
 2621 0180 0B       		.uleb128 0xb
 2622 0181 27       		.uleb128 0x27
 2623 0182 0C       		.uleb128 0xc
 2624 0183 11       		.uleb128 0x11
 2625 0184 01       		.uleb128 0x1
 2626 0185 12       		.uleb128 0x12
 2627 0186 01       		.uleb128 0x1
 2628 0187 40       		.uleb128 0x40
 2629 0188 06       		.uleb128 0x6
 2630 0189 01       		.uleb128 0x1
 2631 018a 13       		.uleb128 0x13
 2632 018b 00       		.byte	0x0
 2633 018c 00       		.byte	0x0
 2634 018d 20       		.uleb128 0x20
 2635 018e 34       		.uleb128 0x34
 2636 018f 00       		.byte	0x0
 2637 0190 03       		.uleb128 0x3
 2638 0191 0E       		.uleb128 0xe
 2639 0192 3A       		.uleb128 0x3a
 2640 0193 0B       		.uleb128 0xb
 2641 0194 3B       		.uleb128 0x3b
 2642 0195 0B       		.uleb128 0xb
 2643 0196 49       		.uleb128 0x49
 2644 0197 13       		.uleb128 0x13
 2645 0198 00       		.byte	0x0
 2646 0199 00       		.byte	0x0
 2647 019a 21       		.uleb128 0x21
 2648 019b 2E       		.uleb128 0x2e
 2649 019c 00       		.byte	0x0
ARM GAS  /tmp/ccgU6v6L.s 			page 48


 2650 019d 03       		.uleb128 0x3
 2651 019e 0E       		.uleb128 0xe
 2652 019f 3A       		.uleb128 0x3a
 2653 01a0 0B       		.uleb128 0xb
 2654 01a1 3B       		.uleb128 0x3b
 2655 01a2 0B       		.uleb128 0xb
 2656 01a3 27       		.uleb128 0x27
 2657 01a4 0C       		.uleb128 0xc
 2658 01a5 11       		.uleb128 0x11
 2659 01a6 01       		.uleb128 0x1
 2660 01a7 12       		.uleb128 0x12
 2661 01a8 01       		.uleb128 0x1
 2662 01a9 40       		.uleb128 0x40
 2663 01aa 0A       		.uleb128 0xa
 2664 01ab 00       		.byte	0x0
 2665 01ac 00       		.byte	0x0
 2666 01ad 22       		.uleb128 0x22
 2667 01ae 34       		.uleb128 0x34
 2668 01af 00       		.byte	0x0
 2669 01b0 03       		.uleb128 0x3
 2670 01b1 0E       		.uleb128 0xe
 2671 01b2 3A       		.uleb128 0x3a
 2672 01b3 0B       		.uleb128 0xb
 2673 01b4 3B       		.uleb128 0x3b
 2674 01b5 0B       		.uleb128 0xb
 2675 01b6 49       		.uleb128 0x49
 2676 01b7 13       		.uleb128 0x13
 2677 01b8 02       		.uleb128 0x2
 2678 01b9 0A       		.uleb128 0xa
 2679 01ba 00       		.byte	0x0
 2680 01bb 00       		.byte	0x0
 2681 01bc 23       		.uleb128 0x23
 2682 01bd 34       		.uleb128 0x34
 2683 01be 00       		.byte	0x0
 2684 01bf 03       		.uleb128 0x3
 2685 01c0 08       		.uleb128 0x8
 2686 01c1 3A       		.uleb128 0x3a
 2687 01c2 0B       		.uleb128 0xb
 2688 01c3 3B       		.uleb128 0x3b
 2689 01c4 0B       		.uleb128 0xb
 2690 01c5 49       		.uleb128 0x49
 2691 01c6 13       		.uleb128 0x13
 2692 01c7 02       		.uleb128 0x2
 2693 01c8 0A       		.uleb128 0xa
 2694 01c9 00       		.byte	0x0
 2695 01ca 00       		.byte	0x0
 2696 01cb 24       		.uleb128 0x24
 2697 01cc 34       		.uleb128 0x34
 2698 01cd 00       		.byte	0x0
 2699 01ce 03       		.uleb128 0x3
 2700 01cf 0E       		.uleb128 0xe
 2701 01d0 3A       		.uleb128 0x3a
 2702 01d1 0B       		.uleb128 0xb
 2703 01d2 3B       		.uleb128 0x3b
 2704 01d3 0B       		.uleb128 0xb
 2705 01d4 49       		.uleb128 0x49
 2706 01d5 13       		.uleb128 0x13
ARM GAS  /tmp/ccgU6v6L.s 			page 49


 2707 01d6 3F       		.uleb128 0x3f
 2708 01d7 0C       		.uleb128 0xc
 2709 01d8 3C       		.uleb128 0x3c
 2710 01d9 0C       		.uleb128 0xc
 2711 01da 00       		.byte	0x0
 2712 01db 00       		.byte	0x0
 2713 01dc 25       		.uleb128 0x25
 2714 01dd 21       		.uleb128 0x21
 2715 01de 00       		.byte	0x0
 2716 01df 00       		.byte	0x0
 2717 01e0 00       		.byte	0x0
 2718 01e1 26       		.uleb128 0x26
 2719 01e2 34       		.uleb128 0x34
 2720 01e3 00       		.byte	0x0
 2721 01e4 03       		.uleb128 0x3
 2722 01e5 08       		.uleb128 0x8
 2723 01e6 3A       		.uleb128 0x3a
 2724 01e7 0B       		.uleb128 0xb
 2725 01e8 3B       		.uleb128 0x3b
 2726 01e9 0B       		.uleb128 0xb
 2727 01ea 49       		.uleb128 0x49
 2728 01eb 13       		.uleb128 0x13
 2729 01ec 3F       		.uleb128 0x3f
 2730 01ed 0C       		.uleb128 0xc
 2731 01ee 3C       		.uleb128 0x3c
 2732 01ef 0C       		.uleb128 0xc
 2733 01f0 00       		.byte	0x0
 2734 01f1 00       		.byte	0x0
 2735 01f2 27       		.uleb128 0x27
 2736 01f3 34       		.uleb128 0x34
 2737 01f4 00       		.byte	0x0
 2738 01f5 03       		.uleb128 0x3
 2739 01f6 0E       		.uleb128 0xe
 2740 01f7 3A       		.uleb128 0x3a
 2741 01f8 0B       		.uleb128 0xb
 2742 01f9 3B       		.uleb128 0x3b
 2743 01fa 0B       		.uleb128 0xb
 2744 01fb 49       		.uleb128 0x49
 2745 01fc 13       		.uleb128 0x13
 2746 01fd 3F       		.uleb128 0x3f
 2747 01fe 0C       		.uleb128 0xc
 2748 01ff 02       		.uleb128 0x2
 2749 0200 0A       		.uleb128 0xa
 2750 0201 00       		.byte	0x0
 2751 0202 00       		.byte	0x0
 2752 0203 28       		.uleb128 0x28
 2753 0204 34       		.uleb128 0x34
 2754 0205 00       		.byte	0x0
 2755 0206 03       		.uleb128 0x3
 2756 0207 0E       		.uleb128 0xe
 2757 0208 3A       		.uleb128 0x3a
 2758 0209 0B       		.uleb128 0xb
 2759 020a 3B       		.uleb128 0x3b
 2760 020b 05       		.uleb128 0x5
 2761 020c 49       		.uleb128 0x49
 2762 020d 13       		.uleb128 0x13
 2763 020e 3F       		.uleb128 0x3f
ARM GAS  /tmp/ccgU6v6L.s 			page 50


 2764 020f 0C       		.uleb128 0xc
 2765 0210 02       		.uleb128 0x2
 2766 0211 0A       		.uleb128 0xa
 2767 0212 00       		.byte	0x0
 2768 0213 00       		.byte	0x0
 2769 0214 00       		.byte	0x0
 2770              		.section	.debug_pubnames,"",%progbits
 2771 0000 44000000 		.4byte	0x44
 2772 0004 0200     		.2byte	0x2
 2773 0006 00000000 		.4byte	.Ldebug_info0
 2774 000a 09090000 		.4byte	0x909
 2775 000e A4080000 		.4byte	0x8a4
 2776 0012 74657374 		.ascii	"testdyn1\000"
 2776      64796E31 
 2776      00
 2777 001b B6080000 		.4byte	0x8b6
 2778 001f 74657374 		.ascii	"testdyn2\000"
 2778      64796E32 
 2778      00
 2779 0028 C8080000 		.4byte	0x8c8
 2780 002c 74657374 		.ascii	"testdyn3\000"
 2780      64796E33 
 2780      00
 2781 0035 F0080000 		.4byte	0x8f0
 2782 0039 70617474 		.ascii	"patterndyn\000"
 2782      65726E64 
 2782      796E00
 2783 0044 00000000 		.4byte	0x0
 2784              		.section	.debug_pubtypes,"",%progbits
 2785 0000 C2010000 		.4byte	0x1c2
 2786 0004 0200     		.2byte	0x2
 2787 0006 00000000 		.4byte	.Ldebug_info0
 2788 000a 09090000 		.4byte	0x909
 2789 000e 30000000 		.4byte	0x30
 2790 0012 73697A65 		.ascii	"size_t\000"
 2790      5F7400
 2791 0019 49000000 		.4byte	0x49
 2792 001d 75696E74 		.ascii	"uint8_t\000"
 2792      385F7400 
 2793 0025 69000000 		.4byte	0x69
 2794 0029 696E7433 		.ascii	"int32_t\000"
 2794      325F7400 
 2795 0031 7B000000 		.4byte	0x7b
 2796 0035 75696E74 		.ascii	"uint32_t\000"
 2796      33325F74 
 2796      00
 2797 003e 94000000 		.4byte	0x94
 2798 0042 75696E74 		.ascii	"uint64_t\000"
 2798      36345F74 
 2798      00
 2799 004b A6000000 		.4byte	0xa6
 2800 004f 626F6F6C 		.ascii	"bool_t\000"
 2800      5F7400
 2801 0056 B1000000 		.4byte	0xb1
 2802 005a 746D6F64 		.ascii	"tmode_t\000"
 2802      655F7400 
 2803 0062 BC000000 		.4byte	0xbc
ARM GAS  /tmp/ccgU6v6L.s 			page 51


 2804 0066 74737461 		.ascii	"tstate_t\000"
 2804      74655F74 
 2804      00
 2805 006f C7000000 		.4byte	0xc7
 2806 0073 74726566 		.ascii	"trefs_t\000"
 2806      735F7400 
 2807 007b D2000000 		.4byte	0xd2
 2808 007f 74707269 		.ascii	"tprio_t\000"
 2808      6F5F7400 
 2809 0087 DD000000 		.4byte	0xdd
 2810 008b 6D73675F 		.ascii	"msg_t\000"
 2810      7400
 2811 0091 E8000000 		.4byte	0xe8
 2812 0095 6576656E 		.ascii	"eventmask_t\000"
 2812      746D6173 
 2812      6B5F7400 
 2813 00a1 F3000000 		.4byte	0xf3
 2814 00a5 73797374 		.ascii	"systime_t\000"
 2814      696D655F 
 2814      7400
 2815 00af FE000000 		.4byte	0xfe
 2816 00b3 636E745F 		.ascii	"cnt_t\000"
 2816      7400
 2817 00b9 09010000 		.4byte	0x109
 2818 00bd 54687265 		.ascii	"Thread\000"
 2818      616400
 2819 00c4 56020000 		.4byte	0x256
 2820 00c8 54687265 		.ascii	"ThreadsQueue\000"
 2820      61647351 
 2820      75657565 
 2820      00
 2821 00d5 78020000 		.4byte	0x278
 2822 00d9 54687265 		.ascii	"ThreadsList\000"
 2822      6164734C 
 2822      69737400 
 2823 00e5 83020000 		.4byte	0x283
 2824 00e9 72656761 		.ascii	"regarm_t\000"
 2824      726D5F74 
 2824      00
 2825 00f2 90020000 		.4byte	0x290
 2826 00f6 73746B61 		.ascii	"stkalign_t\000"
 2826      6C69676E 
 2826      5F7400
 2827 0101 9B020000 		.4byte	0x29b
 2828 0105 696E7463 		.ascii	"intctx\000"
 2828      747800
 2829 010c 28030000 		.4byte	0x328
 2830 0110 636F6E74 		.ascii	"context\000"
 2830      65787400 
 2831 0118 BB030000 		.4byte	0x3bb
 2832 011c 52656164 		.ascii	"ReadyList\000"
 2832      794C6973 
 2832      7400
 2833 0126 C6030000 		.4byte	0x3c6
 2834 012a 4D757465 		.ascii	"Mutex\000"
 2834      7800
 2835 0130 03040000 		.4byte	0x403
ARM GAS  /tmp/ccgU6v6L.s 			page 52


 2836 0134 4D757465 		.ascii	"Mutex\000"
 2836      7800
 2837 013a 0E040000 		.4byte	0x40e
 2838 013e 6D656D67 		.ascii	"memgetfunc_t\000"
 2838      65746675 
 2838      6E635F74 
 2838      00
 2839 014b 2F040000 		.4byte	0x42f
 2840 014f 4D656D6F 		.ascii	"MemoryHeap\000"
 2840      72794865 
 2840      617000
 2841 015a 90040000 		.4byte	0x490
 2842 015e 68656170 		.ascii	"heap_header\000"
 2842      5F686561 
 2842      64657200 
 2843 016a 3A040000 		.4byte	0x43a
 2844 016e 6D656D6F 		.ascii	"memory_heap\000"
 2844      72795F68 
 2844      65617000 
 2845 017a E0040000 		.4byte	0x4e0
 2846 017e 706F6F6C 		.ascii	"pool_header\000"
 2846      5F686561 
 2846      64657200 
 2847 018a 34050000 		.4byte	0x534
 2848 018e 4D656D6F 		.ascii	"MemoryPool\000"
 2848      7279506F 
 2848      6F6C00
 2849 0199 14010000 		.4byte	0x114
 2850 019d 54687265 		.ascii	"Thread\000"
 2850      616400
 2851 01a4 8C050000 		.4byte	0x58c
 2852 01a8 74657374 		.ascii	"testcase\000"
 2852      63617365 
 2852      00
 2853 01b1 38060000 		.4byte	0x638
 2854 01b5 74657374 		.ascii	"test_buffers\000"
 2854      5F627566 
 2854      66657273 
 2854      00
 2855 01c2 00000000 		.4byte	0x0
 2856              		.section	.debug_aranges,"",%progbits
 2857 0000 54000000 		.4byte	0x54
 2858 0004 0200     		.2byte	0x2
 2859 0006 00000000 		.4byte	.Ldebug_info0
 2860 000a 04       		.byte	0x4
 2861 000b 00       		.byte	0x0
 2862 000c 0000     		.2byte	0x0
 2863 000e 0000     		.2byte	0x0
 2864 0010 00000000 		.4byte	.LFB12
 2865 0014 24000000 		.4byte	.LFE12-.LFB12
 2866 0018 00000000 		.4byte	.LFB14
 2867 001c 48010000 		.4byte	.LFE14-.LFB14
 2868 0020 00000000 		.4byte	.LFB7
 2869 0024 0C000000 		.4byte	.LFE7-.LFB7
 2870 0028 00000000 		.4byte	.LFB13
 2871 002c 14000000 		.4byte	.LFE13-.LFB13
 2872 0030 00000000 		.4byte	.LFB8
ARM GAS  /tmp/ccgU6v6L.s 			page 53


 2873 0034 14000000 		.4byte	.LFE8-.LFB8
 2874 0038 00000000 		.4byte	.LFB11
 2875 003c 40010000 		.4byte	.LFE11-.LFB11
 2876 0040 00000000 		.4byte	.LFB10
 2877 0044 10000000 		.4byte	.LFE10-.LFB10
 2878 0048 00000000 		.4byte	.LFB9
 2879 004c FC000000 		.4byte	.LFE9-.LFB9
 2880 0050 00000000 		.4byte	0x0
 2881 0054 00000000 		.4byte	0x0
 2882              		.section	.debug_ranges,"",%progbits
 2883              	.Ldebug_ranges0:
 2884 0000 00000000 		.4byte	.LFB12
 2885 0004 24000000 		.4byte	.LFE12
 2886 0008 00000000 		.4byte	.LFB14
 2887 000c 48010000 		.4byte	.LFE14
 2888 0010 00000000 		.4byte	.LFB7
 2889 0014 0C000000 		.4byte	.LFE7
 2890 0018 00000000 		.4byte	.LFB13
 2891 001c 14000000 		.4byte	.LFE13
 2892 0020 00000000 		.4byte	.LFB8
 2893 0024 14000000 		.4byte	.LFE8
 2894 0028 00000000 		.4byte	.LFB11
 2895 002c 40010000 		.4byte	.LFE11
 2896 0030 00000000 		.4byte	.LFB10
 2897 0034 10000000 		.4byte	.LFE10
 2898 0038 00000000 		.4byte	.LFB9
 2899 003c FC000000 		.4byte	.LFE9
 2900 0040 00000000 		.4byte	0x0
 2901 0044 00000000 		.4byte	0x0
 2902              		.section	.debug_str,"MS",%progbits,1
 2903              	.LASF37:
 2904 0000 705F6D73 		.ascii	"p_msg\000"
 2904      6700
 2905              	.LASF2:
 2906 0006 73697A65 		.ascii	"size_t\000"
 2906      5F7400
 2907              	.LASF96:
 2908 000d 7072696F 		.ascii	"prio\000"
 2908      00
 2909              	.LASF76:
 2910 0012 7264796D 		.ascii	"rdymsg\000"
 2910      736700
 2911              	.LASF12:
 2912 0019 75696E74 		.ascii	"uint64_t\000"
 2912      36345F74 
 2912      00
 2913              	.LASF75:
 2914 0022 4D656D6F 		.ascii	"MemoryPool\000"
 2914      7279506F 
 2914      6F6C00
 2915              	.LASF60:
 2916 002d 6D656D67 		.ascii	"memgetfunc_t\000"
 2916      65746675 
 2916      6E635F74 
 2916      00
 2917              	.LASF13:
 2918 003a 6C6F6E67 		.ascii	"long long unsigned int\000"
ARM GAS  /tmp/ccgU6v6L.s 			page 54


 2918      206C6F6E 
 2918      6720756E 
 2918      7369676E 
 2918      65642069 
 2919              	.LASF77:
 2920 0051 65786974 		.ascii	"exitcode\000"
 2920      636F6465 
 2920      00
 2921              	.LASF64:
 2922 005a 685F6672 		.ascii	"h_free\000"
 2922      656500
 2923              	.LASF101:
 2924 0061 74657374 		.ascii	"test\000"
 2924      00
 2925              	.LASF66:
 2926 0066 6E657874 		.ascii	"next\000"
 2926      00
 2927              	.LASF26:
 2928 006b 705F7072 		.ascii	"p_prio\000"
 2928      696F00
 2929              	.LASF97:
 2930 0072 64796E32 		.ascii	"dyn2_setup\000"
 2930      5F736574 
 2930      757000
 2931              	.LASF11:
 2932 007d 6C6F6E67 		.ascii	"long long int\000"
 2932      206C6F6E 
 2932      6720696E 
 2932      7400
 2933              	.LASF1:
 2934 008b 7369676E 		.ascii	"signed char\000"
 2934      65642063 
 2934      68617200 
 2935              	.LASF65:
 2936 0097 685F6D74 		.ascii	"h_mtx\000"
 2936      7800
 2937              	.LASF41:
 2938 009d 705F6D70 		.ascii	"p_mpool\000"
 2938      6F6F6C00 
 2939              	.LASF14:
 2940 00a5 626F6F6C 		.ascii	"bool_t\000"
 2940      5F7400
 2941              	.LASF57:
 2942 00ac 6D5F7175 		.ascii	"m_queue\000"
 2942      65756500 
 2943              	.LASF8:
 2944 00b4 6C6F6E67 		.ascii	"long int\000"
 2944      20696E74 
 2944      00
 2945              	.LASF16:
 2946 00bd 74737461 		.ascii	"tstate_t\000"
 2946      74655F74 
 2946      00
 2947              	.LASF72:
 2948 00c6 6D705F6E 		.ascii	"mp_next\000"
 2948      65787400 
 2949              	.LASF98:
ARM GAS  /tmp/ccgU6v6L.s 			page 55


 2950 00ce 64796E31 		.ascii	"dyn1_execute\000"
 2950      5F657865 
 2950      63757465 
 2950      00
 2951              	.LASF28:
 2952 00db 705F6E65 		.ascii	"p_newer\000"
 2952      77657200 
 2953              	.LASF51:
 2954 00e3 725F6E65 		.ascii	"r_newer\000"
 2954      77657200 
 2955              	.LASF74:
 2956 00eb 6D705F70 		.ascii	"mp_provider\000"
 2956      726F7669 
 2956      64657200 
 2957              	.LASF44:
 2958 00f7 72656761 		.ascii	"regarm_t\000"
 2958      726D5F74 
 2958      00
 2959              	.LASF68:
 2960 0100 616C6967 		.ascii	"align\000"
 2960      6E00
 2961              	.LASF22:
 2962 0106 636E745F 		.ascii	"cnt_t\000"
 2962      7400
 2963              	.LASF0:
 2964 010c 756E7369 		.ascii	"unsigned int\000"
 2964      676E6564 
 2964      20696E74 
 2964      00
 2965              	.LASF10:
 2966 0119 6C6F6E67 		.ascii	"long unsigned int\000"
 2966      20756E73 
 2966      69676E65 
 2966      6420696E 
 2966      7400
 2967              	.LASF84:
 2968 012b 74656172 		.ascii	"teardown\000"
 2968      646F776E 
 2968      00
 2969              	.LASF93:
 2970 0134 64796E31 		.ascii	"dyn1_setup\000"
 2970      5F736574 
 2970      757000
 2971              	.LASF82:
 2972 013f 6E616D65 		.ascii	"name\000"
 2972      00
 2973              	.LASF47:
 2974 0144 636F6E74 		.ascii	"context\000"
 2974      65787400 
 2975              	.LASF69:
 2976 014c 73697A65 		.ascii	"size\000"
 2976      00
 2977              	.LASF6:
 2978 0151 73686F72 		.ascii	"short unsigned int\000"
 2978      7420756E 
 2978      7369676E 
 2978      65642069 
ARM GAS  /tmp/ccgU6v6L.s 			page 56


 2978      6E7400
 2979              	.LASF95:
 2980 0164 64796E32 		.ascii	"dyn2_execute\000"
 2980      5F657865 
 2980      63757465 
 2980      00
 2981              	.LASF19:
 2982 0171 6D73675F 		.ascii	"msg_t\000"
 2982      7400
 2983              	.LASF15:
 2984 0177 746D6F64 		.ascii	"tmode_t\000"
 2984      655F7400 
 2985              	.LASF43:
 2986 017f 54687265 		.ascii	"ThreadsList\000"
 2986      6164734C 
 2986      69737400 
 2987              	.LASF20:
 2988 018b 6576656E 		.ascii	"eventmask_t\000"
 2988      746D6173 
 2988      6B5F7400 
 2989              	.LASF56:
 2990 0197 4D757465 		.ascii	"Mutex\000"
 2990      7800
 2991              	.LASF45:
 2992 019d 73746B61 		.ascii	"stkalign_t\000"
 2992      6C69676E 
 2992      5F7400
 2993              	.LASF62:
 2994 01a8 6D656D6F 		.ascii	"memory_heap\000"
 2994      72795F68 
 2994      65617000 
 2995              	.LASF103:
 2996 01b4 74657374 		.ascii	"testdyn1\000"
 2996      64796E31 
 2996      00
 2997              	.LASF104:
 2998 01bd 74657374 		.ascii	"testdyn2\000"
 2998      64796E32 
 2998      00
 2999              	.LASF105:
 3000 01c6 74657374 		.ascii	"testdyn3\000"
 3000      64796E33 
 3000      00
 3001              	.LASF108:
 3002 01cf 2E2E2F6C 		.ascii	"../libs/ChibiOS_2.4.0/test/testdyn.c\000"
 3002      6962732F 
 3002      43686962 
 3002      694F535F 
 3002      322E342E 
 3003              	.LASF94:
 3004 01f4 64796E33 		.ascii	"dyn3_execute\000"
 3004      5F657865 
 3004      63757465 
 3004      00
 3005              	.LASF29:
 3006 0201 705F6F6C 		.ascii	"p_older\000"
 3006      64657200 
ARM GAS  /tmp/ccgU6v6L.s 			page 57


 3007              	.LASF50:
 3008 0209 725F6374 		.ascii	"r_ctx\000"
 3008      7800
 3009              	.LASF42:
 3010 020f 54687265 		.ascii	"ThreadsQueue\000"
 3010      61647351 
 3010      75657565 
 3010      00
 3011              	.LASF73:
 3012 021c 6D705F6F 		.ascii	"mp_object_size\000"
 3012      626A6563 
 3012      745F7369 
 3012      7A6500
 3013              	.LASF83:
 3014 022b 73657475 		.ascii	"setup\000"
 3014      7000
 3015              	.LASF54:
 3016 0231 725F6375 		.ascii	"r_current\000"
 3016      7272656E 
 3016      7400
 3017              	.LASF52:
 3018 023b 725F6F6C 		.ascii	"r_older\000"
 3018      64657200 
 3019              	.LASF61:
 3020 0243 4D656D6F 		.ascii	"MemoryHeap\000"
 3020      72794865 
 3020      617000
 3021              	.LASF71:
 3022 024e 70685F6E 		.ascii	"ph_next\000"
 3022      65787400 
 3023              	.LASF17:
 3024 0256 74726566 		.ascii	"trefs_t\000"
 3024      735F7400 
 3025              	.LASF25:
 3026 025e 705F7072 		.ascii	"p_prev\000"
 3026      657600
 3027              	.LASF85:
 3028 0265 65786563 		.ascii	"execute\000"
 3028      75746500 
 3029              	.LASF18:
 3030 026d 74707269 		.ascii	"tprio_t\000"
 3030      6F5F7400 
 3031              	.LASF91:
 3032 0275 74687265 		.ascii	"thread\000"
 3032      616400
 3033              	.LASF7:
 3034 027c 696E7433 		.ascii	"int32_t\000"
 3034      325F7400 
 3035              	.LASF4:
 3036 0284 756E7369 		.ascii	"unsigned char\000"
 3036      676E6564 
 3036      20636861 
 3036      7200
 3037              	.LASF63:
 3038 0292 685F7072 		.ascii	"h_provider\000"
 3038      6F766964 
 3038      657200
ARM GAS  /tmp/ccgU6v6L.s 			page 58


 3039              	.LASF39:
 3040 029d 705F6D74 		.ascii	"p_mtxlist\000"
 3040      786C6973 
 3040      7400
 3041              	.LASF5:
 3042 02a7 73686F72 		.ascii	"short int\000"
 3042      7420696E 
 3042      7400
 3043              	.LASF31:
 3044 02b1 705F7374 		.ascii	"p_state\000"
 3044      61746500 
 3045              	.LASF100:
 3046 02b9 74687265 		.ascii	"threads\000"
 3046      61647300 
 3047              	.LASF49:
 3048 02c1 725F7072 		.ascii	"r_prio\000"
 3048      696F00
 3049              	.LASF86:
 3050 02c8 68656170 		.ascii	"heap_header\000"
 3050      5F686561 
 3050      64657200 
 3051              	.LASF79:
 3052 02d4 65776D61 		.ascii	"ewmask\000"
 3052      736B00
 3053              	.LASF24:
 3054 02db 705F6E65 		.ascii	"p_next\000"
 3054      787400
 3055              	.LASF32:
 3056 02e2 705F666C 		.ascii	"p_flags\000"
 3056      61677300 
 3057              	.LASF23:
 3058 02ea 54687265 		.ascii	"Thread\000"
 3058      616400
 3059              	.LASF81:
 3060 02f1 74657374 		.ascii	"testcase\000"
 3060      63617365 
 3060      00
 3061              	.LASF38:
 3062 02fa 705F6570 		.ascii	"p_epending\000"
 3062      656E6469 
 3062      6E6700
 3063              	.LASF9:
 3064 0305 75696E74 		.ascii	"uint32_t\000"
 3064      33325F74 
 3064      00
 3065              	.LASF48:
 3066 030e 725F7175 		.ascii	"r_queue\000"
 3066      65756500 
 3067              	.LASF67:
 3068 0316 68656170 		.ascii	"heap\000"
 3068      00
 3069              	.LASF80:
 3070 031b 63686172 		.ascii	"char\000"
 3070      00
 3071              	.LASF92:
 3072 0320 64796E33 		.ascii	"dyn3_setup\000"
 3072      5F736574 
ARM GAS  /tmp/ccgU6v6L.s 			page 59


 3072      757000
 3073              	.LASF59:
 3074 032b 6D5F6E65 		.ascii	"m_next\000"
 3074      787400
 3075              	.LASF21:
 3076 0332 73797374 		.ascii	"systime_t\000"
 3076      696D655F 
 3076      7400
 3077              	.LASF40:
 3078 033c 705F7265 		.ascii	"p_realprio\000"
 3078      616C7072 
 3078      696F00
 3079              	.LASF88:
 3080 0347 62756666 		.ascii	"buffer\000"
 3080      657200
 3081              	.LASF106:
 3082 034e 70617474 		.ascii	"patterndyn\000"
 3082      65726E64 
 3082      796E00
 3083              	.LASF34:
 3084 0359 705F7469 		.ascii	"p_time\000"
 3084      6D6500
 3085              	.LASF46:
 3086 0360 696E7463 		.ascii	"intctx\000"
 3086      747800
 3087              	.LASF36:
 3088 0367 705F6D73 		.ascii	"p_msgqueue\000"
 3088      67717565 
 3088      756500
 3089              	.LASF89:
 3090 0372 666F756E 		.ascii	"found\000"
 3090      6400
 3091              	.LASF87:
 3092 0378 74657374 		.ascii	"test_buffers\000"
 3092      5F627566 
 3092      66657273 
 3092      00
 3093              	.LASF70:
 3094 0385 706F6F6C 		.ascii	"pool_header\000"
 3094      5F686561 
 3094      64657200 
 3095              	.LASF33:
 3096 0391 705F7265 		.ascii	"p_refs\000"
 3096      667300
 3097              	.LASF55:
 3098 0398 52656164 		.ascii	"ReadyList\000"
 3098      794C6973 
 3098      7400
 3099              	.LASF90:
 3100 03a2 72656766 		.ascii	"regfind\000"
 3100      696E6400 
 3101              	.LASF99:
 3102 03aa 726C6973 		.ascii	"rlist\000"
 3102      7400
 3103              	.LASF3:
 3104 03b0 75696E74 		.ascii	"uint8_t\000"
 3104      385F7400 
ARM GAS  /tmp/ccgU6v6L.s 			page 60


 3105              	.LASF78:
 3106 03b8 77746F62 		.ascii	"wtobjp\000"
 3106      6A7000
 3107              	.LASF107:
 3108 03bf 474E5520 		.ascii	"GNU C 4.5.2\000"
 3108      4320342E 
 3108      352E3200 
 3109              	.LASF30:
 3110 03cb 705F6E61 		.ascii	"p_name\000"
 3110      6D6500
 3111              	.LASF53:
 3112 03d2 725F7072 		.ascii	"r_preempt\000"
 3112      65656D70 
 3112      7400
 3113              	.LASF58:
 3114 03dc 6D5F6F77 		.ascii	"m_owner\000"
 3114      6E657200 
 3115              	.LASF27:
 3116 03e4 705F6374 		.ascii	"p_ctx\000"
 3116      7800
 3117              	.LASF35:
 3118 03ea 705F7761 		.ascii	"p_waiting\000"
 3118      6974696E 
 3118      6700
 3119              	.LASF102:
 3120 03f4 68656170 		.ascii	"heap1\000"
 3120      3100
 3121              	.LASF109:
 3122 03fa 2F686F6D 		.ascii	"/home/stm32/Workspace/FirmwareSpykee\000"
 3122      652F7374 
 3122      6D33322F 
 3122      576F726B 
 3122      73706163 
 3123              		.ident	"GCC: (Sourcery G++ Lite 2011.03-42) 4.5.2"
ARM GAS  /tmp/ccgU6v6L.s 			page 61


DEFINED SYMBOLS
                            *ABS*:00000000 testdyn.c
     /tmp/ccgU6v6L.s:26     .text.regfind:00000000 $t
     /tmp/ccgU6v6L.s:31     .text.regfind:00000000 regfind
     /tmp/ccgU6v6L.s:80     .text.dyn3_execute:00000000 $t
     /tmp/ccgU6v6L.s:85     .text.dyn3_execute:00000000 dyn3_execute
     /tmp/ccgU6v6L.s:245    .text.dyn3_execute:00000138 $d
     /tmp/ccgU6v6L.s:258    .text.thread:00000000 thread
     /tmp/ccgU6v6L.s:253    .text.thread:00000000 $t
     /tmp/ccgU6v6L.s:281    .text.dyn3_setup:00000000 $t
     /tmp/ccgU6v6L.s:286    .text.dyn3_setup:00000000 dyn3_setup
     /tmp/ccgU6v6L.s:303    .text.dyn3_setup:0000000c $d
     /tmp/ccgU6v6L.s:309    .text.dyn1_setup:00000000 $t
     /tmp/ccgU6v6L.s:314    .text.dyn1_setup:00000000 dyn1_setup
     /tmp/ccgU6v6L.s:331    .text.dyn1_setup:0000000c $d
     /tmp/ccgU6v6L.s:337    .text.dyn2_execute:00000000 $t
     /tmp/ccgU6v6L.s:342    .text.dyn2_execute:00000000 dyn2_execute
     /tmp/ccgU6v6L.s:519    .text.dyn2_execute:00000114 $d
     /tmp/ccgU6v6L.s:534    .text.dyn2_setup:00000000 $t
     /tmp/ccgU6v6L.s:539    .text.dyn2_setup:00000000 dyn2_setup
     /tmp/ccgU6v6L.s:556    .text.dyn2_setup:0000000c $d
     /tmp/ccgU6v6L.s:561    .text.dyn1_execute:00000000 $t
     /tmp/ccgU6v6L.s:566    .text.dyn1_execute:00000000 dyn1_execute
     /tmp/ccgU6v6L.s:714    .text.dyn1_execute:000000dc $d
     /tmp/ccgU6v6L.s:733    .rodata.testdyn1:00000000 testdyn1
     /tmp/ccgU6v6L.s:742    .rodata.testdyn2:00000000 testdyn2
     /tmp/ccgU6v6L.s:751    .rodata.testdyn3:00000000 testdyn3
     /tmp/ccgU6v6L.s:797    .rodata.patterndyn:00000000 patterndyn
     /tmp/ccgU6v6L.s:730    .rodata.testdyn1:00000000 $d
     /tmp/ccgU6v6L.s:739    .rodata.testdyn2:00000000 $d
     /tmp/ccgU6v6L.s:748    .rodata.testdyn3:00000000 $d
     /tmp/ccgU6v6L.s:757    .bss.mp1:00000000 $d
     /tmp/ccgU6v6L.s:761    .bss.mp1:00000000 mp1
     /tmp/ccgU6v6L.s:764    .rodata.str1.4:00000000 $d
     /tmp/ccgU6v6L.s:794    .rodata.patterndyn:00000000 $d
     /tmp/ccgU6v6L.s:803    .bss.heap1:00000000 $d
     /tmp/ccgU6v6L.s:807    .bss.heap1:00000000 heap1
                     .debug_frame:00000010 $d
     /tmp/ccgU6v6L.s:252    .text.dyn3_execute:00000148 $t
     /tmp/ccgU6v6L.s:308    .text.dyn3_setup:00000014 $t
     /tmp/ccgU6v6L.s:336    .text.dyn1_setup:00000014 $t
     /tmp/ccgU6v6L.s:729    .text.dyn1_execute:000000fc $t

UNDEFINED SYMBOLS
chRegFirstThread
chRegNextThread
chThdCreateFromHeap
_test_assert
chThdAddRef
chThdRelease
chThdSleep
rlist
test_emit_token
chHeapInit
test
chPoolFree
chThdCreateFromMemoryPool
ARM GAS  /tmp/ccgU6v6L.s 			page 62


test_wait_threads
_test_assert_sequence
chPoolAlloc
wa
threads
chPoolInit
chHeapStatus
chHeapAlloc
chHeapFree
