ARM GAS  /tmp/ccvQ8sjS.s 			page 1


   1              		.syntax unified
   2              		.cpu cortex-m4
   3              		.eabi_attribute 27, 3
   4              		.eabi_attribute 28, 1
   5              		.fpu fpv4-sp-d16
   6              		.eabi_attribute 20, 1
   7              		.eabi_attribute 21, 1
   8              		.eabi_attribute 23, 3
   9              		.eabi_attribute 24, 1
  10              		.eabi_attribute 25, 1
  11              		.eabi_attribute 26, 1
  12              		.eabi_attribute 30, 2
  13              		.eabi_attribute 18, 4
  14              		.thumb
  15              		.file	"testevt.c"
  16              		.section	.debug_abbrev,"",%progbits
  17              	.Ldebug_abbrev0:
  18              		.section	.debug_info,"",%progbits
  19              	.Ldebug_info0:
  20              		.section	.debug_line,"",%progbits
  21              	.Ldebug_line0:
  22 0000 A9020000 		.text
  22      02007101 
  22      00000201 
  22      FB0E0D00 
  22      01010101 
  23              	.Ltext0:
  24              		.cfi_sections	.debug_frame
  25              		.section	.text.evt3_execute,"ax",%progbits
  26              		.align	2
  27              		.p2align 4,,15
  28              		.thumb
  29              		.thumb_func
  30              		.type	evt3_execute, %function
  31              	evt3_execute:
  32              	.LFB17:
  33              		.file 1 "../libs/ChibiOS_2.4.0/test/testevt.c"
  34              		.loc 1 263 0
  35              		.cfi_startproc
  36              		@ args = 0, pretend = 0, frame = 0
  37              		@ frame_needed = 0, uses_anonymous_args = 0
  38              		.loc 1 269 0
  39 0000 0021     		movs	r1, #0
  40              		.loc 1 263 0
  41 0002 10B5     		push	{r4, lr}
  42              	.LCFI0:
  43              		.cfi_def_cfa_offset 8
  44              		.loc 1 269 0
  45 0004 4FF0FF30 		mov	r0, #-1
  46              		.cfi_offset 14, -4
  47              		.cfi_offset 4, -8
  48 0008 FFF7FEFF 		bl	chEvtWaitOneTimeout
  49              	.LVL0:
  50              		.loc 1 270 0
  51 000c D0F10101 		rsbs	r1, r0, #1
  52 0010 38BF     		it	cc
  53 0012 0021     		movcc	r1, #0
ARM GAS  /tmp/ccvQ8sjS.s 			page 2


  54 0014 0120     		movs	r0, #1
  55              	.LVL1:
  56 0016 FFF7FEFF 		bl	_test_assert
  57 001a 00B1     		cbz	r0, .L4
  58              	.L1:
  59 001c 10BD     		pop	{r4, pc}
  60              	.L4:
  61              		.loc 1 271 0
  62 001e 0146     		mov	r1, r0
  63 0020 4FF0FF30 		mov	r0, #-1
  64 0024 FFF7FEFF 		bl	chEvtWaitAnyTimeout
  65              	.LVL2:
  66              		.loc 1 272 0
  67 0028 D0F10101 		rsbs	r1, r0, #1
  68 002c 38BF     		it	cc
  69 002e 0021     		movcc	r1, #0
  70 0030 0220     		movs	r0, #2
  71              	.LVL3:
  72 0032 FFF7FEFF 		bl	_test_assert
  73 0036 0028     		cmp	r0, #0
  74 0038 F0D1     		bne	.L1
  75              		.loc 1 273 0
  76 003a 0146     		mov	r1, r0
  77 003c 4FF0FF30 		mov	r0, #-1
  78 0040 FFF7FEFF 		bl	chEvtWaitAllTimeout
  79              	.LVL4:
  80              		.loc 1 274 0
  81 0044 D0F10101 		rsbs	r1, r0, #1
  82 0048 38BF     		it	cc
  83 004a 0021     		movcc	r1, #0
  84 004c 0320     		movs	r0, #3
  85              	.LVL5:
  86 004e FFF7FEFF 		bl	_test_assert
  87 0052 0028     		cmp	r0, #0
  88 0054 E2D1     		bne	.L1
  89              		.loc 1 275 0
  90 0056 0A21     		movs	r1, #10
  91 0058 4FF0FF30 		mov	r0, #-1
  92 005c FFF7FEFF 		bl	chEvtWaitOneTimeout
  93              	.LVL6:
  94              		.loc 1 276 0
  95 0060 D0F10101 		rsbs	r1, r0, #1
  96 0064 38BF     		it	cc
  97 0066 0021     		movcc	r1, #0
  98 0068 0420     		movs	r0, #4
  99              	.LVL7:
 100 006a FFF7FEFF 		bl	_test_assert
 101 006e 0028     		cmp	r0, #0
 102 0070 D4D1     		bne	.L1
 103              		.loc 1 277 0
 104 0072 0A21     		movs	r1, #10
 105 0074 4FF0FF30 		mov	r0, #-1
 106 0078 FFF7FEFF 		bl	chEvtWaitAnyTimeout
 107              	.LVL8:
 108              		.loc 1 278 0
 109 007c D0F10101 		rsbs	r1, r0, #1
 110 0080 38BF     		it	cc
ARM GAS  /tmp/ccvQ8sjS.s 			page 3


 111 0082 0021     		movcc	r1, #0
 112 0084 0520     		movs	r0, #5
 113              	.LVL9:
 114 0086 FFF7FEFF 		bl	_test_assert
 115 008a 0028     		cmp	r0, #0
 116 008c C6D1     		bne	.L1
 117              		.loc 1 279 0
 118 008e 0A21     		movs	r1, #10
 119 0090 4FF0FF30 		mov	r0, #-1
 120 0094 FFF7FEFF 		bl	chEvtWaitAllTimeout
 121              	.LVL10:
 122              		.loc 1 280 0
 123 0098 D0F10101 		rsbs	r1, r0, #1
 124 009c 38BF     		it	cc
 125 009e 0021     		movcc	r1, #0
 126 00a0 0620     		movs	r0, #6
 127              	.LVL11:
 128              		.loc 1 281 0
 129 00a2 BDE81040 		pop	{r4, lr}
 130              		.loc 1 280 0
 131 00a6 FFF7FEBF 		b	_test_assert
 132              		.cfi_endproc
 133              	.LFE17:
 134              		.size	evt3_execute, .-evt3_execute
 135 00aa 00BFAFF3 		.section	.text.evt3_setup,"ax",%progbits
 135      0080
 136              		.align	2
 137              		.p2align 4,,15
 138              		.thumb
 139              		.thumb_func
 140              		.type	evt3_setup, %function
 141              	evt3_setup:
 142              	.LFB16:
 143              		.loc 1 258 0
 144              		.cfi_startproc
 145              		@ args = 0, pretend = 0, frame = 0
 146              		@ frame_needed = 0, uses_anonymous_args = 0
 147              		@ link register save eliminated.
 148              		.loc 1 260 0
 149 0000 4FF0FF30 		mov	r0, #-1
 150              		.loc 1 261 0
 151              		.loc 1 260 0
 152 0004 FFF7FEBF 		b	chEvtClearFlags
 153              		.cfi_endproc
 154              	.LFE16:
 155              		.size	evt3_setup, .-evt3_setup
 156 0008 AFF30080 		.section	.text.evt2_setup,"ax",%progbits
 156      AFF30080 
 157              		.align	2
 158              		.p2align 4,,15
 159              		.thumb
 160              		.thumb_func
 161              		.type	evt2_setup, %function
 162              	evt2_setup:
 163              	.LFB12:
 164              		.loc 1 139 0
 165              		.cfi_startproc
ARM GAS  /tmp/ccvQ8sjS.s 			page 4


 166              		@ args = 0, pretend = 0, frame = 0
 167              		@ frame_needed = 0, uses_anonymous_args = 0
 168              		@ link register save eliminated.
 169              		.loc 1 141 0
 170 0000 4FF0FF30 		mov	r0, #-1
 171              		.loc 1 142 0
 172              		.loc 1 141 0
 173 0004 FFF7FEBF 		b	chEvtClearFlags
 174              		.cfi_endproc
 175              	.LFE12:
 176              		.size	evt2_setup, .-evt2_setup
 177 0008 AFF30080 		.section	.text.evt1_setup,"ax",%progbits
 177      AFF30080 
 178              		.align	2
 179              		.p2align 4,,15
 180              		.thumb
 181              		.thumb_func
 182              		.type	evt1_setup, %function
 183              	evt1_setup:
 184              	.LFB7:
 185              		.loc 1 86 0
 186              		.cfi_startproc
 187              		@ args = 0, pretend = 0, frame = 0
 188              		@ frame_needed = 0, uses_anonymous_args = 0
 189              		@ link register save eliminated.
 190              		.loc 1 88 0
 191 0000 4FF0FF30 		mov	r0, #-1
 192              		.loc 1 89 0
 193              		.loc 1 88 0
 194 0004 FFF7FEBF 		b	chEvtClearFlags
 195              		.cfi_endproc
 196              	.LFE7:
 197              		.size	evt1_setup, .-evt1_setup
 198 0008 AFF30080 		.section	.text.evt2_execute,"ax",%progbits
 198      AFF30080 
 199              		.align	2
 200              		.p2align 4,,15
 201              		.thumb
 202              		.thumb_func
 203              		.type	evt2_execute, %function
 204              	evt2_execute:
 205              	.LFB15:
 206              		.loc 1 160 0
 207              		.cfi_startproc
 208              		@ args = 0, pretend = 0, frame = 24
 209              		@ frame_needed = 0, uses_anonymous_args = 0
 210 0000 2DE9F047 		push	{r4, r5, r6, r7, r8, r9, sl, lr}
 211              	.LCFI1:
 212              		.cfi_def_cfa_offset 32
 213              		.loc 1 168 0
 214 0004 0520     		movs	r0, #5
 215              		.loc 1 160 0
 216 0006 88B0     		sub	sp, sp, #32
 217              	.LCFI2:
 218              		.cfi_def_cfa_offset 64
 219              		.loc 1 168 0
 220              		.cfi_offset 14, -4
ARM GAS  /tmp/ccvQ8sjS.s 			page 5


 221              		.cfi_offset 10, -8
 222              		.cfi_offset 9, -12
 223              		.cfi_offset 8, -16
 224              		.cfi_offset 7, -20
 225              		.cfi_offset 6, -24
 226              		.cfi_offset 5, -28
 227              		.cfi_offset 4, -32
 228 0008 FFF7FEFF 		bl	chEvtAddFlags
 229              		.loc 1 169 0
 230 000c 4FF0FF30 		mov	r0, #-1
 231 0010 FFF7FEFF 		bl	chEvtWaitOne
 232              	.LVL12:
 233              		.loc 1 170 0
 234 0014 A0F10100 		sub	r0, r0, #1
 235              	.LVL13:
 236 0018 4142     		rsbs	r1, r0, #0
 237 001a 41EB0001 		adc	r1, r1, r0
 238 001e 0120     		movs	r0, #1
 239              	.LVL14:
 240 0020 FFF7FEFF 		bl	_test_assert
 241 0024 10B1     		cbz	r0, .L10
 242              	.L8:
 243              		.loc 1 233 0
 244 0026 08B0     		add	sp, sp, #32
 245 0028 BDE8F087 		pop	{r4, r5, r6, r7, r8, r9, sl, pc}
 246              	.L10:
 247              		.loc 1 171 0
 248 002c 4FF0FF30 		mov	r0, #-1
 249 0030 FFF7FEFF 		bl	chEvtWaitOne
 250              	.LVL15:
 251              		.loc 1 172 0
 252 0034 A0F10402 		sub	r2, r0, #4
 253 0038 5342     		rsbs	r3, r2, #0
 254 003a 43EB0201 		adc	r1, r3, r2
 255 003e 0220     		movs	r0, #2
 256              	.LVL16:
 257 0040 FFF7FEFF 		bl	_test_assert
 258              	.LVL17:
 259 0044 0028     		cmp	r0, #0
 260 0046 EED1     		bne	.L8
 261              		.loc 1 173 0
 262 0048 4FF0FF30 		mov	r0, #-1
 263 004c FFF7FEFF 		bl	chEvtClearFlags
 264              	.LVL18:
 265              		.loc 1 174 0
 266 0050 D0F10101 		rsbs	r1, r0, #1
 267 0054 38BF     		it	cc
 268 0056 0021     		movcc	r1, #0
 269 0058 0320     		movs	r0, #3
 270              	.LVL19:
 271 005a FFF7FEFF 		bl	_test_assert
 272 005e 0028     		cmp	r0, #0
 273 0060 E1D1     		bne	.L8
 274              		.loc 1 181 0
 275 0062 784F     		ldr	r7, .L11
 276 0064 784C     		ldr	r4, .L11+4
 277              		.loc 1 180 0
ARM GAS  /tmp/ccvQ8sjS.s 			page 6


 278 0066 794E     		ldr	r6, .L11+8
 279              		.loc 1 181 0
 280 0068 794D     		ldr	r5, .L11+12
 281              		.loc 1 179 0
 282 006a FFF7FEFF 		bl	test_wait_tick
 283              		.loc 1 181 0
 284 006e F969     		ldr	r1, [r7, #28]
 285 0070 D4F80080 		ldr	r8, [r4, #0]
 286 0074 8868     		ldr	r0, [r1, #8]
 287              		.loc 1 180 0
 288 0076 F468     		ldr	r4, [r6, #12]
 289              		.loc 1 181 0
 290 0078 764B     		ldr	r3, .L11+16
 291 007a 0091     		str	r1, [sp, #0]
 292 007c 421E     		subs	r2, r0, #1
 293 007e 4FF49071 		mov	r1, #288
 294 0082 4046     		mov	r0, r8
 295 0084 FFF7FEFF 		bl	chThdCreateStatic
 296 0088 2860     		str	r0, [r5, #0]
 297              		.loc 1 183 0
 298 008a 4FF0FF30 		mov	r0, #-1
 299 008e FFF7FEFF 		bl	chEvtWaitOne
 300              		.loc 1 180 0
 301 0092 04F1320A 		add	sl, r4, #50
 302              	.LVL20:
 303              		.loc 1 183 0
 304 0096 8146     		mov	r9, r0
 305              	.LVL21:
 306              		.loc 1 184 0
 307 0098 5146     		mov	r1, sl
 308 009a 0420     		movs	r0, #4
 309              	.LVL22:
 310 009c 04F13702 		add	r2, r4, #55
 311 00a0 FFF7FEFF 		bl	_test_assert_time_window
 312 00a4 0028     		cmp	r0, #0
 313 00a6 BED1     		bne	.L8
 314              		.loc 1 185 0
 315 00a8 A9F1010E 		sub	lr, r9, #1
 316 00ac 0520     		movs	r0, #5
 317 00ae DEF1000C 		rsbs	ip, lr, #0
 318 00b2 4CEB0E01 		adc	r1, ip, lr
 319 00b6 FFF7FEFF 		bl	_test_assert
 320 00ba 0028     		cmp	r0, #0
 321 00bc B3D1     		bne	.L8
 322              		.loc 1 186 0
 323 00be 4FF0FF30 		mov	r0, #-1
 324 00c2 FFF7FEFF 		bl	chEvtClearFlags
 325              	.LVL23:
 326              		.loc 1 187 0
 327 00c6 D0F10101 		rsbs	r1, r0, #1
 328 00ca 38BF     		it	cc
 329 00cc 0021     		movcc	r1, #0
 330 00ce 0620     		movs	r0, #6
 331              	.LVL24:
 332 00d0 FFF7FEFF 		bl	_test_assert
 333 00d4 0028     		cmp	r0, #0
 334 00d6 A6D1     		bne	.L8
ARM GAS  /tmp/ccvQ8sjS.s 			page 7


 335              		.loc 1 188 0
 336 00d8 FFF7FEFF 		bl	test_wait_threads
 337              		.loc 1 193 0
 338 00dc 0520     		movs	r0, #5
 339 00de FFF7FEFF 		bl	chEvtAddFlags
 340              		.loc 1 194 0
 341 00e2 4FF0FF30 		mov	r0, #-1
 342 00e6 FFF7FEFF 		bl	chEvtWaitAny
 343              	.LVL25:
 344              		.loc 1 195 0
 345 00ea A0F10502 		sub	r2, r0, #5
 346 00ee 5342     		rsbs	r3, r2, #0
 347 00f0 43EB0201 		adc	r1, r3, r2
 348 00f4 0720     		movs	r0, #7
 349              	.LVL26:
 350 00f6 FFF7FEFF 		bl	_test_assert
 351              	.LVL27:
 352 00fa 0028     		cmp	r0, #0
 353 00fc 93D1     		bne	.L8
 354              		.loc 1 196 0
 355 00fe 4FF0FF30 		mov	r0, #-1
 356 0102 FFF7FEFF 		bl	chEvtClearFlags
 357              	.LVL28:
 358              		.loc 1 197 0
 359 0106 D0F10101 		rsbs	r1, r0, #1
 360 010a 38BF     		it	cc
 361 010c 0021     		movcc	r1, #0
 362 010e 0820     		movs	r0, #8
 363              	.LVL29:
 364 0110 FFF7FEFF 		bl	_test_assert
 365 0114 0028     		cmp	r0, #0
 366 0116 86D1     		bne	.L8
 367              		.loc 1 202 0
 368 0118 FFF7FEFF 		bl	test_wait_tick
 369              		.loc 1 204 0
 370 011c F969     		ldr	r1, [r7, #28]
 371              		.loc 1 203 0
 372 011e F468     		ldr	r4, [r6, #12]
 373              		.loc 1 204 0
 374 0120 8868     		ldr	r0, [r1, #8]
 375 0122 4C4B     		ldr	r3, .L11+16
 376 0124 0091     		str	r1, [sp, #0]
 377 0126 421E     		subs	r2, r0, #1
 378 0128 4FF49071 		mov	r1, #288
 379 012c 4046     		mov	r0, r8
 380 012e FFF7FEFF 		bl	chThdCreateStatic
 381 0132 2860     		str	r0, [r5, #0]
 382              		.loc 1 206 0
 383 0134 4FF0FF30 		mov	r0, #-1
 384 0138 FFF7FEFF 		bl	chEvtWaitAny
 385              		.loc 1 203 0
 386 013c 04F1320A 		add	sl, r4, #50
 387              	.LVL30:
 388              		.loc 1 206 0
 389 0140 8146     		mov	r9, r0
 390              	.LVL31:
 391              		.loc 1 207 0
ARM GAS  /tmp/ccvQ8sjS.s 			page 8


 392 0142 5146     		mov	r1, sl
 393 0144 0920     		movs	r0, #9
 394              	.LVL32:
 395 0146 04F13702 		add	r2, r4, #55
 396 014a FFF7FEFF 		bl	_test_assert_time_window
 397 014e 0028     		cmp	r0, #0
 398 0150 7FF469AF 		bne	.L8
 399              		.loc 1 208 0
 400 0154 A9F1010E 		sub	lr, r9, #1
 401 0158 0A30     		adds	r0, r0, #10
 402 015a DEF1000C 		rsbs	ip, lr, #0
 403 015e 4CEB0E01 		adc	r1, ip, lr
 404 0162 FFF7FEFF 		bl	_test_assert
 405 0166 0028     		cmp	r0, #0
 406 0168 7FF45DAF 		bne	.L8
 407              		.loc 1 209 0
 408 016c 0138     		subs	r0, r0, #1
 409 016e FFF7FEFF 		bl	chEvtClearFlags
 410              	.LVL33:
 411              		.loc 1 210 0
 412 0172 D0F10101 		rsbs	r1, r0, #1
 413 0176 38BF     		it	cc
 414 0178 0021     		movcc	r1, #0
 415 017a 0B20     		movs	r0, #11
 416              	.LVL34:
 417 017c FFF7FEFF 		bl	_test_assert
 418 0180 0028     		cmp	r0, #0
 419 0182 7FF450AF 		bne	.L8
 420              		.loc 1 216 0
 421 0186 344C     		ldr	r4, .L11+20
 422              		.loc 1 217 0
 423 0188 DFF8D890 		ldr	r9, .L11+32
 424              		.loc 1 211 0
 425 018c FFF7FEFF 		bl	test_wait_threads
 426              		.loc 1 218 0
 427 0190 2046     		mov	r0, r4
 428 0192 05A9     		add	r1, sp, #20
 429 0194 0122     		movs	r2, #1
 430              		.loc 1 216 0
 431 0196 2460     		str	r4, [r4, #0]
 432              		.loc 1 217 0
 433 0198 C9F80090 		str	r9, [r9, #0]
 434              		.loc 1 218 0
 435 019c FFF7FEFF 		bl	chEvtRegisterMask
 436              		.loc 1 219 0
 437 01a0 02A9     		add	r1, sp, #8
 438 01a2 0422     		movs	r2, #4
 439 01a4 4846     		mov	r0, r9
 440 01a6 FFF7FEFF 		bl	chEvtRegisterMask
 441              		.loc 1 220 0
 442 01aa FFF7FEFF 		bl	test_wait_tick
 443              		.loc 1 222 0
 444 01ae FB69     		ldr	r3, [r7, #28]
 445 01b0 2A4A     		ldr	r2, .L11+24
 446 01b2 9F68     		ldr	r7, [r3, #8]
 447              		.loc 1 221 0
 448 01b4 F668     		ldr	r6, [r6, #12]
ARM GAS  /tmp/ccvQ8sjS.s 			page 9


 449              		.loc 1 222 0
 450 01b6 2A4B     		ldr	r3, .L11+28
 451 01b8 0092     		str	r2, [sp, #0]
 452 01ba 4FF49071 		mov	r1, #288
 453 01be 7A1E     		subs	r2, r7, #1
 454 01c0 4046     		mov	r0, r8
 455 01c2 FFF7FEFF 		bl	chThdCreateStatic
 456              		.loc 1 221 0
 457 01c6 06F13207 		add	r7, r6, #50
 458              	.LVL35:
 459              		.loc 1 222 0
 460 01ca 2860     		str	r0, [r5, #0]
 461              		.loc 1 224 0
 462 01cc 0520     		movs	r0, #5
 463 01ce FFF7FEFF 		bl	chEvtWaitAll
 464              		.loc 1 225 0
 465 01d2 0C20     		movs	r0, #12
 466 01d4 3946     		mov	r1, r7
 467 01d6 06F13702 		add	r2, r6, #55
 468 01da FFF7FEFF 		bl	_test_assert_time_window
 469 01de 0028     		cmp	r0, #0
 470 01e0 7FF421AF 		bne	.L8
 471              		.loc 1 226 0
 472 01e4 0138     		subs	r0, r0, #1
 473 01e6 FFF7FEFF 		bl	chEvtClearFlags
 474              	.LVL36:
 475              		.loc 1 227 0
 476 01ea D0F10101 		rsbs	r1, r0, #1
 477 01ee 38BF     		it	cc
 478 01f0 0021     		movcc	r1, #0
 479 01f2 0D20     		movs	r0, #13
 480              	.LVL37:
 481 01f4 FFF7FEFF 		bl	_test_assert
 482 01f8 0028     		cmp	r0, #0
 483 01fa 7FF414AF 		bne	.L8
 484              		.loc 1 228 0
 485 01fe FFF7FEFF 		bl	test_wait_threads
 486              		.loc 1 229 0
 487 0202 2046     		mov	r0, r4
 488 0204 05A9     		add	r1, sp, #20
 489 0206 FFF7FEFF 		bl	chEvtUnregister
 490              		.loc 1 230 0
 491 020a 4846     		mov	r0, r9
 492 020c 02A9     		add	r1, sp, #8
 493 020e FFF7FEFF 		bl	chEvtUnregister
 494              		.loc 1 231 0
 495 0212 2268     		ldr	r2, [r4, #0]
 496 0214 C4EB020C 		rsb	ip, r4, r2
 497 0218 0E20     		movs	r0, #14
 498 021a DCF10001 		rsbs	r1, ip, #0
 499 021e 41EB0C01 		adc	r1, r1, ip
 500 0222 FFF7FEFF 		bl	_test_assert
 501 0226 0028     		cmp	r0, #0
 502 0228 7FF4FDAE 		bne	.L8
 503              		.loc 1 232 0
 504 022c D9F80010 		ldr	r1, [r9, #0]
 505 0230 C9EB0103 		rsb	r3, r9, r1
ARM GAS  /tmp/ccvQ8sjS.s 			page 10


 506 0234 0F30     		adds	r0, r0, #15
 507 0236 D3F1000E 		rsbs	lr, r3, #0
 508 023a 4EEB0301 		adc	r1, lr, r3
 509 023e FFF7FEFF 		bl	_test_assert
 510 0242 F0E6     		b	.L8
 511              	.L12:
 512              		.align	2
 513              	.L11:
 514 0244 00000000 		.word	rlist
 515 0248 00000000 		.word	wa
 516 024c 00000000 		.word	vtlist
 517 0250 00000000 		.word	threads
 518 0254 00000000 		.word	thread1
 519 0258 00000000 		.word	.LANCHOR0
 520 025c 00000000 		.word	.LC0
 521 0260 00000000 		.word	thread2
 522 0264 00000000 		.word	.LANCHOR1
 523              		.cfi_endproc
 524              	.LFE15:
 525              		.size	evt2_execute, .-evt2_execute
 526 0268 AFF30080 		.section	.text.thread2,"ax",%progbits
 526      AFF30080 
 527              		.align	2
 528              		.p2align 4,,15
 529              		.thumb
 530              		.thumb_func
 531              		.type	thread2, %function
 532              	thread2:
 533              	.LFB14:
 534              		.loc 1 151 0
 535              		.cfi_startproc
 536              		@ args = 0, pretend = 0, frame = 0
 537              		@ frame_needed = 0, uses_anonymous_args = 0
 538              	.LVL38:
 539 0000 08B5     		push	{r3, lr}
 540              	.LCFI3:
 541              		.cfi_def_cfa_offset 8
 542              		.loc 1 154 0
 543 0002 0021     		movs	r1, #0
 544 0004 0548     		ldr	r0, .L14
 545              	.LVL39:
 546              		.cfi_offset 14, -4
 547              		.cfi_offset 3, -8
 548 0006 FFF7FEFF 		bl	chEvtBroadcastFlags
 549              		.loc 1 155 0
 550 000a 3220     		movs	r0, #50
 551 000c FFF7FEFF 		bl	chThdSleep
 552              		.loc 1 156 0
 553 0010 0348     		ldr	r0, .L14+4
 554 0012 0021     		movs	r1, #0
 555 0014 FFF7FEFF 		bl	chEvtBroadcastFlags
 556              		.loc 1 158 0
 557 0018 0020     		movs	r0, #0
 558 001a 08BD     		pop	{r3, pc}
 559              	.L15:
 560              		.align	2
 561              	.L14:
ARM GAS  /tmp/ccvQ8sjS.s 			page 11


 562 001c 00000000 		.word	.LANCHOR0
 563 0020 00000000 		.word	.LANCHOR1
 564              		.cfi_endproc
 565              	.LFE14:
 566              		.size	thread2, .-thread2
 567 0024 AFF30080 		.section	.text.thread1,"ax",%progbits
 567      AFF30080 
 567      AFF30080 
 568              		.align	2
 569              		.p2align 4,,15
 570              		.thumb
 571              		.thumb_func
 572              		.type	thread1, %function
 573              	thread1:
 574              	.LFB13:
 575              		.loc 1 144 0
 576              		.cfi_startproc
 577              		@ args = 0, pretend = 0, frame = 0
 578              		@ frame_needed = 0, uses_anonymous_args = 0
 579              	.LVL40:
 580 0000 10B5     		push	{r4, lr}
 581              	.LCFI4:
 582              		.cfi_def_cfa_offset 8
 583              		.loc 1 144 0
 584 0002 0446     		mov	r4, r0
 585              		.cfi_offset 14, -4
 586              		.cfi_offset 4, -8
 587              		.loc 1 146 0
 588 0004 3220     		movs	r0, #50
 589              	.LVL41:
 590 0006 FFF7FEFF 		bl	chThdSleep
 591              		.loc 1 147 0
 592 000a 2046     		mov	r0, r4
 593 000c 0121     		movs	r1, #1
 594 000e FFF7FEFF 		bl	chEvtSignalFlags
 595              		.loc 1 149 0
 596 0012 0020     		movs	r0, #0
 597 0014 10BD     		pop	{r4, pc}
 598              		.cfi_endproc
 599              	.LFE13:
 600              		.size	thread1, .-thread1
 601 0016 00BFAFF3 		.section	.text.evt1_execute,"ax",%progbits
 601      0080AFF3 
 601      0080
 602              		.align	2
 603              		.p2align 4,,15
 604              		.thumb
 605              		.thumb_func
 606              		.type	evt1_execute, %function
 607              	evt1_execute:
 608              	.LFB11:
 609              		.loc 1 96 0
 610              		.cfi_startproc
 611              		@ args = 0, pretend = 0, frame = 24
 612              		@ frame_needed = 0, uses_anonymous_args = 0
 613 0000 10B5     		push	{r4, lr}
 614              	.LCFI5:
ARM GAS  /tmp/ccvQ8sjS.s 			page 12


 615              		.cfi_def_cfa_offset 8
 616              		.loc 1 102 0
 617 0002 1E4C     		ldr	r4, .L20
 618              		.cfi_offset 14, -4
 619              		.cfi_offset 4, -8
 620              		.loc 1 96 0
 621 0004 86B0     		sub	sp, sp, #24
 622              	.LCFI6:
 623              		.cfi_def_cfa_offset 32
 624              		.loc 1 103 0
 625 0006 0122     		movs	r2, #1
 626 0008 2046     		mov	r0, r4
 627 000a 03A9     		add	r1, sp, #12
 628              		.loc 1 102 0
 629 000c 2460     		str	r4, [r4, #0]
 630              		.loc 1 103 0
 631 000e FFF7FEFF 		bl	chEvtRegisterMask
 632              		.loc 1 104 0
 633 0012 2046     		mov	r0, r4
 634 0014 6946     		mov	r1, sp
 635 0016 0222     		movs	r2, #2
 636 0018 FFF7FEFF 		bl	chEvtRegisterMask
 637              		.loc 1 105 0
 638 001c 2168     		ldr	r1, [r4, #0]
 639 001e 0120     		movs	r0, #1
 640 0020 091B     		subs	r1, r1, r4
 641 0022 18BF     		it	ne
 642 0024 0121     		movne	r1, #1
 643 0026 FFF7FEFF 		bl	_test_assert
 644 002a 08B1     		cbz	r0, .L19
 645              	.L17:
 646              		.loc 1 116 0
 647 002c 06B0     		add	sp, sp, #24
 648 002e 10BD     		pop	{r4, pc}
 649              	.L19:
 650              		.loc 1 106 0
 651 0030 2046     		mov	r0, r4
 652 0032 03A9     		add	r1, sp, #12
 653 0034 FFF7FEFF 		bl	chEvtUnregister
 654              		.loc 1 107 0
 655 0038 2268     		ldr	r2, [r4, #0]
 656 003a 0220     		movs	r0, #2
 657 003c 111B     		subs	r1, r2, r4
 658 003e 18BF     		it	ne
 659 0040 0121     		movne	r1, #1
 660 0042 FFF7FEFF 		bl	_test_assert
 661 0046 0028     		cmp	r0, #0
 662 0048 F0D1     		bne	.L17
 663              		.loc 1 108 0
 664 004a 2046     		mov	r0, r4
 665 004c 6946     		mov	r1, sp
 666 004e FFF7FEFF 		bl	chEvtUnregister
 667              		.loc 1 109 0
 668 0052 2168     		ldr	r1, [r4, #0]
 669 0054 C4EB010E 		rsb	lr, r4, r1
 670 0058 0320     		movs	r0, #3
 671 005a DEF10003 		rsbs	r3, lr, #0
ARM GAS  /tmp/ccvQ8sjS.s 			page 13


 672 005e 43EB0E01 		adc	r1, r3, lr
 673 0062 FFF7FEFF 		bl	_test_assert
 674 0066 0028     		cmp	r0, #0
 675 0068 E0D1     		bne	.L17
 676              		.loc 1 114 0
 677 006a 0721     		movs	r1, #7
 678 006c 0448     		ldr	r0, .L20+4
 679 006e FFF7FEFF 		bl	chEvtDispatch
 680              		.loc 1 115 0
 681 0072 0420     		movs	r0, #4
 682 0074 0349     		ldr	r1, .L20+8
 683 0076 FFF7FEFF 		bl	_test_assert_sequence
 684 007a D7E7     		b	.L17
 685              	.L21:
 686              		.align	2
 687              	.L20:
 688 007c 00000000 		.word	.LANCHOR0
 689 0080 00000000 		.word	.LANCHOR2
 690 0084 04000000 		.word	.LC1
 691              		.cfi_endproc
 692              	.LFE11:
 693              		.size	evt1_execute, .-evt1_execute
 694 0088 AFF30080 		.section	.text.h3,"ax",%progbits
 694      AFF30080 
 695              		.align	2
 696              		.p2align 4,,15
 697              		.thumb
 698              		.thumb_func
 699              		.type	h3, %function
 700              	h3:
 701              	.LFB10:
 702              		.loc 1 93 0
 703              		.cfi_startproc
 704              		@ args = 0, pretend = 0, frame = 0
 705              		@ frame_needed = 0, uses_anonymous_args = 0
 706              		@ link register save eliminated.
 707              	.LVL42:
 708              		.loc 1 93 0
 709 0000 4320     		movs	r0, #67
 710              	.LVL43:
 711 0002 FFF7FEBF 		b	test_emit_token
 712              		.cfi_endproc
 713              	.LFE10:
 714              		.size	h3, .-h3
 715 0006 00BFAFF3 		.section	.text.h2,"ax",%progbits
 715      0080AFF3 
 715      0080
 716              		.align	2
 717              		.p2align 4,,15
 718              		.thumb
 719              		.thumb_func
 720              		.type	h2, %function
 721              	h2:
 722              	.LFB9:
 723              		.loc 1 92 0
 724              		.cfi_startproc
 725              		@ args = 0, pretend = 0, frame = 0
ARM GAS  /tmp/ccvQ8sjS.s 			page 14


 726              		@ frame_needed = 0, uses_anonymous_args = 0
 727              		@ link register save eliminated.
 728              	.LVL44:
 729              		.loc 1 92 0
 730 0000 4220     		movs	r0, #66
 731              	.LVL45:
 732 0002 FFF7FEBF 		b	test_emit_token
 733              		.cfi_endproc
 734              	.LFE9:
 735              		.size	h2, .-h2
 736 0006 00BFAFF3 		.section	.text.h1,"ax",%progbits
 736      0080AFF3 
 736      0080
 737              		.align	2
 738              		.p2align 4,,15
 739              		.thumb
 740              		.thumb_func
 741              		.type	h1, %function
 742              	h1:
 743              	.LFB8:
 744              		.loc 1 91 0
 745              		.cfi_startproc
 746              		@ args = 0, pretend = 0, frame = 0
 747              		@ frame_needed = 0, uses_anonymous_args = 0
 748              		@ link register save eliminated.
 749              	.LVL46:
 750              		.loc 1 91 0
 751 0000 4120     		movs	r0, #65
 752              	.LVL47:
 753 0002 FFF7FEBF 		b	test_emit_token
 754              		.cfi_endproc
 755              	.LFE8:
 756              		.size	h1, .-h1
 757              		.global	testevt1
 758              		.global	testevt2
 759              		.global	testevt3
 760              		.global	patternevt
 761 0006 00BFAFF3 		.section	.rodata.patternevt,"a",%progbits
 761      0080AFF3 
 761      0080
 762              		.align	2
 763              		.type	patternevt, %object
 764              		.size	patternevt, 16
 765              	patternevt:
 766 0000 00000000 		.word	testevt1
 767 0004 00000000 		.word	testevt2
 768 0008 00000000 		.word	testevt3
 769 000c 00000000 		.word	0
 770              		.section	.rodata.testevt2,"a",%progbits
 771              		.align	2
 772              		.type	testevt2, %object
 773              		.size	testevt2, 16
 774              	testevt2:
 775 0000 2C000000 		.word	.LC3
 776 0004 00000000 		.word	evt2_setup
 777 0008 00000000 		.word	0
 778 000c 00000000 		.word	evt2_execute
ARM GAS  /tmp/ccvQ8sjS.s 			page 15


 779              		.section	.rodata.str1.4,"aMS",%progbits,1
 780              		.align	2
 781              	.LC0:
 782 0000 4100     		.ascii	"A\000"
 783 0002 0000     		.space	2
 784              	.LC1:
 785 0004 41424300 		.ascii	"ABC\000"
 786              	.LC2:
 787 0008 4576656E 		.ascii	"Events, registration and dispatch\000"
 787      74732C20 
 787      72656769 
 787      73747261 
 787      74696F6E 
 788 002a 0000     		.space	2
 789              	.LC3:
 790 002c 4576656E 		.ascii	"Events, wait and broadcast\000"
 790      74732C20 
 790      77616974 
 790      20616E64 
 790      2062726F 
 791 0047 00       		.space	1
 792              	.LC4:
 793 0048 4576656E 		.ascii	"Events, timeouts\000"
 793      74732C20 
 793      74696D65 
 793      6F757473 
 793      00
 794 0059 000000   		.section	.rodata.testevt1,"a",%progbits
 795              		.align	2
 796              		.type	testevt1, %object
 797              		.size	testevt1, 16
 798              	testevt1:
 799 0000 08000000 		.word	.LC2
 800 0004 00000000 		.word	evt1_setup
 801 0008 00000000 		.word	0
 802 000c 00000000 		.word	evt1_execute
 803              		.section	.rodata.evhndl,"a",%progbits
 804              		.align	2
 805              		.set	.LANCHOR2,. + 0
 806              		.type	evhndl, %object
 807              		.size	evhndl, 12
 808              	evhndl:
 809 0000 00000000 		.word	h1
 810 0004 00000000 		.word	h2
 811 0008 00000000 		.word	h3
 812              		.section	.rodata.testevt3,"a",%progbits
 813              		.align	2
 814              		.type	testevt3, %object
 815              		.size	testevt3, 16
 816              	testevt3:
 817 0000 48000000 		.word	.LC4
 818 0004 00000000 		.word	evt3_setup
 819 0008 00000000 		.word	0
 820 000c 00000000 		.word	evt3_execute
 821              		.section	.data.es1,"aw",%progbits
 822              		.align	2
 823              		.set	.LANCHOR0,. + 0
ARM GAS  /tmp/ccvQ8sjS.s 			page 16


 824              		.type	es1, %object
 825              		.size	es1, 4
 826              	es1:
 827 0000 00000000 		.word	es1
 828              		.section	.data.es2,"aw",%progbits
 829              		.align	2
 830              		.set	.LANCHOR1,. + 0
 831              		.type	es2, %object
 832              		.size	es2, 4
 833              	es2:
 834 0000 00000000 		.word	es2
 835              		.text
 836              	.Letext0:
 837              		.section	.debug_loc,"",%progbits
 838              	.Ldebug_loc0:
 839              	.LLST0:
 840 0000 00000000 		.4byte	.LFB17
 841 0004 04000000 		.4byte	.LCFI0
 842 0008 0200     		.2byte	0x2
 843 000a 7D       		.byte	0x7d
 844 000b 00       		.sleb128 0
 845 000c 04000000 		.4byte	.LCFI0
 846 0010 AA000000 		.4byte	.LFE17
 847 0014 0200     		.2byte	0x2
 848 0016 7D       		.byte	0x7d
 849 0017 08       		.sleb128 8
 850 0018 00000000 		.4byte	0x0
 851 001c 00000000 		.4byte	0x0
 852              	.LLST1:
 853 0020 0C000000 		.4byte	.LVL0
 854 0024 16000000 		.4byte	.LVL1
 855 0028 0100     		.2byte	0x1
 856 002a 50       		.byte	0x50
 857 002b 28000000 		.4byte	.LVL2
 858 002f 32000000 		.4byte	.LVL3
 859 0033 0100     		.2byte	0x1
 860 0035 50       		.byte	0x50
 861 0036 44000000 		.4byte	.LVL4
 862 003a 4E000000 		.4byte	.LVL5
 863 003e 0100     		.2byte	0x1
 864 0040 50       		.byte	0x50
 865 0041 60000000 		.4byte	.LVL6
 866 0045 6A000000 		.4byte	.LVL7
 867 0049 0100     		.2byte	0x1
 868 004b 50       		.byte	0x50
 869 004c 7C000000 		.4byte	.LVL8
 870 0050 86000000 		.4byte	.LVL9
 871 0054 0100     		.2byte	0x1
 872 0056 50       		.byte	0x50
 873 0057 98000000 		.4byte	.LVL10
 874 005b A2000000 		.4byte	.LVL11
 875 005f 0100     		.2byte	0x1
 876 0061 50       		.byte	0x50
 877 0062 00000000 		.4byte	0x0
 878 0066 00000000 		.4byte	0x0
 879              	.LLST2:
 880 006a 00000000 		.4byte	.LFB15
ARM GAS  /tmp/ccvQ8sjS.s 			page 17


 881 006e 04000000 		.4byte	.LCFI1
 882 0072 0200     		.2byte	0x2
 883 0074 7D       		.byte	0x7d
 884 0075 00       		.sleb128 0
 885 0076 04000000 		.4byte	.LCFI1
 886 007a 08000000 		.4byte	.LCFI2
 887 007e 0200     		.2byte	0x2
 888 0080 7D       		.byte	0x7d
 889 0081 20       		.sleb128 32
 890 0082 08000000 		.4byte	.LCFI2
 891 0086 68020000 		.4byte	.LFE15
 892 008a 0300     		.2byte	0x3
 893 008c 7D       		.byte	0x7d
 894 008d C000     		.sleb128 64
 895 008f 00000000 		.4byte	0x0
 896 0093 00000000 		.4byte	0x0
 897              	.LLST3:
 898 0097 14000000 		.4byte	.LVL12
 899 009b 18000000 		.4byte	.LVL13
 900 009f 0100     		.2byte	0x1
 901 00a1 50       		.byte	0x50
 902 00a2 18000000 		.4byte	.LVL13
 903 00a6 20000000 		.4byte	.LVL14
 904 00aa 0300     		.2byte	0x3
 905 00ac 70       		.byte	0x70
 906 00ad 01       		.sleb128 1
 907 00ae 9F       		.byte	0x9f
 908 00af 34000000 		.4byte	.LVL15
 909 00b3 40000000 		.4byte	.LVL16
 910 00b7 0100     		.2byte	0x1
 911 00b9 50       		.byte	0x50
 912 00ba 40000000 		.4byte	.LVL16
 913 00be 43000000 		.4byte	.LVL17-1
 914 00c2 0300     		.2byte	0x3
 915 00c4 72       		.byte	0x72
 916 00c5 04       		.sleb128 4
 917 00c6 9F       		.byte	0x9f
 918 00c7 50000000 		.4byte	.LVL18
 919 00cb 5A000000 		.4byte	.LVL19
 920 00cf 0100     		.2byte	0x1
 921 00d1 50       		.byte	0x50
 922 00d2 98000000 		.4byte	.LVL21
 923 00d6 9C000000 		.4byte	.LVL22
 924 00da 0100     		.2byte	0x1
 925 00dc 50       		.byte	0x50
 926 00dd 9C000000 		.4byte	.LVL22
 927 00e1 C6000000 		.4byte	.LVL23
 928 00e5 0100     		.2byte	0x1
 929 00e7 59       		.byte	0x59
 930 00e8 C6000000 		.4byte	.LVL23
 931 00ec D0000000 		.4byte	.LVL24
 932 00f0 0100     		.2byte	0x1
 933 00f2 50       		.byte	0x50
 934 00f3 EA000000 		.4byte	.LVL25
 935 00f7 F6000000 		.4byte	.LVL26
 936 00fb 0100     		.2byte	0x1
 937 00fd 50       		.byte	0x50
ARM GAS  /tmp/ccvQ8sjS.s 			page 18


 938 00fe F6000000 		.4byte	.LVL26
 939 0102 F9000000 		.4byte	.LVL27-1
 940 0106 0300     		.2byte	0x3
 941 0108 72       		.byte	0x72
 942 0109 05       		.sleb128 5
 943 010a 9F       		.byte	0x9f
 944 010b 06010000 		.4byte	.LVL28
 945 010f 10010000 		.4byte	.LVL29
 946 0113 0100     		.2byte	0x1
 947 0115 50       		.byte	0x50
 948 0116 42010000 		.4byte	.LVL31
 949 011a 46010000 		.4byte	.LVL32
 950 011e 0100     		.2byte	0x1
 951 0120 50       		.byte	0x50
 952 0121 46010000 		.4byte	.LVL32
 953 0125 72010000 		.4byte	.LVL33
 954 0129 0100     		.2byte	0x1
 955 012b 59       		.byte	0x59
 956 012c 72010000 		.4byte	.LVL33
 957 0130 7C010000 		.4byte	.LVL34
 958 0134 0100     		.2byte	0x1
 959 0136 50       		.byte	0x50
 960 0137 EA010000 		.4byte	.LVL36
 961 013b F4010000 		.4byte	.LVL37
 962 013f 0100     		.2byte	0x1
 963 0141 50       		.byte	0x50
 964 0142 00000000 		.4byte	0x0
 965 0146 00000000 		.4byte	0x0
 966              	.LLST4:
 967 014a 96000000 		.4byte	.LVL20
 968 014e 40010000 		.4byte	.LVL30
 969 0152 0100     		.2byte	0x1
 970 0154 5A       		.byte	0x5a
 971 0155 40010000 		.4byte	.LVL30
 972 0159 CA010000 		.4byte	.LVL35
 973 015d 0100     		.2byte	0x1
 974 015f 5A       		.byte	0x5a
 975 0160 CA010000 		.4byte	.LVL35
 976 0164 68020000 		.4byte	.LFE15
 977 0168 0100     		.2byte	0x1
 978 016a 57       		.byte	0x57
 979 016b 00000000 		.4byte	0x0
 980 016f 00000000 		.4byte	0x0
 981              	.LLST5:
 982 0173 00000000 		.4byte	.LFB14
 983 0177 02000000 		.4byte	.LCFI3
 984 017b 0200     		.2byte	0x2
 985 017d 7D       		.byte	0x7d
 986 017e 00       		.sleb128 0
 987 017f 02000000 		.4byte	.LCFI3
 988 0183 24000000 		.4byte	.LFE14
 989 0187 0200     		.2byte	0x2
 990 0189 7D       		.byte	0x7d
 991 018a 08       		.sleb128 8
 992 018b 00000000 		.4byte	0x0
 993 018f 00000000 		.4byte	0x0
 994              	.LLST6:
ARM GAS  /tmp/ccvQ8sjS.s 			page 19


 995 0193 00000000 		.4byte	.LVL38
 996 0197 06000000 		.4byte	.LVL39
 997 019b 0100     		.2byte	0x1
 998 019d 50       		.byte	0x50
 999 019e 00000000 		.4byte	0x0
 1000 01a2 00000000 		.4byte	0x0
 1001              	.LLST7:
 1002 01a6 00000000 		.4byte	.LFB13
 1003 01aa 02000000 		.4byte	.LCFI4
 1004 01ae 0200     		.2byte	0x2
 1005 01b0 7D       		.byte	0x7d
 1006 01b1 00       		.sleb128 0
 1007 01b2 02000000 		.4byte	.LCFI4
 1008 01b6 16000000 		.4byte	.LFE13
 1009 01ba 0200     		.2byte	0x2
 1010 01bc 7D       		.byte	0x7d
 1011 01bd 08       		.sleb128 8
 1012 01be 00000000 		.4byte	0x0
 1013 01c2 00000000 		.4byte	0x0
 1014              	.LLST8:
 1015 01c6 00000000 		.4byte	.LVL40
 1016 01ca 06000000 		.4byte	.LVL41
 1017 01ce 0100     		.2byte	0x1
 1018 01d0 50       		.byte	0x50
 1019 01d1 06000000 		.4byte	.LVL41
 1020 01d5 16000000 		.4byte	.LFE13
 1021 01d9 0100     		.2byte	0x1
 1022 01db 54       		.byte	0x54
 1023 01dc 00000000 		.4byte	0x0
 1024 01e0 00000000 		.4byte	0x0
 1025              	.LLST9:
 1026 01e4 00000000 		.4byte	.LFB11
 1027 01e8 02000000 		.4byte	.LCFI5
 1028 01ec 0200     		.2byte	0x2
 1029 01ee 7D       		.byte	0x7d
 1030 01ef 00       		.sleb128 0
 1031 01f0 02000000 		.4byte	.LCFI5
 1032 01f4 06000000 		.4byte	.LCFI6
 1033 01f8 0200     		.2byte	0x2
 1034 01fa 7D       		.byte	0x7d
 1035 01fb 08       		.sleb128 8
 1036 01fc 06000000 		.4byte	.LCFI6
 1037 0200 88000000 		.4byte	.LFE11
 1038 0204 0200     		.2byte	0x2
 1039 0206 7D       		.byte	0x7d
 1040 0207 20       		.sleb128 32
 1041 0208 00000000 		.4byte	0x0
 1042 020c 00000000 		.4byte	0x0
 1043              	.LLST10:
 1044 0210 00000000 		.4byte	.LVL42
 1045 0214 02000000 		.4byte	.LVL43
 1046 0218 0100     		.2byte	0x1
 1047 021a 50       		.byte	0x50
 1048 021b 00000000 		.4byte	0x0
 1049 021f 00000000 		.4byte	0x0
 1050              	.LLST11:
 1051 0223 00000000 		.4byte	.LVL44
ARM GAS  /tmp/ccvQ8sjS.s 			page 20


 1052 0227 02000000 		.4byte	.LVL45
 1053 022b 0100     		.2byte	0x1
 1054 022d 50       		.byte	0x50
 1055 022e 00000000 		.4byte	0x0
 1056 0232 00000000 		.4byte	0x0
 1057              	.LLST12:
 1058 0236 00000000 		.4byte	.LVL46
 1059 023a 02000000 		.4byte	.LVL47
 1060 023e 0100     		.2byte	0x1
 1061 0240 50       		.byte	0x50
 1062 0241 00000000 		.4byte	0x0
 1063 0245 00000000 		.4byte	0x0
 1064              		.file 2 "/opt/stm32/arm-none-eabi-2011.03/bin/../lib/gcc/arm-none-eabi/4.5.2/../../../../arm-none-
 1065              		.file 3 "../libs/ChibiOS_2.4.0/os/ports/GCC/ARMCMx/chtypes.h"
 1066              		.file 4 "../libs/ChibiOS_2.4.0/os/kernel/include/chlists.h"
 1067              		.file 5 "../libs/ChibiOS_2.4.0/os/kernel/include/chthreads.h"
 1068              		.file 6 "../libs/ChibiOS_2.4.0/os/ports/GCC/ARMCMx/chcore_v7m.h"
 1069              		.file 7 "../libs/ChibiOS_2.4.0/os/kernel/include/chvt.h"
 1070              		.file 8 "../libs/ChibiOS_2.4.0/os/kernel/include/chschd.h"
 1071              		.file 9 "../libs/ChibiOS_2.4.0/os/kernel/include/chmtx.h"
 1072              		.file 10 "../libs/ChibiOS_2.4.0/os/kernel/include/chevents.h"
 1073              		.file 11 "../libs/ChibiOS_2.4.0/test/test.h"
 1074              		.section	.debug_info
 1075 0000 EC080000 		.4byte	0x8ec
 1076 0004 0200     		.2byte	0x2
 1077 0006 00000000 		.4byte	.Ldebug_abbrev0
 1078 000a 04       		.byte	0x4
 1079 000b 01       		.uleb128 0x1
 1080 000c 8F030000 		.4byte	.LASF100
 1081 0010 01       		.byte	0x1
 1082 0011 6F010000 		.4byte	.LASF101
 1083 0015 6D000000 		.4byte	.LASF102
 1084 0019 00000000 		.4byte	0x0
 1085 001d 00000000 		.4byte	0x0
 1086 0021 00000000 		.4byte	.Ldebug_ranges0+0x0
 1087 0025 00000000 		.4byte	.Ldebug_line0
 1088 0029 02       		.uleb128 0x2
 1089 002a 04       		.byte	0x4
 1090 002b 05       		.byte	0x5
 1091 002c 696E7400 		.ascii	"int\000"
 1092 0030 03       		.uleb128 0x3
 1093 0031 04       		.byte	0x4
 1094 0032 07       		.byte	0x7
 1095 0033 14010000 		.4byte	.LASF0
 1096 0037 03       		.uleb128 0x3
 1097 0038 01       		.byte	0x1
 1098 0039 06       		.byte	0x6
 1099 003a 61000000 		.4byte	.LASF1
 1100 003e 04       		.uleb128 0x4
 1101 003f 72030000 		.4byte	.LASF5
 1102 0043 02       		.byte	0x2
 1103 0044 2A       		.byte	0x2a
 1104 0045 49000000 		.4byte	0x49
 1105 0049 03       		.uleb128 0x3
 1106 004a 01       		.byte	0x1
 1107 004b 08       		.byte	0x8
 1108 004c 60020000 		.4byte	.LASF2
ARM GAS  /tmp/ccvQ8sjS.s 			page 21


 1109 0050 03       		.uleb128 0x3
 1110 0051 02       		.byte	0x2
 1111 0052 05       		.byte	0x5
 1112 0053 91020000 		.4byte	.LASF3
 1113 0057 03       		.uleb128 0x3
 1114 0058 02       		.byte	0x2
 1115 0059 07       		.byte	0x7
 1116 005a 5C010000 		.4byte	.LASF4
 1117 005e 04       		.uleb128 0x4
 1118 005f 58020000 		.4byte	.LASF6
 1119 0063 02       		.byte	0x2
 1120 0064 4F       		.byte	0x4f
 1121 0065 69000000 		.4byte	0x69
 1122 0069 03       		.uleb128 0x3
 1123 006a 04       		.byte	0x4
 1124 006b 05       		.byte	0x5
 1125 006c 9B000000 		.4byte	.LASF7
 1126 0070 04       		.uleb128 0x4
 1127 0071 F3020000 		.4byte	.LASF8
 1128 0075 02       		.byte	0x2
 1129 0076 50       		.byte	0x50
 1130 0077 7B000000 		.4byte	0x7b
 1131 007b 03       		.uleb128 0x3
 1132 007c 04       		.byte	0x4
 1133 007d 07       		.byte	0x7
 1134 007e 29010000 		.4byte	.LASF9
 1135 0082 03       		.uleb128 0x3
 1136 0083 08       		.byte	0x8
 1137 0084 05       		.byte	0x5
 1138 0085 53000000 		.4byte	.LASF10
 1139 0089 03       		.uleb128 0x3
 1140 008a 08       		.byte	0x8
 1141 008b 07       		.byte	0x7
 1142 008c 1F000000 		.4byte	.LASF11
 1143 0090 04       		.uleb128 0x4
 1144 0091 A2010000 		.4byte	.LASF12
 1145 0095 03       		.byte	0x3
 1146 0096 2F       		.byte	0x2f
 1147 0097 3E000000 		.4byte	0x3e
 1148 009b 04       		.uleb128 0x4
 1149 009c B0000000 		.4byte	.LASF13
 1150 00a0 03       		.byte	0x3
 1151 00a1 30       		.byte	0x30
 1152 00a2 3E000000 		.4byte	0x3e
 1153 00a6 04       		.uleb128 0x4
 1154 00a7 39020000 		.4byte	.LASF14
 1155 00ab 03       		.byte	0x3
 1156 00ac 31       		.byte	0x31
 1157 00ad 3E000000 		.4byte	0x3e
 1158 00b1 04       		.uleb128 0x4
 1159 00b2 50020000 		.4byte	.LASF15
 1160 00b6 03       		.byte	0x3
 1161 00b7 32       		.byte	0x32
 1162 00b8 70000000 		.4byte	0x70
 1163 00bc 04       		.uleb128 0x4
 1164 00bd 94010000 		.4byte	.LASF16
 1165 00c1 03       		.byte	0x3
ARM GAS  /tmp/ccvQ8sjS.s 			page 22


 1166 00c2 33       		.byte	0x33
 1167 00c3 5E000000 		.4byte	0x5e
 1168 00c7 04       		.uleb128 0x4
 1169 00c8 EC000000 		.4byte	.LASF17
 1170 00cc 03       		.byte	0x3
 1171 00cd 34       		.byte	0x34
 1172 00ce 5E000000 		.4byte	0x5e
 1173 00d2 04       		.uleb128 0x4
 1174 00d3 B6010000 		.4byte	.LASF18
 1175 00d7 03       		.byte	0x3
 1176 00d8 35       		.byte	0x35
 1177 00d9 70000000 		.4byte	0x70
 1178 00dd 04       		.uleb128 0x4
 1179 00de 1D030000 		.4byte	.LASF19
 1180 00e2 03       		.byte	0x3
 1181 00e3 36       		.byte	0x36
 1182 00e4 70000000 		.4byte	0x70
 1183 00e8 04       		.uleb128 0x4
 1184 00e9 0E010000 		.4byte	.LASF20
 1185 00ed 03       		.byte	0x3
 1186 00ee 37       		.byte	0x37
 1187 00ef 5E000000 		.4byte	0x5e
 1188 00f3 04       		.uleb128 0x4
 1189 00f4 C8020000 		.4byte	.LASF21
 1190 00f8 04       		.byte	0x4
 1191 00f9 2A       		.byte	0x2a
 1192 00fa FE000000 		.4byte	0xfe
 1193 00fe 05       		.uleb128 0x5
 1194 00ff C8020000 		.4byte	.LASF21
 1195 0103 48       		.byte	0x48
 1196 0104 05       		.byte	0x5
 1197 0105 5E       		.byte	0x5e
 1198 0106 15020000 		.4byte	0x215
 1199 010a 06       		.uleb128 0x6
 1200 010b B9020000 		.4byte	.LASF22
 1201 010f 05       		.byte	0x5
 1202 0110 5F       		.byte	0x5f
 1203 0111 3A020000 		.4byte	0x23a
 1204 0115 02       		.byte	0x2
 1205 0116 23       		.byte	0x23
 1206 0117 00       		.uleb128 0x0
 1207 0118 06       		.uleb128 0x6
 1208 0119 41020000 		.4byte	.LASF23
 1209 011d 05       		.byte	0x5
 1210 011e 61       		.byte	0x61
 1211 011f 3A020000 		.4byte	0x23a
 1212 0123 02       		.byte	0x2
 1213 0124 23       		.byte	0x23
 1214 0125 04       		.uleb128 0x4
 1215 0126 06       		.uleb128 0x6
 1216 0127 3F000000 		.4byte	.LASF24
 1217 012b 05       		.byte	0x5
 1218 012c 63       		.byte	0x63
 1219 012d B1000000 		.4byte	0xb1
 1220 0131 02       		.byte	0x2
 1221 0132 23       		.byte	0x23
 1222 0133 08       		.uleb128 0x8
ARM GAS  /tmp/ccvQ8sjS.s 			page 23


 1223 0134 06       		.uleb128 0x6
 1224 0135 DB030000 		.4byte	.LASF25
 1225 0139 05       		.byte	0x5
 1226 013a 64       		.byte	0x64
 1227 013b 07030000 		.4byte	0x307
 1228 013f 02       		.byte	0x2
 1229 0140 23       		.byte	0x23
 1230 0141 0C       		.uleb128 0xc
 1231 0142 06       		.uleb128 0x6
 1232 0143 CB000000 		.4byte	.LASF26
 1233 0147 05       		.byte	0x5
 1234 0148 66       		.byte	0x66
 1235 0149 3A020000 		.4byte	0x23a
 1236 014d 02       		.byte	0x2
 1237 014e 23       		.byte	0x23
 1238 014f 10       		.uleb128 0x10
 1239 0150 06       		.uleb128 0x6
 1240 0151 EE010000 		.4byte	.LASF27
 1241 0155 05       		.byte	0x5
 1242 0156 67       		.byte	0x67
 1243 0157 3A020000 		.4byte	0x23a
 1244 015b 02       		.byte	0x2
 1245 015c 23       		.byte	0x23
 1246 015d 14       		.uleb128 0x14
 1247 015e 06       		.uleb128 0x6
 1248 015f 9B030000 		.4byte	.LASF28
 1249 0163 05       		.byte	0x5
 1250 0164 6E       		.byte	0x6e
 1251 0165 7A050000 		.4byte	0x57a
 1252 0169 02       		.byte	0x2
 1253 016a 23       		.byte	0x23
 1254 016b 18       		.uleb128 0x18
 1255 016c 06       		.uleb128 0x6
 1256 016d 9B020000 		.4byte	.LASF29
 1257 0171 05       		.byte	0x5
 1258 0172 79       		.byte	0x79
 1259 0173 9B000000 		.4byte	0x9b
 1260 0177 02       		.byte	0x2
 1261 0178 23       		.byte	0x23
 1262 0179 1C       		.uleb128 0x1c
 1263 017a 06       		.uleb128 0x6
 1264 017b C0020000 		.4byte	.LASF30
 1265 017f 05       		.byte	0x5
 1266 0180 7D       		.byte	0x7d
 1267 0181 90000000 		.4byte	0x90
 1268 0185 02       		.byte	0x2
 1269 0186 23       		.byte	0x23
 1270 0187 1D       		.uleb128 0x1d
 1271 0188 06       		.uleb128 0x6
 1272 0189 5B030000 		.4byte	.LASF31
 1273 018d 05       		.byte	0x5
 1274 018e 82       		.byte	0x82
 1275 018f A6000000 		.4byte	0xa6
 1276 0193 02       		.byte	0x2
 1277 0194 23       		.byte	0x23
 1278 0195 1E       		.uleb128 0x1e
 1279 0196 06       		.uleb128 0x6
ARM GAS  /tmp/ccvQ8sjS.s 			page 24


 1280 0197 3B030000 		.4byte	.LASF32
 1281 019b 05       		.byte	0x5
 1282 019c 89       		.byte	0x89
 1283 019d EC030000 		.4byte	0x3ec
 1284 01a1 02       		.byte	0x2
 1285 01a2 23       		.byte	0x23
 1286 01a3 20       		.uleb128 0x20
 1287 01a4 07       		.uleb128 0x7
 1288 01a5 705F7500 		.ascii	"p_u\000"
 1289 01a9 05       		.byte	0x5
 1290 01aa AE       		.byte	0xae
 1291 01ab 45050000 		.4byte	0x545
 1292 01af 02       		.byte	0x2
 1293 01b0 23       		.byte	0x23
 1294 01b1 24       		.uleb128 0x24
 1295 01b2 06       		.uleb128 0x6
 1296 01b3 E1030000 		.4byte	.LASF33
 1297 01b7 05       		.byte	0x5
 1298 01b8 B3       		.byte	0xb3
 1299 01b9 62020000 		.4byte	0x262
 1300 01bd 02       		.byte	0x2
 1301 01be 23       		.byte	0x23
 1302 01bf 28       		.uleb128 0x28
 1303 01c0 06       		.uleb128 0x6
 1304 01c1 49030000 		.4byte	.LASF34
 1305 01c5 05       		.byte	0x5
 1306 01c6 B9       		.byte	0xb9
 1307 01c7 40020000 		.4byte	0x240
 1308 01cb 02       		.byte	0x2
 1309 01cc 23       		.byte	0x23
 1310 01cd 2C       		.uleb128 0x2c
 1311 01ce 06       		.uleb128 0x6
 1312 01cf 0B000000 		.4byte	.LASF35
 1313 01d3 05       		.byte	0x5
 1314 01d4 BD       		.byte	0xbd
 1315 01d5 BC000000 		.4byte	0xbc
 1316 01d9 02       		.byte	0x2
 1317 01da 23       		.byte	0x23
 1318 01db 34       		.uleb128 0x34
 1319 01dc 06       		.uleb128 0x6
 1320 01dd D8020000 		.4byte	.LASF36
 1321 01e1 05       		.byte	0x5
 1322 01e2 C3       		.byte	0xc3
 1323 01e3 D2000000 		.4byte	0xd2
 1324 01e7 02       		.byte	0x2
 1325 01e8 23       		.byte	0x23
 1326 01e9 38       		.uleb128 0x38
 1327 01ea 06       		.uleb128 0x6
 1328 01eb 87020000 		.4byte	.LASF37
 1329 01ef 05       		.byte	0x5
 1330 01f0 CA       		.byte	0xca
 1331 01f1 8C050000 		.4byte	0x58c
 1332 01f5 02       		.byte	0x2
 1333 01f6 23       		.byte	0x23
 1334 01f7 3C       		.uleb128 0x3c
 1335 01f8 06       		.uleb128 0x6
 1336 01f9 27030000 		.4byte	.LASF38
ARM GAS  /tmp/ccvQ8sjS.s 			page 25


 1337 01fd 05       		.byte	0x5
 1338 01fe CE       		.byte	0xce
 1339 01ff B1000000 		.4byte	0xb1
 1340 0203 02       		.byte	0x2
 1341 0204 23       		.byte	0x23
 1342 0205 40       		.uleb128 0x40
 1343 0206 06       		.uleb128 0x6
 1344 0207 8B000000 		.4byte	.LASF39
 1345 020b 05       		.byte	0x5
 1346 020c D4       		.byte	0xd4
 1347 020d 78020000 		.4byte	0x278
 1348 0211 02       		.byte	0x2
 1349 0212 23       		.byte	0x23
 1350 0213 44       		.uleb128 0x44
 1351 0214 00       		.byte	0x0
 1352 0215 08       		.uleb128 0x8
 1353 0216 08       		.byte	0x8
 1354 0217 04       		.byte	0x4
 1355 0218 61       		.byte	0x61
 1356 0219 3A020000 		.4byte	0x23a
 1357 021d 06       		.uleb128 0x6
 1358 021e B9020000 		.4byte	.LASF22
 1359 0222 04       		.byte	0x4
 1360 0223 62       		.byte	0x62
 1361 0224 3A020000 		.4byte	0x23a
 1362 0228 02       		.byte	0x2
 1363 0229 23       		.byte	0x23
 1364 022a 00       		.uleb128 0x0
 1365 022b 06       		.uleb128 0x6
 1366 022c 41020000 		.4byte	.LASF23
 1367 0230 04       		.byte	0x4
 1368 0231 64       		.byte	0x64
 1369 0232 3A020000 		.4byte	0x23a
 1370 0236 02       		.byte	0x2
 1371 0237 23       		.byte	0x23
 1372 0238 04       		.uleb128 0x4
 1373 0239 00       		.byte	0x0
 1374 023a 09       		.uleb128 0x9
 1375 023b 04       		.byte	0x4
 1376 023c F3000000 		.4byte	0xf3
 1377 0240 04       		.uleb128 0x4
 1378 0241 0C020000 		.4byte	.LASF40
 1379 0245 04       		.byte	0x4
 1380 0246 66       		.byte	0x66
 1381 0247 15020000 		.4byte	0x215
 1382 024b 08       		.uleb128 0x8
 1383 024c 04       		.byte	0x4
 1384 024d 04       		.byte	0x4
 1385 024e 6B       		.byte	0x6b
 1386 024f 62020000 		.4byte	0x262
 1387 0253 06       		.uleb128 0x6
 1388 0254 B9020000 		.4byte	.LASF22
 1389 0258 04       		.byte	0x4
 1390 0259 6D       		.byte	0x6d
 1391 025a 3A020000 		.4byte	0x23a
 1392 025e 02       		.byte	0x2
 1393 025f 23       		.byte	0x23
ARM GAS  /tmp/ccvQ8sjS.s 			page 26


 1394 0260 00       		.uleb128 0x0
 1395 0261 00       		.byte	0x0
 1396 0262 04       		.uleb128 0x4
 1397 0263 AA010000 		.4byte	.LASF41
 1398 0267 04       		.byte	0x4
 1399 0268 70       		.byte	0x70
 1400 0269 4B020000 		.4byte	0x24b
 1401 026d 04       		.uleb128 0x4
 1402 026e DB000000 		.4byte	.LASF42
 1403 0272 06       		.byte	0x6
 1404 0273 D7       		.byte	0xd7
 1405 0274 78020000 		.4byte	0x278
 1406 0278 0A       		.uleb128 0xa
 1407 0279 04       		.byte	0x4
 1408 027a 05       		.uleb128 0x5
 1409 027b 42030000 		.4byte	.LASF43
 1410 027f 24       		.byte	0x24
 1411 0280 06       		.byte	0x6
 1412 0281 FE       		.byte	0xfe
 1413 0282 07030000 		.4byte	0x307
 1414 0286 0B       		.uleb128 0xb
 1415 0287 723400   		.ascii	"r4\000"
 1416 028a 06       		.byte	0x6
 1417 028b 1101     		.2byte	0x111
 1418 028d 6D020000 		.4byte	0x26d
 1419 0291 02       		.byte	0x2
 1420 0292 23       		.byte	0x23
 1421 0293 00       		.uleb128 0x0
 1422 0294 0B       		.uleb128 0xb
 1423 0295 723500   		.ascii	"r5\000"
 1424 0298 06       		.byte	0x6
 1425 0299 1201     		.2byte	0x112
 1426 029b 6D020000 		.4byte	0x26d
 1427 029f 02       		.byte	0x2
 1428 02a0 23       		.byte	0x23
 1429 02a1 04       		.uleb128 0x4
 1430 02a2 0B       		.uleb128 0xb
 1431 02a3 723600   		.ascii	"r6\000"
 1432 02a6 06       		.byte	0x6
 1433 02a7 1301     		.2byte	0x113
 1434 02a9 6D020000 		.4byte	0x26d
 1435 02ad 02       		.byte	0x2
 1436 02ae 23       		.byte	0x23
 1437 02af 08       		.uleb128 0x8
 1438 02b0 0B       		.uleb128 0xb
 1439 02b1 723700   		.ascii	"r7\000"
 1440 02b4 06       		.byte	0x6
 1441 02b5 1401     		.2byte	0x114
 1442 02b7 6D020000 		.4byte	0x26d
 1443 02bb 02       		.byte	0x2
 1444 02bc 23       		.byte	0x23
 1445 02bd 0C       		.uleb128 0xc
 1446 02be 0B       		.uleb128 0xb
 1447 02bf 723800   		.ascii	"r8\000"
 1448 02c2 06       		.byte	0x6
 1449 02c3 1501     		.2byte	0x115
 1450 02c5 6D020000 		.4byte	0x26d
ARM GAS  /tmp/ccvQ8sjS.s 			page 27


 1451 02c9 02       		.byte	0x2
 1452 02ca 23       		.byte	0x23
 1453 02cb 10       		.uleb128 0x10
 1454 02cc 0B       		.uleb128 0xb
 1455 02cd 723900   		.ascii	"r9\000"
 1456 02d0 06       		.byte	0x6
 1457 02d1 1601     		.2byte	0x116
 1458 02d3 6D020000 		.4byte	0x26d
 1459 02d7 02       		.byte	0x2
 1460 02d8 23       		.byte	0x23
 1461 02d9 14       		.uleb128 0x14
 1462 02da 0B       		.uleb128 0xb
 1463 02db 72313000 		.ascii	"r10\000"
 1464 02df 06       		.byte	0x6
 1465 02e0 1701     		.2byte	0x117
 1466 02e2 6D020000 		.4byte	0x26d
 1467 02e6 02       		.byte	0x2
 1468 02e7 23       		.byte	0x23
 1469 02e8 18       		.uleb128 0x18
 1470 02e9 0B       		.uleb128 0xb
 1471 02ea 72313100 		.ascii	"r11\000"
 1472 02ee 06       		.byte	0x6
 1473 02ef 1801     		.2byte	0x118
 1474 02f1 6D020000 		.4byte	0x26d
 1475 02f5 02       		.byte	0x2
 1476 02f6 23       		.byte	0x23
 1477 02f7 1C       		.uleb128 0x1c
 1478 02f8 0B       		.uleb128 0xb
 1479 02f9 6C7200   		.ascii	"lr\000"
 1480 02fc 06       		.byte	0x6
 1481 02fd 1901     		.2byte	0x119
 1482 02ff 6D020000 		.4byte	0x26d
 1483 0303 02       		.byte	0x2
 1484 0304 23       		.byte	0x23
 1485 0305 20       		.uleb128 0x20
 1486 0306 00       		.byte	0x0
 1487 0307 0C       		.uleb128 0xc
 1488 0308 54010000 		.4byte	.LASF44
 1489 030c 04       		.byte	0x4
 1490 030d 06       		.byte	0x6
 1491 030e 2301     		.2byte	0x123
 1492 0310 24030000 		.4byte	0x324
 1493 0314 0B       		.uleb128 0xb
 1494 0315 72313300 		.ascii	"r13\000"
 1495 0319 06       		.byte	0x6
 1496 031a 2401     		.2byte	0x124
 1497 031c 24030000 		.4byte	0x324
 1498 0320 02       		.byte	0x2
 1499 0321 23       		.byte	0x23
 1500 0322 00       		.uleb128 0x0
 1501 0323 00       		.byte	0x0
 1502 0324 09       		.uleb128 0x9
 1503 0325 04       		.byte	0x4
 1504 0326 7A020000 		.4byte	0x27a
 1505 032a 04       		.uleb128 0x4
 1506 032b 32030000 		.4byte	.LASF45
 1507 032f 07       		.byte	0x7
ARM GAS  /tmp/ccvQ8sjS.s 			page 28


 1508 0330 53       		.byte	0x53
 1509 0331 35030000 		.4byte	0x335
 1510 0335 09       		.uleb128 0x9
 1511 0336 04       		.byte	0x4
 1512 0337 3B030000 		.4byte	0x33b
 1513 033b 0D       		.uleb128 0xd
 1514 033c 01       		.byte	0x1
 1515 033d 47030000 		.4byte	0x347
 1516 0341 0E       		.uleb128 0xe
 1517 0342 78020000 		.4byte	0x278
 1518 0346 00       		.byte	0x0
 1519 0347 04       		.uleb128 0x4
 1520 0348 04030000 		.4byte	.LASF46
 1521 034c 07       		.byte	0x7
 1522 034d 58       		.byte	0x58
 1523 034e 52030000 		.4byte	0x352
 1524 0352 05       		.uleb128 0x5
 1525 0353 04030000 		.4byte	.LASF46
 1526 0357 14       		.byte	0x14
 1527 0358 07       		.byte	0x7
 1528 0359 5F       		.byte	0x5f
 1529 035a A5030000 		.4byte	0x3a5
 1530 035e 06       		.uleb128 0x6
 1531 035f 21010000 		.4byte	.LASF47
 1532 0363 07       		.byte	0x7
 1533 0364 60       		.byte	0x60
 1534 0365 A5030000 		.4byte	0x3a5
 1535 0369 02       		.byte	0x2
 1536 036a 23       		.byte	0x23
 1537 036b 00       		.uleb128 0x0
 1538 036c 06       		.uleb128 0x6
 1539 036d E4000000 		.4byte	.LASF48
 1540 0371 07       		.byte	0x7
 1541 0372 62       		.byte	0x62
 1542 0373 A5030000 		.4byte	0x3a5
 1543 0377 02       		.byte	0x2
 1544 0378 23       		.byte	0x23
 1545 0379 04       		.uleb128 0x4
 1546 037a 06       		.uleb128 0x6
 1547 037b C8010000 		.4byte	.LASF49
 1548 037f 07       		.byte	0x7
 1549 0380 64       		.byte	0x64
 1550 0381 DD000000 		.4byte	0xdd
 1551 0385 02       		.byte	0x2
 1552 0386 23       		.byte	0x23
 1553 0387 08       		.uleb128 0x8
 1554 0388 06       		.uleb128 0x6
 1555 0389 DB010000 		.4byte	.LASF50
 1556 038d 07       		.byte	0x7
 1557 038e 65       		.byte	0x65
 1558 038f 2A030000 		.4byte	0x32a
 1559 0393 02       		.byte	0x2
 1560 0394 23       		.byte	0x23
 1561 0395 0C       		.uleb128 0xc
 1562 0396 06       		.uleb128 0x6
 1563 0397 54030000 		.4byte	.LASF51
 1564 039b 07       		.byte	0x7
ARM GAS  /tmp/ccvQ8sjS.s 			page 29


 1565 039c 67       		.byte	0x67
 1566 039d 78020000 		.4byte	0x278
 1567 03a1 02       		.byte	0x2
 1568 03a2 23       		.byte	0x23
 1569 03a3 10       		.uleb128 0x10
 1570 03a4 00       		.byte	0x0
 1571 03a5 09       		.uleb128 0x9
 1572 03a6 04       		.byte	0x4
 1573 03a7 47030000 		.4byte	0x347
 1574 03ab 08       		.uleb128 0x8
 1575 03ac 10       		.byte	0x10
 1576 03ad 07       		.byte	0x7
 1577 03ae 71       		.byte	0x71
 1578 03af EC030000 		.4byte	0x3ec
 1579 03b3 06       		.uleb128 0x6
 1580 03b4 21010000 		.4byte	.LASF47
 1581 03b8 07       		.byte	0x7
 1582 03b9 72       		.byte	0x72
 1583 03ba A5030000 		.4byte	0x3a5
 1584 03be 02       		.byte	0x2
 1585 03bf 23       		.byte	0x23
 1586 03c0 00       		.uleb128 0x0
 1587 03c1 06       		.uleb128 0x6
 1588 03c2 E4000000 		.4byte	.LASF48
 1589 03c6 07       		.byte	0x7
 1590 03c7 74       		.byte	0x74
 1591 03c8 A5030000 		.4byte	0x3a5
 1592 03cc 02       		.byte	0x2
 1593 03cd 23       		.byte	0x23
 1594 03ce 04       		.uleb128 0x4
 1595 03cf 06       		.uleb128 0x6
 1596 03d0 C8010000 		.4byte	.LASF49
 1597 03d4 07       		.byte	0x7
 1598 03d5 76       		.byte	0x76
 1599 03d6 DD000000 		.4byte	0xdd
 1600 03da 02       		.byte	0x2
 1601 03db 23       		.byte	0x23
 1602 03dc 08       		.uleb128 0x8
 1603 03dd 06       		.uleb128 0x6
 1604 03de A2030000 		.4byte	.LASF52
 1605 03e2 07       		.byte	0x7
 1606 03e3 77       		.byte	0x77
 1607 03e4 EC030000 		.4byte	0x3ec
 1608 03e8 02       		.byte	0x2
 1609 03e9 23       		.byte	0x23
 1610 03ea 0C       		.uleb128 0xc
 1611 03eb 00       		.byte	0x0
 1612 03ec 0F       		.uleb128 0xf
 1613 03ed DD000000 		.4byte	0xdd
 1614 03f1 04       		.uleb128 0x4
 1615 03f2 B5030000 		.4byte	.LASF53
 1616 03f6 07       		.byte	0x7
 1617 03f7 78       		.byte	0x78
 1618 03f8 AB030000 		.4byte	0x3ab
 1619 03fc 08       		.uleb128 0x8
 1620 03fd 20       		.byte	0x20
 1621 03fe 08       		.byte	0x8
ARM GAS  /tmp/ccvQ8sjS.s 			page 30


 1622 03ff 5E       		.byte	0x5e
 1623 0400 67040000 		.4byte	0x467
 1624 0404 06       		.uleb128 0x6
 1625 0405 FC020000 		.4byte	.LASF54
 1626 0409 08       		.byte	0x8
 1627 040a 5F       		.byte	0x5f
 1628 040b 40020000 		.4byte	0x240
 1629 040f 02       		.byte	0x2
 1630 0410 23       		.byte	0x23
 1631 0411 00       		.uleb128 0x0
 1632 0412 06       		.uleb128 0x6
 1633 0413 AB020000 		.4byte	.LASF55
 1634 0417 08       		.byte	0x8
 1635 0418 60       		.byte	0x60
 1636 0419 B1000000 		.4byte	0xb1
 1637 041d 02       		.byte	0x2
 1638 041e 23       		.byte	0x23
 1639 041f 08       		.uleb128 0x8
 1640 0420 06       		.uleb128 0x6
 1641 0421 06020000 		.4byte	.LASF56
 1642 0425 08       		.byte	0x8
 1643 0426 62       		.byte	0x62
 1644 0427 07030000 		.4byte	0x307
 1645 042b 02       		.byte	0x2
 1646 042c 23       		.byte	0x23
 1647 042d 0C       		.uleb128 0xc
 1648 042e 06       		.uleb128 0x6
 1649 042f D3000000 		.4byte	.LASF57
 1650 0433 08       		.byte	0x8
 1651 0434 65       		.byte	0x65
 1652 0435 3A020000 		.4byte	0x23a
 1653 0439 02       		.byte	0x2
 1654 043a 23       		.byte	0x23
 1655 043b 10       		.uleb128 0x10
 1656 043c 06       		.uleb128 0x6
 1657 043d 29020000 		.4byte	.LASF58
 1658 0441 08       		.byte	0x8
 1659 0442 66       		.byte	0x66
 1660 0443 3A020000 		.4byte	0x23a
 1661 0447 02       		.byte	0x2
 1662 0448 23       		.byte	0x23
 1663 0449 14       		.uleb128 0x14
 1664 044a 06       		.uleb128 0x6
 1665 044b BC030000 		.4byte	.LASF59
 1666 044f 08       		.byte	0x8
 1667 0450 6A       		.byte	0x6a
 1668 0451 E8000000 		.4byte	0xe8
 1669 0455 02       		.byte	0x2
 1670 0456 23       		.byte	0x23
 1671 0457 18       		.uleb128 0x18
 1672 0458 06       		.uleb128 0x6
 1673 0459 1F020000 		.4byte	.LASF60
 1674 045d 08       		.byte	0x8
 1675 045e 6C       		.byte	0x6c
 1676 045f 3A020000 		.4byte	0x23a
 1677 0463 02       		.byte	0x2
 1678 0464 23       		.byte	0x23
ARM GAS  /tmp/ccvQ8sjS.s 			page 31


 1679 0465 1C       		.uleb128 0x1c
 1680 0466 00       		.byte	0x0
 1681 0467 04       		.uleb128 0x4
 1682 0468 62030000 		.4byte	.LASF61
 1683 046c 08       		.byte	0x8
 1684 046d 6E       		.byte	0x6e
 1685 046e FC030000 		.4byte	0x3fc
 1686 0472 05       		.uleb128 0x5
 1687 0473 C2010000 		.4byte	.LASF62
 1688 0477 10       		.byte	0x10
 1689 0478 09       		.byte	0x9
 1690 0479 2C       		.byte	0x2c
 1691 047a A9040000 		.4byte	0x4a9
 1692 047e 06       		.uleb128 0x6
 1693 047f 93000000 		.4byte	.LASF63
 1694 0483 09       		.byte	0x9
 1695 0484 2D       		.byte	0x2d
 1696 0485 40020000 		.4byte	0x240
 1697 0489 02       		.byte	0x2
 1698 048a 23       		.byte	0x23
 1699 048b 00       		.uleb128 0x0
 1700 048c 06       		.uleb128 0x6
 1701 048d C6030000 		.4byte	.LASF64
 1702 0491 09       		.byte	0x9
 1703 0492 2F       		.byte	0x2f
 1704 0493 3A020000 		.4byte	0x23a
 1705 0497 02       		.byte	0x2
 1706 0498 23       		.byte	0x23
 1707 0499 08       		.uleb128 0x8
 1708 049a 06       		.uleb128 0x6
 1709 049b 16030000 		.4byte	.LASF65
 1710 049f 09       		.byte	0x9
 1711 04a0 31       		.byte	0x31
 1712 04a1 A9040000 		.4byte	0x4a9
 1713 04a5 02       		.byte	0x2
 1714 04a6 23       		.byte	0x23
 1715 04a7 0C       		.uleb128 0xc
 1716 04a8 00       		.byte	0x0
 1717 04a9 09       		.uleb128 0x9
 1718 04aa 04       		.byte	0x4
 1719 04ab 72040000 		.4byte	0x472
 1720 04af 04       		.uleb128 0x4
 1721 04b0 C2010000 		.4byte	.LASF62
 1722 04b4 09       		.byte	0x9
 1723 04b5 33       		.byte	0x33
 1724 04b6 72040000 		.4byte	0x472
 1725 04ba 04       		.uleb128 0x4
 1726 04bb 7A030000 		.4byte	.LASF66
 1727 04bf 0A       		.byte	0xa
 1728 04c0 29       		.byte	0x29
 1729 04c1 C5040000 		.4byte	0x4c5
 1730 04c5 05       		.uleb128 0x5
 1731 04c6 7A030000 		.4byte	.LASF66
 1732 04ca 0C       		.byte	0xc
 1733 04cb 0A       		.byte	0xa
 1734 04cc 2E       		.byte	0x2e
 1735 04cd FC040000 		.4byte	0x4fc
ARM GAS  /tmp/ccvQ8sjS.s 			page 32


 1736 04d1 06       		.uleb128 0x6
 1737 04d2 9A010000 		.4byte	.LASF67
 1738 04d6 0A       		.byte	0xa
 1739 04d7 2F       		.byte	0x2f
 1740 04d8 FC040000 		.4byte	0x4fc
 1741 04dc 02       		.byte	0x2
 1742 04dd 23       		.byte	0x23
 1743 04de 00       		.uleb128 0x0
 1744 04df 06       		.uleb128 0x6
 1745 04e0 6E020000 		.4byte	.LASF68
 1746 04e4 0A       		.byte	0xa
 1747 04e5 32       		.byte	0x32
 1748 04e6 3A020000 		.4byte	0x23a
 1749 04ea 02       		.byte	0x2
 1750 04eb 23       		.byte	0x23
 1751 04ec 04       		.uleb128 0x4
 1752 04ed 06       		.uleb128 0x6
 1753 04ee 31020000 		.4byte	.LASF69
 1754 04f2 0A       		.byte	0xa
 1755 04f3 34       		.byte	0x34
 1756 04f4 D2000000 		.4byte	0xd2
 1757 04f8 02       		.byte	0x2
 1758 04f9 23       		.byte	0x23
 1759 04fa 08       		.uleb128 0x8
 1760 04fb 00       		.byte	0x0
 1761 04fc 09       		.uleb128 0x9
 1762 04fd 04       		.byte	0x4
 1763 04fe BA040000 		.4byte	0x4ba
 1764 0502 05       		.uleb128 0x5
 1765 0503 F6000000 		.4byte	.LASF70
 1766 0507 04       		.byte	0x4
 1767 0508 0A       		.byte	0xa
 1768 0509 3C       		.byte	0x3c
 1769 050a 1D050000 		.4byte	0x51d
 1770 050e 06       		.uleb128 0x6
 1771 050f AD030000 		.4byte	.LASF71
 1772 0513 0A       		.byte	0xa
 1773 0514 3D       		.byte	0x3d
 1774 0515 FC040000 		.4byte	0x4fc
 1775 0519 02       		.byte	0x2
 1776 051a 23       		.byte	0x23
 1777 051b 00       		.uleb128 0x0
 1778 051c 00       		.byte	0x0
 1779 051d 04       		.uleb128 0x4
 1780 051e F6000000 		.4byte	.LASF70
 1781 0522 0A       		.byte	0xa
 1782 0523 40       		.byte	0x40
 1783 0524 02050000 		.4byte	0x502
 1784 0528 04       		.uleb128 0x4
 1785 0529 02010000 		.4byte	.LASF72
 1786 052d 0A       		.byte	0xa
 1787 052e 45       		.byte	0x45
 1788 052f 33050000 		.4byte	0x533
 1789 0533 09       		.uleb128 0x9
 1790 0534 04       		.byte	0x4
 1791 0535 39050000 		.4byte	0x539
 1792 0539 0D       		.uleb128 0xd
ARM GAS  /tmp/ccvQ8sjS.s 			page 33


 1793 053a 01       		.byte	0x1
 1794 053b 45050000 		.4byte	0x545
 1795 053f 0E       		.uleb128 0xe
 1796 0540 C7000000 		.4byte	0xc7
 1797 0544 00       		.byte	0x0
 1798 0545 10       		.uleb128 0x10
 1799 0546 04       		.byte	0x4
 1800 0547 05       		.byte	0x5
 1801 0548 90       		.byte	0x90
 1802 0549 7A050000 		.4byte	0x57a
 1803 054d 11       		.uleb128 0x11
 1804 054e 11000000 		.4byte	.LASF73
 1805 0552 05       		.byte	0x5
 1806 0553 97       		.byte	0x97
 1807 0554 BC000000 		.4byte	0xbc
 1808 0558 11       		.uleb128 0x11
 1809 0559 36000000 		.4byte	.LASF74
 1810 055d 05       		.byte	0x5
 1811 055e 9E       		.byte	0x9e
 1812 055f BC000000 		.4byte	0xbc
 1813 0563 11       		.uleb128 0x11
 1814 0564 88030000 		.4byte	.LASF75
 1815 0568 05       		.byte	0x5
 1816 0569 A5       		.byte	0xa5
 1817 056a 78020000 		.4byte	0x278
 1818 056e 11       		.uleb128 0x11
 1819 056f B2020000 		.4byte	.LASF76
 1820 0573 05       		.byte	0x5
 1821 0574 AC       		.byte	0xac
 1822 0575 D2000000 		.4byte	0xd2
 1823 0579 00       		.byte	0x0
 1824 057a 09       		.uleb128 0x9
 1825 057b 04       		.byte	0x4
 1826 057c 80050000 		.4byte	0x580
 1827 0580 12       		.uleb128 0x12
 1828 0581 85050000 		.4byte	0x585
 1829 0585 03       		.uleb128 0x3
 1830 0586 01       		.byte	0x1
 1831 0587 08       		.byte	0x8
 1832 0588 11030000 		.4byte	.LASF77
 1833 058c 09       		.uleb128 0x9
 1834 058d 04       		.byte	0x4
 1835 058e AF040000 		.4byte	0x4af
 1836 0592 05       		.uleb128 0x5
 1837 0593 CF020000 		.4byte	.LASF78
 1838 0597 10       		.byte	0x10
 1839 0598 0B       		.byte	0xb
 1840 0599 46       		.byte	0x46
 1841 059a D7050000 		.4byte	0x5d7
 1842 059e 06       		.uleb128 0x6
 1843 059f 4F010000 		.4byte	.LASF79
 1844 05a3 0B       		.byte	0xb
 1845 05a4 47       		.byte	0x47
 1846 05a5 7A050000 		.4byte	0x57a
 1847 05a9 02       		.byte	0x2
 1848 05aa 23       		.byte	0x23
 1849 05ab 00       		.uleb128 0x0
ARM GAS  /tmp/ccvQ8sjS.s 			page 34


 1850 05ac 06       		.uleb128 0x6
 1851 05ad 19020000 		.4byte	.LASF80
 1852 05b1 0B       		.byte	0xb
 1853 05b2 48       		.byte	0x48
 1854 05b3 D9050000 		.4byte	0x5d9
 1855 05b7 02       		.byte	0x2
 1856 05b8 23       		.byte	0x23
 1857 05b9 04       		.uleb128 0x4
 1858 05ba 06       		.uleb128 0x6
 1859 05bb 3B010000 		.4byte	.LASF81
 1860 05bf 0B       		.byte	0xb
 1861 05c0 49       		.byte	0x49
 1862 05c1 D9050000 		.4byte	0x5d9
 1863 05c5 02       		.byte	0x2
 1864 05c6 23       		.byte	0x23
 1865 05c7 08       		.uleb128 0x8
 1866 05c8 06       		.uleb128 0x6
 1867 05c9 48020000 		.4byte	.LASF82
 1868 05cd 0B       		.byte	0xb
 1869 05ce 4A       		.byte	0x4a
 1870 05cf D9050000 		.4byte	0x5d9
 1871 05d3 02       		.byte	0x2
 1872 05d4 23       		.byte	0x23
 1873 05d5 0C       		.uleb128 0xc
 1874 05d6 00       		.byte	0x0
 1875 05d7 13       		.uleb128 0x13
 1876 05d8 01       		.byte	0x1
 1877 05d9 09       		.uleb128 0x9
 1878 05da 04       		.byte	0x4
 1879 05db D7050000 		.4byte	0x5d7
 1880 05df 14       		.uleb128 0x14
 1881 05e0 7A020000 		.4byte	.LASF86
 1882 05e4 01       		.byte	0x1
 1883 05e5 0701     		.2byte	0x107
 1884 05e7 01       		.byte	0x1
 1885 05e8 00000000 		.4byte	.LFB17
 1886 05ec AA000000 		.4byte	.LFE17
 1887 05f0 00000000 		.4byte	.LLST0
 1888 05f4 07060000 		.4byte	0x607
 1889 05f8 15       		.uleb128 0x15
 1890 05f9 6D00     		.ascii	"m\000"
 1891 05fb 01       		.byte	0x1
 1892 05fc 0801     		.2byte	0x108
 1893 05fe D2000000 		.4byte	0xd2
 1894 0602 20000000 		.4byte	.LLST1
 1895 0606 00       		.byte	0x0
 1896 0607 16       		.uleb128 0x16
 1897 0608 E3010000 		.4byte	.LASF83
 1898 060c 01       		.byte	0x1
 1899 060d 0201     		.2byte	0x102
 1900 060f 01       		.byte	0x1
 1901 0610 00000000 		.4byte	.LFB16
 1902 0614 08000000 		.4byte	.LFE16
 1903 0618 02       		.byte	0x2
 1904 0619 7D       		.byte	0x7d
 1905 061a 00       		.sleb128 0
 1906 061b 17       		.uleb128 0x17
ARM GAS  /tmp/ccvQ8sjS.s 			page 35


 1907 061c 00000000 		.4byte	.LASF84
 1908 0620 01       		.byte	0x1
 1909 0621 8B       		.byte	0x8b
 1910 0622 01       		.byte	0x1
 1911 0623 00000000 		.4byte	.LFB12
 1912 0627 08000000 		.4byte	.LFE12
 1913 062b 02       		.byte	0x2
 1914 062c 7D       		.byte	0x7d
 1915 062d 00       		.sleb128 0
 1916 062e 17       		.uleb128 0x17
 1917 062f D0010000 		.4byte	.LASF85
 1918 0633 01       		.byte	0x1
 1919 0634 56       		.byte	0x56
 1920 0635 01       		.byte	0x1
 1921 0636 00000000 		.4byte	.LFB7
 1922 063a 08000000 		.4byte	.LFE7
 1923 063e 02       		.byte	0x2
 1924 063f 7D       		.byte	0x7d
 1925 0640 00       		.sleb128 0
 1926 0641 18       		.uleb128 0x18
 1927 0642 46000000 		.4byte	.LASF87
 1928 0646 01       		.byte	0x1
 1929 0647 A0       		.byte	0xa0
 1930 0648 01       		.byte	0x1
 1931 0649 00000000 		.4byte	.LFB15
 1932 064d 68020000 		.4byte	.LFE15
 1933 0651 6A000000 		.4byte	.LLST2
 1934 0655 92060000 		.4byte	0x692
 1935 0659 19       		.uleb128 0x19
 1936 065a 6D00     		.ascii	"m\000"
 1937 065c 01       		.byte	0x1
 1938 065d A1       		.byte	0xa1
 1939 065e D2000000 		.4byte	0xd2
 1940 0662 97000000 		.4byte	.LLST3
 1941 0666 1A       		.uleb128 0x1a
 1942 0667 656C3100 		.ascii	"el1\000"
 1943 066b 01       		.byte	0x1
 1944 066c A2       		.byte	0xa2
 1945 066d BA040000 		.4byte	0x4ba
 1946 0671 02       		.byte	0x2
 1947 0672 91       		.byte	0x91
 1948 0673 54       		.sleb128 -44
 1949 0674 1A       		.uleb128 0x1a
 1950 0675 656C3200 		.ascii	"el2\000"
 1951 0679 01       		.byte	0x1
 1952 067a A2       		.byte	0xa2
 1953 067b BA040000 		.4byte	0x4ba
 1954 067f 02       		.byte	0x2
 1955 0680 91       		.byte	0x91
 1956 0681 48       		.sleb128 -56
 1957 0682 1B       		.uleb128 0x1b
 1958 0683 A4000000 		.4byte	.LASF88
 1959 0687 01       		.byte	0x1
 1960 0688 A3       		.byte	0xa3
 1961 0689 DD000000 		.4byte	0xdd
 1962 068d 4A010000 		.4byte	.LLST4
 1963 0691 00       		.byte	0x0
ARM GAS  /tmp/ccvQ8sjS.s 			page 36


 1964 0692 1C       		.uleb128 0x1c
 1965 0693 FE010000 		.4byte	.LASF89
 1966 0697 01       		.byte	0x1
 1967 0698 97       		.byte	0x97
 1968 0699 01       		.byte	0x1
 1969 069a BC000000 		.4byte	0xbc
 1970 069e 00000000 		.4byte	.LFB14
 1971 06a2 24000000 		.4byte	.LFE14
 1972 06a6 73010000 		.4byte	.LLST5
 1973 06aa BC060000 		.4byte	0x6bc
 1974 06ae 1D       		.uleb128 0x1d
 1975 06af 7000     		.ascii	"p\000"
 1976 06b1 01       		.byte	0x1
 1977 06b2 97       		.byte	0x97
 1978 06b3 78020000 		.4byte	0x278
 1979 06b7 93010000 		.4byte	.LLST6
 1980 06bb 00       		.byte	0x0
 1981 06bc 1C       		.uleb128 0x1c
 1982 06bd F6010000 		.4byte	.LASF90
 1983 06c1 01       		.byte	0x1
 1984 06c2 90       		.byte	0x90
 1985 06c3 01       		.byte	0x1
 1986 06c4 BC000000 		.4byte	0xbc
 1987 06c8 00000000 		.4byte	.LFB13
 1988 06cc 16000000 		.4byte	.LFE13
 1989 06d0 A6010000 		.4byte	.LLST7
 1990 06d4 E6060000 		.4byte	0x6e6
 1991 06d8 1D       		.uleb128 0x1d
 1992 06d9 7000     		.ascii	"p\000"
 1993 06db 01       		.byte	0x1
 1994 06dc 90       		.byte	0x90
 1995 06dd 78020000 		.4byte	0x278
 1996 06e1 C6010000 		.4byte	.LLST8
 1997 06e5 00       		.byte	0x0
 1998 06e6 18       		.uleb128 0x18
 1999 06e7 CE030000 		.4byte	.LASF91
 2000 06eb 01       		.byte	0x1
 2001 06ec 60       		.byte	0x60
 2002 06ed 01       		.byte	0x1
 2003 06ee 00000000 		.4byte	.LFB11
 2004 06f2 88000000 		.4byte	.LFE11
 2005 06f6 E4010000 		.4byte	.LLST9
 2006 06fa 1B070000 		.4byte	0x71b
 2007 06fe 1A       		.uleb128 0x1a
 2008 06ff 656C3100 		.ascii	"el1\000"
 2009 0703 01       		.byte	0x1
 2010 0704 61       		.byte	0x61
 2011 0705 BA040000 		.4byte	0x4ba
 2012 0709 02       		.byte	0x2
 2013 070a 91       		.byte	0x91
 2014 070b 6C       		.sleb128 -20
 2015 070c 1A       		.uleb128 0x1a
 2016 070d 656C3200 		.ascii	"el2\000"
 2017 0711 01       		.byte	0x1
 2018 0712 61       		.byte	0x61
 2019 0713 BA040000 		.4byte	0x4ba
 2020 0717 02       		.byte	0x2
ARM GAS  /tmp/ccvQ8sjS.s 			page 37


 2021 0718 91       		.byte	0x91
 2022 0719 60       		.sleb128 -32
 2023 071a 00       		.byte	0x0
 2024 071b 1E       		.uleb128 0x1e
 2025 071c 683300   		.ascii	"h3\000"
 2026 071f 01       		.byte	0x1
 2027 0720 5D       		.byte	0x5d
 2028 0721 01       		.byte	0x1
 2029 0722 00000000 		.4byte	.LFB10
 2030 0726 06000000 		.4byte	.LFE10
 2031 072a 02       		.byte	0x2
 2032 072b 7D       		.byte	0x7d
 2033 072c 00       		.sleb128 0
 2034 072d 40070000 		.4byte	0x740
 2035 0731 1D       		.uleb128 0x1d
 2036 0732 696400   		.ascii	"id\000"
 2037 0735 01       		.byte	0x1
 2038 0736 5D       		.byte	0x5d
 2039 0737 C7000000 		.4byte	0xc7
 2040 073b 10020000 		.4byte	.LLST10
 2041 073f 00       		.byte	0x0
 2042 0740 1E       		.uleb128 0x1e
 2043 0741 683200   		.ascii	"h2\000"
 2044 0744 01       		.byte	0x1
 2045 0745 5C       		.byte	0x5c
 2046 0746 01       		.byte	0x1
 2047 0747 00000000 		.4byte	.LFB9
 2048 074b 06000000 		.4byte	.LFE9
 2049 074f 02       		.byte	0x2
 2050 0750 7D       		.byte	0x7d
 2051 0751 00       		.sleb128 0
 2052 0752 65070000 		.4byte	0x765
 2053 0756 1D       		.uleb128 0x1d
 2054 0757 696400   		.ascii	"id\000"
 2055 075a 01       		.byte	0x1
 2056 075b 5C       		.byte	0x5c
 2057 075c C7000000 		.4byte	0xc7
 2058 0760 23020000 		.4byte	.LLST11
 2059 0764 00       		.byte	0x0
 2060 0765 1E       		.uleb128 0x1e
 2061 0766 683100   		.ascii	"h1\000"
 2062 0769 01       		.byte	0x1
 2063 076a 5B       		.byte	0x5b
 2064 076b 01       		.byte	0x1
 2065 076c 00000000 		.4byte	.LFB8
 2066 0770 06000000 		.4byte	.LFE8
 2067 0774 02       		.byte	0x2
 2068 0775 7D       		.byte	0x7d
 2069 0776 00       		.sleb128 0
 2070 0777 8A070000 		.4byte	0x78a
 2071 077b 1D       		.uleb128 0x1d
 2072 077c 696400   		.ascii	"id\000"
 2073 077f 01       		.byte	0x1
 2074 0780 5B       		.byte	0x5b
 2075 0781 C7000000 		.4byte	0xc7
 2076 0785 36020000 		.4byte	.LLST12
 2077 0789 00       		.byte	0x0
ARM GAS  /tmp/ccvQ8sjS.s 			page 38


 2078 078a 1F       		.uleb128 0x1f
 2079 078b 18000000 		.4byte	.LASF92
 2080 078f 07       		.byte	0x7
 2081 0790 7A       		.byte	0x7a
 2082 0791 F1030000 		.4byte	0x3f1
 2083 0795 01       		.byte	0x1
 2084 0796 01       		.byte	0x1
 2085 0797 1F       		.uleb128 0x1f
 2086 0798 6C030000 		.4byte	.LASF93
 2087 079c 08       		.byte	0x8
 2088 079d 72       		.byte	0x72
 2089 079e 67040000 		.4byte	0x467
 2090 07a2 01       		.byte	0x1
 2091 07a3 01       		.byte	0x1
 2092 07a4 20       		.uleb128 0x20
 2093 07a5 3A020000 		.4byte	0x23a
 2094 07a9 B4070000 		.4byte	0x7b4
 2095 07ad 21       		.uleb128 0x21
 2096 07ae 30000000 		.4byte	0x30
 2097 07b2 04       		.byte	0x4
 2098 07b3 00       		.byte	0x0
 2099 07b4 1F       		.uleb128 0x1f
 2100 07b5 A3020000 		.4byte	.LASF94
 2101 07b9 0B       		.byte	0xb
 2102 07ba B0       		.byte	0xb0
 2103 07bb A4070000 		.4byte	0x7a4
 2104 07bf 01       		.byte	0x1
 2105 07c0 01       		.byte	0x1
 2106 07c1 20       		.uleb128 0x20
 2107 07c2 78020000 		.4byte	0x278
 2108 07c6 CC070000 		.4byte	0x7cc
 2109 07ca 22       		.uleb128 0x22
 2110 07cb 00       		.byte	0x0
 2111 07cc 23       		.uleb128 0x23
 2112 07cd 776100   		.ascii	"wa\000"
 2113 07d0 0B       		.byte	0xb
 2114 07d1 B2       		.byte	0xb2
 2115 07d2 D8070000 		.4byte	0x7d8
 2116 07d6 01       		.byte	0x1
 2117 07d7 01       		.byte	0x1
 2118 07d8 12       		.uleb128 0x12
 2119 07d9 C1070000 		.4byte	0x7c1
 2120 07dd 1A       		.uleb128 0x1a
 2121 07de 65733100 		.ascii	"es1\000"
 2122 07e2 01       		.byte	0x1
 2123 07e3 46       		.byte	0x46
 2124 07e4 1D050000 		.4byte	0x51d
 2125 07e8 05       		.byte	0x5
 2126 07e9 03       		.byte	0x3
 2127 07ea 00000000 		.4byte	es1
 2128 07ee 1A       		.uleb128 0x1a
 2129 07ef 65733200 		.ascii	"es2\000"
 2130 07f3 01       		.byte	0x1
 2131 07f4 47       		.byte	0x47
 2132 07f5 1D050000 		.4byte	0x51d
 2133 07f9 05       		.byte	0x5
 2134 07fa 03       		.byte	0x3
ARM GAS  /tmp/ccvQ8sjS.s 			page 39


 2135 07fb 00000000 		.4byte	es2
 2136 07ff 20       		.uleb128 0x20
 2137 0800 28050000 		.4byte	0x528
 2138 0804 0F080000 		.4byte	0x80f
 2139 0808 21       		.uleb128 0x21
 2140 0809 30000000 		.4byte	0x30
 2141 080d 02       		.byte	0x2
 2142 080e 00       		.byte	0x0
 2143 080f 24       		.uleb128 0x24
 2144 0810 EC020000 		.4byte	.LASF95
 2145 0814 01       		.byte	0x1
 2146 0815 5E       		.byte	0x5e
 2147 0816 20080000 		.4byte	0x820
 2148 081a 05       		.byte	0x5
 2149 081b 03       		.byte	0x3
 2150 081c 00000000 		.4byte	evhndl
 2151 0820 12       		.uleb128 0x12
 2152 0821 FF070000 		.4byte	0x7ff
 2153 0825 1F       		.uleb128 0x1f
 2154 0826 E3020000 		.4byte	.LASF96
 2155 082a 01       		.byte	0x1
 2156 082b 76       		.byte	0x76
 2157 082c 32080000 		.4byte	0x832
 2158 0830 01       		.byte	0x1
 2159 0831 01       		.byte	0x1
 2160 0832 12       		.uleb128 0x12
 2161 0833 92050000 		.4byte	0x592
 2162 0837 1F       		.uleb128 0x1f
 2163 0838 B9000000 		.4byte	.LASF97
 2164 083c 01       		.byte	0x1
 2165 083d EB       		.byte	0xeb
 2166 083e 32080000 		.4byte	0x832
 2167 0842 01       		.byte	0x1
 2168 0843 01       		.byte	0x1
 2169 0844 25       		.uleb128 0x25
 2170 0845 C2000000 		.4byte	.LASF98
 2171 0849 01       		.byte	0x1
 2172 084a 1B01     		.2byte	0x11b
 2173 084c 32080000 		.4byte	0x832
 2174 0850 01       		.byte	0x1
 2175 0851 01       		.byte	0x1
 2176 0852 1F       		.uleb128 0x1f
 2177 0853 18000000 		.4byte	.LASF92
 2178 0857 07       		.byte	0x7
 2179 0858 7A       		.byte	0x7a
 2180 0859 F1030000 		.4byte	0x3f1
 2181 085d 01       		.byte	0x1
 2182 085e 01       		.byte	0x1
 2183 085f 1F       		.uleb128 0x1f
 2184 0860 6C030000 		.4byte	.LASF93
 2185 0864 08       		.byte	0x8
 2186 0865 72       		.byte	0x72
 2187 0866 67040000 		.4byte	0x467
 2188 086a 01       		.byte	0x1
 2189 086b 01       		.byte	0x1
 2190 086c 1F       		.uleb128 0x1f
 2191 086d A3020000 		.4byte	.LASF94
ARM GAS  /tmp/ccvQ8sjS.s 			page 40


 2192 0871 0B       		.byte	0xb
 2193 0872 B0       		.byte	0xb0
 2194 0873 A4070000 		.4byte	0x7a4
 2195 0877 01       		.byte	0x1
 2196 0878 01       		.byte	0x1
 2197 0879 23       		.uleb128 0x23
 2198 087a 776100   		.ascii	"wa\000"
 2199 087d 0B       		.byte	0xb
 2200 087e B2       		.byte	0xb2
 2201 087f 85080000 		.4byte	0x885
 2202 0883 01       		.byte	0x1
 2203 0884 01       		.byte	0x1
 2204 0885 12       		.uleb128 0x12
 2205 0886 C1070000 		.4byte	0x7c1
 2206 088a 26       		.uleb128 0x26
 2207 088b E3020000 		.4byte	.LASF96
 2208 088f 01       		.byte	0x1
 2209 0890 76       		.byte	0x76
 2210 0891 32080000 		.4byte	0x832
 2211 0895 01       		.byte	0x1
 2212 0896 05       		.byte	0x5
 2213 0897 03       		.byte	0x3
 2214 0898 00000000 		.4byte	testevt1
 2215 089c 26       		.uleb128 0x26
 2216 089d B9000000 		.4byte	.LASF97
 2217 08a1 01       		.byte	0x1
 2218 08a2 EB       		.byte	0xeb
 2219 08a3 32080000 		.4byte	0x832
 2220 08a7 01       		.byte	0x1
 2221 08a8 05       		.byte	0x5
 2222 08a9 03       		.byte	0x3
 2223 08aa 00000000 		.4byte	testevt2
 2224 08ae 27       		.uleb128 0x27
 2225 08af C2000000 		.4byte	.LASF98
 2226 08b3 01       		.byte	0x1
 2227 08b4 1B01     		.2byte	0x11b
 2228 08b6 32080000 		.4byte	0x832
 2229 08ba 01       		.byte	0x1
 2230 08bb 05       		.byte	0x5
 2231 08bc 03       		.byte	0x3
 2232 08bd 00000000 		.4byte	testevt3
 2233 08c1 20       		.uleb128 0x20
 2234 08c2 D1080000 		.4byte	0x8d1
 2235 08c6 D1080000 		.4byte	0x8d1
 2236 08ca 21       		.uleb128 0x21
 2237 08cb 30000000 		.4byte	0x30
 2238 08cf 03       		.byte	0x3
 2239 08d0 00       		.byte	0x0
 2240 08d1 09       		.uleb128 0x9
 2241 08d2 04       		.byte	0x4
 2242 08d3 32080000 		.4byte	0x832
 2243 08d7 27       		.uleb128 0x27
 2244 08d8 44010000 		.4byte	.LASF99
 2245 08dc 01       		.byte	0x1
 2246 08dd 2601     		.2byte	0x126
 2247 08df EA080000 		.4byte	0x8ea
 2248 08e3 01       		.byte	0x1
ARM GAS  /tmp/ccvQ8sjS.s 			page 41


 2249 08e4 05       		.byte	0x5
 2250 08e5 03       		.byte	0x3
 2251 08e6 00000000 		.4byte	patternevt
 2252 08ea 12       		.uleb128 0x12
 2253 08eb C1080000 		.4byte	0x8c1
 2254 08ef 00       		.byte	0x0
 2255              		.section	.debug_abbrev
 2256 0000 01       		.uleb128 0x1
 2257 0001 11       		.uleb128 0x11
 2258 0002 01       		.byte	0x1
 2259 0003 25       		.uleb128 0x25
 2260 0004 0E       		.uleb128 0xe
 2261 0005 13       		.uleb128 0x13
 2262 0006 0B       		.uleb128 0xb
 2263 0007 03       		.uleb128 0x3
 2264 0008 0E       		.uleb128 0xe
 2265 0009 1B       		.uleb128 0x1b
 2266 000a 0E       		.uleb128 0xe
 2267 000b 11       		.uleb128 0x11
 2268 000c 01       		.uleb128 0x1
 2269 000d 52       		.uleb128 0x52
 2270 000e 01       		.uleb128 0x1
 2271 000f 55       		.uleb128 0x55
 2272 0010 06       		.uleb128 0x6
 2273 0011 10       		.uleb128 0x10
 2274 0012 06       		.uleb128 0x6
 2275 0013 00       		.byte	0x0
 2276 0014 00       		.byte	0x0
 2277 0015 02       		.uleb128 0x2
 2278 0016 24       		.uleb128 0x24
 2279 0017 00       		.byte	0x0
 2280 0018 0B       		.uleb128 0xb
 2281 0019 0B       		.uleb128 0xb
 2282 001a 3E       		.uleb128 0x3e
 2283 001b 0B       		.uleb128 0xb
 2284 001c 03       		.uleb128 0x3
 2285 001d 08       		.uleb128 0x8
 2286 001e 00       		.byte	0x0
 2287 001f 00       		.byte	0x0
 2288 0020 03       		.uleb128 0x3
 2289 0021 24       		.uleb128 0x24
 2290 0022 00       		.byte	0x0
 2291 0023 0B       		.uleb128 0xb
 2292 0024 0B       		.uleb128 0xb
 2293 0025 3E       		.uleb128 0x3e
 2294 0026 0B       		.uleb128 0xb
 2295 0027 03       		.uleb128 0x3
 2296 0028 0E       		.uleb128 0xe
 2297 0029 00       		.byte	0x0
 2298 002a 00       		.byte	0x0
 2299 002b 04       		.uleb128 0x4
 2300 002c 16       		.uleb128 0x16
 2301 002d 00       		.byte	0x0
 2302 002e 03       		.uleb128 0x3
 2303 002f 0E       		.uleb128 0xe
 2304 0030 3A       		.uleb128 0x3a
 2305 0031 0B       		.uleb128 0xb
ARM GAS  /tmp/ccvQ8sjS.s 			page 42


 2306 0032 3B       		.uleb128 0x3b
 2307 0033 0B       		.uleb128 0xb
 2308 0034 49       		.uleb128 0x49
 2309 0035 13       		.uleb128 0x13
 2310 0036 00       		.byte	0x0
 2311 0037 00       		.byte	0x0
 2312 0038 05       		.uleb128 0x5
 2313 0039 13       		.uleb128 0x13
 2314 003a 01       		.byte	0x1
 2315 003b 03       		.uleb128 0x3
 2316 003c 0E       		.uleb128 0xe
 2317 003d 0B       		.uleb128 0xb
 2318 003e 0B       		.uleb128 0xb
 2319 003f 3A       		.uleb128 0x3a
 2320 0040 0B       		.uleb128 0xb
 2321 0041 3B       		.uleb128 0x3b
 2322 0042 0B       		.uleb128 0xb
 2323 0043 01       		.uleb128 0x1
 2324 0044 13       		.uleb128 0x13
 2325 0045 00       		.byte	0x0
 2326 0046 00       		.byte	0x0
 2327 0047 06       		.uleb128 0x6
 2328 0048 0D       		.uleb128 0xd
 2329 0049 00       		.byte	0x0
 2330 004a 03       		.uleb128 0x3
 2331 004b 0E       		.uleb128 0xe
 2332 004c 3A       		.uleb128 0x3a
 2333 004d 0B       		.uleb128 0xb
 2334 004e 3B       		.uleb128 0x3b
 2335 004f 0B       		.uleb128 0xb
 2336 0050 49       		.uleb128 0x49
 2337 0051 13       		.uleb128 0x13
 2338 0052 38       		.uleb128 0x38
 2339 0053 0A       		.uleb128 0xa
 2340 0054 00       		.byte	0x0
 2341 0055 00       		.byte	0x0
 2342 0056 07       		.uleb128 0x7
 2343 0057 0D       		.uleb128 0xd
 2344 0058 00       		.byte	0x0
 2345 0059 03       		.uleb128 0x3
 2346 005a 08       		.uleb128 0x8
 2347 005b 3A       		.uleb128 0x3a
 2348 005c 0B       		.uleb128 0xb
 2349 005d 3B       		.uleb128 0x3b
 2350 005e 0B       		.uleb128 0xb
 2351 005f 49       		.uleb128 0x49
 2352 0060 13       		.uleb128 0x13
 2353 0061 38       		.uleb128 0x38
 2354 0062 0A       		.uleb128 0xa
 2355 0063 00       		.byte	0x0
 2356 0064 00       		.byte	0x0
 2357 0065 08       		.uleb128 0x8
 2358 0066 13       		.uleb128 0x13
 2359 0067 01       		.byte	0x1
 2360 0068 0B       		.uleb128 0xb
 2361 0069 0B       		.uleb128 0xb
 2362 006a 3A       		.uleb128 0x3a
ARM GAS  /tmp/ccvQ8sjS.s 			page 43


 2363 006b 0B       		.uleb128 0xb
 2364 006c 3B       		.uleb128 0x3b
 2365 006d 0B       		.uleb128 0xb
 2366 006e 01       		.uleb128 0x1
 2367 006f 13       		.uleb128 0x13
 2368 0070 00       		.byte	0x0
 2369 0071 00       		.byte	0x0
 2370 0072 09       		.uleb128 0x9
 2371 0073 0F       		.uleb128 0xf
 2372 0074 00       		.byte	0x0
 2373 0075 0B       		.uleb128 0xb
 2374 0076 0B       		.uleb128 0xb
 2375 0077 49       		.uleb128 0x49
 2376 0078 13       		.uleb128 0x13
 2377 0079 00       		.byte	0x0
 2378 007a 00       		.byte	0x0
 2379 007b 0A       		.uleb128 0xa
 2380 007c 0F       		.uleb128 0xf
 2381 007d 00       		.byte	0x0
 2382 007e 0B       		.uleb128 0xb
 2383 007f 0B       		.uleb128 0xb
 2384 0080 00       		.byte	0x0
 2385 0081 00       		.byte	0x0
 2386 0082 0B       		.uleb128 0xb
 2387 0083 0D       		.uleb128 0xd
 2388 0084 00       		.byte	0x0
 2389 0085 03       		.uleb128 0x3
 2390 0086 08       		.uleb128 0x8
 2391 0087 3A       		.uleb128 0x3a
 2392 0088 0B       		.uleb128 0xb
 2393 0089 3B       		.uleb128 0x3b
 2394 008a 05       		.uleb128 0x5
 2395 008b 49       		.uleb128 0x49
 2396 008c 13       		.uleb128 0x13
 2397 008d 38       		.uleb128 0x38
 2398 008e 0A       		.uleb128 0xa
 2399 008f 00       		.byte	0x0
 2400 0090 00       		.byte	0x0
 2401 0091 0C       		.uleb128 0xc
 2402 0092 13       		.uleb128 0x13
 2403 0093 01       		.byte	0x1
 2404 0094 03       		.uleb128 0x3
 2405 0095 0E       		.uleb128 0xe
 2406 0096 0B       		.uleb128 0xb
 2407 0097 0B       		.uleb128 0xb
 2408 0098 3A       		.uleb128 0x3a
 2409 0099 0B       		.uleb128 0xb
 2410 009a 3B       		.uleb128 0x3b
 2411 009b 05       		.uleb128 0x5
 2412 009c 01       		.uleb128 0x1
 2413 009d 13       		.uleb128 0x13
 2414 009e 00       		.byte	0x0
 2415 009f 00       		.byte	0x0
 2416 00a0 0D       		.uleb128 0xd
 2417 00a1 15       		.uleb128 0x15
 2418 00a2 01       		.byte	0x1
 2419 00a3 27       		.uleb128 0x27
ARM GAS  /tmp/ccvQ8sjS.s 			page 44


 2420 00a4 0C       		.uleb128 0xc
 2421 00a5 01       		.uleb128 0x1
 2422 00a6 13       		.uleb128 0x13
 2423 00a7 00       		.byte	0x0
 2424 00a8 00       		.byte	0x0
 2425 00a9 0E       		.uleb128 0xe
 2426 00aa 05       		.uleb128 0x5
 2427 00ab 00       		.byte	0x0
 2428 00ac 49       		.uleb128 0x49
 2429 00ad 13       		.uleb128 0x13
 2430 00ae 00       		.byte	0x0
 2431 00af 00       		.byte	0x0
 2432 00b0 0F       		.uleb128 0xf
 2433 00b1 35       		.uleb128 0x35
 2434 00b2 00       		.byte	0x0
 2435 00b3 49       		.uleb128 0x49
 2436 00b4 13       		.uleb128 0x13
 2437 00b5 00       		.byte	0x0
 2438 00b6 00       		.byte	0x0
 2439 00b7 10       		.uleb128 0x10
 2440 00b8 17       		.uleb128 0x17
 2441 00b9 01       		.byte	0x1
 2442 00ba 0B       		.uleb128 0xb
 2443 00bb 0B       		.uleb128 0xb
 2444 00bc 3A       		.uleb128 0x3a
 2445 00bd 0B       		.uleb128 0xb
 2446 00be 3B       		.uleb128 0x3b
 2447 00bf 0B       		.uleb128 0xb
 2448 00c0 01       		.uleb128 0x1
 2449 00c1 13       		.uleb128 0x13
 2450 00c2 00       		.byte	0x0
 2451 00c3 00       		.byte	0x0
 2452 00c4 11       		.uleb128 0x11
 2453 00c5 0D       		.uleb128 0xd
 2454 00c6 00       		.byte	0x0
 2455 00c7 03       		.uleb128 0x3
 2456 00c8 0E       		.uleb128 0xe
 2457 00c9 3A       		.uleb128 0x3a
 2458 00ca 0B       		.uleb128 0xb
 2459 00cb 3B       		.uleb128 0x3b
 2460 00cc 0B       		.uleb128 0xb
 2461 00cd 49       		.uleb128 0x49
 2462 00ce 13       		.uleb128 0x13
 2463 00cf 00       		.byte	0x0
 2464 00d0 00       		.byte	0x0
 2465 00d1 12       		.uleb128 0x12
 2466 00d2 26       		.uleb128 0x26
 2467 00d3 00       		.byte	0x0
 2468 00d4 49       		.uleb128 0x49
 2469 00d5 13       		.uleb128 0x13
 2470 00d6 00       		.byte	0x0
 2471 00d7 00       		.byte	0x0
 2472 00d8 13       		.uleb128 0x13
 2473 00d9 15       		.uleb128 0x15
 2474 00da 00       		.byte	0x0
 2475 00db 27       		.uleb128 0x27
 2476 00dc 0C       		.uleb128 0xc
ARM GAS  /tmp/ccvQ8sjS.s 			page 45


 2477 00dd 00       		.byte	0x0
 2478 00de 00       		.byte	0x0
 2479 00df 14       		.uleb128 0x14
 2480 00e0 2E       		.uleb128 0x2e
 2481 00e1 01       		.byte	0x1
 2482 00e2 03       		.uleb128 0x3
 2483 00e3 0E       		.uleb128 0xe
 2484 00e4 3A       		.uleb128 0x3a
 2485 00e5 0B       		.uleb128 0xb
 2486 00e6 3B       		.uleb128 0x3b
 2487 00e7 05       		.uleb128 0x5
 2488 00e8 27       		.uleb128 0x27
 2489 00e9 0C       		.uleb128 0xc
 2490 00ea 11       		.uleb128 0x11
 2491 00eb 01       		.uleb128 0x1
 2492 00ec 12       		.uleb128 0x12
 2493 00ed 01       		.uleb128 0x1
 2494 00ee 40       		.uleb128 0x40
 2495 00ef 06       		.uleb128 0x6
 2496 00f0 01       		.uleb128 0x1
 2497 00f1 13       		.uleb128 0x13
 2498 00f2 00       		.byte	0x0
 2499 00f3 00       		.byte	0x0
 2500 00f4 15       		.uleb128 0x15
 2501 00f5 34       		.uleb128 0x34
 2502 00f6 00       		.byte	0x0
 2503 00f7 03       		.uleb128 0x3
 2504 00f8 08       		.uleb128 0x8
 2505 00f9 3A       		.uleb128 0x3a
 2506 00fa 0B       		.uleb128 0xb
 2507 00fb 3B       		.uleb128 0x3b
 2508 00fc 05       		.uleb128 0x5
 2509 00fd 49       		.uleb128 0x49
 2510 00fe 13       		.uleb128 0x13
 2511 00ff 02       		.uleb128 0x2
 2512 0100 06       		.uleb128 0x6
 2513 0101 00       		.byte	0x0
 2514 0102 00       		.byte	0x0
 2515 0103 16       		.uleb128 0x16
 2516 0104 2E       		.uleb128 0x2e
 2517 0105 00       		.byte	0x0
 2518 0106 03       		.uleb128 0x3
 2519 0107 0E       		.uleb128 0xe
 2520 0108 3A       		.uleb128 0x3a
 2521 0109 0B       		.uleb128 0xb
 2522 010a 3B       		.uleb128 0x3b
 2523 010b 05       		.uleb128 0x5
 2524 010c 27       		.uleb128 0x27
 2525 010d 0C       		.uleb128 0xc
 2526 010e 11       		.uleb128 0x11
 2527 010f 01       		.uleb128 0x1
 2528 0110 12       		.uleb128 0x12
 2529 0111 01       		.uleb128 0x1
 2530 0112 40       		.uleb128 0x40
 2531 0113 0A       		.uleb128 0xa
 2532 0114 00       		.byte	0x0
 2533 0115 00       		.byte	0x0
ARM GAS  /tmp/ccvQ8sjS.s 			page 46


 2534 0116 17       		.uleb128 0x17
 2535 0117 2E       		.uleb128 0x2e
 2536 0118 00       		.byte	0x0
 2537 0119 03       		.uleb128 0x3
 2538 011a 0E       		.uleb128 0xe
 2539 011b 3A       		.uleb128 0x3a
 2540 011c 0B       		.uleb128 0xb
 2541 011d 3B       		.uleb128 0x3b
 2542 011e 0B       		.uleb128 0xb
 2543 011f 27       		.uleb128 0x27
 2544 0120 0C       		.uleb128 0xc
 2545 0121 11       		.uleb128 0x11
 2546 0122 01       		.uleb128 0x1
 2547 0123 12       		.uleb128 0x12
 2548 0124 01       		.uleb128 0x1
 2549 0125 40       		.uleb128 0x40
 2550 0126 0A       		.uleb128 0xa
 2551 0127 00       		.byte	0x0
 2552 0128 00       		.byte	0x0
 2553 0129 18       		.uleb128 0x18
 2554 012a 2E       		.uleb128 0x2e
 2555 012b 01       		.byte	0x1
 2556 012c 03       		.uleb128 0x3
 2557 012d 0E       		.uleb128 0xe
 2558 012e 3A       		.uleb128 0x3a
 2559 012f 0B       		.uleb128 0xb
 2560 0130 3B       		.uleb128 0x3b
 2561 0131 0B       		.uleb128 0xb
 2562 0132 27       		.uleb128 0x27
 2563 0133 0C       		.uleb128 0xc
 2564 0134 11       		.uleb128 0x11
 2565 0135 01       		.uleb128 0x1
 2566 0136 12       		.uleb128 0x12
 2567 0137 01       		.uleb128 0x1
 2568 0138 40       		.uleb128 0x40
 2569 0139 06       		.uleb128 0x6
 2570 013a 01       		.uleb128 0x1
 2571 013b 13       		.uleb128 0x13
 2572 013c 00       		.byte	0x0
 2573 013d 00       		.byte	0x0
 2574 013e 19       		.uleb128 0x19
 2575 013f 34       		.uleb128 0x34
 2576 0140 00       		.byte	0x0
 2577 0141 03       		.uleb128 0x3
 2578 0142 08       		.uleb128 0x8
 2579 0143 3A       		.uleb128 0x3a
 2580 0144 0B       		.uleb128 0xb
 2581 0145 3B       		.uleb128 0x3b
 2582 0146 0B       		.uleb128 0xb
 2583 0147 49       		.uleb128 0x49
 2584 0148 13       		.uleb128 0x13
 2585 0149 02       		.uleb128 0x2
 2586 014a 06       		.uleb128 0x6
 2587 014b 00       		.byte	0x0
 2588 014c 00       		.byte	0x0
 2589 014d 1A       		.uleb128 0x1a
 2590 014e 34       		.uleb128 0x34
ARM GAS  /tmp/ccvQ8sjS.s 			page 47


 2591 014f 00       		.byte	0x0
 2592 0150 03       		.uleb128 0x3
 2593 0151 08       		.uleb128 0x8
 2594 0152 3A       		.uleb128 0x3a
 2595 0153 0B       		.uleb128 0xb
 2596 0154 3B       		.uleb128 0x3b
 2597 0155 0B       		.uleb128 0xb
 2598 0156 49       		.uleb128 0x49
 2599 0157 13       		.uleb128 0x13
 2600 0158 02       		.uleb128 0x2
 2601 0159 0A       		.uleb128 0xa
 2602 015a 00       		.byte	0x0
 2603 015b 00       		.byte	0x0
 2604 015c 1B       		.uleb128 0x1b
 2605 015d 34       		.uleb128 0x34
 2606 015e 00       		.byte	0x0
 2607 015f 03       		.uleb128 0x3
 2608 0160 0E       		.uleb128 0xe
 2609 0161 3A       		.uleb128 0x3a
 2610 0162 0B       		.uleb128 0xb
 2611 0163 3B       		.uleb128 0x3b
 2612 0164 0B       		.uleb128 0xb
 2613 0165 49       		.uleb128 0x49
 2614 0166 13       		.uleb128 0x13
 2615 0167 02       		.uleb128 0x2
 2616 0168 06       		.uleb128 0x6
 2617 0169 00       		.byte	0x0
 2618 016a 00       		.byte	0x0
 2619 016b 1C       		.uleb128 0x1c
 2620 016c 2E       		.uleb128 0x2e
 2621 016d 01       		.byte	0x1
 2622 016e 03       		.uleb128 0x3
 2623 016f 0E       		.uleb128 0xe
 2624 0170 3A       		.uleb128 0x3a
 2625 0171 0B       		.uleb128 0xb
 2626 0172 3B       		.uleb128 0x3b
 2627 0173 0B       		.uleb128 0xb
 2628 0174 27       		.uleb128 0x27
 2629 0175 0C       		.uleb128 0xc
 2630 0176 49       		.uleb128 0x49
 2631 0177 13       		.uleb128 0x13
 2632 0178 11       		.uleb128 0x11
 2633 0179 01       		.uleb128 0x1
 2634 017a 12       		.uleb128 0x12
 2635 017b 01       		.uleb128 0x1
 2636 017c 40       		.uleb128 0x40
 2637 017d 06       		.uleb128 0x6
 2638 017e 01       		.uleb128 0x1
 2639 017f 13       		.uleb128 0x13
 2640 0180 00       		.byte	0x0
 2641 0181 00       		.byte	0x0
 2642 0182 1D       		.uleb128 0x1d
 2643 0183 05       		.uleb128 0x5
 2644 0184 00       		.byte	0x0
 2645 0185 03       		.uleb128 0x3
 2646 0186 08       		.uleb128 0x8
 2647 0187 3A       		.uleb128 0x3a
ARM GAS  /tmp/ccvQ8sjS.s 			page 48


 2648 0188 0B       		.uleb128 0xb
 2649 0189 3B       		.uleb128 0x3b
 2650 018a 0B       		.uleb128 0xb
 2651 018b 49       		.uleb128 0x49
 2652 018c 13       		.uleb128 0x13
 2653 018d 02       		.uleb128 0x2
 2654 018e 06       		.uleb128 0x6
 2655 018f 00       		.byte	0x0
 2656 0190 00       		.byte	0x0
 2657 0191 1E       		.uleb128 0x1e
 2658 0192 2E       		.uleb128 0x2e
 2659 0193 01       		.byte	0x1
 2660 0194 03       		.uleb128 0x3
 2661 0195 08       		.uleb128 0x8
 2662 0196 3A       		.uleb128 0x3a
 2663 0197 0B       		.uleb128 0xb
 2664 0198 3B       		.uleb128 0x3b
 2665 0199 0B       		.uleb128 0xb
 2666 019a 27       		.uleb128 0x27
 2667 019b 0C       		.uleb128 0xc
 2668 019c 11       		.uleb128 0x11
 2669 019d 01       		.uleb128 0x1
 2670 019e 12       		.uleb128 0x12
 2671 019f 01       		.uleb128 0x1
 2672 01a0 40       		.uleb128 0x40
 2673 01a1 0A       		.uleb128 0xa
 2674 01a2 01       		.uleb128 0x1
 2675 01a3 13       		.uleb128 0x13
 2676 01a4 00       		.byte	0x0
 2677 01a5 00       		.byte	0x0
 2678 01a6 1F       		.uleb128 0x1f
 2679 01a7 34       		.uleb128 0x34
 2680 01a8 00       		.byte	0x0
 2681 01a9 03       		.uleb128 0x3
 2682 01aa 0E       		.uleb128 0xe
 2683 01ab 3A       		.uleb128 0x3a
 2684 01ac 0B       		.uleb128 0xb
 2685 01ad 3B       		.uleb128 0x3b
 2686 01ae 0B       		.uleb128 0xb
 2687 01af 49       		.uleb128 0x49
 2688 01b0 13       		.uleb128 0x13
 2689 01b1 3F       		.uleb128 0x3f
 2690 01b2 0C       		.uleb128 0xc
 2691 01b3 3C       		.uleb128 0x3c
 2692 01b4 0C       		.uleb128 0xc
 2693 01b5 00       		.byte	0x0
 2694 01b6 00       		.byte	0x0
 2695 01b7 20       		.uleb128 0x20
 2696 01b8 01       		.uleb128 0x1
 2697 01b9 01       		.byte	0x1
 2698 01ba 49       		.uleb128 0x49
 2699 01bb 13       		.uleb128 0x13
 2700 01bc 01       		.uleb128 0x1
 2701 01bd 13       		.uleb128 0x13
 2702 01be 00       		.byte	0x0
 2703 01bf 00       		.byte	0x0
 2704 01c0 21       		.uleb128 0x21
ARM GAS  /tmp/ccvQ8sjS.s 			page 49


 2705 01c1 21       		.uleb128 0x21
 2706 01c2 00       		.byte	0x0
 2707 01c3 49       		.uleb128 0x49
 2708 01c4 13       		.uleb128 0x13
 2709 01c5 2F       		.uleb128 0x2f
 2710 01c6 0B       		.uleb128 0xb
 2711 01c7 00       		.byte	0x0
 2712 01c8 00       		.byte	0x0
 2713 01c9 22       		.uleb128 0x22
 2714 01ca 21       		.uleb128 0x21
 2715 01cb 00       		.byte	0x0
 2716 01cc 00       		.byte	0x0
 2717 01cd 00       		.byte	0x0
 2718 01ce 23       		.uleb128 0x23
 2719 01cf 34       		.uleb128 0x34
 2720 01d0 00       		.byte	0x0
 2721 01d1 03       		.uleb128 0x3
 2722 01d2 08       		.uleb128 0x8
 2723 01d3 3A       		.uleb128 0x3a
 2724 01d4 0B       		.uleb128 0xb
 2725 01d5 3B       		.uleb128 0x3b
 2726 01d6 0B       		.uleb128 0xb
 2727 01d7 49       		.uleb128 0x49
 2728 01d8 13       		.uleb128 0x13
 2729 01d9 3F       		.uleb128 0x3f
 2730 01da 0C       		.uleb128 0xc
 2731 01db 3C       		.uleb128 0x3c
 2732 01dc 0C       		.uleb128 0xc
 2733 01dd 00       		.byte	0x0
 2734 01de 00       		.byte	0x0
 2735 01df 24       		.uleb128 0x24
 2736 01e0 34       		.uleb128 0x34
 2737 01e1 00       		.byte	0x0
 2738 01e2 03       		.uleb128 0x3
 2739 01e3 0E       		.uleb128 0xe
 2740 01e4 3A       		.uleb128 0x3a
 2741 01e5 0B       		.uleb128 0xb
 2742 01e6 3B       		.uleb128 0x3b
 2743 01e7 0B       		.uleb128 0xb
 2744 01e8 49       		.uleb128 0x49
 2745 01e9 13       		.uleb128 0x13
 2746 01ea 02       		.uleb128 0x2
 2747 01eb 0A       		.uleb128 0xa
 2748 01ec 00       		.byte	0x0
 2749 01ed 00       		.byte	0x0
 2750 01ee 25       		.uleb128 0x25
 2751 01ef 34       		.uleb128 0x34
 2752 01f0 00       		.byte	0x0
 2753 01f1 03       		.uleb128 0x3
 2754 01f2 0E       		.uleb128 0xe
 2755 01f3 3A       		.uleb128 0x3a
 2756 01f4 0B       		.uleb128 0xb
 2757 01f5 3B       		.uleb128 0x3b
 2758 01f6 05       		.uleb128 0x5
 2759 01f7 49       		.uleb128 0x49
 2760 01f8 13       		.uleb128 0x13
 2761 01f9 3F       		.uleb128 0x3f
ARM GAS  /tmp/ccvQ8sjS.s 			page 50


 2762 01fa 0C       		.uleb128 0xc
 2763 01fb 3C       		.uleb128 0x3c
 2764 01fc 0C       		.uleb128 0xc
 2765 01fd 00       		.byte	0x0
 2766 01fe 00       		.byte	0x0
 2767 01ff 26       		.uleb128 0x26
 2768 0200 34       		.uleb128 0x34
 2769 0201 00       		.byte	0x0
 2770 0202 03       		.uleb128 0x3
 2771 0203 0E       		.uleb128 0xe
 2772 0204 3A       		.uleb128 0x3a
 2773 0205 0B       		.uleb128 0xb
 2774 0206 3B       		.uleb128 0x3b
 2775 0207 0B       		.uleb128 0xb
 2776 0208 49       		.uleb128 0x49
 2777 0209 13       		.uleb128 0x13
 2778 020a 3F       		.uleb128 0x3f
 2779 020b 0C       		.uleb128 0xc
 2780 020c 02       		.uleb128 0x2
 2781 020d 0A       		.uleb128 0xa
 2782 020e 00       		.byte	0x0
 2783 020f 00       		.byte	0x0
 2784 0210 27       		.uleb128 0x27
 2785 0211 34       		.uleb128 0x34
 2786 0212 00       		.byte	0x0
 2787 0213 03       		.uleb128 0x3
 2788 0214 0E       		.uleb128 0xe
 2789 0215 3A       		.uleb128 0x3a
 2790 0216 0B       		.uleb128 0xb
 2791 0217 3B       		.uleb128 0x3b
 2792 0218 05       		.uleb128 0x5
 2793 0219 49       		.uleb128 0x49
 2794 021a 13       		.uleb128 0x13
 2795 021b 3F       		.uleb128 0x3f
 2796 021c 0C       		.uleb128 0xc
 2797 021d 02       		.uleb128 0x2
 2798 021e 0A       		.uleb128 0xa
 2799 021f 00       		.byte	0x0
 2800 0220 00       		.byte	0x0
 2801 0221 00       		.byte	0x0
 2802              		.section	.debug_pubnames,"",%progbits
 2803 0000 44000000 		.4byte	0x44
 2804 0004 0200     		.2byte	0x2
 2805 0006 00000000 		.4byte	.Ldebug_info0
 2806 000a F0080000 		.4byte	0x8f0
 2807 000e 8A080000 		.4byte	0x88a
 2808 0012 74657374 		.ascii	"testevt1\000"
 2808      65767431 
 2808      00
 2809 001b 9C080000 		.4byte	0x89c
 2810 001f 74657374 		.ascii	"testevt2\000"
 2810      65767432 
 2810      00
 2811 0028 AE080000 		.4byte	0x8ae
 2812 002c 74657374 		.ascii	"testevt3\000"
 2812      65767433 
 2812      00
ARM GAS  /tmp/ccvQ8sjS.s 			page 51


 2813 0035 D7080000 		.4byte	0x8d7
 2814 0039 70617474 		.ascii	"patternevt\000"
 2814      65726E65 
 2814      767400
 2815 0044 00000000 		.4byte	0x0
 2816              		.section	.debug_pubtypes,"",%progbits
 2817 0000 BC010000 		.4byte	0x1bc
 2818 0004 0200     		.2byte	0x2
 2819 0006 00000000 		.4byte	.Ldebug_info0
 2820 000a F0080000 		.4byte	0x8f0
 2821 000e 3E000000 		.4byte	0x3e
 2822 0012 75696E74 		.ascii	"uint8_t\000"
 2822      385F7400 
 2823 001a 5E000000 		.4byte	0x5e
 2824 001e 696E7433 		.ascii	"int32_t\000"
 2824      325F7400 
 2825 0026 70000000 		.4byte	0x70
 2826 002a 75696E74 		.ascii	"uint32_t\000"
 2826      33325F74 
 2826      00
 2827 0033 90000000 		.4byte	0x90
 2828 0037 746D6F64 		.ascii	"tmode_t\000"
 2828      655F7400 
 2829 003f 9B000000 		.4byte	0x9b
 2830 0043 74737461 		.ascii	"tstate_t\000"
 2830      74655F74 
 2830      00
 2831 004c A6000000 		.4byte	0xa6
 2832 0050 74726566 		.ascii	"trefs_t\000"
 2832      735F7400 
 2833 0058 B1000000 		.4byte	0xb1
 2834 005c 74707269 		.ascii	"tprio_t\000"
 2834      6F5F7400 
 2835 0064 BC000000 		.4byte	0xbc
 2836 0068 6D73675F 		.ascii	"msg_t\000"
 2836      7400
 2837 006e C7000000 		.4byte	0xc7
 2838 0072 6576656E 		.ascii	"eventid_t\000"
 2838      7469645F 
 2838      7400
 2839 007c D2000000 		.4byte	0xd2
 2840 0080 6576656E 		.ascii	"eventmask_t\000"
 2840      746D6173 
 2840      6B5F7400 
 2841 008c DD000000 		.4byte	0xdd
 2842 0090 73797374 		.ascii	"systime_t\000"
 2842      696D655F 
 2842      7400
 2843 009a E8000000 		.4byte	0xe8
 2844 009e 636E745F 		.ascii	"cnt_t\000"
 2844      7400
 2845 00a4 F3000000 		.4byte	0xf3
 2846 00a8 54687265 		.ascii	"Thread\000"
 2846      616400
 2847 00af 40020000 		.4byte	0x240
 2848 00b3 54687265 		.ascii	"ThreadsQueue\000"
 2848      61647351 
ARM GAS  /tmp/ccvQ8sjS.s 			page 52


 2848      75657565 
 2848      00
 2849 00c0 62020000 		.4byte	0x262
 2850 00c4 54687265 		.ascii	"ThreadsList\000"
 2850      6164734C 
 2850      69737400 
 2851 00d0 6D020000 		.4byte	0x26d
 2852 00d4 72656761 		.ascii	"regarm_t\000"
 2852      726D5F74 
 2852      00
 2853 00dd 7A020000 		.4byte	0x27a
 2854 00e1 696E7463 		.ascii	"intctx\000"
 2854      747800
 2855 00e8 07030000 		.4byte	0x307
 2856 00ec 636F6E74 		.ascii	"context\000"
 2856      65787400 
 2857 00f4 2A030000 		.4byte	0x32a
 2858 00f8 76746675 		.ascii	"vtfunc_t\000"
 2858      6E635F74 
 2858      00
 2859 0101 47030000 		.4byte	0x347
 2860 0105 56697274 		.ascii	"VirtualTimer\000"
 2860      75616C54 
 2860      696D6572 
 2860      00
 2861 0112 52030000 		.4byte	0x352
 2862 0116 56697274 		.ascii	"VirtualTimer\000"
 2862      75616C54 
 2862      696D6572 
 2862      00
 2863 0123 F1030000 		.4byte	0x3f1
 2864 0127 56544C69 		.ascii	"VTList\000"
 2864      737400
 2865 012e 67040000 		.4byte	0x467
 2866 0132 52656164 		.ascii	"ReadyList\000"
 2866      794C6973 
 2866      7400
 2867 013c 72040000 		.4byte	0x472
 2868 0140 4D757465 		.ascii	"Mutex\000"
 2868      7800
 2869 0146 AF040000 		.4byte	0x4af
 2870 014a 4D757465 		.ascii	"Mutex\000"
 2870      7800
 2871 0150 BA040000 		.4byte	0x4ba
 2872 0154 4576656E 		.ascii	"EventListener\000"
 2872      744C6973 
 2872      74656E65 
 2872      7200
 2873 0162 C5040000 		.4byte	0x4c5
 2874 0166 4576656E 		.ascii	"EventListener\000"
 2874      744C6973 
 2874      74656E65 
 2874      7200
 2875 0174 02050000 		.4byte	0x502
 2876 0178 4576656E 		.ascii	"EventSource\000"
 2876      74536F75 
 2876      72636500 
ARM GAS  /tmp/ccvQ8sjS.s 			page 53


 2877 0184 1D050000 		.4byte	0x51d
 2878 0188 4576656E 		.ascii	"EventSource\000"
 2878      74536F75 
 2878      72636500 
 2879 0194 28050000 		.4byte	0x528
 2880 0198 65766861 		.ascii	"evhandler_t\000"
 2880      6E646C65 
 2880      725F7400 
 2881 01a4 FE000000 		.4byte	0xfe
 2882 01a8 54687265 		.ascii	"Thread\000"
 2882      616400
 2883 01af 92050000 		.4byte	0x592
 2884 01b3 74657374 		.ascii	"testcase\000"
 2884      63617365 
 2884      00
 2885 01bc 00000000 		.4byte	0x0
 2886              		.section	.debug_aranges,"",%progbits
 2887 0000 6C000000 		.4byte	0x6c
 2888 0004 0200     		.2byte	0x2
 2889 0006 00000000 		.4byte	.Ldebug_info0
 2890 000a 04       		.byte	0x4
 2891 000b 00       		.byte	0x0
 2892 000c 0000     		.2byte	0x0
 2893 000e 0000     		.2byte	0x0
 2894 0010 00000000 		.4byte	.LFB17
 2895 0014 AA000000 		.4byte	.LFE17-.LFB17
 2896 0018 00000000 		.4byte	.LFB16
 2897 001c 08000000 		.4byte	.LFE16-.LFB16
 2898 0020 00000000 		.4byte	.LFB12
 2899 0024 08000000 		.4byte	.LFE12-.LFB12
 2900 0028 00000000 		.4byte	.LFB7
 2901 002c 08000000 		.4byte	.LFE7-.LFB7
 2902 0030 00000000 		.4byte	.LFB15
 2903 0034 68020000 		.4byte	.LFE15-.LFB15
 2904 0038 00000000 		.4byte	.LFB14
 2905 003c 24000000 		.4byte	.LFE14-.LFB14
 2906 0040 00000000 		.4byte	.LFB13
 2907 0044 16000000 		.4byte	.LFE13-.LFB13
 2908 0048 00000000 		.4byte	.LFB11
 2909 004c 88000000 		.4byte	.LFE11-.LFB11
 2910 0050 00000000 		.4byte	.LFB10
 2911 0054 06000000 		.4byte	.LFE10-.LFB10
 2912 0058 00000000 		.4byte	.LFB9
 2913 005c 06000000 		.4byte	.LFE9-.LFB9
 2914 0060 00000000 		.4byte	.LFB8
 2915 0064 06000000 		.4byte	.LFE8-.LFB8
 2916 0068 00000000 		.4byte	0x0
 2917 006c 00000000 		.4byte	0x0
 2918              		.section	.debug_ranges,"",%progbits
 2919              	.Ldebug_ranges0:
 2920 0000 00000000 		.4byte	.LFB17
 2921 0004 AA000000 		.4byte	.LFE17
 2922 0008 00000000 		.4byte	.LFB16
 2923 000c 08000000 		.4byte	.LFE16
 2924 0010 00000000 		.4byte	.LFB12
 2925 0014 08000000 		.4byte	.LFE12
 2926 0018 00000000 		.4byte	.LFB7
ARM GAS  /tmp/ccvQ8sjS.s 			page 54


 2927 001c 08000000 		.4byte	.LFE7
 2928 0020 00000000 		.4byte	.LFB15
 2929 0024 68020000 		.4byte	.LFE15
 2930 0028 00000000 		.4byte	.LFB14
 2931 002c 24000000 		.4byte	.LFE14
 2932 0030 00000000 		.4byte	.LFB13
 2933 0034 16000000 		.4byte	.LFE13
 2934 0038 00000000 		.4byte	.LFB11
 2935 003c 88000000 		.4byte	.LFE11
 2936 0040 00000000 		.4byte	.LFB10
 2937 0044 06000000 		.4byte	.LFE10
 2938 0048 00000000 		.4byte	.LFB9
 2939 004c 06000000 		.4byte	.LFE9
 2940 0050 00000000 		.4byte	.LFB8
 2941 0054 06000000 		.4byte	.LFE8
 2942 0058 00000000 		.4byte	0x0
 2943 005c 00000000 		.4byte	0x0
 2944              		.section	.debug_str,"MS",%progbits,1
 2945              	.LASF84:
 2946 0000 65767432 		.ascii	"evt2_setup\000"
 2946      5F736574 
 2946      757000
 2947              	.LASF35:
 2948 000b 705F6D73 		.ascii	"p_msg\000"
 2948      6700
 2949              	.LASF73:
 2950 0011 7264796D 		.ascii	"rdymsg\000"
 2950      736700
 2951              	.LASF92:
 2952 0018 76746C69 		.ascii	"vtlist\000"
 2952      737400
 2953              	.LASF11:
 2954 001f 6C6F6E67 		.ascii	"long long unsigned int\000"
 2954      206C6F6E 
 2954      6720756E 
 2954      7369676E 
 2954      65642069 
 2955              	.LASF74:
 2956 0036 65786974 		.ascii	"exitcode\000"
 2956      636F6465 
 2956      00
 2957              	.LASF24:
 2958 003f 705F7072 		.ascii	"p_prio\000"
 2958      696F00
 2959              	.LASF87:
 2960 0046 65767432 		.ascii	"evt2_execute\000"
 2960      5F657865 
 2960      63757465 
 2960      00
 2961              	.LASF10:
 2962 0053 6C6F6E67 		.ascii	"long long int\000"
 2962      206C6F6E 
 2962      6720696E 
 2962      7400
 2963              	.LASF1:
 2964 0061 7369676E 		.ascii	"signed char\000"
 2964      65642063 
ARM GAS  /tmp/ccvQ8sjS.s 			page 55


 2964      68617200 
 2965              	.LASF102:
 2966 006d 2F686F6D 		.ascii	"/home/stm32/Workspace/demoarm\000"
 2966      652F7374 
 2966      6D33322F 
 2966      576F726B 
 2966      73706163 
 2967              	.LASF39:
 2968 008b 705F6D70 		.ascii	"p_mpool\000"
 2968      6F6F6C00 
 2969              	.LASF63:
 2970 0093 6D5F7175 		.ascii	"m_queue\000"
 2970      65756500 
 2971              	.LASF7:
 2972 009b 6C6F6E67 		.ascii	"long int\000"
 2972      20696E74 
 2972      00
 2973              	.LASF88:
 2974 00a4 74617267 		.ascii	"target_time\000"
 2974      65745F74 
 2974      696D6500 
 2975              	.LASF13:
 2976 00b0 74737461 		.ascii	"tstate_t\000"
 2976      74655F74 
 2976      00
 2977              	.LASF97:
 2978 00b9 74657374 		.ascii	"testevt2\000"
 2978      65767432 
 2978      00
 2979              	.LASF98:
 2980 00c2 74657374 		.ascii	"testevt3\000"
 2980      65767433 
 2980      00
 2981              	.LASF26:
 2982 00cb 705F6E65 		.ascii	"p_newer\000"
 2982      77657200 
 2983              	.LASF57:
 2984 00d3 725F6E65 		.ascii	"r_newer\000"
 2984      77657200 
 2985              	.LASF42:
 2986 00db 72656761 		.ascii	"regarm_t\000"
 2986      726D5F74 
 2986      00
 2987              	.LASF48:
 2988 00e4 76745F70 		.ascii	"vt_prev\000"
 2988      72657600 
 2989              	.LASF17:
 2990 00ec 6576656E 		.ascii	"eventid_t\000"
 2990      7469645F 
 2990      7400
 2991              	.LASF70:
 2992 00f6 4576656E 		.ascii	"EventSource\000"
 2992      74536F75 
 2992      72636500 
 2993              	.LASF72:
 2994 0102 65766861 		.ascii	"evhandler_t\000"
 2994      6E646C65 
ARM GAS  /tmp/ccvQ8sjS.s 			page 56


 2994      725F7400 
 2995              	.LASF20:
 2996 010e 636E745F 		.ascii	"cnt_t\000"
 2996      7400
 2997              	.LASF0:
 2998 0114 756E7369 		.ascii	"unsigned int\000"
 2998      676E6564 
 2998      20696E74 
 2998      00
 2999              	.LASF47:
 3000 0121 76745F6E 		.ascii	"vt_next\000"
 3000      65787400 
 3001              	.LASF9:
 3002 0129 6C6F6E67 		.ascii	"long unsigned int\000"
 3002      20756E73 
 3002      69676E65 
 3002      6420696E 
 3002      7400
 3003              	.LASF81:
 3004 013b 74656172 		.ascii	"teardown\000"
 3004      646F776E 
 3004      00
 3005              	.LASF99:
 3006 0144 70617474 		.ascii	"patternevt\000"
 3006      65726E65 
 3006      767400
 3007              	.LASF79:
 3008 014f 6E616D65 		.ascii	"name\000"
 3008      00
 3009              	.LASF44:
 3010 0154 636F6E74 		.ascii	"context\000"
 3010      65787400 
 3011              	.LASF4:
 3012 015c 73686F72 		.ascii	"short unsigned int\000"
 3012      7420756E 
 3012      7369676E 
 3012      65642069 
 3012      6E7400
 3013              	.LASF101:
 3014 016f 2E2E2F6C 		.ascii	"../libs/ChibiOS_2.4.0/test/testevt.c\000"
 3014      6962732F 
 3014      43686962 
 3014      694F535F 
 3014      322E342E 
 3015              	.LASF16:
 3016 0194 6D73675F 		.ascii	"msg_t\000"
 3016      7400
 3017              	.LASF67:
 3018 019a 656C5F6E 		.ascii	"el_next\000"
 3018      65787400 
 3019              	.LASF12:
 3020 01a2 746D6F64 		.ascii	"tmode_t\000"
 3020      655F7400 
 3021              	.LASF41:
 3022 01aa 54687265 		.ascii	"ThreadsList\000"
 3022      6164734C 
 3022      69737400 
ARM GAS  /tmp/ccvQ8sjS.s 			page 57


 3023              	.LASF18:
 3024 01b6 6576656E 		.ascii	"eventmask_t\000"
 3024      746D6173 
 3024      6B5F7400 
 3025              	.LASF62:
 3026 01c2 4D757465 		.ascii	"Mutex\000"
 3026      7800
 3027              	.LASF49:
 3028 01c8 76745F74 		.ascii	"vt_time\000"
 3028      696D6500 
 3029              	.LASF85:
 3030 01d0 65767431 		.ascii	"evt1_setup\000"
 3030      5F736574 
 3030      757000
 3031              	.LASF50:
 3032 01db 76745F66 		.ascii	"vt_func\000"
 3032      756E6300 
 3033              	.LASF83:
 3034 01e3 65767433 		.ascii	"evt3_setup\000"
 3034      5F736574 
 3034      757000
 3035              	.LASF27:
 3036 01ee 705F6F6C 		.ascii	"p_older\000"
 3036      64657200 
 3037              	.LASF90:
 3038 01f6 74687265 		.ascii	"thread1\000"
 3038      61643100 
 3039              	.LASF89:
 3040 01fe 74687265 		.ascii	"thread2\000"
 3040      61643200 
 3041              	.LASF56:
 3042 0206 725F6374 		.ascii	"r_ctx\000"
 3042      7800
 3043              	.LASF40:
 3044 020c 54687265 		.ascii	"ThreadsQueue\000"
 3044      61647351 
 3044      75657565 
 3044      00
 3045              	.LASF80:
 3046 0219 73657475 		.ascii	"setup\000"
 3046      7000
 3047              	.LASF60:
 3048 021f 725F6375 		.ascii	"r_current\000"
 3048      7272656E 
 3048      7400
 3049              	.LASF58:
 3050 0229 725F6F6C 		.ascii	"r_older\000"
 3050      64657200 
 3051              	.LASF69:
 3052 0231 656C5F6D 		.ascii	"el_mask\000"
 3052      61736B00 
 3053              	.LASF14:
 3054 0239 74726566 		.ascii	"trefs_t\000"
 3054      735F7400 
 3055              	.LASF23:
 3056 0241 705F7072 		.ascii	"p_prev\000"
 3056      657600
ARM GAS  /tmp/ccvQ8sjS.s 			page 58


 3057              	.LASF82:
 3058 0248 65786563 		.ascii	"execute\000"
 3058      75746500 
 3059              	.LASF15:
 3060 0250 74707269 		.ascii	"tprio_t\000"
 3060      6F5F7400 
 3061              	.LASF6:
 3062 0258 696E7433 		.ascii	"int32_t\000"
 3062      325F7400 
 3063              	.LASF2:
 3064 0260 756E7369 		.ascii	"unsigned char\000"
 3064      676E6564 
 3064      20636861 
 3064      7200
 3065              	.LASF68:
 3066 026e 656C5F6C 		.ascii	"el_listener\000"
 3066      69737465 
 3066      6E657200 
 3067              	.LASF86:
 3068 027a 65767433 		.ascii	"evt3_execute\000"
 3068      5F657865 
 3068      63757465 
 3068      00
 3069              	.LASF37:
 3070 0287 705F6D74 		.ascii	"p_mtxlist\000"
 3070      786C6973 
 3070      7400
 3071              	.LASF3:
 3072 0291 73686F72 		.ascii	"short int\000"
 3072      7420696E 
 3072      7400
 3073              	.LASF29:
 3074 029b 705F7374 		.ascii	"p_state\000"
 3074      61746500 
 3075              	.LASF94:
 3076 02a3 74687265 		.ascii	"threads\000"
 3076      61647300 
 3077              	.LASF55:
 3078 02ab 725F7072 		.ascii	"r_prio\000"
 3078      696F00
 3079              	.LASF76:
 3080 02b2 65776D61 		.ascii	"ewmask\000"
 3080      736B00
 3081              	.LASF22:
 3082 02b9 705F6E65 		.ascii	"p_next\000"
 3082      787400
 3083              	.LASF30:
 3084 02c0 705F666C 		.ascii	"p_flags\000"
 3084      61677300 
 3085              	.LASF21:
 3086 02c8 54687265 		.ascii	"Thread\000"
 3086      616400
 3087              	.LASF78:
 3088 02cf 74657374 		.ascii	"testcase\000"
 3088      63617365 
 3088      00
 3089              	.LASF36:
ARM GAS  /tmp/ccvQ8sjS.s 			page 59


 3090 02d8 705F6570 		.ascii	"p_epending\000"
 3090      656E6469 
 3090      6E6700
 3091              	.LASF96:
 3092 02e3 74657374 		.ascii	"testevt1\000"
 3092      65767431 
 3092      00
 3093              	.LASF95:
 3094 02ec 6576686E 		.ascii	"evhndl\000"
 3094      646C00
 3095              	.LASF8:
 3096 02f3 75696E74 		.ascii	"uint32_t\000"
 3096      33325F74 
 3096      00
 3097              	.LASF54:
 3098 02fc 725F7175 		.ascii	"r_queue\000"
 3098      65756500 
 3099              	.LASF46:
 3100 0304 56697274 		.ascii	"VirtualTimer\000"
 3100      75616C54 
 3100      696D6572 
 3100      00
 3101              	.LASF77:
 3102 0311 63686172 		.ascii	"char\000"
 3102      00
 3103              	.LASF65:
 3104 0316 6D5F6E65 		.ascii	"m_next\000"
 3104      787400
 3105              	.LASF19:
 3106 031d 73797374 		.ascii	"systime_t\000"
 3106      696D655F 
 3106      7400
 3107              	.LASF38:
 3108 0327 705F7265 		.ascii	"p_realprio\000"
 3108      616C7072 
 3108      696F00
 3109              	.LASF45:
 3110 0332 76746675 		.ascii	"vtfunc_t\000"
 3110      6E635F74 
 3110      00
 3111              	.LASF32:
 3112 033b 705F7469 		.ascii	"p_time\000"
 3112      6D6500
 3113              	.LASF43:
 3114 0342 696E7463 		.ascii	"intctx\000"
 3114      747800
 3115              	.LASF34:
 3116 0349 705F6D73 		.ascii	"p_msgqueue\000"
 3116      67717565 
 3116      756500
 3117              	.LASF51:
 3118 0354 76745F70 		.ascii	"vt_par\000"
 3118      617200
 3119              	.LASF31:
 3120 035b 705F7265 		.ascii	"p_refs\000"
 3120      667300
 3121              	.LASF61:
ARM GAS  /tmp/ccvQ8sjS.s 			page 60


 3122 0362 52656164 		.ascii	"ReadyList\000"
 3122      794C6973 
 3122      7400
 3123              	.LASF93:
 3124 036c 726C6973 		.ascii	"rlist\000"
 3124      7400
 3125              	.LASF5:
 3126 0372 75696E74 		.ascii	"uint8_t\000"
 3126      385F7400 
 3127              	.LASF66:
 3128 037a 4576656E 		.ascii	"EventListener\000"
 3128      744C6973 
 3128      74656E65 
 3128      7200
 3129              	.LASF75:
 3130 0388 77746F62 		.ascii	"wtobjp\000"
 3130      6A7000
 3131              	.LASF100:
 3132 038f 474E5520 		.ascii	"GNU C 4.5.2\000"
 3132      4320342E 
 3132      352E3200 
 3133              	.LASF28:
 3134 039b 705F6E61 		.ascii	"p_name\000"
 3134      6D6500
 3135              	.LASF52:
 3136 03a2 76745F73 		.ascii	"vt_systime\000"
 3136      79737469 
 3136      6D6500
 3137              	.LASF71:
 3138 03ad 65735F6E 		.ascii	"es_next\000"
 3138      65787400 
 3139              	.LASF53:
 3140 03b5 56544C69 		.ascii	"VTList\000"
 3140      737400
 3141              	.LASF59:
 3142 03bc 725F7072 		.ascii	"r_preempt\000"
 3142      65656D70 
 3142      7400
 3143              	.LASF64:
 3144 03c6 6D5F6F77 		.ascii	"m_owner\000"
 3144      6E657200 
 3145              	.LASF91:
 3146 03ce 65767431 		.ascii	"evt1_execute\000"
 3146      5F657865 
 3146      63757465 
 3146      00
 3147              	.LASF25:
 3148 03db 705F6374 		.ascii	"p_ctx\000"
 3148      7800
 3149              	.LASF33:
 3150 03e1 705F7761 		.ascii	"p_waiting\000"
 3150      6974696E 
 3150      6700
 3151              		.ident	"GCC: (Sourcery G++ Lite 2011.03-42) 4.5.2"
ARM GAS  /tmp/ccvQ8sjS.s 			page 61


DEFINED SYMBOLS
                            *ABS*:00000000 testevt.c
     /tmp/ccvQ8sjS.s:26     .text.evt3_execute:00000000 $t
     /tmp/ccvQ8sjS.s:31     .text.evt3_execute:00000000 evt3_execute
     /tmp/ccvQ8sjS.s:136    .text.evt3_setup:00000000 $t
     /tmp/ccvQ8sjS.s:141    .text.evt3_setup:00000000 evt3_setup
     /tmp/ccvQ8sjS.s:157    .text.evt2_setup:00000000 $t
     /tmp/ccvQ8sjS.s:162    .text.evt2_setup:00000000 evt2_setup
     /tmp/ccvQ8sjS.s:178    .text.evt1_setup:00000000 $t
     /tmp/ccvQ8sjS.s:183    .text.evt1_setup:00000000 evt1_setup
     /tmp/ccvQ8sjS.s:199    .text.evt2_execute:00000000 $t
     /tmp/ccvQ8sjS.s:204    .text.evt2_execute:00000000 evt2_execute
     /tmp/ccvQ8sjS.s:514    .text.evt2_execute:00000244 $d
     /tmp/ccvQ8sjS.s:573    .text.thread1:00000000 thread1
     /tmp/ccvQ8sjS.s:532    .text.thread2:00000000 thread2
     /tmp/ccvQ8sjS.s:527    .text.thread2:00000000 $t
     /tmp/ccvQ8sjS.s:562    .text.thread2:0000001c $d
     /tmp/ccvQ8sjS.s:568    .text.thread1:00000000 $t
     /tmp/ccvQ8sjS.s:602    .text.evt1_execute:00000000 $t
     /tmp/ccvQ8sjS.s:607    .text.evt1_execute:00000000 evt1_execute
     /tmp/ccvQ8sjS.s:688    .text.evt1_execute:0000007c $d
     /tmp/ccvQ8sjS.s:695    .text.h3:00000000 $t
     /tmp/ccvQ8sjS.s:700    .text.h3:00000000 h3
     /tmp/ccvQ8sjS.s:716    .text.h2:00000000 $t
     /tmp/ccvQ8sjS.s:721    .text.h2:00000000 h2
     /tmp/ccvQ8sjS.s:737    .text.h1:00000000 $t
     /tmp/ccvQ8sjS.s:742    .text.h1:00000000 h1
     /tmp/ccvQ8sjS.s:798    .rodata.testevt1:00000000 testevt1
     /tmp/ccvQ8sjS.s:774    .rodata.testevt2:00000000 testevt2
     /tmp/ccvQ8sjS.s:816    .rodata.testevt3:00000000 testevt3
     /tmp/ccvQ8sjS.s:765    .rodata.patternevt:00000000 patternevt
     /tmp/ccvQ8sjS.s:762    .rodata.patternevt:00000000 $d
     /tmp/ccvQ8sjS.s:771    .rodata.testevt2:00000000 $d
     /tmp/ccvQ8sjS.s:780    .rodata.str1.4:00000000 $d
     /tmp/ccvQ8sjS.s:795    .rodata.testevt1:00000000 $d
     /tmp/ccvQ8sjS.s:804    .rodata.evhndl:00000000 $d
     /tmp/ccvQ8sjS.s:808    .rodata.evhndl:00000000 evhndl
     /tmp/ccvQ8sjS.s:813    .rodata.testevt3:00000000 $d
     /tmp/ccvQ8sjS.s:822    .data.es1:00000000 $d
     /tmp/ccvQ8sjS.s:826    .data.es1:00000000 es1
     /tmp/ccvQ8sjS.s:829    .data.es2:00000000 $d
     /tmp/ccvQ8sjS.s:833    .data.es2:00000000 es2
                     .debug_frame:00000010 $d
     /tmp/ccvQ8sjS.s:526    .text.evt2_execute:00000268 $t
     /tmp/ccvQ8sjS.s:567    .text.thread2:00000024 $t
     /tmp/ccvQ8sjS.s:694    .text.evt1_execute:00000088 $t

UNDEFINED SYMBOLS
chEvtWaitOneTimeout
_test_assert
chEvtWaitAnyTimeout
chEvtWaitAllTimeout
chEvtClearFlags
chEvtAddFlags
chEvtWaitOne
test_wait_tick
chThdCreateStatic
ARM GAS  /tmp/ccvQ8sjS.s 			page 62


_test_assert_time_window
test_wait_threads
chEvtWaitAny
chEvtRegisterMask
chEvtWaitAll
chEvtUnregister
rlist
wa
vtlist
threads
chEvtBroadcastFlags
chThdSleep
chEvtSignalFlags
chEvtDispatch
_test_assert_sequence
test_emit_token
