ARM GAS  /tmp/ccmmOrh2.s 			page 1


   1              		.syntax unified
   2              		.cpu cortex-m4
   3              		.eabi_attribute 27, 3
   4              		.eabi_attribute 28, 1
   5              		.fpu fpv4-sp-d16
   6              		.eabi_attribute 20, 1
   7              		.eabi_attribute 21, 1
   8              		.eabi_attribute 23, 3
   9              		.eabi_attribute 24, 1
  10              		.eabi_attribute 25, 1
  11              		.eabi_attribute 26, 1
  12              		.eabi_attribute 30, 2
  13              		.eabi_attribute 18, 4
  14              		.thumb
  15              		.file	"testmtx.c"
  22 0000 AA040000 		.text
  22      02006F01 
  22      00000201 
  22      FB0E0D00 
  22      01010101 
  23              	.Ltext0:
  24              		.cfi_sections	.debug_frame
  25              		.section	.text.mtx8_execute,"ax",%progbits
  26              		.align	2
  27              		.p2align 4,,15
  28              		.thumb
  29              		.thumb_func
  30              		.type	mtx8_execute, %function
  31              	mtx8_execute:
  32              	.LFB36:
  33              		.file 1 "../libs/ChibiOS_2.4.0/test/testmtx.c"
  34              		.loc 1 606 0
  35              		.cfi_startproc
  36              		@ args = 0, pretend = 0, frame = 0
  37              		@ frame_needed = 0, uses_anonymous_args = 0
  38 0000 F0B5     		push	{r4, r5, r6, r7, lr}
  39              	.LCFI0:
  40              		.cfi_def_cfa_offset 20
  41              		.loc 1 608 0
  42 0002 1B49     		ldr	r1, .L2
  43              		.loc 1 609 0
  44 0004 1B4E     		ldr	r6, .L2+4
  45              		.cfi_offset 14, -4
  46              		.cfi_offset 7, -8
  47              		.cfi_offset 6, -12
  48              		.cfi_offset 5, -16
  49              		.cfi_offset 4, -20
  50              		.loc 1 608 0
  51 0006 CB69     		ldr	r3, [r1, #28]
  52              		.loc 1 609 0
  53 0008 1B4A     		ldr	r2, .L2+8
ARM GAS  /tmp/ccmmOrh2.s 			page 2


  54              		.loc 1 608 0
  55 000a 9D68     		ldr	r5, [r3, #8]
  56              	.LVL0:
  57              		.loc 1 609 0
  58 000c 3068     		ldr	r0, [r6, #0]
  59 000e 1B4B     		ldr	r3, .L2+12
  60 0010 1B4C     		ldr	r4, .L2+16
  61              		.loc 1 606 0
  62 0012 83B0     		sub	sp, sp, #12
  63              	.LCFI1:
  64              		.cfi_def_cfa_offset 32
  65              		.loc 1 609 0
  66 0014 4FF49071 		mov	r1, #288
  67              	.LVL1:
  68 0018 0092     		str	r2, [sp, #0]
  69 001a 6A1C     		adds	r2, r5, #1
  70 001c FFF7FEFF 		bl	chThdCreateStatic
  71              		.loc 1 610 0
  72 0020 7768     		ldr	r7, [r6, #4]
  73              		.loc 1 609 0
  74 0022 2060     		str	r0, [r4, #0]
  75              		.loc 1 610 0
  76 0024 1748     		ldr	r0, .L2+20
  77 0026 184B     		ldr	r3, .L2+24
  78 0028 0090     		str	r0, [sp, #0]
  79 002a AA1C     		adds	r2, r5, #2
  80 002c 4FF49071 		mov	r1, #288
  81 0030 3846     		mov	r0, r7
  82 0032 FFF7FEFF 		bl	chThdCreateStatic
  83              		.loc 1 611 0
  84 0036 B668     		ldr	r6, [r6, #8]
  85 0038 144B     		ldr	r3, .L2+28
  86              		.loc 1 610 0
  87 003a 6060     		str	r0, [r4, #4]
  88              		.loc 1 611 0
  89 003c EA1C     		adds	r2, r5, #3
  90 003e 144D     		ldr	r5, .L2+32
  91              	.LVL2:
  92 0040 4FF49071 		mov	r1, #288
  93 0044 3046     		mov	r0, r6
  94 0046 0095     		str	r5, [sp, #0]
  95 0048 FFF7FEFF 		bl	chThdCreateStatic
  96              	.LVL3:
  97              		.loc 1 612 0
  98 004c 114D     		ldr	r5, .L2+36
  99              		.loc 1 611 0
 100 004e A060     		str	r0, [r4, #8]
 101              		.loc 1 612 0
 102 0050 2846     		mov	r0, r5
 103 0052 FFF7FEFF 		bl	chCondSignal
 104              		.loc 1 613 0
 105 0056 2846     		mov	r0, r5
 106 0058 FFF7FEFF 		bl	chCondSignal
 107              		.loc 1 614 0
 108 005c FFF7FEFF 		bl	test_wait_threads
 109              		.loc 1 615 0
 110 0060 0D49     		ldr	r1, .L2+40
ARM GAS  /tmp/ccmmOrh2.s 			page 3


 111 0062 0120     		movs	r0, #1
 112              		.loc 1 616 0
 113 0064 03B0     		add	sp, sp, #12
 114 0066 BDE8F040 		pop	{r4, r5, r6, r7, lr}
 115              		.loc 1 615 0
 116 006a FFF7FEBF 		b	_test_assert_sequence
 117              	.L3:
 118 006e 00BF     		.align	2
 119              	.L2:
 120 0070 00000000 		.word	rlist
 121 0074 00000000 		.word	wa
 122 0078 00000000 		.word	.LC0
 123 007c 00000000 		.word	thread11
 124 0080 00000000 		.word	threads
 125 0084 04000000 		.word	.LC1
 126 0088 00000000 		.word	thread10
 127 008c 00000000 		.word	thread12
 128 0090 08000000 		.word	.LC2
 129 0094 00000000 		.word	.LANCHOR0
 130 0098 0C000000 		.word	.LC3
 131              		.cfi_endproc
 132              	.LFE36:
 133              		.size	mtx8_execute, .-mtx8_execute
 134 009c AFF30080 		.section	.text.thread12,"ax",%progbits
 135              		.align	2
 136              		.p2align 4,,15
 137              		.thumb
 138              		.thumb_func
 139              		.type	thread12, %function
 140              	thread12:
 141              	.LFB35:
 142              		.loc 1 598 0
 143              		.cfi_startproc
 144              		@ args = 0, pretend = 0, frame = 0
 145              		@ frame_needed = 0, uses_anonymous_args = 0
 146              	.LVL4:
 147 0000 10B5     		push	{r4, lr}
 148              	.LCFI2:
 149              		.cfi_def_cfa_offset 8
 150              		.loc 1 598 0
 151 0002 0446     		mov	r4, r0
 152              		.cfi_offset 14, -4
 153              		.cfi_offset 4, -8
 154              		.loc 1 600 0
 155 0004 0448     		ldr	r0, .L5
 156              	.LVL5:
 157 0006 FFF7FEFF 		bl	chMtxLock
 158              		.loc 1 601 0
 159 000a 2078     		ldrb	r0, [r4, #0]	@ zero_extendqisi2
 160 000c FFF7FEFF 		bl	test_emit_token
 161              		.loc 1 602 0
 162 0010 FFF7FEFF 		bl	chMtxUnlock
 163              		.loc 1 604 0
 164 0014 0020     		movs	r0, #0
 165 0016 10BD     		pop	{r4, pc}
 166              	.L6:
 167              		.align	2
ARM GAS  /tmp/ccmmOrh2.s 			page 4


 168              	.L5:
 169 0018 00000000 		.word	.LANCHOR1
 170              		.cfi_endproc
 171              	.LFE35:
 172              		.size	thread12, .-thread12
 173 001c AFF30080 		.section	.text.thread1,"ax",%progbits
 174              		.align	2
 175              		.p2align 4,,15
 176              		.thumb
 177              		.thumb_func
 178              		.type	thread1, %function
 179              	thread1:
 180              	.LFB8:
 181              		.loc 1 100 0
 182              		.cfi_startproc
 183              		@ args = 0, pretend = 0, frame = 0
 184              		@ frame_needed = 0, uses_anonymous_args = 0
 185              	.LVL6:
 186 0000 10B5     		push	{r4, lr}
 187              	.LCFI3:
 188              		.cfi_def_cfa_offset 8
 189              		.loc 1 100 0
 190 0002 0446     		mov	r4, r0
 191              		.cfi_offset 14, -4
 192              		.cfi_offset 4, -8
 193              		.loc 1 102 0
 194 0004 0448     		ldr	r0, .L8
 195              	.LVL7:
 196 0006 FFF7FEFF 		bl	chMtxLock
 197              		.loc 1 103 0
 198 000a 2078     		ldrb	r0, [r4, #0]	@ zero_extendqisi2
 199 000c FFF7FEFF 		bl	test_emit_token
 200              		.loc 1 104 0
 201 0010 FFF7FEFF 		bl	chMtxUnlock
 202              		.loc 1 106 0
 203 0014 0020     		movs	r0, #0
 204 0016 10BD     		pop	{r4, pc}
 205              	.L9:
 206              		.align	2
 207              	.L8:
 208 0018 00000000 		.word	.LANCHOR2
 209              		.cfi_endproc
 210              	.LFE8:
 211              		.size	thread1, .-thread1
 212 001c AFF30080 		.section	.text.thread10,"ax",%progbits
 213              		.align	2
 214              		.p2align 4,,15
 215              		.thumb
 216              		.thumb_func
 217              		.type	thread10, %function
 218              	thread10:
 219              	.LFB29:
 220              		.loc 1 495 0
 221              		.cfi_startproc
 222              		@ args = 0, pretend = 0, frame = 0
 223              		@ frame_needed = 0, uses_anonymous_args = 0
 224              	.LVL8:
ARM GAS  /tmp/ccmmOrh2.s 			page 5


 225 0000 10B5     		push	{r4, lr}
 226              	.LCFI4:
 227              		.cfi_def_cfa_offset 8
 228              		.loc 1 495 0
 229 0002 0446     		mov	r4, r0
 230              		.cfi_offset 14, -4
 231              		.cfi_offset 4, -8
 232              		.loc 1 497 0
 233 0004 0648     		ldr	r0, .L11
 234              	.LVL9:
 235 0006 FFF7FEFF 		bl	chMtxLock
 236              		.loc 1 498 0
 237 000a 0648     		ldr	r0, .L11+4
 238 000c FFF7FEFF 		bl	chCondWait
 239              		.loc 1 499 0
 240 0010 2078     		ldrb	r0, [r4, #0]	@ zero_extendqisi2
 241 0012 FFF7FEFF 		bl	test_emit_token
 242              		.loc 1 500 0
 243 0016 FFF7FEFF 		bl	chMtxUnlock
 244              		.loc 1 502 0
 245 001a 0020     		movs	r0, #0
 246 001c 10BD     		pop	{r4, pc}
 247              	.L12:
 248 001e 00BF     		.align	2
 249              	.L11:
 250 0020 00000000 		.word	.LANCHOR2
 251 0024 00000000 		.word	.LANCHOR0
 252              		.cfi_endproc
 253              	.LFE29:
 254              		.size	thread10, .-thread10
 255 0028 AFF30080 		.section	.text.thread11,"ax",%progbits
 255      AFF30080 
 256              		.align	2
 257              		.p2align 4,,15
 258              		.thumb
 259              		.thumb_func
 260              		.type	thread11, %function
 261              	thread11:
 262              	.LFB34:
 263              		.loc 1 583 0
 264              		.cfi_startproc
 265              		@ args = 0, pretend = 0, frame = 0
 266              		@ frame_needed = 0, uses_anonymous_args = 0
 267              	.LVL10:
 268 0000 10B5     		push	{r4, lr}
 269              	.LCFI5:
 270              		.cfi_def_cfa_offset 8
 271              		.loc 1 583 0
 272 0002 0446     		mov	r4, r0
 273              		.cfi_offset 14, -4
 274              		.cfi_offset 4, -8
 275              		.loc 1 585 0
 276 0004 0948     		ldr	r0, .L14
 277              	.LVL11:
 278 0006 FFF7FEFF 		bl	chMtxLock
 279              		.loc 1 586 0
 280 000a 0948     		ldr	r0, .L14+4
ARM GAS  /tmp/ccmmOrh2.s 			page 6


 281 000c FFF7FEFF 		bl	chMtxLock
 282              		.loc 1 588 0
 283 0010 4FF0FF31 		mov	r1, #-1
 284 0014 0748     		ldr	r0, .L14+8
 285 0016 FFF7FEFF 		bl	chCondWaitTimeout
 286              		.loc 1 592 0
 287 001a 2078     		ldrb	r0, [r4, #0]	@ zero_extendqisi2
 288 001c FFF7FEFF 		bl	test_emit_token
 289              		.loc 1 593 0
 290 0020 FFF7FEFF 		bl	chMtxUnlock
 291              		.loc 1 594 0
 292 0024 FFF7FEFF 		bl	chMtxUnlock
 293              		.loc 1 596 0
 294 0028 0020     		movs	r0, #0
 295 002a 10BD     		pop	{r4, pc}
 296              	.L15:
 297              		.align	2
 298              	.L14:
 299 002c 00000000 		.word	.LANCHOR1
 300 0030 00000000 		.word	.LANCHOR2
 301 0034 00000000 		.word	.LANCHOR0
 302              		.cfi_endproc
 303              	.LFE34:
 304              		.size	thread11, .-thread11
 305 0038 AFF30080 		.section	.text.mtx8_setup,"ax",%progbits
 305      AFF30080 
 306              		.align	2
 307              		.p2align 4,,15
 308              		.thumb
 309              		.thumb_func
 310              		.type	mtx8_setup, %function
 311              	mtx8_setup:
 312              	.LFB33:
 313              		.loc 1 576 0
 314              		.cfi_startproc
 315              		@ args = 0, pretend = 0, frame = 0
 316              		@ frame_needed = 0, uses_anonymous_args = 0
 317 0000 10B5     		push	{r4, lr}
 318              	.LCFI6:
 319              		.cfi_def_cfa_offset 8
 320              		.loc 1 578 0
 321 0002 0548     		ldr	r0, .L17
 322              		.cfi_offset 14, -4
 323              		.cfi_offset 4, -8
 324 0004 FFF7FEFF 		bl	chCondInit
 325              		.loc 1 579 0
 326 0008 0448     		ldr	r0, .L17+4
 327 000a FFF7FEFF 		bl	chMtxInit
 328              		.loc 1 580 0
 329 000e 0448     		ldr	r0, .L17+8
 330              		.loc 1 581 0
 331 0010 BDE81040 		pop	{r4, lr}
 332              		.loc 1 580 0
 333 0014 FFF7FEBF 		b	chMtxInit
 334              	.L18:
 335              		.align	2
 336              	.L17:
ARM GAS  /tmp/ccmmOrh2.s 			page 7


 337 0018 00000000 		.word	.LANCHOR0
 338 001c 00000000 		.word	.LANCHOR2
 339 0020 00000000 		.word	.LANCHOR1
 340              		.cfi_endproc
 341              	.LFE33:
 342              		.size	mtx8_setup, .-mtx8_setup
 343 0024 AFF30080 		.section	.text.mtx7_setup,"ax",%progbits
 343      AFF30080 
 343      AFF30080 
 344              		.align	2
 345              		.p2align 4,,15
 346              		.thumb
 347              		.thumb_func
 348              		.type	mtx7_setup, %function
 349              	mtx7_setup:
 350              	.LFB31:
 351              		.loc 1 541 0
 352              		.cfi_startproc
 353              		@ args = 0, pretend = 0, frame = 0
 354              		@ frame_needed = 0, uses_anonymous_args = 0
 355 0000 10B5     		push	{r4, lr}
 356              	.LCFI7:
 357              		.cfi_def_cfa_offset 8
 358              		.loc 1 543 0
 359 0002 0448     		ldr	r0, .L20
 360              		.cfi_offset 14, -4
 361              		.cfi_offset 4, -8
 362 0004 FFF7FEFF 		bl	chCondInit
 363              		.loc 1 544 0
 364 0008 0348     		ldr	r0, .L20+4
 365              		.loc 1 545 0
 366 000a BDE81040 		pop	{r4, lr}
 367              		.loc 1 544 0
 368 000e FFF7FEBF 		b	chMtxInit
 369              	.L21:
 370 0012 00BF     		.align	2
 371              	.L20:
 372 0014 00000000 		.word	.LANCHOR0
 373 0018 00000000 		.word	.LANCHOR2
 374              		.cfi_endproc
 375              	.LFE31:
 376              		.size	mtx7_setup, .-mtx7_setup
 377 001c AFF30080 		.section	.text.mtx6_setup,"ax",%progbits
 378              		.align	2
 379              		.p2align 4,,15
 380              		.thumb
 381              		.thumb_func
 382              		.type	mtx6_setup, %function
 383              	mtx6_setup:
 384              	.LFB28:
 385              		.loc 1 489 0
 386              		.cfi_startproc
 387              		@ args = 0, pretend = 0, frame = 0
 388              		@ frame_needed = 0, uses_anonymous_args = 0
 389 0000 10B5     		push	{r4, lr}
 390              	.LCFI8:
 391              		.cfi_def_cfa_offset 8
ARM GAS  /tmp/ccmmOrh2.s 			page 8


 392              		.loc 1 491 0
 393 0002 0448     		ldr	r0, .L23
 394              		.cfi_offset 14, -4
 395              		.cfi_offset 4, -8
 396 0004 FFF7FEFF 		bl	chCondInit
 397              		.loc 1 492 0
 398 0008 0348     		ldr	r0, .L23+4
 399              		.loc 1 493 0
 400 000a BDE81040 		pop	{r4, lr}
 401              		.loc 1 492 0
 402 000e FFF7FEBF 		b	chMtxInit
 403              	.L24:
 404 0012 00BF     		.align	2
 405              	.L23:
 406 0014 00000000 		.word	.LANCHOR0
 407 0018 00000000 		.word	.LANCHOR2
 408              		.cfi_endproc
 409              	.LFE28:
 410              		.size	mtx6_setup, .-mtx6_setup
 411 001c AFF30080 		.section	.text.mtx5_setup,"ax",%progbits
 412              		.align	2
 413              		.p2align 4,,15
 414              		.thumb
 415              		.thumb_func
 416              		.type	mtx5_setup, %function
 417              	mtx5_setup:
 418              	.LFB26:
 419              		.loc 1 439 0
 420              		.cfi_startproc
 421              		@ args = 0, pretend = 0, frame = 0
 422              		@ frame_needed = 0, uses_anonymous_args = 0
 423              		@ link register save eliminated.
 424              		.loc 1 441 0
 425 0000 0148     		ldr	r0, .L26
 426              		.loc 1 442 0
 427              		.loc 1 441 0
 428 0002 FFF7FEBF 		b	chMtxInit
 429              	.L27:
 430 0006 00BF     		.align	2
 431              	.L26:
 432 0008 00000000 		.word	.LANCHOR2
 433              		.cfi_endproc
 434              	.LFE26:
 435              		.size	mtx5_setup, .-mtx5_setup
 436 000c AFF30080 		.section	.text.mtx4_setup,"ax",%progbits
 437              		.align	2
 438              		.p2align 4,,15
 439              		.thumb
 440              		.thumb_func
 441              		.type	mtx4_setup, %function
 442              	mtx4_setup:
 443              	.LFB22:
 444              		.loc 1 352 0
 445              		.cfi_startproc
 446              		@ args = 0, pretend = 0, frame = 0
 447              		@ frame_needed = 0, uses_anonymous_args = 0
 448 0000 10B5     		push	{r4, lr}
ARM GAS  /tmp/ccmmOrh2.s 			page 9


 449              	.LCFI9:
 450              		.cfi_def_cfa_offset 8
 451              		.loc 1 354 0
 452 0002 0448     		ldr	r0, .L29
 453              		.cfi_offset 14, -4
 454              		.cfi_offset 4, -8
 455 0004 FFF7FEFF 		bl	chMtxInit
 456              		.loc 1 355 0
 457 0008 0348     		ldr	r0, .L29+4
 458              		.loc 1 356 0
 459 000a BDE81040 		pop	{r4, lr}
 460              		.loc 1 355 0
 461 000e FFF7FEBF 		b	chMtxInit
 462              	.L30:
 463 0012 00BF     		.align	2
 464              	.L29:
 465 0014 00000000 		.word	.LANCHOR2
 466 0018 00000000 		.word	.LANCHOR1
 467              		.cfi_endproc
 468              	.LFE22:
 469              		.size	mtx4_setup, .-mtx4_setup
 470 001c AFF30080 		.section	.text.mtx3_setup,"ax",%progbits
 471              		.align	2
 472              		.p2align 4,,15
 473              		.thumb
 474              		.thumb_func
 475              		.type	mtx3_setup, %function
 476              	mtx3_setup:
 477              	.LFB15:
 478              		.loc 1 252 0
 479              		.cfi_startproc
 480              		@ args = 0, pretend = 0, frame = 0
 481              		@ frame_needed = 0, uses_anonymous_args = 0
 482 0000 10B5     		push	{r4, lr}
 483              	.LCFI10:
 484              		.cfi_def_cfa_offset 8
 485              		.loc 1 254 0
 486 0002 0448     		ldr	r0, .L32
 487              		.cfi_offset 14, -4
 488              		.cfi_offset 4, -8
 489 0004 FFF7FEFF 		bl	chMtxInit
 490              		.loc 1 255 0
 491 0008 0348     		ldr	r0, .L32+4
 492              		.loc 1 256 0
 493 000a BDE81040 		pop	{r4, lr}
 494              		.loc 1 255 0
 495 000e FFF7FEBF 		b	chMtxInit
 496              	.L33:
 497 0012 00BF     		.align	2
 498              	.L32:
 499 0014 00000000 		.word	.LANCHOR2
 500 0018 00000000 		.word	.LANCHOR1
 501              		.cfi_endproc
 502              	.LFE15:
 503              		.size	mtx3_setup, .-mtx3_setup
 504 001c AFF30080 		.section	.text.mtx2_setup,"ax",%progbits
 505              		.align	2
ARM GAS  /tmp/ccmmOrh2.s 			page 10


 506              		.p2align 4,,15
 507              		.thumb
 508              		.thumb_func
 509              		.type	mtx2_setup, %function
 510              	mtx2_setup:
 511              	.LFB10:
 512              		.loc 1 162 0
 513              		.cfi_startproc
 514              		@ args = 0, pretend = 0, frame = 0
 515              		@ frame_needed = 0, uses_anonymous_args = 0
 516              		@ link register save eliminated.
 517              		.loc 1 164 0
 518 0000 0148     		ldr	r0, .L35
 519              		.loc 1 165 0
 520              		.loc 1 164 0
 521 0002 FFF7FEBF 		b	chMtxInit
 522              	.L36:
 523 0006 00BF     		.align	2
 524              	.L35:
 525 0008 00000000 		.word	.LANCHOR2
 526              		.cfi_endproc
 527              	.LFE10:
 528              		.size	mtx2_setup, .-mtx2_setup
 529 000c AFF30080 		.section	.text.mtx1_setup,"ax",%progbits
 530              		.align	2
 531              		.p2align 4,,15
 532              		.thumb
 533              		.thumb_func
 534              		.type	mtx1_setup, %function
 535              	mtx1_setup:
 536              	.LFB7:
 537              		.loc 1 95 0
 538              		.cfi_startproc
 539              		@ args = 0, pretend = 0, frame = 0
 540              		@ frame_needed = 0, uses_anonymous_args = 0
 541              		@ link register save eliminated.
 542              		.loc 1 97 0
 543 0000 0148     		ldr	r0, .L38
 544              		.loc 1 98 0
 545              		.loc 1 97 0
 546 0002 FFF7FEBF 		b	chMtxInit
 547              	.L39:
 548 0006 00BF     		.align	2
 549              	.L38:
 550 0008 00000000 		.word	.LANCHOR2
 551              		.cfi_endproc
 552              	.LFE7:
 553              		.size	mtx1_setup, .-mtx1_setup
 554 000c AFF30080 		.section	.text.mtx7_execute,"ax",%progbits
 555              		.align	2
 556              		.p2align 4,,15
 557              		.thumb
 558              		.thumb_func
 559              		.type	mtx7_execute, %function
 560              	mtx7_execute:
 561              	.LFB32:
 562              		.loc 1 547 0
ARM GAS  /tmp/ccmmOrh2.s 			page 11


 563              		.cfi_startproc
 564              		@ args = 0, pretend = 0, frame = 0
 565              		@ frame_needed = 0, uses_anonymous_args = 0
 566 0000 F0B5     		push	{r4, r5, r6, r7, lr}
 567              	.LCFI11:
 568              		.cfi_def_cfa_offset 20
 569              		.loc 1 549 0
 570 0002 2949     		ldr	r1, .L41
 571              		.loc 1 550 0
 572 0004 294D     		ldr	r5, .L41+4
 573              		.cfi_offset 14, -4
 574              		.cfi_offset 7, -8
 575              		.cfi_offset 6, -12
 576              		.cfi_offset 5, -16
 577              		.cfi_offset 4, -20
 578              		.loc 1 549 0
 579 0006 C869     		ldr	r0, [r1, #28]
 580              		.loc 1 550 0
 581 0008 294F     		ldr	r7, .L41+8
 582              		.loc 1 549 0
 583 000a 8668     		ldr	r6, [r0, #8]
 584              	.LVL12:
 585              		.loc 1 550 0
 586 000c 294B     		ldr	r3, .L41+12
 587 000e 3868     		ldr	r0, [r7, #0]
 588 0010 294C     		ldr	r4, .L41+16
 589              		.loc 1 547 0
 590 0012 83B0     		sub	sp, sp, #12
 591              	.LCFI12:
 592              		.cfi_def_cfa_offset 32
 593              		.loc 1 550 0
 594 0014 721C     		adds	r2, r6, #1
 595 0016 0093     		str	r3, [sp, #0]
 596 0018 4FF49071 		mov	r1, #288
 597              	.LVL13:
 598 001c 2B46     		mov	r3, r5
 599 001e FFF7FEFF 		bl	chThdCreateStatic
 600              		.loc 1 551 0
 601 0022 D7F804C0 		ldr	ip, [r7, #4]
 602 0026 DFF8A0E0 		ldr	lr, .L41+32
 603              		.loc 1 550 0
 604 002a 2060     		str	r0, [r4, #0]
 605              		.loc 1 551 0
 606 002c B21C     		adds	r2, r6, #2
 607 002e 2B46     		mov	r3, r5
 608 0030 4FF49071 		mov	r1, #288
 609 0034 6046     		mov	r0, ip
 610 0036 CDF800E0 		str	lr, [sp, #0]
 611 003a FFF7FEFF 		bl	chThdCreateStatic
 612              		.loc 1 552 0
 613 003e D7F808C0 		ldr	ip, [r7, #8]
 614 0042 DFF888E0 		ldr	lr, .L41+36
 615              		.loc 1 551 0
 616 0046 6060     		str	r0, [r4, #4]
 617              		.loc 1 552 0
 618 0048 F21C     		adds	r2, r6, #3
 619 004a 2B46     		mov	r3, r5
ARM GAS  /tmp/ccmmOrh2.s 			page 12


 620 004c 4FF49071 		mov	r1, #288
 621 0050 6046     		mov	r0, ip
 622 0052 CDF800E0 		str	lr, [sp, #0]
 623 0056 FFF7FEFF 		bl	chThdCreateStatic
 624              		.loc 1 553 0
 625 005a D7F80CC0 		ldr	ip, [r7, #12]
 626 005e DFF870E0 		ldr	lr, .L41+40
 627              		.loc 1 552 0
 628 0062 A060     		str	r0, [r4, #8]
 629              		.loc 1 553 0
 630 0064 321D     		adds	r2, r6, #4
 631 0066 6046     		mov	r0, ip
 632 0068 2B46     		mov	r3, r5
 633 006a 4FF49071 		mov	r1, #288
 634 006e CDF800E0 		str	lr, [sp, #0]
 635 0072 FFF7FEFF 		bl	chThdCreateStatic
 636              		.loc 1 554 0
 637 0076 3F69     		ldr	r7, [r7, #16]
 638              		.loc 1 553 0
 639 0078 E060     		str	r0, [r4, #12]
 640              		.loc 1 554 0
 641 007a 2B46     		mov	r3, r5
 642 007c 0F4D     		ldr	r5, .L41+20
 643 007e 4FF49071 		mov	r1, #288
 644 0082 721D     		adds	r2, r6, #5
 645 0084 3846     		mov	r0, r7
 646 0086 0095     		str	r5, [sp, #0]
 647 0088 FFF7FEFF 		bl	chThdCreateStatic
 648 008c 2061     		str	r0, [r4, #16]
 649              		.loc 1 555 0
 650 008e 0C48     		ldr	r0, .L41+24
 651 0090 FFF7FEFF 		bl	chCondBroadcast
 652              		.loc 1 556 0
 653 0094 FFF7FEFF 		bl	test_wait_threads
 654              		.loc 1 557 0
 655 0098 0A49     		ldr	r1, .L41+28
 656 009a 0120     		movs	r0, #1
 657              		.loc 1 558 0
 658 009c 03B0     		add	sp, sp, #12
 659 009e BDE8F040 		pop	{r4, r5, r6, r7, lr}
 660              		.loc 1 557 0
 661 00a2 FFF7FEBF 		b	_test_assert_sequence
 662              	.L42:
 663 00a6 00BF     		.align	2
 664              	.L41:
 665 00a8 00000000 		.word	rlist
 666 00ac 00000000 		.word	thread10
 667 00b0 00000000 		.word	wa
 668 00b4 10000000 		.word	.LC4
 669 00b8 00000000 		.word	threads
 670 00bc 00000000 		.word	.LC0
 671 00c0 00000000 		.word	.LANCHOR0
 672 00c4 18000000 		.word	.LC6
 673 00c8 14000000 		.word	.LC5
 674 00cc 04000000 		.word	.LC1
 675 00d0 08000000 		.word	.LC2
 676              		.cfi_endproc
ARM GAS  /tmp/ccmmOrh2.s 			page 13


 677              	.LFE32:
 678              		.size	mtx7_execute, .-mtx7_execute
 679 00d4 AFF30080 		.section	.text.mtx6_execute,"ax",%progbits
 679      AFF30080 
 679      AFF30080 
 680              		.align	2
 681              		.p2align 4,,15
 682              		.thumb
 683              		.thumb_func
 684              		.type	mtx6_execute, %function
 685              	mtx6_execute:
 686              	.LFB30:
 687              		.loc 1 504 0
 688              		.cfi_startproc
 689              		@ args = 0, pretend = 0, frame = 0
 690              		@ frame_needed = 0, uses_anonymous_args = 0
 691 0000 F0B5     		push	{r4, r5, r6, r7, lr}
 692              	.LCFI13:
 693              		.cfi_def_cfa_offset 20
 694              		.loc 1 506 0
 695 0002 324E     		ldr	r6, .L44
 696              		.cfi_offset 14, -4
 697              		.cfi_offset 7, -8
 698              		.cfi_offset 6, -12
 699              		.cfi_offset 5, -16
 700              		.cfi_offset 4, -20
 701              		.loc 1 507 0
 702 0004 324F     		ldr	r7, .L44+4
 703              		.loc 1 506 0
 704 0006 F069     		ldr	r0, [r6, #28]
 705              		.loc 1 507 0
 706 0008 324B     		ldr	r3, .L44+8
 707              		.loc 1 506 0
 708 000a 8568     		ldr	r5, [r0, #8]
 709              	.LVL14:
 710              		.loc 1 507 0
 711 000c 324E     		ldr	r6, .L44+12
 712              	.LVL15:
 713 000e 3868     		ldr	r0, [r7, #0]
 714              	.LVL16:
 715 0010 324C     		ldr	r4, .L44+16
 716              		.loc 1 504 0
 717 0012 83B0     		sub	sp, sp, #12
 718              	.LCFI14:
 719              		.cfi_def_cfa_offset 32
 720              		.loc 1 507 0
 721 0014 6A1C     		adds	r2, r5, #1
 722 0016 0093     		str	r3, [sp, #0]
 723 0018 4FF49071 		mov	r1, #288
 724 001c 3346     		mov	r3, r6
 725 001e FFF7FEFF 		bl	chThdCreateStatic
 726              		.loc 1 508 0
 727 0022 7968     		ldr	r1, [r7, #4]
 728 0024 DFF8C4E0 		ldr	lr, .L44+32
 729              		.loc 1 507 0
 730 0028 2060     		str	r0, [r4, #0]
 731              		.loc 1 508 0
ARM GAS  /tmp/ccmmOrh2.s 			page 14


 732 002a AA1C     		adds	r2, r5, #2
 733 002c 3346     		mov	r3, r6
 734 002e 0846     		mov	r0, r1
 735 0030 4FF49071 		mov	r1, #288
 736 0034 CDF800E0 		str	lr, [sp, #0]
 737 0038 FFF7FEFF 		bl	chThdCreateStatic
 738              		.loc 1 509 0
 739 003c B968     		ldr	r1, [r7, #8]
 740 003e DFF8B0C0 		ldr	ip, .L44+36
 741              		.loc 1 508 0
 742 0042 6060     		str	r0, [r4, #4]
 743              		.loc 1 509 0
 744 0044 EA1C     		adds	r2, r5, #3
 745 0046 3346     		mov	r3, r6
 746 0048 0846     		mov	r0, r1
 747 004a 4FF49071 		mov	r1, #288
 748 004e CDF800C0 		str	ip, [sp, #0]
 749 0052 FFF7FEFF 		bl	chThdCreateStatic
 750              		.loc 1 510 0
 751 0056 F968     		ldr	r1, [r7, #12]
 752 0058 DFF898E0 		ldr	lr, .L44+40
 753              		.loc 1 509 0
 754 005c A060     		str	r0, [r4, #8]
 755              		.loc 1 510 0
 756 005e 2A1D     		adds	r2, r5, #4
 757 0060 3346     		mov	r3, r6
 758 0062 0846     		mov	r0, r1
 759 0064 4FF49071 		mov	r1, #288
 760 0068 CDF800E0 		str	lr, [sp, #0]
 761 006c FFF7FEFF 		bl	chThdCreateStatic
 762              		.loc 1 511 0
 763 0070 3A69     		ldr	r2, [r7, #16]
 764              		.loc 1 510 0
 765 0072 E060     		str	r0, [r4, #12]
 766              		.loc 1 511 0
 767 0074 1046     		mov	r0, r2
 768 0076 6A1D     		adds	r2, r5, #5
 769 0078 194D     		ldr	r5, .L44+20
 770              	.LVL17:
 771 007a 3346     		mov	r3, r6
 772 007c 4FF49071 		mov	r1, #288
 773 0080 0095     		str	r5, [sp, #0]
 774 0082 FFF7FEFF 		bl	chThdCreateStatic
 775              	.LVL18:
 776              	.LBB2:
 777              		.loc 1 512 0
 778 0086 2023     		movs	r3, #32
 779              	.LVL19:
 780              	.LBE2:
 781              		.loc 1 511 0
 782 0088 2061     		str	r0, [r4, #16]
 783              	.LBB3:
 784              		.loc 1 512 0
 785              	@ 512 "../libs/ChibiOS_2.4.0/test/testmtx.c" 1
 786 008a 83F31188 		msr     BASEPRI, r3
 787              	@ 0 "" 2
 788              	.LVL20:
ARM GAS  /tmp/ccmmOrh2.s 			page 15


 789              		.thumb
 790              	.LBE3:
 791              		.loc 1 513 0
 792 008e 154C     		ldr	r4, .L44+24
 793 0090 2046     		mov	r0, r4
 794 0092 FFF7FEFF 		bl	chCondSignalI
 795              	.LVL21:
 796              		.loc 1 514 0
 797 0096 2046     		mov	r0, r4
 798 0098 FFF7FEFF 		bl	chCondSignalI
 799              		.loc 1 515 0
 800 009c 2046     		mov	r0, r4
 801 009e FFF7FEFF 		bl	chCondSignalI
 802              		.loc 1 516 0
 803 00a2 2046     		mov	r0, r4
 804 00a4 FFF7FEFF 		bl	chCondSignalI
 805              		.loc 1 517 0
 806 00a8 2046     		mov	r0, r4
 807 00aa FFF7FEFF 		bl	chCondSignalI
 808              		.loc 1 518 0
 809 00ae FFF7FEFF 		bl	chSchRescheduleS
 810              	.LBB4:
 811              		.loc 1 519 0
 812 00b2 0023     		movs	r3, #0
 813              	.LVL22:
 814              	@ 519 "../libs/ChibiOS_2.4.0/test/testmtx.c" 1
 815 00b4 83F31188 		msr     BASEPRI, r3
 816              	@ 0 "" 2
 817              	.LVL23:
 818              		.thumb
 819              	.LBE4:
 820              		.loc 1 520 0
 821 00b8 FFF7FEFF 		bl	test_wait_threads
 822              	.LVL24:
 823              		.loc 1 521 0
 824 00bc 0A49     		ldr	r1, .L44+28
 825 00be 0120     		movs	r0, #1
 826              		.loc 1 522 0
 827 00c0 03B0     		add	sp, sp, #12
 828 00c2 BDE8F040 		pop	{r4, r5, r6, r7, lr}
 829              		.loc 1 521 0
 830 00c6 FFF7FEBF 		b	_test_assert_sequence
 831              	.L45:
 832 00ca 00BF     		.align	2
 833              	.L44:
 834 00cc 00000000 		.word	rlist
 835 00d0 00000000 		.word	wa
 836 00d4 10000000 		.word	.LC4
 837 00d8 00000000 		.word	thread10
 838 00dc 00000000 		.word	threads
 839 00e0 00000000 		.word	.LC0
 840 00e4 00000000 		.word	.LANCHOR0
 841 00e8 18000000 		.word	.LC6
 842 00ec 14000000 		.word	.LC5
 843 00f0 04000000 		.word	.LC1
 844 00f4 08000000 		.word	.LC2
 845              		.cfi_endproc
ARM GAS  /tmp/ccmmOrh2.s 			page 16


 846              	.LFE30:
 847              		.size	mtx6_execute, .-mtx6_execute
 848 00f8 AFF30080 		.section	.text.mtx1_execute,"ax",%progbits
 848      AFF30080 
 849              		.align	2
 850              		.p2align 4,,15
 851              		.thumb
 852              		.thumb_func
 853              		.type	mtx1_execute, %function
 854              	mtx1_execute:
 855              	.LFB9:
 856              		.loc 1 108 0
 857              		.cfi_startproc
 858              		@ args = 0, pretend = 0, frame = 0
 859              		@ frame_needed = 0, uses_anonymous_args = 0
 860 0000 F0B5     		push	{r4, r5, r6, r7, lr}
 861              	.LCFI15:
 862              		.cfi_def_cfa_offset 20
 863              		.loc 1 110 0
 864 0002 2C4F     		ldr	r7, .L50
 865              		.cfi_offset 14, -4
 866              		.cfi_offset 7, -8
 867              		.cfi_offset 6, -12
 868              		.cfi_offset 5, -16
 869              		.cfi_offset 4, -20
 870              		.loc 1 111 0
 871 0004 2C48     		ldr	r0, .L50+4
 872              		.loc 1 110 0
 873 0006 FC69     		ldr	r4, [r7, #28]
 874              		.loc 1 112 0
 875 0008 2C4E     		ldr	r6, .L50+8
 876              		.loc 1 110 0
 877 000a A468     		ldr	r4, [r4, #8]
 878              	.LVL25:
 879              		.loc 1 112 0
 880 000c 2C4D     		ldr	r5, .L50+12
 881              		.loc 1 108 0
 882 000e 83B0     		sub	sp, sp, #12
 883              	.LCFI16:
 884              		.cfi_def_cfa_offset 32
 885              		.loc 1 111 0
 886 0010 FFF7FEFF 		bl	chMtxLock
 887              	.LVL26:
 888              		.loc 1 112 0
 889 0014 2B49     		ldr	r1, .L50+16
 890 0016 3068     		ldr	r0, [r6, #0]
 891 0018 2B4B     		ldr	r3, .L50+20
 892 001a 0091     		str	r1, [sp, #0]
 893 001c 621C     		adds	r2, r4, #1
 894 001e 4FF49071 		mov	r1, #288
 895 0022 FFF7FEFF 		bl	chThdCreateStatic
 896              		.loc 1 113 0
 897 0026 D6F804E0 		ldr	lr, [r6, #4]
 898              		.loc 1 112 0
 899 002a 2860     		str	r0, [r5, #0]
 900              		.loc 1 113 0
 901 002c 2748     		ldr	r0, .L50+24
ARM GAS  /tmp/ccmmOrh2.s 			page 17


 902 002e 264B     		ldr	r3, .L50+20
 903 0030 0090     		str	r0, [sp, #0]
 904 0032 A21C     		adds	r2, r4, #2
 905 0034 7046     		mov	r0, lr
 906 0036 4FF49071 		mov	r1, #288
 907 003a FFF7FEFF 		bl	chThdCreateStatic
 908              		.loc 1 114 0
 909 003e D6F808C0 		ldr	ip, [r6, #8]
 910              		.loc 1 113 0
 911 0042 6860     		str	r0, [r5, #4]
 912              		.loc 1 114 0
 913 0044 2248     		ldr	r0, .L50+28
 914 0046 204B     		ldr	r3, .L50+20
 915 0048 0090     		str	r0, [sp, #0]
 916 004a E21C     		adds	r2, r4, #3
 917 004c 6046     		mov	r0, ip
 918 004e 4FF49071 		mov	r1, #288
 919 0052 FFF7FEFF 		bl	chThdCreateStatic
 920              		.loc 1 115 0
 921 0056 D6F80CE0 		ldr	lr, [r6, #12]
 922              		.loc 1 114 0
 923 005a A860     		str	r0, [r5, #8]
 924              		.loc 1 115 0
 925 005c 1D48     		ldr	r0, .L50+32
 926 005e 1A4B     		ldr	r3, .L50+20
 927 0060 0090     		str	r0, [sp, #0]
 928 0062 221D     		adds	r2, r4, #4
 929 0064 7046     		mov	r0, lr
 930 0066 4FF49071 		mov	r1, #288
 931 006a FFF7FEFF 		bl	chThdCreateStatic
 932              		.loc 1 116 0
 933 006e 3669     		ldr	r6, [r6, #16]
 934              		.loc 1 115 0
 935 0070 E860     		str	r0, [r5, #12]
 936              		.loc 1 116 0
 937 0072 3046     		mov	r0, r6
 938 0074 184E     		ldr	r6, .L50+36
 939 0076 144B     		ldr	r3, .L50+20
 940 0078 0096     		str	r6, [sp, #0]
 941 007a 621D     		adds	r2, r4, #5
 942 007c 4FF49071 		mov	r1, #288
 943 0080 FFF7FEFF 		bl	chThdCreateStatic
 944 0084 2861     		str	r0, [r5, #16]
 945              		.loc 1 117 0
 946 0086 FFF7FEFF 		bl	chMtxUnlock
 947              		.loc 1 118 0
 948 008a FFF7FEFF 		bl	test_wait_threads
 949              		.loc 1 119 0
 950 008e F869     		ldr	r0, [r7, #28]
 951 0090 8268     		ldr	r2, [r0, #8]
 952 0092 131B     		subs	r3, r2, r4
 953 0094 0120     		movs	r0, #1
 954 0096 5942     		rsbs	r1, r3, #0
 955 0098 41EB0301 		adc	r1, r1, r3
 956 009c FFF7FEFF 		bl	_test_assert
 957 00a0 08B1     		cbz	r0, .L49
 958              		.loc 1 121 0
ARM GAS  /tmp/ccmmOrh2.s 			page 18


 959 00a2 03B0     		add	sp, sp, #12
 960 00a4 F0BD     		pop	{r4, r5, r6, r7, pc}
 961              	.L49:
 962              		.loc 1 120 0
 963 00a6 0D49     		ldr	r1, .L50+40
 964 00a8 0220     		movs	r0, #2
 965              		.loc 1 121 0
 966 00aa 03B0     		add	sp, sp, #12
 967 00ac BDE8F040 		pop	{r4, r5, r6, r7, lr}
 968              		.loc 1 120 0
 969 00b0 FFF7FEBF 		b	_test_assert_sequence
 970              	.L51:
 971              		.align	2
 972              	.L50:
 973 00b4 00000000 		.word	rlist
 974 00b8 00000000 		.word	.LANCHOR2
 975 00bc 00000000 		.word	wa
 976 00c0 00000000 		.word	threads
 977 00c4 10000000 		.word	.LC4
 978 00c8 00000000 		.word	thread1
 979 00cc 14000000 		.word	.LC5
 980 00d0 04000000 		.word	.LC1
 981 00d4 08000000 		.word	.LC2
 982 00d8 00000000 		.word	.LC0
 983 00dc 18000000 		.word	.LC6
 984              		.cfi_endproc
 985              	.LFE9:
 986              		.size	mtx1_execute, .-mtx1_execute
 987              		.section	.text.mtx5_execute,"ax",%progbits
 988              		.align	2
 989              		.p2align 4,,15
 990              		.thumb
 991              		.thumb_func
 992              		.type	mtx5_execute, %function
 993              	mtx5_execute:
 994              	.LFB27:
 995              		.loc 1 444 0
 996              		.cfi_startproc
 997              		@ args = 0, pretend = 0, frame = 0
 998              		@ frame_needed = 0, uses_anonymous_args = 0
 999 0000 2DE9F041 		push	{r4, r5, r6, r7, r8, lr}
 1000              	.LCFI17:
 1001              		.cfi_def_cfa_offset 24
 1002              		.loc 1 448 0
 1003 0004 2F4D     		ldr	r5, .L55
 1004              		.cfi_offset 14, -4
 1005              		.cfi_offset 8, -8
 1006              		.cfi_offset 7, -12
 1007              		.cfi_offset 6, -16
 1008              		.cfi_offset 5, -20
 1009              		.cfi_offset 4, -24
 1010              		.loc 1 450 0
 1011 0006 304C     		ldr	r4, .L55+4
 1012              		.loc 1 448 0
 1013 0008 EB69     		ldr	r3, [r5, #28]
 1014              		.loc 1 450 0
 1015 000a 2046     		mov	r0, r4
ARM GAS  /tmp/ccmmOrh2.s 			page 19


 1016              		.loc 1 448 0
 1017 000c 9E68     		ldr	r6, [r3, #8]
 1018              	.LVL27:
 1019              		.loc 1 450 0
 1020 000e FFF7FEFF 		bl	chMtxTryLock
 1021              	.LVL28:
 1022 0012 0146     		mov	r1, r0
 1023              	.LVL29:
 1024              		.loc 1 451 0
 1025 0014 0120     		movs	r0, #1
 1026              	.LVL30:
 1027 0016 FFF7FEFF 		bl	_test_assert
 1028              	.LVL31:
 1029 001a 08B1     		cbz	r0, .L54
 1030              	.L52:
 1031 001c BDE8F081 		pop	{r4, r5, r6, r7, r8, pc}
 1032              	.L54:
 1033              		.loc 1 453 0
 1034 0020 2046     		mov	r0, r4
 1035 0022 FFF7FEFF 		bl	chMtxTryLock
 1036              	.LVL32:
 1037              		.loc 1 454 0
 1038 0026 D0F10101 		rsbs	r1, r0, #1
 1039 002a 38BF     		it	cc
 1040 002c 0021     		movcc	r1, #0
 1041 002e 0220     		movs	r0, #2
 1042              	.LVL33:
 1043 0030 FFF7FEFF 		bl	_test_assert
 1044 0034 0746     		mov	r7, r0
 1045 0036 0028     		cmp	r0, #0
 1046 0038 F0D1     		bne	.L52
 1047              	.LBB5:
 1048              		.loc 1 456 0
 1049 003a 2023     		movs	r3, #32
 1050              	.LVL34:
 1051              	@ 456 "../libs/ChibiOS_2.4.0/test/testmtx.c" 1
 1052 003c 83F31188 		msr     BASEPRI, r3
 1053              	@ 0 "" 2
 1054              	.LVL35:
 1055              		.thumb
 1056              	.LBE5:
 1057              		.loc 1 457 0
 1058 0040 FFF7FEFF 		bl	chMtxUnlockS
 1059              	.LVL36:
 1060              	.LBB6:
 1061              		.loc 1 458 0
 1062 0044 3B46     		mov	r3, r7
 1063              	.LVL37:
 1064              	@ 458 "../libs/ChibiOS_2.4.0/test/testmtx.c" 1
 1065 0046 83F31188 		msr     BASEPRI, r3
 1066              	@ 0 "" 2
 1067              	.LVL38:
 1068              		.thumb
 1069              	.LBE6:
 1070              		.loc 1 460 0
 1071 004a 2268     		ldr	r2, [r4, #0]
 1072 004c C4EB020C 		rsb	ip, r4, r2
ARM GAS  /tmp/ccmmOrh2.s 			page 20


 1073 0050 0320     		movs	r0, #3
 1074 0052 DCF10001 		rsbs	r1, ip, #0
 1075 0056 41EB0C01 		adc	r1, r1, ip
 1076 005a FFF7FEFF 		bl	_test_assert
 1077              	.LVL39:
 1078 005e 0028     		cmp	r0, #0
 1079 0060 DCD1     		bne	.L52
 1080              		.loc 1 461 0
 1081 0062 A368     		ldr	r3, [r4, #8]
 1082 0064 0420     		movs	r0, #4
 1083 0066 D3F10101 		rsbs	r1, r3, #1
 1084 006a 38BF     		it	cc
 1085 006c 0021     		movcc	r1, #0
 1086 006e FFF7FEFF 		bl	_test_assert
 1087 0072 0028     		cmp	r0, #0
 1088 0074 D2D1     		bne	.L52
 1089              		.loc 1 462 0
 1090 0076 E869     		ldr	r0, [r5, #28]
 1091 0078 8268     		ldr	r2, [r0, #8]
 1092 007a C6EB020E 		rsb	lr, r6, r2
 1093 007e 0520     		movs	r0, #5
 1094 0080 DEF10001 		rsbs	r1, lr, #0
 1095 0084 41EB0E01 		adc	r1, r1, lr
 1096 0088 FFF7FEFF 		bl	_test_assert
 1097 008c 0028     		cmp	r0, #0
 1098 008e C5D1     		bne	.L52
 1099              		.loc 1 464 0
 1100 0090 2046     		mov	r0, r4
 1101 0092 FFF7FEFF 		bl	chMtxLock
 1102              		.loc 1 465 0
 1103 0096 FFF7FEFF 		bl	chMtxUnlockAll
 1104              		.loc 1 466 0
 1105 009a 2168     		ldr	r1, [r4, #0]
 1106 009c 631A     		subs	r3, r4, r1
 1107 009e 0620     		movs	r0, #6
 1108 00a0 D3F1000C 		rsbs	ip, r3, #0
 1109 00a4 4CEB0301 		adc	r1, ip, r3
 1110 00a8 FFF7FEFF 		bl	_test_assert
 1111 00ac 0028     		cmp	r0, #0
 1112 00ae B5D1     		bne	.L52
 1113              		.loc 1 467 0
 1114 00b0 A268     		ldr	r2, [r4, #8]
 1115 00b2 0720     		movs	r0, #7
 1116 00b4 D2F10101 		rsbs	r1, r2, #1
 1117 00b8 38BF     		it	cc
 1118 00ba 0021     		movcc	r1, #0
 1119              		.loc 1 468 0
 1120 00bc BDE8F041 		pop	{r4, r5, r6, r7, r8, lr}
 1121              		.loc 1 467 0
 1122 00c0 FFF7FEBF 		b	_test_assert
 1123              	.L56:
 1124              		.align	2
 1125              	.L55:
 1126 00c4 00000000 		.word	rlist
 1127 00c8 00000000 		.word	.LANCHOR2
 1128              		.cfi_endproc
 1129              	.LFE27:
ARM GAS  /tmp/ccmmOrh2.s 			page 21


 1130              		.size	mtx5_execute, .-mtx5_execute
 1131 00cc AFF30080 		.section	.text.mtx4_execute,"ax",%progbits
 1132              		.align	2
 1133              		.p2align 4,,15
 1134              		.thumb
 1135              		.thumb_func
 1136              		.type	mtx4_execute, %function
 1137              	mtx4_execute:
 1138              	.LFB25:
 1139              		.loc 1 376 0
 1140              		.cfi_startproc
 1141              		@ args = 0, pretend = 0, frame = 0
 1142              		@ frame_needed = 0, uses_anonymous_args = 0
 1143 0000 2DE9F047 		push	{r4, r5, r6, r7, r8, r9, sl, lr}
 1144              	.LCFI18:
 1145              		.cfi_def_cfa_offset 32
 1146              		.loc 1 379 0
 1147 0004 914D     		ldr	r5, .L60
 1148              		.cfi_offset 14, -4
 1149              		.cfi_offset 10, -8
 1150              		.cfi_offset 9, -12
 1151              		.cfi_offset 8, -16
 1152              		.cfi_offset 7, -20
 1153              		.cfi_offset 6, -24
 1154              		.cfi_offset 5, -28
 1155              		.cfi_offset 4, -32
 1156              		.loc 1 382 0
 1157 0006 924F     		ldr	r7, .L60+4
 1158              		.loc 1 379 0
 1159 0008 EC69     		ldr	r4, [r5, #28]
 1160              		.loc 1 382 0
 1161 000a D7F800A0 		ldr	sl, [r7, #0]
 1162              		.loc 1 379 0
 1163 000e A468     		ldr	r4, [r4, #8]
 1164              	.LVL40:
 1165              		.loc 1 382 0
 1166 0010 904E     		ldr	r6, .L60+8
 1167 0012 914B     		ldr	r3, .L60+12
 1168              		.loc 1 376 0
 1169 0014 82B0     		sub	sp, sp, #8
 1170              	.LCFI19:
 1171              		.cfi_def_cfa_offset 40
 1172              		.loc 1 380 0
 1173 0016 04F10108 		add	r8, r4, #1
 1174              	.LVL41:
 1175              		.loc 1 382 0
 1176 001a 4FF49071 		mov	r1, #288
 1177 001e 4246     		mov	r2, r8
 1178 0020 5046     		mov	r0, sl
 1179 0022 0096     		str	r6, [sp, #0]
 1180 0024 FFF7FEFF 		bl	chThdCreateStatic
 1181              	.LVL42:
 1182 0028 8C4E     		ldr	r6, .L60+16
 1183              		.loc 1 383 0
 1184 002a D7F80490 		ldr	r9, [r7, #4]
 1185              		.loc 1 382 0
 1186 002e 3060     		str	r0, [r6, #0]
ARM GAS  /tmp/ccmmOrh2.s 			page 22


 1187              		.loc 1 383 0
 1188 0030 8B48     		ldr	r0, .L60+20
 1189 0032 8C4B     		ldr	r3, .L60+24
 1190 0034 0090     		str	r0, [sp, #0]
 1191              		.loc 1 381 0
 1192 0036 A71C     		adds	r7, r4, #2
 1193              	.LVL43:
 1194              		.loc 1 383 0
 1195 0038 4FF49071 		mov	r1, #288
 1196 003c 3A46     		mov	r2, r7
 1197 003e 4846     		mov	r0, r9
 1198 0040 FFF7FEFF 		bl	chThdCreateStatic
 1199 0044 7060     		str	r0, [r6, #4]
 1200              		.loc 1 384 0
 1201 0046 8848     		ldr	r0, .L60+28
 1202 0048 FFF7FEFF 		bl	chMtxLock
 1203              		.loc 1 385 0
 1204 004c E869     		ldr	r0, [r5, #28]
 1205 004e 8368     		ldr	r3, [r0, #8]
 1206 0050 1A1B     		subs	r2, r3, r4
 1207 0052 0120     		movs	r0, #1
 1208 0054 5142     		rsbs	r1, r2, #0
 1209 0056 41EB0201 		adc	r1, r1, r2
 1210 005a FFF7FEFF 		bl	_test_assert
 1211 005e 10B1     		cbz	r0, .L59
 1212              	.L57:
 1213              		.loc 1 420 0
 1214 0060 02B0     		add	sp, sp, #8
 1215 0062 BDE8F087 		pop	{r4, r5, r6, r7, r8, r9, sl, pc}
 1216              	.L59:
 1217              		.loc 1 386 0
 1218 0066 6420     		movs	r0, #100
 1219 0068 FFF7FEFF 		bl	chThdSleep
 1220              		.loc 1 387 0
 1221 006c EB69     		ldr	r3, [r5, #28]
 1222 006e 9A68     		ldr	r2, [r3, #8]
 1223 0070 C8EB0201 		rsb	r1, r8, r2
 1224 0074 0220     		movs	r0, #2
 1225 0076 D1F1000C 		rsbs	ip, r1, #0
 1226 007a 4CEB0101 		adc	r1, ip, r1
 1227 007e FFF7FEFF 		bl	_test_assert
 1228 0082 0028     		cmp	r0, #0
 1229 0084 ECD1     		bne	.L57
 1230              		.loc 1 388 0
 1231 0086 7948     		ldr	r0, .L60+32
 1232 0088 FFF7FEFF 		bl	chMtxLock
 1233              		.loc 1 389 0
 1234 008c E869     		ldr	r0, [r5, #28]
 1235 008e 8268     		ldr	r2, [r0, #8]
 1236 0090 C8EB020C 		rsb	ip, r8, r2
 1237 0094 0320     		movs	r0, #3
 1238 0096 DCF10001 		rsbs	r1, ip, #0
 1239 009a 41EB0C01 		adc	r1, r1, ip
 1240 009e FFF7FEFF 		bl	_test_assert
 1241 00a2 0028     		cmp	r0, #0
 1242 00a4 DCD1     		bne	.L57
 1243              		.loc 1 390 0
ARM GAS  /tmp/ccmmOrh2.s 			page 23


 1244 00a6 6420     		movs	r0, #100
 1245 00a8 FFF7FEFF 		bl	chThdSleep
 1246              		.loc 1 391 0
 1247 00ac EA69     		ldr	r2, [r5, #28]
 1248 00ae 9168     		ldr	r1, [r2, #8]
 1249 00b0 C7EB010E 		rsb	lr, r7, r1
 1250 00b4 0420     		movs	r0, #4
 1251 00b6 DEF10003 		rsbs	r3, lr, #0
 1252 00ba 43EB0E01 		adc	r1, r3, lr
 1253 00be FFF7FEFF 		bl	_test_assert
 1254 00c2 0028     		cmp	r0, #0
 1255 00c4 CCD1     		bne	.L57
 1256              		.loc 1 392 0
 1257 00c6 FFF7FEFF 		bl	chMtxUnlock
 1258              		.loc 1 393 0
 1259 00ca E869     		ldr	r0, [r5, #28]
 1260 00cc 8168     		ldr	r1, [r0, #8]
 1261 00ce C8EB0103 		rsb	r3, r8, r1
 1262 00d2 0520     		movs	r0, #5
 1263 00d4 D3F1000C 		rsbs	ip, r3, #0
 1264 00d8 4CEB0301 		adc	r1, ip, r3
 1265 00dc FFF7FEFF 		bl	_test_assert
 1266 00e0 0028     		cmp	r0, #0
 1267 00e2 BDD1     		bne	.L57
 1268              		.loc 1 394 0
 1269 00e4 6420     		movs	r0, #100
 1270 00e6 FFF7FEFF 		bl	chThdSleep
 1271              		.loc 1 395 0
 1272 00ea E969     		ldr	r1, [r5, #28]
 1273 00ec 8B68     		ldr	r3, [r1, #8]
 1274 00ee C8EB030C 		rsb	ip, r8, r3
 1275 00f2 0620     		movs	r0, #6
 1276 00f4 DCF10002 		rsbs	r2, ip, #0
 1277 00f8 42EB0C01 		adc	r1, r2, ip
 1278 00fc FFF7FEFF 		bl	_test_assert
 1279 0100 0028     		cmp	r0, #0
 1280 0102 ADD1     		bne	.L57
 1281              		.loc 1 396 0
 1282 0104 FFF7FEFF 		bl	chMtxUnlockAll
 1283              		.loc 1 397 0
 1284 0108 E869     		ldr	r0, [r5, #28]
 1285 010a 8368     		ldr	r3, [r0, #8]
 1286 010c C4EB030C 		rsb	ip, r4, r3
 1287 0110 0720     		movs	r0, #7
 1288 0112 DCF10002 		rsbs	r2, ip, #0
 1289 0116 42EB0C01 		adc	r1, r2, ip
 1290 011a FFF7FEFF 		bl	_test_assert
 1291 011e 0028     		cmp	r0, #0
 1292 0120 9ED1     		bne	.L57
 1293              		.loc 1 398 0
 1294 0122 FFF7FEFF 		bl	test_wait_threads
 1295              		.loc 1 401 0
 1296 0126 5249     		ldr	r1, .L60+36
 1297 0128 4B4B     		ldr	r3, .L60+12
 1298 012a 0091     		str	r1, [sp, #0]
 1299 012c 4246     		mov	r2, r8
 1300 012e 4FF49071 		mov	r1, #288
ARM GAS  /tmp/ccmmOrh2.s 			page 24


 1301 0132 5046     		mov	r0, sl
 1302 0134 FFF7FEFF 		bl	chThdCreateStatic
 1303 0138 3060     		str	r0, [r6, #0]
 1304              		.loc 1 402 0
 1305 013a 4E48     		ldr	r0, .L60+40
 1306 013c 494B     		ldr	r3, .L60+24
 1307 013e 0090     		str	r0, [sp, #0]
 1308 0140 4FF49071 		mov	r1, #288
 1309 0144 3A46     		mov	r2, r7
 1310 0146 4846     		mov	r0, r9
 1311 0148 FFF7FEFF 		bl	chThdCreateStatic
 1312 014c 7060     		str	r0, [r6, #4]
 1313              		.loc 1 403 0
 1314 014e 4648     		ldr	r0, .L60+28
 1315 0150 FFF7FEFF 		bl	chMtxLock
 1316              		.loc 1 404 0
 1317 0154 EB69     		ldr	r3, [r5, #28]
 1318 0156 9A68     		ldr	r2, [r3, #8]
 1319 0158 C4EB020E 		rsb	lr, r4, r2
 1320 015c 0820     		movs	r0, #8
 1321 015e DEF10001 		rsbs	r1, lr, #0
 1322 0162 41EB0E01 		adc	r1, r1, lr
 1323 0166 FFF7FEFF 		bl	_test_assert
 1324 016a 0028     		cmp	r0, #0
 1325 016c 7FF478AF 		bne	.L57
 1326              		.loc 1 405 0
 1327 0170 6430     		adds	r0, r0, #100
 1328 0172 FFF7FEFF 		bl	chThdSleep
 1329              		.loc 1 406 0
 1330 0176 E869     		ldr	r0, [r5, #28]
 1331 0178 8368     		ldr	r3, [r0, #8]
 1332 017a C8EB0302 		rsb	r2, r8, r3
 1333 017e 0920     		movs	r0, #9
 1334 0180 D2F1000C 		rsbs	ip, r2, #0
 1335 0184 4CEB0201 		adc	r1, ip, r2
 1336 0188 FFF7FEFF 		bl	_test_assert
 1337 018c 0028     		cmp	r0, #0
 1338 018e 7FF467AF 		bne	.L57
 1339              		.loc 1 407 0
 1340 0192 3648     		ldr	r0, .L60+32
 1341 0194 FFF7FEFF 		bl	chMtxLock
 1342              		.loc 1 408 0
 1343 0198 EB69     		ldr	r3, [r5, #28]
 1344 019a 9A68     		ldr	r2, [r3, #8]
 1345 019c C8EB020C 		rsb	ip, r8, r2
 1346 01a0 0A20     		movs	r0, #10
 1347 01a2 DCF10001 		rsbs	r1, ip, #0
 1348 01a6 41EB0C01 		adc	r1, r1, ip
 1349 01aa FFF7FEFF 		bl	_test_assert
 1350 01ae 0028     		cmp	r0, #0
 1351 01b0 7FF456AF 		bne	.L57
 1352              		.loc 1 409 0
 1353 01b4 6430     		adds	r0, r0, #100
 1354 01b6 FFF7FEFF 		bl	chThdSleep
 1355              		.loc 1 410 0
 1356 01ba E869     		ldr	r0, [r5, #28]
 1357 01bc 8268     		ldr	r2, [r0, #8]
ARM GAS  /tmp/ccmmOrh2.s 			page 25


 1358 01be D11B     		subs	r1, r2, r7
 1359 01c0 0B20     		movs	r0, #11
 1360 01c2 4E42     		rsbs	r6, r1, #0
 1361 01c4 46EB0101 		adc	r1, r6, r1
 1362 01c8 FFF7FEFF 		bl	_test_assert
 1363 01cc 0646     		mov	r6, r0
 1364 01ce 0028     		cmp	r0, #0
 1365 01d0 7FF446AF 		bne	.L57
 1366              	.LBB7:
 1367              		.loc 1 411 0
 1368 01d4 2023     		movs	r3, #32
 1369              	.LVL44:
 1370              	@ 411 "../libs/ChibiOS_2.4.0/test/testmtx.c" 1
 1371 01d6 83F31188 		msr     BASEPRI, r3
 1372              	@ 0 "" 2
 1373              	.LVL45:
 1374              		.thumb
 1375              	.LBE7:
 1376              		.loc 1 412 0
 1377 01da FFF7FEFF 		bl	chMtxUnlockS
 1378              	.LVL46:
 1379              	.LBB8:
 1380              		.loc 1 413 0
 1381 01de 3346     		mov	r3, r6
 1382              	.LVL47:
 1383              	@ 413 "../libs/ChibiOS_2.4.0/test/testmtx.c" 1
 1384 01e0 83F31188 		msr     BASEPRI, r3
 1385              	@ 0 "" 2
 1386              	.LVL48:
 1387              		.thumb
 1388              	.LBE8:
 1389              		.loc 1 414 0
 1390 01e4 E969     		ldr	r1, [r5, #28]
 1391 01e6 8B68     		ldr	r3, [r1, #8]
 1392              	.LVL49:
 1393 01e8 C8EB030E 		rsb	lr, r8, r3
 1394 01ec 0C20     		movs	r0, #12
 1395 01ee DEF1000C 		rsbs	ip, lr, #0
 1396 01f2 4CEB0E01 		adc	r1, ip, lr
 1397 01f6 FFF7FEFF 		bl	_test_assert
 1398 01fa 0028     		cmp	r0, #0
 1399 01fc 7FF430AF 		bne	.L57
 1400              		.loc 1 415 0
 1401 0200 6430     		adds	r0, r0, #100
 1402 0202 FFF7FEFF 		bl	chThdSleep
 1403              		.loc 1 416 0
 1404 0206 E869     		ldr	r0, [r5, #28]
 1405 0208 8368     		ldr	r3, [r0, #8]
 1406 020a C8EB0302 		rsb	r2, r8, r3
 1407 020e 0D20     		movs	r0, #13
 1408 0210 D2F1000C 		rsbs	ip, r2, #0
 1409 0214 4CEB0201 		adc	r1, ip, r2
 1410 0218 FFF7FEFF 		bl	_test_assert
 1411 021c 0028     		cmp	r0, #0
 1412 021e 7FF41FAF 		bne	.L57
 1413              		.loc 1 417 0
 1414 0222 FFF7FEFF 		bl	chMtxUnlockAll
ARM GAS  /tmp/ccmmOrh2.s 			page 26


 1415              		.loc 1 418 0
 1416 0226 EB69     		ldr	r3, [r5, #28]
 1417 0228 9A68     		ldr	r2, [r3, #8]
 1418 022a C4EB020C 		rsb	ip, r4, r2
 1419 022e 0E20     		movs	r0, #14
 1420 0230 DCF10001 		rsbs	r1, ip, #0
 1421 0234 41EB0C01 		adc	r1, r1, ip
 1422 0238 FFF7FEFF 		bl	_test_assert
 1423 023c 0028     		cmp	r0, #0
 1424 023e 7FF40FAF 		bne	.L57
 1425              		.loc 1 420 0
 1426 0242 02B0     		add	sp, sp, #8
 1427 0244 BDE8F047 		pop	{r4, r5, r6, r7, r8, r9, sl, lr}
 1428              		.loc 1 419 0
 1429 0248 FFF7FEBF 		b	test_wait_threads
 1430              	.L61:
 1431              		.align	2
 1432              	.L60:
 1433 024c 00000000 		.word	rlist
 1434 0250 00000000 		.word	wa
 1435 0254 08000000 		.word	.LC2
 1436 0258 00000000 		.word	thread4a
 1437 025c 00000000 		.word	threads
 1438 0260 00000000 		.word	.LC0
 1439 0264 00000000 		.word	thread4b
 1440 0268 00000000 		.word	.LANCHOR1
 1441 026c 00000000 		.word	.LANCHOR2
 1442 0270 14000000 		.word	.LC5
 1443 0274 04000000 		.word	.LC1
 1444              		.cfi_endproc
 1445              	.LFE25:
 1446              		.size	mtx4_execute, .-mtx4_execute
 1447 0278 AFF30080 		.section	.text.thread4b,"ax",%progbits
 1447      AFF30080 
 1448              		.align	2
 1449              		.p2align 4,,15
 1450              		.thumb
 1451              		.thumb_func
 1452              		.type	thread4b, %function
 1453              	thread4b:
 1454              	.LFB24:
 1455              		.loc 1 367 0
 1456              		.cfi_startproc
 1457              		@ args = 0, pretend = 0, frame = 0
 1458              		@ frame_needed = 0, uses_anonymous_args = 0
 1459              	.LVL50:
 1460 0000 08B5     		push	{r3, lr}
 1461              	.LCFI20:
 1462              		.cfi_def_cfa_offset 8
 1463              		.loc 1 370 0
 1464 0002 9620     		movs	r0, #150
 1465              	.LVL51:
 1466              		.cfi_offset 14, -4
 1467              		.cfi_offset 3, -8
 1468 0004 FFF7FEFF 		bl	chThdSleep
 1469              		.loc 1 371 0
 1470 0008 0348     		ldr	r0, .L63
ARM GAS  /tmp/ccmmOrh2.s 			page 27


 1471 000a FFF7FEFF 		bl	chMtxLock
 1472              		.loc 1 372 0
 1473 000e FFF7FEFF 		bl	chMtxUnlock
 1474              		.loc 1 374 0
 1475 0012 0020     		movs	r0, #0
 1476 0014 08BD     		pop	{r3, pc}
 1477              	.L64:
 1478 0016 00BF     		.align	2
 1479              	.L63:
 1480 0018 00000000 		.word	.LANCHOR2
 1481              		.cfi_endproc
 1482              	.LFE24:
 1483              		.size	thread4b, .-thread4b
 1484 001c AFF30080 		.section	.text.thread4a,"ax",%progbits
 1485              		.align	2
 1486              		.p2align 4,,15
 1487              		.thumb
 1488              		.thumb_func
 1489              		.type	thread4a, %function
 1490              	thread4a:
 1491              	.LFB23:
 1492              		.loc 1 358 0
 1493              		.cfi_startproc
 1494              		@ args = 0, pretend = 0, frame = 0
 1495              		@ frame_needed = 0, uses_anonymous_args = 0
 1496              	.LVL52:
 1497 0000 08B5     		push	{r3, lr}
 1498              	.LCFI21:
 1499              		.cfi_def_cfa_offset 8
 1500              		.loc 1 361 0
 1501 0002 3220     		movs	r0, #50
 1502              	.LVL53:
 1503              		.cfi_offset 14, -4
 1504              		.cfi_offset 3, -8
 1505 0004 FFF7FEFF 		bl	chThdSleep
 1506              		.loc 1 362 0
 1507 0008 0348     		ldr	r0, .L66
 1508 000a FFF7FEFF 		bl	chMtxLock
 1509              		.loc 1 363 0
 1510 000e FFF7FEFF 		bl	chMtxUnlock
 1511              		.loc 1 365 0
 1512 0012 0020     		movs	r0, #0
 1513 0014 08BD     		pop	{r3, pc}
 1514              	.L67:
 1515 0016 00BF     		.align	2
 1516              	.L66:
 1517 0018 00000000 		.word	.LANCHOR1
 1518              		.cfi_endproc
 1519              	.LFE23:
 1520              		.size	thread4a, .-thread4a
 1521 001c AFF30080 		.section	.text.mtx3_execute,"ax",%progbits
 1522              		.align	2
 1523              		.p2align 4,,15
 1524              		.thumb
 1525              		.thumb_func
 1526              		.type	mtx3_execute, %function
 1527              	mtx3_execute:
ARM GAS  /tmp/ccmmOrh2.s 			page 28


 1528              	.LFB21:
 1529              		.loc 1 319 0
 1530              		.cfi_startproc
 1531              		@ args = 0, pretend = 0, frame = 0
 1532              		@ frame_needed = 0, uses_anonymous_args = 0
 1533 0000 2DE9F041 		push	{r4, r5, r6, r7, r8, lr}
 1534              	.LCFI22:
 1535              		.cfi_def_cfa_offset 24
 1536              		.loc 1 324 0
 1537 0004 2D4F     		ldr	r7, .L71
 1538              		.cfi_offset 14, -4
 1539              		.cfi_offset 8, -8
 1540              		.cfi_offset 7, -12
 1541              		.cfi_offset 6, -16
 1542              		.cfi_offset 5, -20
 1543              		.cfi_offset 4, -24
 1544 0006 2E4E     		ldr	r6, .L71+4
 1545              		.loc 1 323 0
 1546 0008 2E4D     		ldr	r5, .L71+8
 1547              		.loc 1 324 0
 1548 000a 2F4C     		ldr	r4, .L71+12
 1549              		.loc 1 319 0
 1550 000c 82B0     		sub	sp, sp, #8
 1551              	.LCFI23:
 1552              		.cfi_def_cfa_offset 32
 1553              		.loc 1 322 0
 1554 000e FFF7FEFF 		bl	test_wait_tick
 1555              		.loc 1 324 0
 1556 0012 FB69     		ldr	r3, [r7, #28]
 1557              		.loc 1 323 0
 1558 0014 D5F80C80 		ldr	r8, [r5, #12]
 1559              	.LVL54:
 1560              		.loc 1 324 0
 1561 0018 9A68     		ldr	r2, [r3, #8]
 1562 001a 3068     		ldr	r0, [r6, #0]
 1563 001c 2B4B     		ldr	r3, .L71+16
 1564 001e 0025     		movs	r5, #0
 1565 0020 4FF49071 		mov	r1, #288
 1566 0024 053A     		subs	r2, r2, #5
 1567 0026 0095     		str	r5, [sp, #0]
 1568 0028 FFF7FEFF 		bl	chThdCreateStatic
 1569              		.loc 1 325 0
 1570 002c F969     		ldr	r1, [r7, #28]
 1571 002e D6F804E0 		ldr	lr, [r6, #4]
 1572 0032 8B68     		ldr	r3, [r1, #8]
 1573              		.loc 1 324 0
 1574 0034 2060     		str	r0, [r4, #0]
 1575              		.loc 1 325 0
 1576 0036 1A1F     		subs	r2, r3, #4
 1577 0038 7046     		mov	r0, lr
 1578 003a 4FF49071 		mov	r1, #288
 1579 003e 244B     		ldr	r3, .L71+20
 1580 0040 0095     		str	r5, [sp, #0]
 1581 0042 FFF7FEFF 		bl	chThdCreateStatic
 1582              		.loc 1 326 0
 1583 0046 FA69     		ldr	r2, [r7, #28]
 1584 0048 D6F808C0 		ldr	ip, [r6, #8]
ARM GAS  /tmp/ccmmOrh2.s 			page 29


 1585 004c 9368     		ldr	r3, [r2, #8]
 1586              		.loc 1 325 0
 1587 004e 6060     		str	r0, [r4, #4]
 1588              		.loc 1 326 0
 1589 0050 DA1E     		subs	r2, r3, #3
 1590 0052 6046     		mov	r0, ip
 1591 0054 4FF49071 		mov	r1, #288
 1592 0058 1E4B     		ldr	r3, .L71+24
 1593 005a 0095     		str	r5, [sp, #0]
 1594 005c FFF7FEFF 		bl	chThdCreateStatic
 1595              		.loc 1 327 0
 1596 0060 F969     		ldr	r1, [r7, #28]
 1597 0062 D6F80CE0 		ldr	lr, [r6, #12]
 1598 0066 8A68     		ldr	r2, [r1, #8]
 1599 0068 1B4B     		ldr	r3, .L71+28
 1600              		.loc 1 326 0
 1601 006a A060     		str	r0, [r4, #8]
 1602              		.loc 1 327 0
 1603 006c 4FF49071 		mov	r1, #288
 1604 0070 7046     		mov	r0, lr
 1605 0072 023A     		subs	r2, r2, #2
 1606 0074 0095     		str	r5, [sp, #0]
 1607 0076 FFF7FEFF 		bl	chThdCreateStatic
 1608              		.loc 1 328 0
 1609 007a FB69     		ldr	r3, [r7, #28]
 1610 007c 3669     		ldr	r6, [r6, #16]
 1611 007e 9A68     		ldr	r2, [r3, #8]
 1612              		.loc 1 327 0
 1613 0080 E060     		str	r0, [r4, #12]
 1614              		.loc 1 328 0
 1615 0082 4FF49071 		mov	r1, #288
 1616 0086 013A     		subs	r2, r2, #1
 1617 0088 144B     		ldr	r3, .L71+32
 1618 008a 0095     		str	r5, [sp, #0]
 1619 008c 3046     		mov	r0, r6
 1620 008e FFF7FEFF 		bl	chThdCreateStatic
 1621 0092 2061     		str	r0, [r4, #16]
 1622              		.loc 1 329 0
 1623 0094 FFF7FEFF 		bl	test_wait_threads
 1624              		.loc 1 330 0
 1625 0098 0120     		movs	r0, #1
 1626 009a 1149     		ldr	r1, .L71+36
 1627 009c FFF7FEFF 		bl	_test_assert_sequence
 1628 00a0 10B1     		cbz	r0, .L70
 1629              		.loc 1 332 0
 1630 00a2 02B0     		add	sp, sp, #8
 1631 00a4 BDE8F081 		pop	{r4, r5, r6, r7, r8, pc}
 1632              	.L70:
 1633              		.loc 1 331 0
 1634 00a8 0220     		movs	r0, #2
 1635 00aa 08F16E01 		add	r1, r8, #110
 1636 00ae 08F17302 		add	r2, r8, #115
 1637              		.loc 1 332 0
 1638 00b2 02B0     		add	sp, sp, #8
 1639 00b4 BDE8F041 		pop	{r4, r5, r6, r7, r8, lr}
 1640              		.loc 1 331 0
 1641 00b8 FFF7FEBF 		b	_test_assert_time_window
ARM GAS  /tmp/ccmmOrh2.s 			page 30


 1642              	.L72:
 1643              		.align	2
 1644              	.L71:
 1645 00bc 00000000 		.word	rlist
 1646 00c0 00000000 		.word	wa
 1647 00c4 00000000 		.word	vtlist
 1648 00c8 00000000 		.word	threads
 1649 00cc 00000000 		.word	thread3LL
 1650 00d0 00000000 		.word	thread3L
 1651 00d4 00000000 		.word	thread3M
 1652 00d8 00000000 		.word	thread3H
 1653 00dc 00000000 		.word	thread3HH
 1654 00e0 18000000 		.word	.LC6
 1655              		.cfi_endproc
 1656              	.LFE21:
 1657              		.size	mtx3_execute, .-mtx3_execute
 1658 00e4 AFF30080 		.section	.text.mtx2_execute,"ax",%progbits
 1658      AFF30080 
 1658      AFF30080 
 1659              		.align	2
 1660              		.p2align 4,,15
 1661              		.thumb
 1662              		.thumb_func
 1663              		.type	mtx2_execute, %function
 1664              	mtx2_execute:
 1665              	.LFB14:
 1666              		.loc 1 201 0
 1667              		.cfi_startproc
 1668              		@ args = 0, pretend = 0, frame = 0
 1669              		@ frame_needed = 0, uses_anonymous_args = 0
 1670 0000 2DE9F041 		push	{r4, r5, r6, r7, r8, lr}
 1671              	.LCFI24:
 1672              		.cfi_def_cfa_offset 24
 1673              		.loc 1 206 0
 1674 0004 204F     		ldr	r7, .L76
 1675              		.cfi_offset 14, -4
 1676              		.cfi_offset 8, -8
 1677              		.cfi_offset 7, -12
 1678              		.cfi_offset 6, -16
 1679              		.cfi_offset 5, -20
 1680              		.cfi_offset 4, -24
 1681 0006 214E     		ldr	r6, .L76+4
 1682              		.loc 1 205 0
 1683 0008 214D     		ldr	r5, .L76+8
 1684              		.loc 1 206 0
 1685 000a 224C     		ldr	r4, .L76+12
 1686              		.loc 1 201 0
 1687 000c 82B0     		sub	sp, sp, #8
 1688              	.LCFI25:
 1689              		.cfi_def_cfa_offset 32
 1690              		.loc 1 204 0
 1691 000e FFF7FEFF 		bl	test_wait_tick
 1692              		.loc 1 206 0
 1693 0012 FB69     		ldr	r3, [r7, #28]
 1694              		.loc 1 205 0
 1695 0014 D5F80C80 		ldr	r8, [r5, #12]
 1696              	.LVL55:
ARM GAS  /tmp/ccmmOrh2.s 			page 31


 1697              		.loc 1 206 0
 1698 0018 9A68     		ldr	r2, [r3, #8]
 1699 001a 3068     		ldr	r0, [r6, #0]
 1700 001c 1E4B     		ldr	r3, .L76+16
 1701 001e 0025     		movs	r5, #0
 1702 0020 4FF49071 		mov	r1, #288
 1703 0024 013A     		subs	r2, r2, #1
 1704 0026 0095     		str	r5, [sp, #0]
 1705 0028 FFF7FEFF 		bl	chThdCreateStatic
 1706              		.loc 1 207 0
 1707 002c F969     		ldr	r1, [r7, #28]
 1708 002e D6F804E0 		ldr	lr, [r6, #4]
 1709 0032 8A68     		ldr	r2, [r1, #8]
 1710 0034 194B     		ldr	r3, .L76+20
 1711              		.loc 1 206 0
 1712 0036 2060     		str	r0, [r4, #0]
 1713              		.loc 1 207 0
 1714 0038 4FF49071 		mov	r1, #288
 1715 003c 7046     		mov	r0, lr
 1716 003e 023A     		subs	r2, r2, #2
 1717 0040 0095     		str	r5, [sp, #0]
 1718 0042 FFF7FEFF 		bl	chThdCreateStatic
 1719              		.loc 1 208 0
 1720 0046 FB69     		ldr	r3, [r7, #28]
 1721 0048 B668     		ldr	r6, [r6, #8]
 1722 004a 9A68     		ldr	r2, [r3, #8]
 1723              		.loc 1 207 0
 1724 004c 6060     		str	r0, [r4, #4]
 1725              		.loc 1 208 0
 1726 004e 4FF49071 		mov	r1, #288
 1727 0052 033A     		subs	r2, r2, #3
 1728 0054 124B     		ldr	r3, .L76+24
 1729 0056 0095     		str	r5, [sp, #0]
 1730 0058 3046     		mov	r0, r6
 1731 005a FFF7FEFF 		bl	chThdCreateStatic
 1732 005e A060     		str	r0, [r4, #8]
 1733              		.loc 1 209 0
 1734 0060 FFF7FEFF 		bl	test_wait_threads
 1735              		.loc 1 210 0
 1736 0064 0120     		movs	r0, #1
 1737 0066 0F49     		ldr	r1, .L76+28
 1738 0068 FFF7FEFF 		bl	_test_assert_sequence
 1739 006c 10B1     		cbz	r0, .L75
 1740              		.loc 1 212 0
 1741 006e 02B0     		add	sp, sp, #8
 1742 0070 BDE8F081 		pop	{r4, r5, r6, r7, r8, pc}
 1743              	.L75:
 1744              		.loc 1 211 0
 1745 0074 0220     		movs	r0, #2
 1746 0076 08F16401 		add	r1, r8, #100
 1747 007a 08F16902 		add	r2, r8, #105
 1748              		.loc 1 212 0
 1749 007e 02B0     		add	sp, sp, #8
 1750 0080 BDE8F041 		pop	{r4, r5, r6, r7, r8, lr}
 1751              		.loc 1 211 0
 1752 0084 FFF7FEBF 		b	_test_assert_time_window
 1753              	.L77:
ARM GAS  /tmp/ccmmOrh2.s 			page 32


 1754              		.align	2
 1755              	.L76:
 1756 0088 00000000 		.word	rlist
 1757 008c 00000000 		.word	wa
 1758 0090 00000000 		.word	vtlist
 1759 0094 00000000 		.word	threads
 1760 0098 00000000 		.word	thread2H
 1761 009c 00000000 		.word	thread2M
 1762 00a0 00000000 		.word	thread2L
 1763 00a4 0C000000 		.word	.LC3
 1764              		.cfi_endproc
 1765              	.LFE14:
 1766              		.size	mtx2_execute, .-mtx2_execute
 1767 00a8 AFF30080 		.section	.text.thread3HH,"ax",%progbits
 1767      AFF30080 
 1768              		.align	2
 1769              		.p2align 4,,15
 1770              		.thumb
 1771              		.thumb_func
 1772              		.type	thread3HH, %function
 1773              	thread3HH:
 1774              	.LFB20:
 1775              		.loc 1 308 0
 1776              		.cfi_startproc
 1777              		@ args = 0, pretend = 0, frame = 0
 1778              		@ frame_needed = 0, uses_anonymous_args = 0
 1779              	.LVL56:
 1780 0000 08B5     		push	{r3, lr}
 1781              	.LCFI26:
 1782              		.cfi_def_cfa_offset 8
 1783              		.loc 1 311 0
 1784 0002 3220     		movs	r0, #50
 1785              	.LVL57:
 1786              		.cfi_offset 14, -4
 1787              		.cfi_offset 3, -8
 1788 0004 FFF7FEFF 		bl	chThdSleep
 1789              		.loc 1 312 0
 1790 0008 0648     		ldr	r0, .L79
 1791 000a FFF7FEFF 		bl	chMtxLock
 1792              		.loc 1 313 0
 1793 000e 0A20     		movs	r0, #10
 1794 0010 FFF7FEFF 		bl	test_cpu_pulse
 1795              		.loc 1 314 0
 1796 0014 FFF7FEFF 		bl	chMtxUnlock
 1797              		.loc 1 315 0
 1798 0018 4120     		movs	r0, #65
 1799 001a FFF7FEFF 		bl	test_emit_token
 1800              		.loc 1 317 0
 1801 001e 0020     		movs	r0, #0
 1802 0020 08BD     		pop	{r3, pc}
 1803              	.L80:
 1804 0022 00BF     		.align	2
 1805              	.L79:
 1806 0024 00000000 		.word	.LANCHOR1
 1807              		.cfi_endproc
 1808              	.LFE20:
 1809              		.size	thread3HH, .-thread3HH
ARM GAS  /tmp/ccmmOrh2.s 			page 33


 1810 0028 AFF30080 		.section	.text.thread3H,"ax",%progbits
 1810      AFF30080 
 1811              		.align	2
 1812              		.p2align 4,,15
 1813              		.thumb
 1814              		.thumb_func
 1815              		.type	thread3H, %function
 1816              	thread3H:
 1817              	.LFB19:
 1818              		.loc 1 298 0
 1819              		.cfi_startproc
 1820              		@ args = 0, pretend = 0, frame = 0
 1821              		@ frame_needed = 0, uses_anonymous_args = 0
 1822              	.LVL58:
 1823 0000 08B5     		push	{r3, lr}
 1824              	.LCFI27:
 1825              		.cfi_def_cfa_offset 8
 1826              		.loc 1 301 0
 1827 0002 2820     		movs	r0, #40
 1828              	.LVL59:
 1829              		.cfi_offset 14, -4
 1830              		.cfi_offset 3, -8
 1831 0004 FFF7FEFF 		bl	chThdSleep
 1832              		.loc 1 302 0
 1833 0008 1420     		movs	r0, #20
 1834 000a FFF7FEFF 		bl	test_cpu_pulse
 1835              		.loc 1 303 0
 1836 000e 4220     		movs	r0, #66
 1837 0010 FFF7FEFF 		bl	test_emit_token
 1838              		.loc 1 305 0
 1839 0014 0020     		movs	r0, #0
 1840 0016 08BD     		pop	{r3, pc}
 1841              		.cfi_endproc
 1842              	.LFE19:
 1843              		.size	thread3H, .-thread3H
 1844 0018 AFF30080 		.section	.text.thread3M,"ax",%progbits
 1844      AFF30080 
 1845              		.align	2
 1846              		.p2align 4,,15
 1847              		.thumb
 1848              		.thumb_func
 1849              		.type	thread3M, %function
 1850              	thread3M:
 1851              	.LFB18:
 1852              		.loc 1 286 0
 1853              		.cfi_startproc
 1854              		@ args = 0, pretend = 0, frame = 0
 1855              		@ frame_needed = 0, uses_anonymous_args = 0
 1856              	.LVL60:
 1857 0000 08B5     		push	{r3, lr}
 1858              	.LCFI28:
 1859              		.cfi_def_cfa_offset 8
 1860              		.loc 1 289 0
 1861 0002 1420     		movs	r0, #20
 1862              	.LVL61:
 1863              		.cfi_offset 14, -4
 1864              		.cfi_offset 3, -8
ARM GAS  /tmp/ccmmOrh2.s 			page 34


 1865 0004 FFF7FEFF 		bl	chThdSleep
 1866              		.loc 1 290 0
 1867 0008 0648     		ldr	r0, .L83
 1868 000a FFF7FEFF 		bl	chMtxLock
 1869              		.loc 1 291 0
 1870 000e 0A20     		movs	r0, #10
 1871 0010 FFF7FEFF 		bl	test_cpu_pulse
 1872              		.loc 1 292 0
 1873 0014 FFF7FEFF 		bl	chMtxUnlock
 1874              		.loc 1 293 0
 1875 0018 4320     		movs	r0, #67
 1876 001a FFF7FEFF 		bl	test_emit_token
 1877              		.loc 1 295 0
 1878 001e 0020     		movs	r0, #0
 1879 0020 08BD     		pop	{r3, pc}
 1880              	.L84:
 1881 0022 00BF     		.align	2
 1882              	.L83:
 1883 0024 00000000 		.word	.LANCHOR1
 1884              		.cfi_endproc
 1885              	.LFE18:
 1886              		.size	thread3M, .-thread3M
 1887 0028 AFF30080 		.section	.text.thread3L,"ax",%progbits
 1887      AFF30080 
 1888              		.align	2
 1889              		.p2align 4,,15
 1890              		.thumb
 1891              		.thumb_func
 1892              		.type	thread3L, %function
 1893              	thread3L:
 1894              	.LFB17:
 1895              		.loc 1 270 0
 1896              		.cfi_startproc
 1897              		@ args = 0, pretend = 0, frame = 0
 1898              		@ frame_needed = 0, uses_anonymous_args = 0
 1899              	.LVL62:
 1900 0000 08B5     		push	{r3, lr}
 1901              	.LCFI29:
 1902              		.cfi_def_cfa_offset 8
 1903              		.loc 1 273 0
 1904 0002 0A20     		movs	r0, #10
 1905              	.LVL63:
 1906              		.cfi_offset 14, -4
 1907              		.cfi_offset 3, -8
 1908 0004 FFF7FEFF 		bl	chThdSleep
 1909              		.loc 1 274 0
 1910 0008 0B48     		ldr	r0, .L86
 1911 000a FFF7FEFF 		bl	chMtxLock
 1912              		.loc 1 275 0
 1913 000e 1420     		movs	r0, #20
 1914 0010 FFF7FEFF 		bl	test_cpu_pulse
 1915              		.loc 1 276 0
 1916 0014 0948     		ldr	r0, .L86+4
 1917 0016 FFF7FEFF 		bl	chMtxLock
 1918              		.loc 1 277 0
 1919 001a 0A20     		movs	r0, #10
 1920 001c FFF7FEFF 		bl	test_cpu_pulse
ARM GAS  /tmp/ccmmOrh2.s 			page 35


 1921              		.loc 1 278 0
 1922 0020 FFF7FEFF 		bl	chMtxUnlock
 1923              		.loc 1 279 0
 1924 0024 0A20     		movs	r0, #10
 1925 0026 FFF7FEFF 		bl	test_cpu_pulse
 1926              		.loc 1 280 0
 1927 002a FFF7FEFF 		bl	chMtxUnlock
 1928              		.loc 1 281 0
 1929 002e 4420     		movs	r0, #68
 1930 0030 FFF7FEFF 		bl	test_emit_token
 1931              		.loc 1 283 0
 1932 0034 0020     		movs	r0, #0
 1933 0036 08BD     		pop	{r3, pc}
 1934              	.L87:
 1935              		.align	2
 1936              	.L86:
 1937 0038 00000000 		.word	.LANCHOR1
 1938 003c 00000000 		.word	.LANCHOR2
 1939              		.cfi_endproc
 1940              	.LFE17:
 1941              		.size	thread3L, .-thread3L
 1942              		.section	.text.thread3LL,"ax",%progbits
 1943              		.align	2
 1944              		.p2align 4,,15
 1945              		.thumb
 1946              		.thumb_func
 1947              		.type	thread3LL, %function
 1948              	thread3LL:
 1949              	.LFB16:
 1950              		.loc 1 259 0
 1951              		.cfi_startproc
 1952              		@ args = 0, pretend = 0, frame = 0
 1953              		@ frame_needed = 0, uses_anonymous_args = 0
 1954              	.LVL64:
 1955 0000 08B5     		push	{r3, lr}
 1956              	.LCFI30:
 1957              		.cfi_def_cfa_offset 8
 1958              		.loc 1 262 0
 1959 0002 0648     		ldr	r0, .L89
 1960              	.LVL65:
 1961              		.cfi_offset 14, -4
 1962              		.cfi_offset 3, -8
 1963 0004 FFF7FEFF 		bl	chMtxLock
 1964              		.loc 1 263 0
 1965 0008 1E20     		movs	r0, #30
 1966 000a FFF7FEFF 		bl	test_cpu_pulse
 1967              		.loc 1 264 0
 1968 000e FFF7FEFF 		bl	chMtxUnlock
 1969              		.loc 1 265 0
 1970 0012 4520     		movs	r0, #69
 1971 0014 FFF7FEFF 		bl	test_emit_token
 1972              		.loc 1 267 0
 1973 0018 0020     		movs	r0, #0
 1974 001a 08BD     		pop	{r3, pc}
 1975              	.L90:
 1976              		.align	2
 1977              	.L89:
ARM GAS  /tmp/ccmmOrh2.s 			page 36


 1978 001c 00000000 		.word	.LANCHOR2
 1979              		.cfi_endproc
 1980              	.LFE16:
 1981              		.size	thread3LL, .-thread3LL
 1982              		.section	.text.thread2L,"ax",%progbits
 1983              		.align	2
 1984              		.p2align 4,,15
 1985              		.thumb
 1986              		.thumb_func
 1987              		.type	thread2L, %function
 1988              	thread2L:
 1989              	.LFB11:
 1990              		.loc 1 168 0
 1991              		.cfi_startproc
 1992              		@ args = 0, pretend = 0, frame = 0
 1993              		@ frame_needed = 0, uses_anonymous_args = 0
 1994              	.LVL66:
 1995 0000 08B5     		push	{r3, lr}
 1996              	.LCFI31:
 1997              		.cfi_def_cfa_offset 8
 1998              		.loc 1 171 0
 1999 0002 0848     		ldr	r0, .L92
 2000              	.LVL67:
 2001              		.cfi_offset 14, -4
 2002              		.cfi_offset 3, -8
 2003 0004 FFF7FEFF 		bl	chMtxLock
 2004              		.loc 1 172 0
 2005 0008 2820     		movs	r0, #40
 2006 000a FFF7FEFF 		bl	test_cpu_pulse
 2007              		.loc 1 173 0
 2008 000e FFF7FEFF 		bl	chMtxUnlock
 2009              		.loc 1 174 0
 2010 0012 0A20     		movs	r0, #10
 2011 0014 FFF7FEFF 		bl	test_cpu_pulse
 2012              		.loc 1 175 0
 2013 0018 4320     		movs	r0, #67
 2014 001a FFF7FEFF 		bl	test_emit_token
 2015              		.loc 1 177 0
 2016 001e 0020     		movs	r0, #0
 2017 0020 08BD     		pop	{r3, pc}
 2018              	.L93:
 2019 0022 00BF     		.align	2
 2020              	.L92:
 2021 0024 00000000 		.word	.LANCHOR2
 2022              		.cfi_endproc
 2023              	.LFE11:
 2024              		.size	thread2L, .-thread2L
 2025 0028 AFF30080 		.section	.text.thread2M,"ax",%progbits
 2025      AFF30080 
 2026              		.align	2
 2027              		.p2align 4,,15
 2028              		.thumb
 2029              		.thumb_func
 2030              		.type	thread2M, %function
 2031              	thread2M:
 2032              	.LFB12:
 2033              		.loc 1 180 0
ARM GAS  /tmp/ccmmOrh2.s 			page 37


 2034              		.cfi_startproc
 2035              		@ args = 0, pretend = 0, frame = 0
 2036              		@ frame_needed = 0, uses_anonymous_args = 0
 2037              	.LVL68:
 2038 0000 08B5     		push	{r3, lr}
 2039              	.LCFI32:
 2040              		.cfi_def_cfa_offset 8
 2041              		.loc 1 183 0
 2042 0002 1420     		movs	r0, #20
 2043              	.LVL69:
 2044              		.cfi_offset 14, -4
 2045              		.cfi_offset 3, -8
 2046 0004 FFF7FEFF 		bl	chThdSleep
 2047              		.loc 1 184 0
 2048 0008 2820     		movs	r0, #40
 2049 000a FFF7FEFF 		bl	test_cpu_pulse
 2050              		.loc 1 185 0
 2051 000e 4220     		movs	r0, #66
 2052 0010 FFF7FEFF 		bl	test_emit_token
 2053              		.loc 1 187 0
 2054 0014 0020     		movs	r0, #0
 2055 0016 08BD     		pop	{r3, pc}
 2056              		.cfi_endproc
 2057              	.LFE12:
 2058              		.size	thread2M, .-thread2M
 2059 0018 AFF30080 		.section	.text.thread2H,"ax",%progbits
 2059      AFF30080 
 2060              		.align	2
 2061              		.p2align 4,,15
 2062              		.thumb
 2063              		.thumb_func
 2064              		.type	thread2H, %function
 2065              	thread2H:
 2066              	.LFB13:
 2067              		.loc 1 190 0
 2068              		.cfi_startproc
 2069              		@ args = 0, pretend = 0, frame = 0
 2070              		@ frame_needed = 0, uses_anonymous_args = 0
 2071              	.LVL70:
 2072 0000 08B5     		push	{r3, lr}
 2073              	.LCFI33:
 2074              		.cfi_def_cfa_offset 8
 2075              		.loc 1 193 0
 2076 0002 2820     		movs	r0, #40
 2077              	.LVL71:
 2078              		.cfi_offset 14, -4
 2079              		.cfi_offset 3, -8
 2080 0004 FFF7FEFF 		bl	chThdSleep
 2081              		.loc 1 194 0
 2082 0008 0648     		ldr	r0, .L96
 2083 000a FFF7FEFF 		bl	chMtxLock
 2084              		.loc 1 195 0
 2085 000e 0A20     		movs	r0, #10
 2086 0010 FFF7FEFF 		bl	test_cpu_pulse
 2087              		.loc 1 196 0
 2088 0014 FFF7FEFF 		bl	chMtxUnlock
 2089              		.loc 1 197 0
ARM GAS  /tmp/ccmmOrh2.s 			page 38


 2090 0018 4120     		movs	r0, #65
 2091 001a FFF7FEFF 		bl	test_emit_token
 2092              		.loc 1 199 0
 2093 001e 0020     		movs	r0, #0
 2094 0020 08BD     		pop	{r3, pc}
 2095              	.L97:
 2096 0022 00BF     		.align	2
 2097              	.L96:
 2098 0024 00000000 		.word	.LANCHOR2
 2099              		.cfi_endproc
 2100              	.LFE13:
 2101              		.size	thread2H, .-thread2H
 2102              		.global	testmtx1
 2103              		.global	testmtx2
 2104              		.global	testmtx3
 2105              		.global	testmtx4
 2106              		.global	testmtx5
 2107              		.global	testmtx6
 2108              		.global	testmtx7
 2109              		.global	testmtx8
 2110              		.global	patternmtx
 2111 0028 AFF30080 		.section	.rodata.testmtx5,"a",%progbits
 2111      AFF30080 
 2112              		.align	2
 2113              		.type	testmtx5, %object
 2114              		.size	testmtx5, 16
 2115              	testmtx5:
 2116 0000 B8000000 		.word	.LC11
 2117 0004 00000000 		.word	mtx5_setup
 2118 0008 00000000 		.word	0
 2119 000c 00000000 		.word	mtx5_execute
 2120              		.section	.rodata.testmtx6,"a",%progbits
 2121              		.align	2
 2122              		.type	testmtx6, %object
 2123              		.size	testmtx6, 16
 2124              	testmtx6:
 2125 0000 C8000000 		.word	.LC12
 2126 0004 00000000 		.word	mtx6_setup
 2127 0008 00000000 		.word	0
 2128 000c 00000000 		.word	mtx6_execute
 2129              		.section	.rodata.testmtx7,"a",%progbits
 2130              		.align	2
 2131              		.type	testmtx7, %object
 2132              		.size	testmtx7, 16
 2133              	testmtx7:
 2134 0000 E0000000 		.word	.LC13
 2135 0004 00000000 		.word	mtx7_setup
 2136 0008 00000000 		.word	0
 2137 000c 00000000 		.word	mtx7_execute
 2138              		.section	.rodata.testmtx8,"a",%progbits
 2139              		.align	2
 2140              		.type	testmtx8, %object
 2141              		.size	testmtx8, 16
 2142              	testmtx8:
 2143 0000 F8000000 		.word	.LC14
 2144 0004 00000000 		.word	mtx8_setup
 2145 0008 00000000 		.word	0
ARM GAS  /tmp/ccmmOrh2.s 			page 39


 2146 000c 00000000 		.word	mtx8_execute
 2147              		.section	.data.m1,"aw",%progbits
 2148              		.align	2
 2149              		.set	.LANCHOR2,. + 0
 2150              		.type	m1, %object
 2151              		.size	m1, 16
 2152              	m1:
 2153 0000 00000000 		.word	m1
 2154 0004 00000000 		.word	m1
 2155 0008 00000000 		.word	0
 2156 000c 00000000 		.word	0
 2157              		.section	.data.m2,"aw",%progbits
 2158              		.align	2
 2159              		.set	.LANCHOR1,. + 0
 2160              		.type	m2, %object
 2161              		.size	m2, 16
 2162              	m2:
 2163 0000 00000000 		.word	m2
 2164 0004 00000000 		.word	m2
 2165 0008 00000000 		.word	0
 2166 000c 00000000 		.word	0
 2167              		.section	.rodata.str1.4,"aMS",%progbits,1
 2168              		.align	2
 2169              	.LC0:
 2170 0000 4100     		.ascii	"A\000"
 2171 0002 0000     		.space	2
 2172              	.LC1:
 2173 0004 4300     		.ascii	"C\000"
 2174 0006 0000     		.space	2
 2175              	.LC2:
 2176 0008 4200     		.ascii	"B\000"
 2177 000a 0000     		.space	2
 2178              	.LC3:
 2179 000c 41424300 		.ascii	"ABC\000"
 2180              	.LC4:
 2181 0010 4500     		.ascii	"E\000"
 2182 0012 0000     		.space	2
 2183              	.LC5:
 2184 0014 4400     		.ascii	"D\000"
 2185 0016 0000     		.space	2
 2186              	.LC6:
 2187 0018 41424344 		.ascii	"ABCDE\000"
 2187      4500
 2188 001e 0000     		.space	2
 2189              	.LC7:
 2190 0020 4D757465 		.ascii	"Mutexes, priority enqueuing test\000"
 2190      7865732C 
 2190      20707269 
 2190      6F726974 
 2190      7920656E 
 2191 0041 000000   		.space	3
 2192              	.LC8:
 2193 0044 4D757465 		.ascii	"Mutexes, priority inheritance, simple case\000"
 2193      7865732C 
 2193      20707269 
 2193      6F726974 
 2193      7920696E 
ARM GAS  /tmp/ccmmOrh2.s 			page 40


 2194 006f 00       		.space	1
 2195              	.LC9:
 2196 0070 4D757465 		.ascii	"Mutexes, priority inheritance, complex case\000"
 2196      7865732C 
 2196      20707269 
 2196      6F726974 
 2196      7920696E 
 2197              	.LC10:
 2198 009c 4D757465 		.ascii	"Mutexes, priority return\000"
 2198      7865732C 
 2198      20707269 
 2198      6F726974 
 2198      79207265 
 2199 00b5 000000   		.space	3
 2200              	.LC11:
 2201 00b8 4D757465 		.ascii	"Mutexes, status\000"
 2201      7865732C 
 2201      20737461 
 2201      74757300 
 2202              	.LC12:
 2203 00c8 436F6E64 		.ascii	"CondVar, signal test\000"
 2203      5661722C 
 2203      20736967 
 2203      6E616C20 
 2203      74657374 
 2204 00dd 000000   		.space	3
 2205              	.LC13:
 2206 00e0 436F6E64 		.ascii	"CondVar, broadcast test\000"
 2206      5661722C 
 2206      2062726F 
 2206      61646361 
 2206      73742074 
 2207              	.LC14:
 2208 00f8 436F6E64 		.ascii	"CondVar, boost test\000"
 2208      5661722C 
 2208      20626F6F 
 2208      73742074 
 2208      65737400 
 2209              		.section	.rodata.patternmtx,"a",%progbits
 2210              		.align	2
 2211              		.type	patternmtx, %object
 2212              		.size	patternmtx, 36
 2213              	patternmtx:
 2214 0000 00000000 		.word	testmtx1
 2215 0004 00000000 		.word	testmtx2
 2216 0008 00000000 		.word	testmtx3
 2217 000c 00000000 		.word	testmtx4
 2218 0010 00000000 		.word	testmtx5
 2219 0014 00000000 		.word	testmtx6
 2220 0018 00000000 		.word	testmtx7
 2221 001c 00000000 		.word	testmtx8
 2222 0020 00000000 		.word	0
 2223              		.section	.data.c1,"aw",%progbits
 2224              		.align	2
 2225              		.set	.LANCHOR0,. + 0
 2226              		.type	c1, %object
 2227              		.size	c1, 8
ARM GAS  /tmp/ccmmOrh2.s 			page 41


 2228              	c1:
 2229 0000 00000000 		.word	c1
 2230 0004 00000000 		.word	c1
 2231              		.section	.rodata.testmtx1,"a",%progbits
 2232              		.align	2
 2233              		.type	testmtx1, %object
 2234              		.size	testmtx1, 16
 2235              	testmtx1:
 2236 0000 20000000 		.word	.LC7
 2237 0004 00000000 		.word	mtx1_setup
 2238 0008 00000000 		.word	0
 2239 000c 00000000 		.word	mtx1_execute
 2240              		.section	.rodata.testmtx2,"a",%progbits
 2241              		.align	2
 2242              		.type	testmtx2, %object
 2243              		.size	testmtx2, 16
 2244              	testmtx2:
 2245 0000 44000000 		.word	.LC8
 2246 0004 00000000 		.word	mtx2_setup
 2247 0008 00000000 		.word	0
 2248 000c 00000000 		.word	mtx2_execute
 2249              		.section	.rodata.testmtx3,"a",%progbits
 2250              		.align	2
 2251              		.type	testmtx3, %object
 2252              		.size	testmtx3, 16
 2253              	testmtx3:
 2254 0000 70000000 		.word	.LC9
 2255 0004 00000000 		.word	mtx3_setup
 2256 0008 00000000 		.word	0
 2257 000c 00000000 		.word	mtx3_execute
 2258              		.section	.rodata.testmtx4,"a",%progbits
 2259              		.align	2
 2260              		.type	testmtx4, %object
 2261              		.size	testmtx4, 16
 2262              	testmtx4:
 2263 0000 9C000000 		.word	.LC10
 2264 0004 00000000 		.word	mtx4_setup
 2265 0008 00000000 		.word	0
 2266 000c 00000000 		.word	mtx4_execute
 2267              		.text
 2268              	.Letext0: