ARM GAS  /tmp/ccSLDVNz.s 			page 1


   1              		.syntax unified
   2              		.cpu cortex-m4
   3              		.eabi_attribute 27, 3
   4              		.eabi_attribute 28, 1
   5              		.fpu fpv4-sp-d16
   6              		.eabi_attribute 20, 1
   7              		.eabi_attribute 21, 1
   8              		.eabi_attribute 23, 3
   9              		.eabi_attribute 24, 1
  10              		.eabi_attribute 25, 1
  11              		.eabi_attribute 26, 1
  12              		.eabi_attribute 30, 2
  13              		.eabi_attribute 18, 4
  14              		.thumb
  15              		.file	"testpools.c"
  22 0000 2A010000 		.text
  22      0200E600 
  22      00000201 
  22      FB0E0D00 
  22      01010101 
  23              	.Ltext0:
  24              		.cfi_sections	.debug_frame
  25              		.section	.text.null_provider,"ax",%progbits
  26              		.align	2
  27              		.p2align 4,,15
  28              		.thumb
  29              		.thumb_func
  30              		.type	null_provider, %function
  31              	null_provider:
  32              	.LFB7:
  33              		.file 1 "../libs/ChibiOS_2.4.0/test/testpools.c"
  34              		.loc 1 71 0
  35              		.cfi_startproc
  36              		@ args = 0, pretend = 0, frame = 0
  37              		@ frame_needed = 0, uses_anonymous_args = 0
  38              		@ link register save eliminated.
  39              	.LVL0:
  40              		.loc 1 75 0
  41 0000 0020     		movs	r0, #0
  42              	.LVL1:
  43 0002 7047     		bx	lr
  44              		.cfi_endproc
  45              	.LFE7:
  46              		.size	null_provider, .-null_provider
  47 0004 AFF30080 		.section	.text.pools1_execute,"ax",%progbits
  47      AFF30080 
  47      AFF30080 
  48              		.align	2
  49              		.p2align 4,,15
  50              		.thumb
  51              		.thumb_func
ARM GAS  /tmp/ccSLDVNz.s 			page 2


  52              		.type	pools1_execute, %function
  53              	pools1_execute:
  54              	.LFB9:
  55              		.loc 1 82 0
  56              		.cfi_startproc
  57              		@ args = 0, pretend = 0, frame = 0
  58              		@ frame_needed = 0, uses_anonymous_args = 0
  59              	.LVL2:
  60 0000 10B5     		push	{r4, lr}
  61              	.LCFI0:
  62              		.cfi_def_cfa_offset 8
  63              		.loc 1 87 0
  64 0002 324C     		ldr	r4, .L6
  65              		.cfi_offset 14, -4
  66              		.cfi_offset 4, -8
  67 0004 3248     		ldr	r0, .L6+4
  68 0006 2168     		ldr	r1, [r4, #0]
  69 0008 FFF7FEFF 		bl	chPoolFree
  70              	.LVL3:
  71 000c 3048     		ldr	r0, .L6+4
  72 000e 6168     		ldr	r1, [r4, #4]
  73 0010 FFF7FEFF 		bl	chPoolFree
  74              	.LVL4:
  75 0014 2E48     		ldr	r0, .L6+4
  76 0016 A168     		ldr	r1, [r4, #8]
  77 0018 FFF7FEFF 		bl	chPoolFree
  78              	.LVL5:
  79 001c 2C48     		ldr	r0, .L6+4
  80 001e E168     		ldr	r1, [r4, #12]
  81 0020 FFF7FEFF 		bl	chPoolFree
  82              	.LVL6:
  83 0024 2169     		ldr	r1, [r4, #16]
  84 0026 2A48     		ldr	r0, .L6+4
  85 0028 FFF7FEFF 		bl	chPoolFree
  86              	.LVL7:
  87              		.loc 1 91 0
  88 002c 2848     		ldr	r0, .L6+4
  89 002e FFF7FEFF 		bl	chPoolAlloc
  90 0032 011E     		subs	r1, r0, #0
  91 0034 18BF     		it	ne
  92 0036 0121     		movne	r1, #1
  93 0038 0120     		movs	r0, #1
  94 003a FFF7FEFF 		bl	_test_assert
  95 003e 0028     		cmp	r0, #0
  96 0040 32D1     		bne	.L2
  97              	.LVL8:
  98 0042 2348     		ldr	r0, .L6+4
  99 0044 FFF7FEFF 		bl	chPoolAlloc
 100 0048 011E     		subs	r1, r0, #0
 101 004a 18BF     		it	ne
 102 004c 0121     		movne	r1, #1
 103 004e 0120     		movs	r0, #1
 104 0050 FFF7FEFF 		bl	_test_assert
 105 0054 40BB     		cbnz	r0, .L2
 106              	.LVL9:
 107 0056 1E48     		ldr	r0, .L6+4
 108 0058 FFF7FEFF 		bl	chPoolAlloc
ARM GAS  /tmp/ccSLDVNz.s 			page 3


 109 005c 011E     		subs	r1, r0, #0
 110 005e 18BF     		it	ne
 111 0060 0121     		movne	r1, #1
 112 0062 0120     		movs	r0, #1
 113 0064 FFF7FEFF 		bl	_test_assert
 114 0068 F0B9     		cbnz	r0, .L2
 115              	.LVL10:
 116 006a 1948     		ldr	r0, .L6+4
 117 006c FFF7FEFF 		bl	chPoolAlloc
 118 0070 011E     		subs	r1, r0, #0
 119 0072 18BF     		it	ne
 120 0074 0121     		movne	r1, #1
 121 0076 0120     		movs	r0, #1
 122 0078 FFF7FEFF 		bl	_test_assert
 123 007c A0B9     		cbnz	r0, .L2
 124              	.LVL11:
 125 007e 1448     		ldr	r0, .L6+4
 126 0080 FFF7FEFF 		bl	chPoolAlloc
 127 0084 011E     		subs	r1, r0, #0
 128 0086 18BF     		it	ne
 129 0088 0121     		movne	r1, #1
 130 008a 0120     		movs	r0, #1
 131 008c FFF7FEFF 		bl	_test_assert
 132 0090 50B9     		cbnz	r0, .L2
 133              	.LVL12:
 134              		.loc 1 94 0
 135 0092 0F48     		ldr	r0, .L6+4
 136 0094 FFF7FEFF 		bl	chPoolAlloc
 137 0098 D0F10101 		rsbs	r1, r0, #1
 138 009c 38BF     		it	cc
 139 009e 0021     		movcc	r1, #0
 140 00a0 0220     		movs	r0, #2
 141 00a2 FFF7FEFF 		bl	_test_assert
 142 00a6 00B1     		cbz	r0, .L5
 143              	.LVL13:
 144              	.L2:
 145 00a8 10BD     		pop	{r4, pc}
 146              	.LVL14:
 147              	.L5:
 148              		.loc 1 97 0
 149 00aa 1021     		movs	r1, #16
 150 00ac 094A     		ldr	r2, .L6+8
 151 00ae 0848     		ldr	r0, .L6+4
 152 00b0 FFF7FEFF 		bl	chPoolInit
 153              		.loc 1 98 0
 154 00b4 0648     		ldr	r0, .L6+4
 155 00b6 FFF7FEFF 		bl	chPoolAlloc
 156 00ba D0F10101 		rsbs	r1, r0, #1
 157 00be 38BF     		it	cc
 158 00c0 0021     		movcc	r1, #0
 159 00c2 0320     		movs	r0, #3
 160              		.loc 1 99 0
 161 00c4 BDE81040 		pop	{r4, lr}
 162              		.loc 1 98 0
 163 00c8 FFF7FEBF 		b	_test_assert
 164              	.L7:
 165              		.align	2
ARM GAS  /tmp/ccSLDVNz.s 			page 4


 166              	.L6:
 167 00cc 00000000 		.word	wa
 168 00d0 00000000 		.word	.LANCHOR0
 169 00d4 00000000 		.word	null_provider
 170              		.cfi_endproc
 171              	.LFE9:
 172              		.size	pools1_execute, .-pools1_execute
 173 00d8 AFF30080 		.section	.text.pools1_setup,"ax",%progbits
 173      AFF30080 
 174              		.align	2
 175              		.p2align 4,,15
 176              		.thumb
 177              		.thumb_func
 178              		.type	pools1_setup, %function
 179              	pools1_setup:
 180              	.LFB8:
 181              		.loc 1 77 0
 182              		.cfi_startproc
 183              		@ args = 0, pretend = 0, frame = 0
 184              		@ frame_needed = 0, uses_anonymous_args = 0
 185              		@ link register save eliminated.
 186              		.loc 1 79 0
 187 0000 0248     		ldr	r0, .L9
 188 0002 4FF49071 		mov	r1, #288
 189 0006 0022     		movs	r2, #0
 190              		.loc 1 80 0
 191              		.loc 1 79 0
 192 0008 FFF7FEBF 		b	chPoolInit
 193              	.L10:
 194              		.align	2
 195              	.L9:
 196 000c 00000000 		.word	.LANCHOR0
 197              		.cfi_endproc
 198              	.LFE8:
 199              		.size	pools1_setup, .-pools1_setup
 200              		.global	testpools1
 201              		.global	patternpools
 202              		.section	.rodata.str1.4,"aMS",%progbits,1
 203              		.align	2
 204              	.LC0:
 205 0000 4D656D6F 		.ascii	"Memory Pools, queue/dequeue\000"
 205      72792050 
 205      6F6F6C73 
 205      2C207175 
 205      6575652F 
 206              		.section	.rodata.patternpools,"a",%progbits
 207              		.align	2
 208              		.type	patternpools, %object
 209              		.size	patternpools, 8
 210              	patternpools:
 211 0000 00000000 		.word	testpools1
 212 0004 00000000 		.word	0
 213              		.section	.data.mp1,"aw",%progbits
 214              		.align	2
 215              		.set	.LANCHOR0,. + 0
 216              		.type	mp1, %object
 217              		.size	mp1, 12
ARM GAS  /tmp/ccSLDVNz.s 			page 5


 218              	mp1:
 219 0000 00000000 		.word	0
 220 0004 20010000 		.word	288
 221 0008 00000000 		.word	0
 222              		.section	.rodata.testpools1,"a",%progbits
 223              		.align	2
 224              		.type	testpools1, %object
 225              		.size	testpools1, 16
 226              	testpools1:
 227 0000 00000000 		.word	.LC0
 228 0004 00000000 		.word	pools1_setup
 229 0008 00000000 		.word	0
 230 000c 00000000 		.word	pools1_execute
 231              		.text
 232              	.Letext0: