
spykee:     file format elf64-x86-64


Disassembly of section .init:

0000000000409230 <_init>:
  409230:	48 83 ec 08          	sub    $0x8,%rsp
  409234:	e8 eb 0c 00 00       	callq  409f24 <call_gmon_start>
  409239:	e8 72 0d 00 00       	callq  409fb0 <frame_dummy>
  40923e:	e8 cd 92 00 00       	callq  412510 <__do_global_ctors_aux>
  409243:	48 83 c4 08          	add    $0x8,%rsp
  409247:	c3                   	retq   

Disassembly of section .plt:

0000000000409250 <_Znam@plt-0x10>:
  409250:	ff 35 fa e0 20 00    	pushq  0x20e0fa(%rip)        # 617350 <_GLOBAL_OFFSET_TABLE_+0x8>
  409256:	ff 25 fc e0 20 00    	jmpq   *0x20e0fc(%rip)        # 617358 <_GLOBAL_OFFSET_TABLE_+0x10>
  40925c:	0f 1f 40 00          	nopl   0x0(%rax)

0000000000409260 <_Znam@plt>:
  409260:	ff 25 fa e0 20 00    	jmpq   *0x20e0fa(%rip)        # 617360 <_GLOBAL_OFFSET_TABLE_+0x18>
  409266:	68 00 00 00 00       	pushq  $0x0
  40926b:	e9 e0 ff ff ff       	jmpq   409250 <_init+0x20>

0000000000409270 <__errno_location@plt>:
  409270:	ff 25 f2 e0 20 00    	jmpq   *0x20e0f2(%rip)        # 617368 <_GLOBAL_OFFSET_TABLE_+0x20>
  409276:	68 01 00 00 00       	pushq  $0x1
  40927b:	e9 d0 ff ff ff       	jmpq   409250 <_init+0x20>

0000000000409280 <pthread_cancel@plt>:
  409280:	ff 25 ea e0 20 00    	jmpq   *0x20e0ea(%rip)        # 617370 <_GLOBAL_OFFSET_TABLE_+0x28>
  409286:	68 02 00 00 00       	pushq  $0x2
  40928b:	e9 c0 ff ff ff       	jmpq   409250 <_init+0x20>

0000000000409290 <sendto@plt>:
  409290:	ff 25 e2 e0 20 00    	jmpq   *0x20e0e2(%rip)        # 617378 <_GLOBAL_OFFSET_TABLE_+0x30>
  409296:	68 03 00 00 00       	pushq  $0x3
  40929b:	e9 b0 ff ff ff       	jmpq   409250 <_init+0x20>

00000000004092a0 <getservbyname@plt>:
  4092a0:	ff 25 da e0 20 00    	jmpq   *0x20e0da(%rip)        # 617380 <_GLOBAL_OFFSET_TABLE_+0x38>
  4092a6:	68 04 00 00 00       	pushq  $0x4
  4092ab:	e9 a0 ff ff ff       	jmpq   409250 <_init+0x20>

00000000004092b0 <bind@plt>:
  4092b0:	ff 25 d2 e0 20 00    	jmpq   *0x20e0d2(%rip)        # 617388 <_GLOBAL_OFFSET_TABLE_+0x40>
  4092b6:	68 05 00 00 00       	pushq  $0x5
  4092bb:	e9 90 ff ff ff       	jmpq   409250 <_init+0x20>

00000000004092c0 <_ZNSs6appendEPKcm@plt>:
  4092c0:	ff 25 ca e0 20 00    	jmpq   *0x20e0ca(%rip)        # 617390 <_GLOBAL_OFFSET_TABLE_+0x48>
  4092c6:	68 06 00 00 00       	pushq  $0x6
  4092cb:	e9 80 ff ff ff       	jmpq   409250 <_init+0x20>

00000000004092d0 <_ZNKSs7compareEPKc@plt>:
  4092d0:	ff 25 c2 e0 20 00    	jmpq   *0x20e0c2(%rip)        # 617398 <_GLOBAL_OFFSET_TABLE_+0x50>
  4092d6:	68 07 00 00 00       	pushq  $0x7
  4092db:	e9 70 ff ff ff       	jmpq   409250 <_init+0x20>

00000000004092e0 <socket@plt>:
  4092e0:	ff 25 ba e0 20 00    	jmpq   *0x20e0ba(%rip)        # 6173a0 <_GLOBAL_OFFSET_TABLE_+0x58>
  4092e6:	68 08 00 00 00       	pushq  $0x8
  4092eb:	e9 60 ff ff ff       	jmpq   409250 <_init+0x20>

00000000004092f0 <_ZN3ros4initERiPPcRKSsj@plt>:
  4092f0:	ff 25 b2 e0 20 00    	jmpq   *0x20e0b2(%rip)        # 6173a8 <_GLOBAL_OFFSET_TABLE_+0x60>
  4092f6:	68 09 00 00 00       	pushq  $0x9
  4092fb:	e9 50 ff ff ff       	jmpq   409250 <_init+0x20>

0000000000409300 <_ZSt9terminatev@plt>:
  409300:	ff 25 aa e0 20 00    	jmpq   *0x20e0aa(%rip)        # 6173b0 <_GLOBAL_OFFSET_TABLE_+0x68>
  409306:	68 0a 00 00 00       	pushq  $0xa
  40930b:	e9 40 ff ff ff       	jmpq   409250 <_init+0x20>

0000000000409310 <_ZN3ros10NodeHandle9subscribeERNS_16SubscribeOptionsE@plt>:
  409310:	ff 25 a2 e0 20 00    	jmpq   *0x20e0a2(%rip)        # 6173b8 <_GLOBAL_OFFSET_TABLE_+0x70>
  409316:	68 0b 00 00 00       	pushq  $0xb
  40931b:	e9 30 ff ff ff       	jmpq   409250 <_init+0x20>

0000000000409320 <_ZN3ros7console5printEPNS0_10FilterBaseEPN7log4cxx6LoggerENS0_6levels5LevelEPKciS9_S9_z@plt>:
  409320:	ff 25 9a e0 20 00    	jmpq   *0x20e09a(%rip)        # 6173c0 <_GLOBAL_OFFSET_TABLE_+0x78>
  409326:	68 0c 00 00 00       	pushq  $0xc
  40932b:	e9 20 ff ff ff       	jmpq   409250 <_init+0x20>

0000000000409330 <accept@plt>:
  409330:	ff 25 92 e0 20 00    	jmpq   *0x20e092(%rip)        # 6173c8 <_GLOBAL_OFFSET_TABLE_+0x80>
  409336:	68 0d 00 00 00       	pushq  $0xd
  40933b:	e9 10 ff ff ff       	jmpq   409250 <_init+0x20>

0000000000409340 <recv@plt>:
  409340:	ff 25 8a e0 20 00    	jmpq   *0x20e08a(%rip)        # 6173d0 <_GLOBAL_OFFSET_TABLE_+0x88>
  409346:	68 0e 00 00 00       	pushq  $0xe
  40934b:	e9 00 ff ff ff       	jmpq   409250 <_init+0x20>

0000000000409350 <strerror@plt>:
  409350:	ff 25 82 e0 20 00    	jmpq   *0x20e082(%rip)        # 6173d8 <_GLOBAL_OFFSET_TABLE_+0x90>
  409356:	68 0f 00 00 00       	pushq  $0xf
  40935b:	e9 f0 fe ff ff       	jmpq   409250 <_init+0x20>

0000000000409360 <_ZSt17__throw_bad_allocv@plt>:
  409360:	ff 25 7a e0 20 00    	jmpq   *0x20e07a(%rip)        # 6173e0 <_GLOBAL_OFFSET_TABLE_+0x98>
  409366:	68 10 00 00 00       	pushq  $0x10
  40936b:	e9 e0 fe ff ff       	jmpq   409250 <_init+0x20>

0000000000409370 <__cxa_begin_catch@plt>:
  409370:	ff 25 72 e0 20 00    	jmpq   *0x20e072(%rip)        # 6173e8 <_GLOBAL_OFFSET_TABLE_+0xa0>
  409376:	68 11 00 00 00       	pushq  $0x11
  40937b:	e9 d0 fe ff ff       	jmpq   409250 <_init+0x20>

0000000000409380 <strlen@plt>:
  409380:	ff 25 6a e0 20 00    	jmpq   *0x20e06a(%rip)        # 6173f0 <_GLOBAL_OFFSET_TABLE_+0xa8>
  409386:	68 12 00 00 00       	pushq  $0x12
  40938b:	e9 c0 fe ff ff       	jmpq   409250 <_init+0x20>

0000000000409390 <inet_ntoa@plt>:
  409390:	ff 25 62 e0 20 00    	jmpq   *0x20e062(%rip)        # 6173f8 <_GLOBAL_OFFSET_TABLE_+0xb0>
  409396:	68 13 00 00 00       	pushq  $0x13
  40939b:	e9 b0 fe ff ff       	jmpq   409250 <_init+0x20>

00000000004093a0 <_ZSt4endlIcSt11char_traitsIcEERSt13basic_ostreamIT_T0_ES6_@plt>:
  4093a0:	ff 25 5a e0 20 00    	jmpq   *0x20e05a(%rip)        # 617400 <_GLOBAL_OFFSET_TABLE_+0xb8>
  4093a6:	68 14 00 00 00       	pushq  $0x14
  4093ab:	e9 a0 fe ff ff       	jmpq   409250 <_init+0x20>

00000000004093b0 <__cxa_allocate_exception@plt>:
  4093b0:	ff 25 52 e0 20 00    	jmpq   *0x20e052(%rip)        # 617408 <_GLOBAL_OFFSET_TABLE_+0xc0>
  4093b6:	68 15 00 00 00       	pushq  $0x15
  4093bb:	e9 90 fe ff ff       	jmpq   409250 <_init+0x20>

00000000004093c0 <send@plt>:
  4093c0:	ff 25 4a e0 20 00    	jmpq   *0x20e04a(%rip)        # 617410 <_GLOBAL_OFFSET_TABLE_+0xc8>
  4093c6:	68 16 00 00 00       	pushq  $0x16
  4093cb:	e9 80 fe ff ff       	jmpq   409250 <_init+0x20>

00000000004093d0 <_ZNSsC1EPKcmRKSaIcE@plt>:
  4093d0:	ff 25 42 e0 20 00    	jmpq   *0x20e042(%rip)        # 617418 <_GLOBAL_OFFSET_TABLE_+0xd0>
  4093d6:	68 17 00 00 00       	pushq  $0x17
  4093db:	e9 70 fe ff ff       	jmpq   409250 <_init+0x20>

00000000004093e0 <_ZSt20__throw_length_errorPKc@plt>:
  4093e0:	ff 25 3a e0 20 00    	jmpq   *0x20e03a(%rip)        # 617420 <_GLOBAL_OFFSET_TABLE_+0xd8>
  4093e6:	68 18 00 00 00       	pushq  $0x18
  4093eb:	e9 60 fe ff ff       	jmpq   409250 <_init+0x20>

00000000004093f0 <_ZN3ros7console10initializeEv@plt>:
  4093f0:	ff 25 32 e0 20 00    	jmpq   *0x20e032(%rip)        # 617428 <_GLOBAL_OFFSET_TABLE_+0xe0>
  4093f6:	68 19 00 00 00       	pushq  $0x19
  4093fb:	e9 50 fe ff ff       	jmpq   409250 <_init+0x20>

0000000000409400 <memset@plt>:
  409400:	ff 25 2a e0 20 00    	jmpq   *0x20e02a(%rip)        # 617430 <_GLOBAL_OFFSET_TABLE_+0xe8>
  409406:	68 1a 00 00 00       	pushq  $0x1a
  40940b:	e9 40 fe ff ff       	jmpq   409250 <_init+0x20>

0000000000409410 <_ZNSsC1ERKSs@plt>:
  409410:	ff 25 22 e0 20 00    	jmpq   *0x20e022(%rip)        # 617438 <_GLOBAL_OFFSET_TABLE_+0xf0>
  409416:	68 1b 00 00 00       	pushq  $0x1b
  40941b:	e9 30 fe ff ff       	jmpq   409250 <_init+0x20>

0000000000409420 <_ZN3ros10NodeHandleD1Ev@plt>:
  409420:	ff 25 1a e0 20 00    	jmpq   *0x20e01a(%rip)        # 617440 <_GLOBAL_OFFSET_TABLE_+0xf8>
  409426:	68 1c 00 00 00       	pushq  $0x1c
  40942b:	e9 20 fe ff ff       	jmpq   409250 <_init+0x20>

0000000000409430 <_ZN3ros7console21initializeLogLocationEPNS0_11LogLocationERKSsNS0_6levels5LevelE@plt>:
  409430:	ff 25 12 e0 20 00    	jmpq   *0x20e012(%rip)        # 617448 <_GLOBAL_OFFSET_TABLE_+0x100>
  409436:	68 1d 00 00 00       	pushq  $0x1d
  40943b:	e9 10 fe ff ff       	jmpq   409250 <_init+0x20>

0000000000409440 <__assert_fail@plt>:
  409440:	ff 25 0a e0 20 00    	jmpq   *0x20e00a(%rip)        # 617450 <_GLOBAL_OFFSET_TABLE_+0x108>
  409446:	68 1e 00 00 00       	pushq  $0x1e
  40944b:	e9 00 fe ff ff       	jmpq   409250 <_init+0x20>

0000000000409450 <__cxa_free_exception@plt>:
  409450:	ff 25 02 e0 20 00    	jmpq   *0x20e002(%rip)        # 617458 <_GLOBAL_OFFSET_TABLE_+0x110>
  409456:	68 1f 00 00 00       	pushq  $0x1f
  40945b:	e9 f0 fd ff ff       	jmpq   409250 <_init+0x20>

0000000000409460 <getpeername@plt>:
  409460:	ff 25 fa df 20 00    	jmpq   *0x20dffa(%rip)        # 617460 <_GLOBAL_OFFSET_TABLE_+0x118>
  409466:	68 20 00 00 00       	pushq  $0x20
  40946b:	e9 e0 fd ff ff       	jmpq   409250 <_init+0x20>

0000000000409470 <_ZN3ros9PublisherD1Ev@plt>:
  409470:	ff 25 f2 df 20 00    	jmpq   *0x20dff2(%rip)        # 617468 <_GLOBAL_OFFSET_TABLE_+0x120>
  409476:	68 21 00 00 00       	pushq  $0x21
  40947b:	e9 d0 fd ff ff       	jmpq   409250 <_init+0x20>

0000000000409480 <recvfrom@plt>:
  409480:	ff 25 ea df 20 00    	jmpq   *0x20dfea(%rip)        # 617470 <_GLOBAL_OFFSET_TABLE_+0x128>
  409486:	68 22 00 00 00       	pushq  $0x22
  40948b:	e9 c0 fd ff ff       	jmpq   409250 <_init+0x20>

0000000000409490 <_ZNSs4_Rep10_M_destroyERKSaIcE@plt>:
  409490:	ff 25 e2 df 20 00    	jmpq   *0x20dfe2(%rip)        # 617478 <_GLOBAL_OFFSET_TABLE_+0x130>
  409496:	68 23 00 00 00       	pushq  $0x23
  40949b:	e9 b0 fd ff ff       	jmpq   409250 <_init+0x20>

00000000004094a0 <connect@plt>:
  4094a0:	ff 25 da df 20 00    	jmpq   *0x20dfda(%rip)        # 617480 <_GLOBAL_OFFSET_TABLE_+0x138>
  4094a6:	68 24 00 00 00       	pushq  $0x24
  4094ab:	e9 a0 fd ff ff       	jmpq   409250 <_init+0x20>

00000000004094b0 <_ZNK3ros9Publisher4Impl7isValidEv@plt>:
  4094b0:	ff 25 d2 df 20 00    	jmpq   *0x20dfd2(%rip)        # 617488 <_GLOBAL_OFFSET_TABLE_+0x140>
  4094b6:	68 25 00 00 00       	pushq  $0x25
  4094bb:	e9 90 fd ff ff       	jmpq   409250 <_init+0x20>

00000000004094c0 <__cxa_atexit@plt>:
  4094c0:	ff 25 ca df 20 00    	jmpq   *0x20dfca(%rip)        # 617490 <_GLOBAL_OFFSET_TABLE_+0x148>
  4094c6:	68 26 00 00 00       	pushq  $0x26
  4094cb:	e9 80 fd ff ff       	jmpq   409250 <_init+0x20>

00000000004094d0 <getsockname@plt>:
  4094d0:	ff 25 c2 df 20 00    	jmpq   *0x20dfc2(%rip)        # 617498 <_GLOBAL_OFFSET_TABLE_+0x150>
  4094d6:	68 27 00 00 00       	pushq  $0x27
  4094db:	e9 70 fd ff ff       	jmpq   409250 <_init+0x20>

00000000004094e0 <_ZN3ros13serialization18throwStreamOverrunEv@plt>:
  4094e0:	ff 25 ba df 20 00    	jmpq   *0x20dfba(%rip)        # 6174a0 <_GLOBAL_OFFSET_TABLE_+0x158>
  4094e6:	68 28 00 00 00       	pushq  $0x28
  4094eb:	e9 60 fd ff ff       	jmpq   409250 <_init+0x20>

00000000004094f0 <_ZdlPv@plt>:
  4094f0:	ff 25 b2 df 20 00    	jmpq   *0x20dfb2(%rip)        # 6174a8 <_GLOBAL_OFFSET_TABLE_+0x160>
  4094f6:	68 29 00 00 00       	pushq  $0x29
  4094fb:	e9 50 fd ff ff       	jmpq   409250 <_init+0x20>

0000000000409500 <select@plt>:
  409500:	ff 25 aa df 20 00    	jmpq   *0x20dfaa(%rip)        # 6174b0 <_GLOBAL_OFFSET_TABLE_+0x168>
  409506:	68 2a 00 00 00       	pushq  $0x2a
  40950b:	e9 40 fd ff ff       	jmpq   409250 <_init+0x20>

0000000000409510 <_ZStlsISt11char_traitsIcEERSt13basic_ostreamIcT_ES5_PKc@plt>:
  409510:	ff 25 a2 df 20 00    	jmpq   *0x20dfa2(%rip)        # 6174b8 <_GLOBAL_OFFSET_TABLE_+0x170>
  409516:	68 2b 00 00 00       	pushq  $0x2b
  40951b:	e9 30 fd ff ff       	jmpq   409250 <_init+0x20>

0000000000409520 <_Znwm@plt>:
  409520:	ff 25 9a df 20 00    	jmpq   *0x20df9a(%rip)        # 6174c0 <_GLOBAL_OFFSET_TABLE_+0x178>
  409526:	68 2c 00 00 00       	pushq  $0x2c
  40952b:	e9 20 fd ff ff       	jmpq   409250 <_init+0x20>

0000000000409530 <inet_addr@plt>:
  409530:	ff 25 92 df 20 00    	jmpq   *0x20df92(%rip)        # 6174c8 <_GLOBAL_OFFSET_TABLE_+0x180>
  409536:	68 2d 00 00 00       	pushq  $0x2d
  40953b:	e9 10 fd ff ff       	jmpq   409250 <_init+0x20>

0000000000409540 <_ZN3ros2okEv@plt>:
  409540:	ff 25 8a df 20 00    	jmpq   *0x20df8a(%rip)        # 6174d0 <_GLOBAL_OFFSET_TABLE_+0x188>
  409546:	68 2e 00 00 00       	pushq  $0x2e
  40954b:	e9 00 fd ff ff       	jmpq   409250 <_init+0x20>

0000000000409550 <_ZNSt13runtime_errorD2Ev@plt>:
  409550:	ff 25 82 df 20 00    	jmpq   *0x20df82(%rip)        # 6174d8 <_GLOBAL_OFFSET_TABLE_+0x190>
  409556:	68 2f 00 00 00       	pushq  $0x2f
  40955b:	e9 f0 fc ff ff       	jmpq   409250 <_init+0x20>

0000000000409560 <listen@plt>:
  409560:	ff 25 7a df 20 00    	jmpq   *0x20df7a(%rip)        # 6174e0 <_GLOBAL_OFFSET_TABLE_+0x198>
  409566:	68 30 00 00 00       	pushq  $0x30
  40956b:	e9 e0 fc ff ff       	jmpq   409250 <_init+0x20>

0000000000409570 <_ZNSsC1EPKcRKSaIcE@plt>:
  409570:	ff 25 72 df 20 00    	jmpq   *0x20df72(%rip)        # 6174e8 <_GLOBAL_OFFSET_TABLE_+0x1a0>
  409576:	68 31 00 00 00       	pushq  $0x31
  40957b:	e9 d0 fc ff ff       	jmpq   409250 <_init+0x20>

0000000000409580 <gethostbyname@plt>:
  409580:	ff 25 6a df 20 00    	jmpq   *0x20df6a(%rip)        # 6174f0 <_GLOBAL_OFFSET_TABLE_+0x1a8>
  409586:	68 32 00 00 00       	pushq  $0x32
  40958b:	e9 c0 fc ff ff       	jmpq   409250 <_init+0x20>

0000000000409590 <_ZNSs6assignEPKcm@plt>:
  409590:	ff 25 62 df 20 00    	jmpq   *0x20df62(%rip)        # 6174f8 <_GLOBAL_OFFSET_TABLE_+0x1b0>
  409596:	68 33 00 00 00       	pushq  $0x33
  40959b:	e9 b0 fc ff ff       	jmpq   409250 <_init+0x20>

00000000004095a0 <_ZN3ros10NodeHandleC1ERKSsRKSt3mapISsSsSt4lessISsESaISt4pairIS1_SsEEE@plt>:
  4095a0:	ff 25 5a df 20 00    	jmpq   *0x20df5a(%rip)        # 617500 <_GLOBAL_OFFSET_TABLE_+0x1b8>
  4095a6:	68 34 00 00 00       	pushq  $0x34
  4095ab:	e9 a0 fc ff ff       	jmpq   409250 <_init+0x20>

00000000004095b0 <exit@plt>:
  4095b0:	ff 25 52 df 20 00    	jmpq   *0x20df52(%rip)        # 617508 <_GLOBAL_OFFSET_TABLE_+0x1c0>
  4095b6:	68 35 00 00 00       	pushq  $0x35
  4095bb:	e9 90 fc ff ff       	jmpq   409250 <_init+0x20>

00000000004095c0 <__cxa_call_unexpected@plt>:
  4095c0:	ff 25 4a df 20 00    	jmpq   *0x20df4a(%rip)        # 617510 <_GLOBAL_OFFSET_TABLE_+0x1c8>
  4095c6:	68 36 00 00 00       	pushq  $0x36
  4095cb:	e9 80 fc ff ff       	jmpq   409250 <_init+0x20>

00000000004095d0 <_ZdaPv@plt>:
  4095d0:	ff 25 42 df 20 00    	jmpq   *0x20df42(%rip)        # 617518 <_GLOBAL_OFFSET_TABLE_+0x1d0>
  4095d6:	68 37 00 00 00       	pushq  $0x37
  4095db:	e9 70 fc ff ff       	jmpq   409250 <_init+0x20>

00000000004095e0 <_ZNSs6assignERKSs@plt>:
  4095e0:	ff 25 3a df 20 00    	jmpq   *0x20df3a(%rip)        # 617520 <_GLOBAL_OFFSET_TABLE_+0x1d8>
  4095e6:	68 38 00 00 00       	pushq  $0x38
  4095eb:	e9 60 fc ff ff       	jmpq   409250 <_init+0x20>

00000000004095f0 <_ZNSs9_M_mutateEmmm@plt>:
  4095f0:	ff 25 32 df 20 00    	jmpq   *0x20df32(%rip)        # 617528 <_GLOBAL_OFFSET_TABLE_+0x1e0>
  4095f6:	68 39 00 00 00       	pushq  $0x39
  4095fb:	e9 50 fc ff ff       	jmpq   409250 <_init+0x20>

0000000000409600 <_ZNKSt13runtime_error4whatEv@plt>:
  409600:	ff 25 2a df 20 00    	jmpq   *0x20df2a(%rip)        # 617530 <_GLOBAL_OFFSET_TABLE_+0x1e8>
  409606:	68 3a 00 00 00       	pushq  $0x3a
  40960b:	e9 40 fc ff ff       	jmpq   409250 <_init+0x20>

0000000000409610 <strtol@plt>:
  409610:	ff 25 22 df 20 00    	jmpq   *0x20df22(%rip)        # 617538 <_GLOBAL_OFFSET_TABLE_+0x1f0>
  409616:	68 3b 00 00 00       	pushq  $0x3b
  40961b:	e9 30 fc ff ff       	jmpq   409250 <_init+0x20>

0000000000409620 <_ZN3ros7console19setLogLocationLevelEPNS0_11LogLocationENS0_6levels5LevelE@plt>:
  409620:	ff 25 1a df 20 00    	jmpq   *0x20df1a(%rip)        # 617540 <_GLOBAL_OFFSET_TABLE_+0x1f8>
  409626:	68 3c 00 00 00       	pushq  $0x3c
  40962b:	e9 20 fc ff ff       	jmpq   409250 <_init+0x20>

0000000000409630 <_ZSt20__throw_out_of_rangePKc@plt>:
  409630:	ff 25 12 df 20 00    	jmpq   *0x20df12(%rip)        # 617548 <_GLOBAL_OFFSET_TABLE_+0x200>
  409636:	68 3d 00 00 00       	pushq  $0x3d
  40963b:	e9 10 fc ff ff       	jmpq   409250 <_init+0x20>

0000000000409640 <__cxa_rethrow@plt>:
  409640:	ff 25 0a df 20 00    	jmpq   *0x20df0a(%rip)        # 617550 <_GLOBAL_OFFSET_TABLE_+0x208>
  409646:	68 3e 00 00 00       	pushq  $0x3e
  40964b:	e9 00 fc ff ff       	jmpq   409250 <_init+0x20>

0000000000409650 <_ZN3ros10SubscriberD1Ev@plt>:
  409650:	ff 25 02 df 20 00    	jmpq   *0x20df02(%rip)        # 617558 <_GLOBAL_OFFSET_TABLE_+0x210>
  409656:	68 3f 00 00 00       	pushq  $0x3f
  40965b:	e9 f0 fb ff ff       	jmpq   409250 <_init+0x20>

0000000000409660 <_ZNSt8ios_base4InitC1Ev@plt>:
  409660:	ff 25 fa de 20 00    	jmpq   *0x20defa(%rip)        # 617560 <_GLOBAL_OFFSET_TABLE_+0x218>
  409666:	68 40 00 00 00       	pushq  $0x40
  40966b:	e9 e0 fb ff ff       	jmpq   409250 <_init+0x20>

0000000000409670 <puts@plt>:
  409670:	ff 25 f2 de 20 00    	jmpq   *0x20def2(%rip)        # 617568 <_GLOBAL_OFFSET_TABLE_+0x220>
  409676:	68 41 00 00 00       	pushq  $0x41
  40967b:	e9 d0 fb ff ff       	jmpq   409250 <_init+0x20>

0000000000409680 <_ZN3ros8spinOnceEv@plt>:
  409680:	ff 25 ea de 20 00    	jmpq   *0x20deea(%rip)        # 617570 <_GLOBAL_OFFSET_TABLE_+0x228>
  409686:	68 42 00 00 00       	pushq  $0x42
  40968b:	e9 c0 fb ff ff       	jmpq   409250 <_init+0x20>

0000000000409690 <_ZNSsD1Ev@plt>:
  409690:	ff 25 e2 de 20 00    	jmpq   *0x20dee2(%rip)        # 617578 <_GLOBAL_OFFSET_TABLE_+0x230>
  409696:	68 43 00 00 00       	pushq  $0x43
  40969b:	e9 b0 fb ff ff       	jmpq   409250 <_init+0x20>

00000000004096a0 <_ZNSt13runtime_errorC2ERKSs@plt>:
  4096a0:	ff 25 da de 20 00    	jmpq   *0x20deda(%rip)        # 617580 <_GLOBAL_OFFSET_TABLE_+0x238>
  4096a6:	68 44 00 00 00       	pushq  $0x44
  4096ab:	e9 a0 fb ff ff       	jmpq   409250 <_init+0x20>

00000000004096b0 <memmove@plt>:
  4096b0:	ff 25 d2 de 20 00    	jmpq   *0x20ded2(%rip)        # 617588 <_GLOBAL_OFFSET_TABLE_+0x240>
  4096b6:	68 45 00 00 00       	pushq  $0x45
  4096bb:	e9 90 fb ff ff       	jmpq   409250 <_init+0x20>

00000000004096c0 <__cxa_end_catch@plt>:
  4096c0:	ff 25 ca de 20 00    	jmpq   *0x20deca(%rip)        # 617590 <_GLOBAL_OFFSET_TABLE_+0x248>
  4096c6:	68 46 00 00 00       	pushq  $0x46
  4096cb:	e9 80 fb ff ff       	jmpq   409250 <_init+0x20>

00000000004096d0 <__gxx_personality_v0@plt>:
  4096d0:	ff 25 c2 de 20 00    	jmpq   *0x20dec2(%rip)        # 617598 <_GLOBAL_OFFSET_TABLE_+0x250>
  4096d6:	68 47 00 00 00       	pushq  $0x47
  4096db:	e9 70 fb ff ff       	jmpq   409250 <_init+0x20>

00000000004096e0 <_ZNK3ros9Publisher7publishERKN5boost8functionIFNS_17SerializedMessageEvEEERS3_@plt>:
  4096e0:	ff 25 ba de 20 00    	jmpq   *0x20deba(%rip)        # 6175a0 <_GLOBAL_OFFSET_TABLE_+0x258>
  4096e6:	68 48 00 00 00       	pushq  $0x48
  4096eb:	e9 60 fb ff ff       	jmpq   409250 <_init+0x20>

00000000004096f0 <_ZN3ros7console23checkLogLocationEnabledEPNS0_11LogLocationE@plt>:
  4096f0:	ff 25 b2 de 20 00    	jmpq   *0x20deb2(%rip)        # 6175a8 <_GLOBAL_OFFSET_TABLE_+0x260>
  4096f6:	68 49 00 00 00       	pushq  $0x49
  4096fb:	e9 50 fb ff ff       	jmpq   409250 <_init+0x20>

0000000000409700 <__cxa_throw@plt>:
  409700:	ff 25 aa de 20 00    	jmpq   *0x20deaa(%rip)        # 6175b0 <_GLOBAL_OFFSET_TABLE_+0x268>
  409706:	68 4a 00 00 00       	pushq  $0x4a
  40970b:	e9 40 fb ff ff       	jmpq   409250 <_init+0x20>

0000000000409710 <memcpy@plt>:
  409710:	ff 25 a2 de 20 00    	jmpq   *0x20dea2(%rip)        # 6175b8 <_GLOBAL_OFFSET_TABLE_+0x270>
  409716:	68 4b 00 00 00       	pushq  $0x4b
  40971b:	e9 30 fb ff ff       	jmpq   409250 <_init+0x20>

0000000000409720 <_Unwind_Resume@plt>:
  409720:	ff 25 9a de 20 00    	jmpq   *0x20de9a(%rip)        # 6175c0 <_GLOBAL_OFFSET_TABLE_+0x278>
  409726:	68 4c 00 00 00       	pushq  $0x4c
  40972b:	e9 20 fb ff ff       	jmpq   409250 <_init+0x20>

0000000000409730 <setsockopt@plt>:
  409730:	ff 25 92 de 20 00    	jmpq   *0x20de92(%rip)        # 6175c8 <_GLOBAL_OFFSET_TABLE_+0x280>
  409736:	68 4d 00 00 00       	pushq  $0x4d
  40973b:	e9 10 fb ff ff       	jmpq   409250 <_init+0x20>

0000000000409740 <_ZN3ros10NodeHandle9advertiseERNS_16AdvertiseOptionsE@plt>:
  409740:	ff 25 8a de 20 00    	jmpq   *0x20de8a(%rip)        # 6175d0 <_GLOBAL_OFFSET_TABLE_+0x288>
  409746:	68 4e 00 00 00       	pushq  $0x4e
  40974b:	e9 00 fb ff ff       	jmpq   409250 <_init+0x20>

0000000000409750 <_ZNSt9exceptionD2Ev@plt>:
  409750:	ff 25 82 de 20 00    	jmpq   *0x20de82(%rip)        # 6175d8 <_GLOBAL_OFFSET_TABLE_+0x290>
  409756:	68 4f 00 00 00       	pushq  $0x4f
  40975b:	e9 f0 fa ff ff       	jmpq   409250 <_init+0x20>

0000000000409760 <__libc_start_main@plt>:
  409760:	ff 25 7a de 20 00    	jmpq   *0x20de7a(%rip)        # 6175e0 <_GLOBAL_OFFSET_TABLE_+0x298>
  409766:	68 50 00 00 00       	pushq  $0x50
  40976b:	e9 e0 fa ff ff       	jmpq   409250 <_init+0x20>

0000000000409770 <__cxa_pure_virtual@plt>:
  409770:	ff 25 72 de 20 00    	jmpq   *0x20de72(%rip)        # 6175e8 <_GLOBAL_OFFSET_TABLE_+0x2a0>
  409776:	68 51 00 00 00       	pushq  $0x51
  40977b:	e9 d0 fa ff ff       	jmpq   409250 <_init+0x20>

0000000000409780 <close@plt>:
  409780:	ff 25 6a de 20 00    	jmpq   *0x20de6a(%rip)        # 6175f0 <_GLOBAL_OFFSET_TABLE_+0x2a8>
  409786:	68 52 00 00 00       	pushq  $0x52
  40978b:	e9 c0 fa ff ff       	jmpq   409250 <_init+0x20>

0000000000409790 <_ZNSt8ios_base4InitD1Ev@plt>:
  409790:	ff 25 62 de 20 00    	jmpq   *0x20de62(%rip)        # 6175f8 <_GLOBAL_OFFSET_TABLE_+0x2b0>
  409796:	68 53 00 00 00       	pushq  $0x53
  40979b:	e9 b0 fa ff ff       	jmpq   409250 <_init+0x20>

Disassembly of section .text:

00000000004097a0 <_ZNK5boost10shared_ptrIN3ros9Publisher4ImplEEptEv.isra.48.part.49>:
  4097a0:	50                   	push   %rax
  4097a1:	b9 80 31 41 00       	mov    $0x413180,%ecx
  4097a6:	ba ac 01 00 00       	mov    $0x1ac,%edx
  4097ab:	be 68 25 41 00       	mov    $0x412568,%esi
  4097b0:	bf 7b 2d 41 00       	mov    $0x412d7b,%edi
  4097b5:	e8 86 fc ff ff       	callq  409440 <__assert_fail@plt>

00000000004097ba <_ZNK5boost10shared_ptrIKN6SpyKee7Motion_ISaIvEEEEptEv.isra.50.part.51>:
  4097ba:	52                   	push   %rdx
  4097bb:	b9 40 2e 41 00       	mov    $0x412e40,%ecx
  4097c0:	ba ac 01 00 00       	mov    $0x1ac,%edx
  4097c5:	be 68 25 41 00       	mov    $0x412568,%esi
  4097ca:	bf 7b 2d 41 00       	mov    $0x412d7b,%edi
  4097cf:	e8 6c fc ff ff       	callq  409440 <__assert_fail@plt>
  4097d4:	90                   	nop
  4097d5:	90                   	nop
  4097d6:	90                   	nop
  4097d7:	90                   	nop
  4097d8:	90                   	nop
  4097d9:	90                   	nop
  4097da:	90                   	nop
  4097db:	90                   	nop
  4097dc:	90                   	nop
  4097dd:	90                   	nop
  4097de:	90                   	nop
  4097df:	90                   	nop

00000000004097e0 <main>:
  4097e0:	55                   	push   %rbp
  4097e1:	53                   	push   %rbx
  4097e2:	48 89 f3             	mov    %rsi,%rbx
  4097e5:	be f2 2d 41 00       	mov    $0x412df2,%esi
  4097ea:	48 81 ec 18 02 00 00 	sub    $0x218,%rsp
  4097f1:	c6 05 80 e2 20 00 00 	movb   $0x0,0x20e280(%rip)        # 617a78 <started>
  4097f8:	89 7c 24 0c          	mov    %edi,0xc(%rsp)
  4097fc:	48 8d 94 24 0b 02 00 	lea    0x20b(%rsp),%rdx
  409803:	00 
  409804:	48 8d bc 24 b0 01 00 	lea    0x1b0(%rsp),%rdi
  40980b:	00 
  40980c:	e8 5f fd ff ff       	callq  409570 <_ZNSsC1EPKcRKSaIcE@plt>
  409811:	48 8d 94 24 b0 01 00 	lea    0x1b0(%rsp),%rdx
  409818:	00 
  409819:	48 8d 7c 24 0c       	lea    0xc(%rsp),%rdi
  40981e:	31 c9                	xor    %ecx,%ecx
  409820:	48 89 de             	mov    %rbx,%rsi
  409823:	e8 c8 fa ff ff       	callq  4092f0 <_ZN3ros4initERiPPcRKSsj@plt>
  409828:	48 8d bc 24 b0 01 00 	lea    0x1b0(%rsp),%rdi
  40982f:	00 
  409830:	e8 5b fe ff ff       	callq  409690 <_ZNSsD1Ev@plt>
  409835:	48 8d 84 24 68 01 00 	lea    0x168(%rsp),%rax
  40983c:	00 
  40983d:	48 8d 94 24 60 01 00 	lea    0x160(%rsp),%rdx
  409844:	00 
  409845:	48 8d b4 24 c0 01 00 	lea    0x1c0(%rsp),%rsi
  40984c:	00 
  40984d:	48 8d 7c 24 10       	lea    0x10(%rsp),%rdi
  409852:	c7 84 24 68 01 00 00 	movl   $0x0,0x168(%rsp)
  409859:	00 00 00 00 
  40985d:	48 c7 84 24 70 01 00 	movq   $0x0,0x170(%rsp)
  409864:	00 00 00 00 00 
  409869:	48 c7 84 24 88 01 00 	movq   $0x0,0x188(%rsp)
  409870:	00 00 00 00 00 
  409875:	48 89 84 24 78 01 00 	mov    %rax,0x178(%rsp)
  40987c:	00 
  40987d:	48 89 84 24 80 01 00 	mov    %rax,0x180(%rsp)
  409884:	00 
  409885:	48 c7 84 24 c0 01 00 	movq   $0x617718,0x1c0(%rsp)
  40988c:	00 18 77 61 00 
  409891:	e8 0a fd ff ff       	callq  4095a0 <_ZN3ros10NodeHandleC1ERKSsRKSt3mapISsSsSt4lessISsESaISt4pairIS1_SsEEE@plt>
  409896:	48 8d bc 24 c0 01 00 	lea    0x1c0(%rsp),%rdi
  40989d:	00 
  40989e:	e8 ed fd ff ff       	callq  409690 <_ZNSsD1Ev@plt>
  4098a3:	48 8b b4 24 70 01 00 	mov    0x170(%rsp),%rsi
  4098aa:	00 
  4098ab:	48 8d bc 24 60 01 00 	lea    0x160(%rsp),%rdi
  4098b2:	00 
  4098b3:	e8 78 3a 00 00       	callq  40d330 <_ZNSt8_Rb_treeISsSt4pairIKSsSsESt10_Select1stIS2_ESt4lessISsESaIS2_EE8_M_eraseEPSt13_Rb_tree_nodeIS2_E>
  4098b8:	bf 08 00 00 00       	mov    $0x8,%edi
  4098bd:	c7 84 24 f0 01 00 00 	movl   $0x696d6461,0x1f0(%rsp)
  4098c4:	61 64 6d 69 
  4098c8:	66 c7 84 24 f4 01 00 	movw   $0x6e,0x1f4(%rsp)
  4098cf:	00 6e 00 
  4098d2:	c7 84 24 00 02 00 00 	movl   $0x696d6461,0x200(%rsp)
  4098d9:	61 64 6d 69 
  4098dd:	66 c7 84 24 04 02 00 	movw   $0x6e,0x204(%rsp)
  4098e4:	00 6e 00 
  4098e7:	e8 34 fc ff ff       	callq  409520 <_Znwm@plt>
  4098ec:	48 8d 94 24 00 02 00 	lea    0x200(%rsp),%rdx
  4098f3:	00 
  4098f4:	48 8d b4 24 f0 01 00 	lea    0x1f0(%rsp),%rsi
  4098fb:	00 
  4098fc:	48 89 c7             	mov    %rax,%rdi
  4098ff:	48 89 c3             	mov    %rax,%rbx
  409902:	e8 79 6e 00 00       	callq  410780 <_ZN13SpykeeManagerC1EPcS0_>
  409907:	48 8d bc 24 10 01 00 	lea    0x110(%rsp),%rdi
  40990e:	00 
  40990f:	31 c0                	xor    %eax,%eax
  409911:	b9 09 00 00 00       	mov    $0x9,%ecx
  409916:	48 8d 94 24 0c 02 00 	lea    0x20c(%rsp),%rdx
  40991d:	00 
  40991e:	be f9 2d 41 00       	mov    $0x412df9,%esi
  409923:	48 89 1d 56 e1 20 00 	mov    %rbx,0x20e156(%rip)        # 617a80 <robot_ptr>
  40992a:	f3 48 ab             	rep stos %rax,%es:(%rdi)
  40992d:	48 8d 84 24 30 01 00 	lea    0x130(%rsp),%rax
  409934:	00 
  409935:	48 8d bc 24 d0 01 00 	lea    0x1d0(%rsp),%rdi
  40993c:	00 
  40993d:	48 89 84 24 40 01 00 	mov    %rax,0x140(%rsp)
  409944:	00 
  409945:	48 89 84 24 48 01 00 	mov    %rax,0x148(%rsp)
  40994c:	00 
  40994d:	e8 1e fc ff ff       	callq  409570 <_ZNSsC1EPKcRKSaIcE@plt>
  409952:	4c 8d 8c 24 10 01 00 	lea    0x110(%rsp),%r9
  409959:	00 
  40995a:	48 8d 94 24 d0 01 00 	lea    0x1d0(%rsp),%rdx
  409961:	00 
  409962:	48 8d 74 24 10       	lea    0x10(%rsp),%rsi
  409967:	48 8d bc 24 90 01 00 	lea    0x190(%rsp),%rdi
  40996e:	00 
  40996f:	41 b8 e0 9f 40 00    	mov    $0x409fe0,%r8d
  409975:	b9 e8 03 00 00       	mov    $0x3e8,%ecx
  40997a:	e8 c1 4c 00 00       	callq  40e640 <_ZN3ros10NodeHandle9subscribeIN6SpyKee7Motion_ISaIvEEEEENS_10SubscriberERKSsjPFvRKN5boost10shared_ptrIKT_EEERKNS_14TransportHintsE>
  40997f:	48 8d bc 24 d0 01 00 	lea    0x1d0(%rsp),%rdi
  409986:	00 
  409987:	e8 04 fd ff ff       	callq  409690 <_ZNSsD1Ev@plt>
  40998c:	48 8d bc 24 10 01 00 	lea    0x110(%rsp),%rdi
  409993:	00 
  409994:	e8 67 3a 00 00       	callq  40d400 <_ZN3ros14TransportHintsD1Ev>
  409999:	48 8d 94 24 0d 02 00 	lea    0x20d(%rsp),%rdx
  4099a0:	00 
  4099a1:	48 8d bc 24 e0 01 00 	lea    0x1e0(%rsp),%rdi
  4099a8:	00 
  4099a9:	be 07 2e 41 00       	mov    $0x412e07,%esi
  4099ae:	e8 bd fb ff ff       	callq  409570 <_ZNSsC1EPKcRKSaIcE@plt>
  4099b3:	48 8d 94 24 e0 01 00 	lea    0x1e0(%rsp),%rdx
  4099ba:	00 
  4099bb:	48 8d 74 24 10       	lea    0x10(%rsp),%rsi
  4099c0:	48 8d bc 24 a0 01 00 	lea    0x1a0(%rsp),%rdi
  4099c7:	00 
  4099c8:	45 31 c0             	xor    %r8d,%r8d
  4099cb:	b9 03 00 00 00       	mov    $0x3,%ecx
  4099d0:	e8 bb 1b 00 00       	callq  40b590 <_ZN3ros10NodeHandle9advertiseIN11sensor_msgs16CompressedImage_ISaIvEEEEENS_9PublisherERKSsjb>
  4099d5:	48 8d bc 24 e0 01 00 	lea    0x1e0(%rsp),%rdi
  4099dc:	00 
  4099dd:	e8 ae fc ff ff       	callq  409690 <_ZNSsD1Ev@plt>
  4099e2:	48 8b 3d 97 e0 20 00 	mov    0x20e097(%rip),%rdi        # 617a80 <robot_ptr>
  4099e9:	e8 22 74 00 00       	callq  410e10 <_ZN13SpykeeManager6unplugEv>
  4099ee:	48 8b 3d 8b e0 20 00 	mov    0x20e08b(%rip),%rdi        # 617a80 <robot_ptr>
  4099f5:	e8 d6 70 00 00       	callq  410ad0 <_ZN13SpykeeManager11startCameraEv>
  4099fa:	48 8d ac 24 e0 00 00 	lea    0xe0(%rsp),%rbp
  409a01:	00 
  409a02:	eb 74                	jmp    409a78 <main+0x298>
  409a04:	0f 1f 40 00          	nopl   0x0(%rax)
  409a08:	48 8b bc 24 e0 00 00 	mov    0xe0(%rsp),%rdi
  409a0f:	00 
  409a10:	48 85 ff             	test   %rdi,%rdi
  409a13:	74 05                	je     409a1a <main+0x23a>
  409a15:	e8 d6 fa ff ff       	callq  4094f0 <_ZdlPv@plt>
  409a1a:	48 8b 84 24 d8 00 00 	mov    0xd8(%rsp),%rax
  409a21:	00 
  409a22:	48 8d 78 e8          	lea    -0x18(%rax),%rdi
  409a26:	48 81 ff 00 77 61 00 	cmp    $0x617700,%rdi
  409a2d:	0f 85 27 02 00 00    	jne    409c5a <main+0x47a>
  409a33:	48 8b 9c 24 d0 00 00 	mov    0xd0(%rsp),%rbx
  409a3a:	00 
  409a3b:	48 c7 84 24 a8 00 00 	movq   $0x413230,0xa8(%rsp)
  409a42:	00 30 32 41 00 
  409a47:	48 85 db             	test   %rbx,%rbx
  409a4a:	74 13                	je     409a5f <main+0x27f>
  409a4c:	b8 ff ff ff ff       	mov    $0xffffffff,%eax
  409a51:	f0 0f c1 43 08       	lock xadd %eax,0x8(%rbx)
  409a56:	83 f8 01             	cmp    $0x1,%eax
  409a59:	0f 84 91 01 00 00    	je     409bf0 <main+0x410>
  409a5f:	48 8b 84 24 c0 00 00 	mov    0xc0(%rsp),%rax
  409a66:	00 
  409a67:	48 8d 78 e8          	lea    -0x18(%rax),%rdi
  409a6b:	48 81 ff 00 77 61 00 	cmp    $0x617700,%rdi
  409a72:	0f 85 12 02 00 00    	jne    409c8a <main+0x4aa>
  409a78:	e8 c3 fa ff ff       	callq  409540 <_ZN3ros2okEv@plt>
  409a7d:	84 c0                	test   %al,%al
  409a7f:	48 8b 3d fa df 20 00 	mov    0x20dffa(%rip),%rdi        # 617a80 <robot_ptr>
  409a86:	0f 84 94 01 00 00    	je     409c20 <main+0x440>
  409a8c:	e8 bf 70 00 00       	callq  410b50 <_ZN13SpykeeManager8getImageEv>
  409a91:	48 89 c6             	mov    %rax,%rsi
  409a94:	48 89 ef             	mov    %rbp,%rdi
  409a97:	48 89 c3             	mov    %rax,%rbx
  409a9a:	48 c7 84 24 a0 00 00 	movq   $0x4131f0,0xa0(%rsp)
  409aa1:	00 f0 31 41 00 
  409aa6:	48 c7 84 24 a8 00 00 	movq   $0x413230,0xa8(%rsp)
  409aad:	00 30 32 41 00 
  409ab2:	c7 84 24 b0 00 00 00 	movl   $0x0,0xb0(%rsp)
  409ab9:	00 00 00 00 
  409abd:	c7 84 24 b4 00 00 00 	movl   $0x0,0xb4(%rsp)
  409ac4:	00 00 00 00 
  409ac8:	c7 84 24 b8 00 00 00 	movl   $0x0,0xb8(%rsp)
  409acf:	00 00 00 00 
  409ad3:	48 c7 84 24 c0 00 00 	movq   $0x617718,0xc0(%rsp)
  409ada:	00 18 77 61 00 
  409adf:	48 c7 84 24 c8 00 00 	movq   $0x0,0xc8(%rsp)
  409ae6:	00 00 00 00 00 
  409aeb:	48 c7 84 24 d0 00 00 	movq   $0x0,0xd0(%rsp)
  409af2:	00 00 00 00 00 
  409af7:	48 c7 84 24 d8 00 00 	movq   $0x617718,0xd8(%rsp)
  409afe:	00 18 77 61 00 
  409b03:	48 c7 84 24 e0 00 00 	movq   $0x0,0xe0(%rsp)
  409b0a:	00 00 00 00 00 
  409b0f:	48 c7 84 24 e8 00 00 	movq   $0x0,0xe8(%rsp)
  409b16:	00 00 00 00 00 
  409b1b:	48 c7 84 24 f0 00 00 	movq   $0x0,0xf0(%rsp)
  409b22:	00 00 00 00 00 
  409b27:	48 c7 84 24 f8 00 00 	movq   $0x0,0xf8(%rsp)
  409b2e:	00 00 00 00 00 
  409b33:	48 c7 84 24 00 01 00 	movq   $0x0,0x100(%rsp)
  409b3a:	00 00 00 00 00 
  409b3f:	e8 bc 26 00 00       	callq  40c200 <_ZNSt6vectorIhSaIhEEaSERKS1_>
  409b44:	48 8d bc 24 d8 00 00 	lea    0xd8(%rsp),%rdi
  409b4b:	00 
  409b4c:	ba 04 00 00 00       	mov    $0x4,%edx
  409b51:	be 15 2e 41 00       	mov    $0x412e15,%esi
  409b56:	e8 35 fa ff ff       	callq  409590 <_ZNSs6assignEPKcm@plt>
  409b5b:	48 8d b4 24 a0 00 00 	lea    0xa0(%rsp),%rsi
  409b62:	00 
  409b63:	48 8d bc 24 a0 01 00 	lea    0x1a0(%rsp),%rdi
  409b6a:	00 
  409b6b:	e8 30 2c 00 00       	callq  40c7a0 <_ZNK3ros9Publisher7publishIN11sensor_msgs16CompressedImage_ISaIvEEEEEvRKT_>
  409b70:	e8 0b fb ff ff       	callq  409680 <_ZN3ros8spinOnceEv@plt>
  409b75:	48 85 db             	test   %rbx,%rbx
  409b78:	74 15                	je     409b8f <main+0x3af>
  409b7a:	48 8b 3b             	mov    (%rbx),%rdi
  409b7d:	48 85 ff             	test   %rdi,%rdi
  409b80:	74 05                	je     409b87 <main+0x3a7>
  409b82:	e8 69 f9 ff ff       	callq  4094f0 <_ZdlPv@plt>
  409b87:	48 89 df             	mov    %rbx,%rdi
  409b8a:	e8 61 f9 ff ff       	callq  4094f0 <_ZdlPv@plt>
  409b8f:	48 8b 9c 24 00 01 00 	mov    0x100(%rsp),%rbx
  409b96:	00 
  409b97:	48 c7 84 24 a0 00 00 	movq   $0x4131f0,0xa0(%rsp)
  409b9e:	00 f0 31 41 00 
  409ba3:	48 85 db             	test   %rbx,%rbx
  409ba6:	0f 84 5c fe ff ff    	je     409a08 <main+0x228>
  409bac:	b8 ff ff ff ff       	mov    $0xffffffff,%eax
  409bb1:	f0 0f c1 43 08       	lock xadd %eax,0x8(%rbx)
  409bb6:	83 f8 01             	cmp    $0x1,%eax
  409bb9:	0f 85 49 fe ff ff    	jne    409a08 <main+0x228>
  409bbf:	48 8b 03             	mov    (%rbx),%rax
  409bc2:	48 89 df             	mov    %rbx,%rdi
  409bc5:	ff 50 10             	callq  *0x10(%rax)
  409bc8:	b8 ff ff ff ff       	mov    $0xffffffff,%eax
  409bcd:	f0 0f c1 43 0c       	lock xadd %eax,0xc(%rbx)
  409bd2:	83 f8 01             	cmp    $0x1,%eax
  409bd5:	0f 85 2d fe ff ff    	jne    409a08 <main+0x228>
  409bdb:	48 8b 03             	mov    (%rbx),%rax
  409bde:	48 89 df             	mov    %rbx,%rdi
  409be1:	ff 50 18             	callq  *0x18(%rax)
  409be4:	e9 1f fe ff ff       	jmpq   409a08 <main+0x228>
  409be9:	0f 1f 80 00 00 00 00 	nopl   0x0(%rax)
  409bf0:	48 8b 03             	mov    (%rbx),%rax
  409bf3:	48 89 df             	mov    %rbx,%rdi
  409bf6:	ff 50 10             	callq  *0x10(%rax)
  409bf9:	b8 ff ff ff ff       	mov    $0xffffffff,%eax
  409bfe:	f0 0f c1 43 0c       	lock xadd %eax,0xc(%rbx)
  409c03:	83 f8 01             	cmp    $0x1,%eax
  409c06:	0f 85 53 fe ff ff    	jne    409a5f <main+0x27f>
  409c0c:	48 8b 03             	mov    (%rbx),%rax
  409c0f:	48 89 df             	mov    %rbx,%rdi
  409c12:	ff 50 18             	callq  *0x18(%rax)
  409c15:	e9 45 fe ff ff       	jmpq   409a5f <main+0x27f>
  409c1a:	66 0f 1f 44 00 00    	nopw   0x0(%rax,%rax,1)
  409c20:	48 85 ff             	test   %rdi,%rdi
  409c23:	74 05                	je     409c2a <main+0x44a>
  409c25:	e8 c6 f8 ff ff       	callq  4094f0 <_ZdlPv@plt>
  409c2a:	48 8d bc 24 a0 01 00 	lea    0x1a0(%rsp),%rdi
  409c31:	00 
  409c32:	e8 39 f8 ff ff       	callq  409470 <_ZN3ros9PublisherD1Ev@plt>
  409c37:	48 8d bc 24 90 01 00 	lea    0x190(%rsp),%rdi
  409c3e:	00 
  409c3f:	e8 0c fa ff ff       	callq  409650 <_ZN3ros10SubscriberD1Ev@plt>
  409c44:	48 8d 7c 24 10       	lea    0x10(%rsp),%rdi
  409c49:	e8 d2 f7 ff ff       	callq  409420 <_ZN3ros10NodeHandleD1Ev@plt>
  409c4e:	48 81 c4 18 02 00 00 	add    $0x218,%rsp
  409c55:	31 c0                	xor    %eax,%eax
  409c57:	5b                   	pop    %rbx
  409c58:	5d                   	pop    %rbp
  409c59:	c3                   	retq   
  409c5a:	ba 80 92 40 00       	mov    $0x409280,%edx
  409c5f:	48 85 d2             	test   %rdx,%rdx
  409c62:	0f 84 92 01 00 00    	je     409dfa <main+0x61a>
  409c68:	83 ca ff             	or     $0xffffffff,%edx
  409c6b:	f0 0f c1 50 f8       	lock xadd %edx,-0x8(%rax)
  409c70:	85 d2                	test   %edx,%edx
  409c72:	0f 8f bb fd ff ff    	jg     409a33 <main+0x253>
  409c78:	48 8d b4 24 0e 02 00 	lea    0x20e(%rsp),%rsi
  409c7f:	00 
  409c80:	e8 0b f8 ff ff       	callq  409490 <_ZNSs4_Rep10_M_destroyERKSaIcE@plt>
  409c85:	e9 a9 fd ff ff       	jmpq   409a33 <main+0x253>
  409c8a:	ba 80 92 40 00       	mov    $0x409280,%edx
  409c8f:	48 85 d2             	test   %rdx,%rdx
  409c92:	74 51                	je     409ce5 <main+0x505>
  409c94:	83 ca ff             	or     $0xffffffff,%edx
  409c97:	f0 0f c1 50 f8       	lock xadd %edx,-0x8(%rax)
  409c9c:	85 d2                	test   %edx,%edx
  409c9e:	0f 8f d4 fd ff ff    	jg     409a78 <main+0x298>
  409ca4:	48 8d b4 24 0f 02 00 	lea    0x20f(%rsp),%rsi
  409cab:	00 
  409cac:	e8 df f7 ff ff       	callq  409490 <_ZNSs4_Rep10_M_destroyERKSaIcE@plt>
  409cb1:	e9 c2 fd ff ff       	jmpq   409a78 <main+0x298>
  409cb6:	48 8d bc 24 d0 01 00 	lea    0x1d0(%rsp),%rdi
  409cbd:	00 
  409cbe:	48 89 c3             	mov    %rax,%rbx
  409cc1:	e8 ca f9 ff ff       	callq  409690 <_ZNSsD1Ev@plt>
  409cc6:	48 8d bc 24 10 01 00 	lea    0x110(%rsp),%rdi
  409ccd:	00 
  409cce:	e8 2d 37 00 00       	callq  40d400 <_ZN3ros14TransportHintsD1Ev>
  409cd3:	48 8d 7c 24 10       	lea    0x10(%rsp),%rdi
  409cd8:	e8 43 f7 ff ff       	callq  409420 <_ZN3ros10NodeHandleD1Ev@plt>
  409cdd:	48 89 df             	mov    %rbx,%rdi
  409ce0:	e8 3b fa ff ff       	callq  409720 <_Unwind_Resume@plt>
  409ce5:	8b 50 f8             	mov    -0x8(%rax),%edx
  409ce8:	8d 4a ff             	lea    -0x1(%rdx),%ecx
  409ceb:	89 48 f8             	mov    %ecx,-0x8(%rax)
  409cee:	eb ac                	jmp    409c9c <main+0x4bc>
  409cf0:	48 89 c3             	mov    %rax,%rbx
  409cf3:	eb d1                	jmp    409cc6 <main+0x4e6>
  409cf5:	48 89 df             	mov    %rbx,%rdi
  409cf8:	48 89 c5             	mov    %rax,%rbp
  409cfb:	48 89 14 24          	mov    %rdx,(%rsp)
  409cff:	e8 ec f7 ff ff       	callq  4094f0 <_ZdlPv@plt>
  409d04:	48 8b 14 24          	mov    (%rsp),%rdx
  409d08:	48 89 e8             	mov    %rbp,%rax
  409d0b:	48 83 ea 01          	sub    $0x1,%rdx
  409d0f:	74 4d                	je     409d5e <main+0x57e>
  409d11:	48 89 c3             	mov    %rax,%rbx
  409d14:	eb bd                	jmp    409cd3 <main+0x4f3>
  409d16:	48 8d bc 24 a0 00 00 	lea    0xa0(%rsp),%rdi
  409d1d:	00 
  409d1e:	48 89 c3             	mov    %rax,%rbx
  409d21:	e8 9a 13 00 00       	callq  40b0c0 <_ZN11sensor_msgs16CompressedImage_ISaIvEED1Ev>
  409d26:	48 8d bc 24 a0 01 00 	lea    0x1a0(%rsp),%rdi
  409d2d:	00 
  409d2e:	e8 3d f7 ff ff       	callq  409470 <_ZN3ros9PublisherD1Ev@plt>
  409d33:	48 8d bc 24 90 01 00 	lea    0x190(%rsp),%rdi
  409d3a:	00 
  409d3b:	e8 10 f9 ff ff       	callq  409650 <_ZN3ros10SubscriberD1Ev@plt>
  409d40:	eb 91                	jmp    409cd3 <main+0x4f3>
  409d42:	48 89 c3             	mov    %rax,%rbx
  409d45:	eb ec                	jmp    409d33 <main+0x553>
  409d47:	48 89 c3             	mov    %rax,%rbx
  409d4a:	eb da                	jmp    409d26 <main+0x546>
  409d4c:	48 8d bc 24 e0 01 00 	lea    0x1e0(%rsp),%rdi
  409d53:	00 
  409d54:	48 89 c3             	mov    %rax,%rbx
  409d57:	e8 34 f9 ff ff       	callq  409690 <_ZNSsD1Ev@plt>
  409d5c:	eb d5                	jmp    409d33 <main+0x553>
  409d5e:	48 89 c7             	mov    %rax,%rdi
  409d61:	e8 0a f6 ff ff       	callq  409370 <__cxa_begin_catch@plt>
  409d66:	be 80 2c 41 00       	mov    $0x412c80,%esi
  409d6b:	bf 40 79 61 00       	mov    $0x617940,%edi
  409d70:	e8 9b f7 ff ff       	callq  409510 <_ZStlsISt11char_traitsIcEERSt13basic_ostreamIcT_ES5_PKc@plt>
  409d75:	48 89 c7             	mov    %rax,%rdi
  409d78:	e8 23 f6 ff ff       	callq  4093a0 <_ZSt4endlIcSt11char_traitsIcEERSt13basic_ostreamIT_T0_ES6_@plt>
  409d7d:	be a0 2c 41 00       	mov    $0x412ca0,%esi
  409d82:	bf 40 79 61 00       	mov    $0x617940,%edi
  409d87:	e8 84 f7 ff ff       	callq  409510 <_ZStlsISt11char_traitsIcEERSt13basic_ostreamIcT_ES5_PKc@plt>
  409d8c:	be c8 2c 41 00       	mov    $0x412cc8,%esi
  409d91:	48 89 c7             	mov    %rax,%rdi
  409d94:	e8 77 f7 ff ff       	callq  409510 <_ZStlsISt11char_traitsIcEERSt13basic_ostreamIcT_ES5_PKc@plt>
  409d99:	48 89 c7             	mov    %rax,%rdi
  409d9c:	e8 ff f5 ff ff       	callq  4093a0 <_ZSt4endlIcSt11char_traitsIcEERSt13basic_ostreamIT_T0_ES6_@plt>
  409da1:	bf 01 00 00 00       	mov    $0x1,%edi
  409da6:	e8 05 f8 ff ff       	callq  4095b0 <exit@plt>
  409dab:	e9 61 ff ff ff       	jmpq   409d11 <main+0x531>
  409db0:	e9 56 ff ff ff       	jmpq   409d0b <main+0x52b>
  409db5:	48 8d bc 24 c0 01 00 	lea    0x1c0(%rsp),%rdi
  409dbc:	00 
  409dbd:	48 89 c3             	mov    %rax,%rbx
  409dc0:	e8 cb f8 ff ff       	callq  409690 <_ZNSsD1Ev@plt>
  409dc5:	48 8b b4 24 70 01 00 	mov    0x170(%rsp),%rsi
  409dcc:	00 
  409dcd:	48 8d bc 24 60 01 00 	lea    0x160(%rsp),%rdi
  409dd4:	00 
  409dd5:	e8 56 35 00 00       	callq  40d330 <_ZNSt8_Rb_treeISsSt4pairIKSsSsESt10_Select1stIS2_ESt4lessISsESaIS2_EE8_M_eraseEPSt13_Rb_tree_nodeIS2_E>
  409dda:	48 89 df             	mov    %rbx,%rdi
  409ddd:	e8 3e f9 ff ff       	callq  409720 <_Unwind_Resume@plt>
  409de2:	48 8d bc 24 b0 01 00 	lea    0x1b0(%rsp),%rdi
  409de9:	00 
  409dea:	48 89 c3             	mov    %rax,%rbx
  409ded:	e8 9e f8 ff ff       	callq  409690 <_ZNSsD1Ev@plt>
  409df2:	48 89 df             	mov    %rbx,%rdi
  409df5:	e8 26 f9 ff ff       	callq  409720 <_Unwind_Resume@plt>
  409dfa:	8b 50 f8             	mov    -0x8(%rax),%edx
  409dfd:	8d 4a ff             	lea    -0x1(%rdx),%ecx
  409e00:	89 48 f8             	mov    %ecx,-0x8(%rax)
  409e03:	e9 68 fe ff ff       	jmpq   409c70 <main+0x490>
  409e08:	e9 35 ff ff ff       	jmpq   409d42 <main+0x562>
  409e0d:	48 8d bc 24 c0 00 00 	lea    0xc0(%rsp),%rdi
  409e14:	00 
  409e15:	48 89 c3             	mov    %rax,%rbx
  409e18:	e8 73 f8 ff ff       	callq  409690 <_ZNSsD1Ev@plt>
  409e1d:	e9 04 ff ff ff       	jmpq   409d26 <main+0x546>
  409e22:	48 8b bc 24 e0 00 00 	mov    0xe0(%rsp),%rdi
  409e29:	00 
  409e2a:	48 89 c3             	mov    %rax,%rbx
  409e2d:	48 85 ff             	test   %rdi,%rdi
  409e30:	74 05                	je     409e37 <main+0x657>
  409e32:	e8 b9 f6 ff ff       	callq  4094f0 <_ZdlPv@plt>
  409e37:	48 8d bc 24 d8 00 00 	lea    0xd8(%rsp),%rdi
  409e3e:	00 
  409e3f:	e8 4c f8 ff ff       	callq  409690 <_ZNSsD1Ev@plt>
  409e44:	48 8d bc 24 a8 00 00 	lea    0xa8(%rsp),%rdi
  409e4b:	00 
  409e4c:	e8 af 11 00 00       	callq  40b000 <_ZN8std_msgs7Header_ISaIvEED1Ev>
  409e51:	e9 d0 fe ff ff       	jmpq   409d26 <main+0x546>
  409e56:	48 89 c3             	mov    %rax,%rbx
  409e59:	e8 62 f8 ff ff       	callq  4096c0 <__cxa_end_catch@plt>
  409e5e:	66 90                	xchg   %ax,%ax
  409e60:	e9 6e fe ff ff       	jmpq   409cd3 <main+0x4f3>
  409e65:	66 66 2e 0f 1f 84 00 	data32 nopw %cs:0x0(%rax,%rax,1)
  409e6c:	00 00 00 00 

0000000000409e70 <_GLOBAL__sub_I_robot_ptr>:
  409e70:	48 83 ec 08          	sub    $0x8,%rsp
  409e74:	bf 88 7a 61 00       	mov    $0x617a88,%edi
  409e79:	e8 e2 f7 ff ff       	callq  409660 <_ZNSt8ios_base4InitC1Ev@plt>
  409e7e:	ba 08 76 61 00       	mov    $0x617608,%edx
  409e83:	be 88 7a 61 00       	mov    $0x617a88,%esi
  409e88:	bf 90 97 40 00       	mov    $0x409790,%edi
  409e8d:	48 83 c4 08          	add    $0x8,%rsp
  409e91:	e9 2a f6 ff ff       	jmpq   4094c0 <__cxa_atexit@plt>
  409e96:	90                   	nop
  409e97:	90                   	nop
  409e98:	90                   	nop
  409e99:	90                   	nop
  409e9a:	90                   	nop
  409e9b:	90                   	nop
  409e9c:	90                   	nop
  409e9d:	90                   	nop
  409e9e:	90                   	nop
  409e9f:	90                   	nop

0000000000409ea0 <_GLOBAL__sub_I__ZN13SpykeeManagerC2EPcS0_>:
  409ea0:	48 83 ec 08          	sub    $0x8,%rsp
  409ea4:	bf 8c 7a 61 00       	mov    $0x617a8c,%edi
  409ea9:	e8 b2 f7 ff ff       	callq  409660 <_ZNSt8ios_base4InitC1Ev@plt>
  409eae:	ba 08 76 61 00       	mov    $0x617608,%edx
  409eb3:	be 8c 7a 61 00       	mov    $0x617a8c,%esi
  409eb8:	bf 90 97 40 00       	mov    $0x409790,%edi
  409ebd:	48 83 c4 08          	add    $0x8,%rsp
  409ec1:	e9 fa f5 ff ff       	jmpq   4094c0 <__cxa_atexit@plt>
  409ec6:	90                   	nop
  409ec7:	90                   	nop
  409ec8:	90                   	nop
  409ec9:	90                   	nop
  409eca:	90                   	nop
  409ecb:	90                   	nop
  409ecc:	90                   	nop
  409ecd:	90                   	nop
  409ece:	90                   	nop
  409ecf:	90                   	nop

0000000000409ed0 <_GLOBAL__sub_I__ZN15SocketExceptionC2ERKSsb>:
  409ed0:	48 83 ec 08          	sub    $0x8,%rsp
  409ed4:	bf 90 7a 61 00       	mov    $0x617a90,%edi
  409ed9:	e8 82 f7 ff ff       	callq  409660 <_ZNSt8ios_base4InitC1Ev@plt>
  409ede:	ba 08 76 61 00       	mov    $0x617608,%edx
  409ee3:	be 90 7a 61 00       	mov    $0x617a90,%esi
  409ee8:	bf 90 97 40 00       	mov    $0x409790,%edi
  409eed:	48 83 c4 08          	add    $0x8,%rsp
  409ef1:	e9 ca f5 ff ff       	jmpq   4094c0 <__cxa_atexit@plt>
  409ef6:	90                   	nop
  409ef7:	90                   	nop

0000000000409ef8 <_start>:
  409ef8:	31 ed                	xor    %ebp,%ebp
  409efa:	49 89 d1             	mov    %rdx,%r9
  409efd:	5e                   	pop    %rsi
  409efe:	48 89 e2             	mov    %rsp,%rdx
  409f01:	48 83 e4 f0          	and    $0xfffffffffffffff0,%rsp
  409f05:	50                   	push   %rax
  409f06:	54                   	push   %rsp
  409f07:	49 c7 c0 70 24 41 00 	mov    $0x412470,%r8
  409f0e:	48 c7 c1 80 24 41 00 	mov    $0x412480,%rcx
  409f15:	48 c7 c7 e0 97 40 00 	mov    $0x4097e0,%rdi
  409f1c:	e8 3f f8 ff ff       	callq  409760 <__libc_start_main@plt>
  409f21:	f4                   	hlt    
  409f22:	90                   	nop
  409f23:	90                   	nop

0000000000409f24 <call_gmon_start>:
  409f24:	48 83 ec 08          	sub    $0x8,%rsp
  409f28:	48 8b 05 11 d4 20 00 	mov    0x20d411(%rip),%rax        # 617340 <_DYNAMIC+0x300>
  409f2f:	48 85 c0             	test   %rax,%rax
  409f32:	74 02                	je     409f36 <call_gmon_start+0x12>
  409f34:	ff d0                	callq  *%rax
  409f36:	48 83 c4 08          	add    $0x8,%rsp
  409f3a:	c3                   	retq   
  409f3b:	90                   	nop
  409f3c:	90                   	nop
  409f3d:	90                   	nop
  409f3e:	90                   	nop
  409f3f:	90                   	nop

0000000000409f40 <__do_global_dtors_aux>:
  409f40:	55                   	push   %rbp
  409f41:	48 89 e5             	mov    %rsp,%rbp
  409f44:	53                   	push   %rbx
  409f45:	48 83 ec 08          	sub    $0x8,%rsp
  409f49:	80 3d 18 db 20 00 00 	cmpb   $0x0,0x20db18(%rip)        # 617a68 <completed.5886>
  409f50:	75 4b                	jne    409f9d <__do_global_dtors_aux+0x5d>
  409f52:	bb 30 70 61 00       	mov    $0x617030,%ebx
  409f57:	48 8b 05 12 db 20 00 	mov    0x20db12(%rip),%rax        # 617a70 <dtor_idx.5888>
  409f5e:	48 81 eb 28 70 61 00 	sub    $0x617028,%rbx
  409f65:	48 c1 fb 03          	sar    $0x3,%rbx
  409f69:	48 83 eb 01          	sub    $0x1,%rbx
  409f6d:	48 39 d8             	cmp    %rbx,%rax
  409f70:	73 24                	jae    409f96 <__do_global_dtors_aux+0x56>
  409f72:	66 0f 1f 44 00 00    	nopw   0x0(%rax,%rax,1)
  409f78:	48 83 c0 01          	add    $0x1,%rax
  409f7c:	48 89 05 ed da 20 00 	mov    %rax,0x20daed(%rip)        # 617a70 <dtor_idx.5888>
  409f83:	ff 14 c5 28 70 61 00 	callq  *0x617028(,%rax,8)
  409f8a:	48 8b 05 df da 20 00 	mov    0x20dadf(%rip),%rax        # 617a70 <dtor_idx.5888>
  409f91:	48 39 d8             	cmp    %rbx,%rax
  409f94:	72 e2                	jb     409f78 <__do_global_dtors_aux+0x38>
  409f96:	c6 05 cb da 20 00 01 	movb   $0x1,0x20dacb(%rip)        # 617a68 <completed.5886>
  409f9d:	48 83 c4 08          	add    $0x8,%rsp
  409fa1:	5b                   	pop    %rbx
  409fa2:	5d                   	pop    %rbp
  409fa3:	c3                   	retq   
  409fa4:	66 66 66 2e 0f 1f 84 	data32 data32 nopw %cs:0x0(%rax,%rax,1)
  409fab:	00 00 00 00 00 

0000000000409fb0 <frame_dummy>:
  409fb0:	48 83 3d 80 d0 20 00 	cmpq   $0x0,0x20d080(%rip)        # 617038 <__JCR_END__>
  409fb7:	00 
  409fb8:	55                   	push   %rbp
  409fb9:	48 89 e5             	mov    %rsp,%rbp
  409fbc:	74 12                	je     409fd0 <frame_dummy+0x20>
  409fbe:	b8 00 00 00 00       	mov    $0x0,%eax
  409fc3:	48 85 c0             	test   %rax,%rax
  409fc6:	74 08                	je     409fd0 <frame_dummy+0x20>
  409fc8:	5d                   	pop    %rbp
  409fc9:	bf 38 70 61 00       	mov    $0x617038,%edi
  409fce:	ff e0                	jmpq   *%rax
  409fd0:	5d                   	pop    %rbp
  409fd1:	c3                   	retq   
  409fd2:	90                   	nop
  409fd3:	90                   	nop
  409fd4:	90                   	nop
  409fd5:	90                   	nop
  409fd6:	90                   	nop
  409fd7:	90                   	nop
  409fd8:	90                   	nop
  409fd9:	90                   	nop
  409fda:	90                   	nop
  409fdb:	90                   	nop
  409fdc:	90                   	nop
  409fdd:	90                   	nop
  409fde:	90                   	nop
  409fdf:	90                   	nop

0000000000409fe0 <_Z4moveRKN5boost10shared_ptrIKN6SpyKee7Motion_ISaIvEEEEE>:
  409fe0:	48 83 ec 08          	sub    $0x8,%rsp
  409fe4:	48 8b 07             	mov    (%rdi),%rax
  409fe7:	48 85 c0             	test   %rax,%rax
  409fea:	74 1e                	je     40a00a <_Z4moveRKN5boost10shared_ptrIKN6SpyKee7Motion_ISaIvEEEEE+0x2a>
  409fec:	0f be 70 08          	movsbl 0x8(%rax),%esi
  409ff0:	0f be 40 09          	movsbl 0x9(%rax),%eax
  409ff4:	48 8b 3d 85 da 20 00 	mov    0x20da85(%rip),%rdi        # 617a80 <robot_ptr>
  409ffb:	48 83 c4 08          	add    $0x8,%rsp
  409fff:	89 f2                	mov    %esi,%edx
  40a001:	01 c6                	add    %eax,%esi
  40a003:	29 c2                	sub    %eax,%edx
  40a005:	e9 a6 6d 00 00       	jmpq   410db0 <_ZN13SpykeeManager4moveEii>
  40a00a:	e8 ab f7 ff ff       	callq  4097ba <_ZNK5boost10shared_ptrIKN6SpyKee7Motion_ISaIvEEEEptEv.isra.50.part.51>
  40a00f:	90                   	nop

000000000040a010 <_ZN5boost16exception_detail10clone_baseD1Ev>:
  40a010:	48 c7 07 b0 35 41 00 	movq   $0x4135b0,(%rdi)
  40a017:	c3                   	retq   
  40a018:	90                   	nop
  40a019:	90                   	nop
  40a01a:	90                   	nop
  40a01b:	90                   	nop
  40a01c:	90                   	nop
  40a01d:	90                   	nop
  40a01e:	90                   	nop
  40a01f:	90                   	nop

000000000040a020 <_ZN5boost6detail15sp_counted_baseD1Ev>:
  40a020:	48 c7 07 f0 32 41 00 	movq   $0x4132f0,(%rdi)
  40a027:	c3                   	retq   
  40a028:	90                   	nop
  40a029:	90                   	nop
  40a02a:	90                   	nop
  40a02b:	90                   	nop
  40a02c:	90                   	nop
  40a02d:	90                   	nop
  40a02e:	90                   	nop
  40a02f:	90                   	nop

000000000040a030 <_ZN5boost6detail15sp_counted_base7destroyEv>:
  40a030:	48 85 ff             	test   %rdi,%rdi
  40a033:	74 0b                	je     40a040 <_ZN5boost6detail15sp_counted_base7destroyEv+0x10>
  40a035:	48 8b 07             	mov    (%rdi),%rax
  40a038:	48 8b 40 08          	mov    0x8(%rax),%rax
  40a03c:	ff e0                	jmpq   *%rax
  40a03e:	66 90                	xchg   %ax,%ax
  40a040:	f3 c3                	repz retq 
  40a042:	90                   	nop
  40a043:	90                   	nop
  40a044:	90                   	nop
  40a045:	90                   	nop
  40a046:	90                   	nop
  40a047:	90                   	nop
  40a048:	90                   	nop
  40a049:	90                   	nop
  40a04a:	90                   	nop
  40a04b:	90                   	nop
  40a04c:	90                   	nop
  40a04d:	90                   	nop
  40a04e:	90                   	nop
  40a04f:	90                   	nop

000000000040a050 <_ZN3ros26SubscriptionCallbackHelperD1Ev>:
  40a050:	48 c7 07 30 34 41 00 	movq   $0x413430,(%rdi)
  40a057:	c3                   	retq   
  40a058:	90                   	nop
  40a059:	90                   	nop
  40a05a:	90                   	nop
  40a05b:	90                   	nop
  40a05c:	90                   	nop
  40a05d:	90                   	nop
  40a05e:	90                   	nop
  40a05f:	90                   	nop

000000000040a060 <_ZN5boost6detail8function22void_function_invoker1IPFvRKNS_10shared_ptrIKN6SpyKee7Motion_ISaIvEEEEEEvSB_E6invokeERNS1_15function_bufferESB_>:
  40a060:	48 8b 07             	mov    (%rdi),%rax
  40a063:	48 89 f7             	mov    %rsi,%rdi
  40a066:	ff e0                	jmpq   *%rax
  40a068:	90                   	nop
  40a069:	90                   	nop
  40a06a:	90                   	nop
  40a06b:	90                   	nop
  40a06c:	90                   	nop
  40a06d:	90                   	nop
  40a06e:	90                   	nop
  40a06f:	90                   	nop

000000000040a070 <_ZN5boost6detail8function21function_obj_invoker0INS_3_bi6bind_tIN3ros17SerializedMessageEPFS6_RKN11sensor_msgs16CompressedImage_ISaIvEEEENS3_5list1INS_17reference_wrapperISB_EEEEEES6_E6invokeERNS1_15function_bufferE>:
  40a070:	53                   	push   %rbx
  40a071:	48 89 f0             	mov    %rsi,%rax
  40a074:	48 89 fb             	mov    %rdi,%rbx
  40a077:	48 8b 76 08          	mov    0x8(%rsi),%rsi
  40a07b:	ff 10                	callq  *(%rax)
  40a07d:	48 89 d8             	mov    %rbx,%rax
  40a080:	5b                   	pop    %rbx
  40a081:	c3                   	retq   
  40a082:	90                   	nop
  40a083:	90                   	nop
  40a084:	90                   	nop
  40a085:	90                   	nop
  40a086:	90                   	nop
  40a087:	90                   	nop
  40a088:	90                   	nop
  40a089:	90                   	nop
  40a08a:	90                   	nop
  40a08b:	90                   	nop
  40a08c:	90                   	nop
  40a08d:	90                   	nop
  40a08e:	90                   	nop
  40a08f:	90                   	nop

000000000040a090 <_ZN5boost6detail17sp_counted_impl_pIN3ros27SubscriptionCallbackHelperTIRKNS_10shared_ptrIKN6SpyKee7Motion_ISaIvEEEEEvEEED1Ev>:
  40a090:	48 c7 07 f0 32 41 00 	movq   $0x4132f0,(%rdi)
  40a097:	c3                   	retq   
  40a098:	90                   	nop
  40a099:	90                   	nop
  40a09a:	90                   	nop
  40a09b:	90                   	nop
  40a09c:	90                   	nop
  40a09d:	90                   	nop
  40a09e:	90                   	nop
  40a09f:	90                   	nop

000000000040a0a0 <_ZN5boost6detail18sp_counted_impl_pdIPhNS_21checked_array_deleterIhEEED1Ev>:
  40a0a0:	48 c7 07 f0 32 41 00 	movq   $0x4132f0,(%rdi)
  40a0a7:	c3                   	retq   
  40a0a8:	90                   	nop
  40a0a9:	90                   	nop
  40a0aa:	90                   	nop
  40a0ab:	90                   	nop
  40a0ac:	90                   	nop
  40a0ad:	90                   	nop
  40a0ae:	90                   	nop
  40a0af:	90                   	nop

000000000040a0b0 <_ZN5boost6detail17sp_counted_impl_pIN3ros27SubscriptionCallbackHelperTIRKNS_10shared_ptrIKN6SpyKee7Motion_ISaIvEEEEEvEEE7disposeEv>:
  40a0b0:	48 8b 7f 10          	mov    0x10(%rdi),%rdi
  40a0b4:	48 85 ff             	test   %rdi,%rdi
  40a0b7:	74 0f                	je     40a0c8 <_ZN5boost6detail17sp_counted_impl_pIN3ros27SubscriptionCallbackHelperTIRKNS_10shared_ptrIKN6SpyKee7Motion_ISaIvEEEEEvEEE7disposeEv+0x18>
  40a0b9:	48 8b 07             	mov    (%rdi),%rax
  40a0bc:	48 8b 40 08          	mov    0x8(%rax),%rax
  40a0c0:	ff e0                	jmpq   *%rax
  40a0c2:	66 0f 1f 44 00 00    	nopw   0x0(%rax,%rax,1)
  40a0c8:	f3 c3                	repz retq 
  40a0ca:	90                   	nop
  40a0cb:	90                   	nop
  40a0cc:	90                   	nop
  40a0cd:	90                   	nop
  40a0ce:	90                   	nop
  40a0cf:	90                   	nop

000000000040a0d0 <_ZN5boost6detail17sp_counted_impl_pIN3ros27SubscriptionCallbackHelperTIRKNS_10shared_ptrIKN6SpyKee7Motion_ISaIvEEEEEvEEE11get_deleterERKSt9type_info>:
  40a0d0:	31 c0                	xor    %eax,%eax
  40a0d2:	c3                   	retq   
  40a0d3:	90                   	nop
  40a0d4:	90                   	nop
  40a0d5:	90                   	nop
  40a0d6:	90                   	nop
  40a0d7:	90                   	nop
  40a0d8:	90                   	nop
  40a0d9:	90                   	nop
  40a0da:	90                   	nop
  40a0db:	90                   	nop
  40a0dc:	90                   	nop
  40a0dd:	90                   	nop
  40a0de:	90                   	nop
  40a0df:	90                   	nop

000000000040a0e0 <_ZN3ros27SubscriptionCallbackHelperTIRKN5boost10shared_ptrIKN6SpyKee7Motion_ISaIvEEEEEvE11getTypeInfoEv>:
  40a0e0:	b8 90 32 41 00       	mov    $0x413290,%eax
  40a0e5:	c3                   	retq   
  40a0e6:	90                   	nop
  40a0e7:	90                   	nop
  40a0e8:	90                   	nop
  40a0e9:	90                   	nop
  40a0ea:	90                   	nop
  40a0eb:	90                   	nop
  40a0ec:	90                   	nop
  40a0ed:	90                   	nop
  40a0ee:	90                   	nop
  40a0ef:	90                   	nop

000000000040a0f0 <_ZN3ros27SubscriptionCallbackHelperTIRKN5boost10shared_ptrIKN6SpyKee7Motion_ISaIvEEEEEvE7isConstEv>:
  40a0f0:	b8 01 00 00 00       	mov    $0x1,%eax
  40a0f5:	c3                   	retq   
  40a0f6:	90                   	nop
  40a0f7:	90                   	nop
  40a0f8:	90                   	nop
  40a0f9:	90                   	nop
  40a0fa:	90                   	nop
  40a0fb:	90                   	nop
  40a0fc:	90                   	nop
  40a0fd:	90                   	nop
  40a0fe:	90                   	nop
  40a0ff:	90                   	nop

000000000040a100 <_ZNK8std_msgs7Header_ISaIvEE19serializationLengthEv>:
  40a100:	48 8b 47 18          	mov    0x18(%rdi),%rax
  40a104:	48 8b 40 e8          	mov    -0x18(%rax),%rax
  40a108:	83 c0 10             	add    $0x10,%eax
  40a10b:	c3                   	retq   
  40a10c:	90                   	nop
  40a10d:	90                   	nop
  40a10e:	90                   	nop
  40a10f:	90                   	nop

000000000040a110 <_ZNK6SpyKee7Motion_ISaIvEE19serializationLengthEv>:
  40a110:	b8 02 00 00 00       	mov    $0x2,%eax
  40a115:	c3                   	retq   
  40a116:	90                   	nop
  40a117:	90                   	nop
  40a118:	90                   	nop
  40a119:	90                   	nop
  40a11a:	90                   	nop
  40a11b:	90                   	nop
  40a11c:	90                   	nop
  40a11d:	90                   	nop
  40a11e:	90                   	nop
  40a11f:	90                   	nop

000000000040a120 <_ZN5boost6detail18sp_counted_impl_pdIPhNS_21checked_array_deleterIhEEED0Ev>:
  40a120:	48 c7 07 f0 32 41 00 	movq   $0x4132f0,(%rdi)
  40a127:	e9 c4 f3 ff ff       	jmpq   4094f0 <_ZdlPv@plt>
  40a12c:	90                   	nop
  40a12d:	90                   	nop
  40a12e:	90                   	nop
  40a12f:	90                   	nop

000000000040a130 <_ZN5boost6detail17sp_counted_impl_pIN3ros27SubscriptionCallbackHelperTIRKNS_10shared_ptrIKN6SpyKee7Motion_ISaIvEEEEEvEEED0Ev>:
  40a130:	48 c7 07 f0 32 41 00 	movq   $0x4132f0,(%rdi)
  40a137:	e9 b4 f3 ff ff       	jmpq   4094f0 <_ZdlPv@plt>
  40a13c:	90                   	nop
  40a13d:	90                   	nop
  40a13e:	90                   	nop
  40a13f:	90                   	nop

000000000040a140 <_ZN3ros26SubscriptionCallbackHelperD0Ev>:
  40a140:	48 c7 07 30 34 41 00 	movq   $0x413430,(%rdi)
  40a147:	e9 a4 f3 ff ff       	jmpq   4094f0 <_ZdlPv@plt>
  40a14c:	90                   	nop
  40a14d:	90                   	nop
  40a14e:	90                   	nop
  40a14f:	90                   	nop

000000000040a150 <_ZN5boost6detail15sp_counted_baseD0Ev>:
  40a150:	48 c7 07 f0 32 41 00 	movq   $0x4132f0,(%rdi)
  40a157:	e9 94 f3 ff ff       	jmpq   4094f0 <_ZdlPv@plt>
  40a15c:	90                   	nop
  40a15d:	90                   	nop
  40a15e:	90                   	nop
  40a15f:	90                   	nop

000000000040a160 <_ZN5boost16exception_detail10clone_baseD0Ev>:
  40a160:	48 c7 07 b0 35 41 00 	movq   $0x4135b0,(%rdi)
  40a167:	e9 84 f3 ff ff       	jmpq   4094f0 <_ZdlPv@plt>
  40a16c:	90                   	nop
  40a16d:	90                   	nop
  40a16e:	90                   	nop
  40a16f:	90                   	nop

000000000040a170 <_ZNK6SpyKee7Motion_ISaIvEE9serializeEPhj>:
  40a170:	48 89 5c 24 e8       	mov    %rbx,-0x18(%rsp)
  40a175:	48 89 6c 24 f0       	mov    %rbp,-0x10(%rsp)
  40a17a:	48 8d 6e 02          	lea    0x2(%rsi),%rbp
  40a17e:	4c 89 64 24 f8       	mov    %r12,-0x8(%rsp)
  40a183:	48 83 ec 18          	sub    $0x18,%rsp
  40a187:	0f b6 47 08          	movzbl 0x8(%rdi),%eax
  40a18b:	48 89 f3             	mov    %rsi,%rbx
  40a18e:	88 06                	mov    %al,(%rsi)
  40a190:	48 8d 86 00 ca 9a 3b 	lea    0x3b9aca00(%rsi),%rax
  40a197:	44 0f b6 67 09       	movzbl 0x9(%rdi),%r12d
  40a19c:	48 39 c5             	cmp    %rax,%rbp
  40a19f:	76 05                	jbe    40a1a6 <_ZNK6SpyKee7Motion_ISaIvEE9serializeEPhj+0x36>
  40a1a1:	e8 3a f3 ff ff       	callq  4094e0 <_ZN3ros13serialization18throwStreamOverrunEv@plt>
  40a1a6:	44 88 63 01          	mov    %r12b,0x1(%rbx)
  40a1aa:	48 89 e8             	mov    %rbp,%rax
  40a1ad:	48 8b 1c 24          	mov    (%rsp),%rbx
  40a1b1:	48 8b 6c 24 08       	mov    0x8(%rsp),%rbp
  40a1b6:	4c 8b 64 24 10       	mov    0x10(%rsp),%r12
  40a1bb:	48 83 c4 18          	add    $0x18,%rsp
  40a1bf:	c3                   	retq   

000000000040a1c0 <_ZN5boost6detail18sp_counted_impl_pdIPhNS_21checked_array_deleterIhEEE7disposeEv>:
  40a1c0:	48 8b 7f 10          	mov    0x10(%rdi),%rdi
  40a1c4:	48 85 ff             	test   %rdi,%rdi
  40a1c7:	74 07                	je     40a1d0 <_ZN5boost6detail18sp_counted_impl_pdIPhNS_21checked_array_deleterIhEEE7disposeEv+0x10>
  40a1c9:	e9 02 f4 ff ff       	jmpq   4095d0 <_ZdaPv@plt>
  40a1ce:	66 90                	xchg   %ax,%ax
  40a1d0:	f3 c3                	repz retq 
  40a1d2:	90                   	nop
  40a1d3:	90                   	nop
  40a1d4:	90                   	nop
  40a1d5:	90                   	nop
  40a1d6:	90                   	nop
  40a1d7:	90                   	nop
  40a1d8:	90                   	nop
  40a1d9:	90                   	nop
  40a1da:	90                   	nop
  40a1db:	90                   	nop
  40a1dc:	90                   	nop
  40a1dd:	90                   	nop
  40a1de:	90                   	nop
  40a1df:	90                   	nop

000000000040a1e0 <_ZN5boost17bad_function_callD1Ev>:
  40a1e0:	48 c7 07 f0 34 41 00 	movq   $0x4134f0,(%rdi)
  40a1e7:	e9 64 f3 ff ff       	jmpq   409550 <_ZNSt13runtime_errorD2Ev@plt>
  40a1ec:	90                   	nop
  40a1ed:	90                   	nop
  40a1ee:	90                   	nop
  40a1ef:	90                   	nop

000000000040a1f0 <_ZN5boost6detail8function15functor_managerIPFvRKNS_10shared_ptrIKN6SpyKee7Motion_ISaIvEEEEEEE6manageERKNS1_15function_bufferERSF_NS1_30functor_manager_operation_typeE>:
  40a1f0:	83 fa 04             	cmp    $0x4,%edx
  40a1f3:	49 89 f8             	mov    %rdi,%r8
  40a1f6:	48 89 f0             	mov    %rsi,%rax
  40a1f9:	74 13                	je     40a20e <_ZN5boost6detail8function15functor_managerIPFvRKNS_10shared_ptrIKN6SpyKee7Motion_ISaIvEEEEEEE6manageERKNS1_15function_bufferERSF_NS1_30functor_manager_operation_typeE+0x1e>
  40a1fb:	85 d2                	test   %edx,%edx
  40a1fd:	74 21                	je     40a220 <_ZN5boost6detail8function15functor_managerIPFvRKNS_10shared_ptrIKN6SpyKee7Motion_ISaIvEEEEEEE6manageERKNS1_15function_bufferERSF_NS1_30functor_manager_operation_typeE+0x30>
  40a1ff:	83 fa 01             	cmp    $0x1,%edx
  40a202:	74 64                	je     40a268 <_ZN5boost6detail8function15functor_managerIPFvRKNS_10shared_ptrIKN6SpyKee7Motion_ISaIvEEEEEEE6manageERKNS1_15function_bufferERSF_NS1_30functor_manager_operation_typeE+0x78>
  40a204:	83 fa 02             	cmp    $0x2,%edx
  40a207:	74 77                	je     40a280 <_ZN5boost6detail8function15functor_managerIPFvRKNS_10shared_ptrIKN6SpyKee7Motion_ISaIvEEEEEEE6manageERKNS1_15function_bufferERSF_NS1_30functor_manager_operation_typeE+0x90>
  40a209:	83 fa 03             	cmp    $0x3,%edx
  40a20c:	74 22                	je     40a230 <_ZN5boost6detail8function15functor_managerIPFvRKNS_10shared_ptrIKN6SpyKee7Motion_ISaIvEEEEEEE6manageERKNS1_15function_bufferERSF_NS1_30functor_manager_operation_typeE+0x40>
  40a20e:	48 c7 00 c0 33 41 00 	movq   $0x4133c0,(%rax)
  40a215:	c6 40 08 00          	movb   $0x0,0x8(%rax)
  40a219:	c6 40 09 00          	movb   $0x0,0x9(%rax)
  40a21d:	c3                   	retq   
  40a21e:	66 90                	xchg   %ax,%ax
  40a220:	48 8b 17             	mov    (%rdi),%rdx
  40a223:	48 89 16             	mov    %rdx,(%rsi)
  40a226:	c3                   	retq   
  40a227:	66 0f 1f 84 00 00 00 	nopw   0x0(%rax,%rax,1)
  40a22e:	00 00 
  40a230:	48 8b 16             	mov    (%rsi),%rdx
  40a233:	b9 36 00 00 00       	mov    $0x36,%ecx
  40a238:	bf e0 33 41 00       	mov    $0x4133e0,%edi
  40a23d:	48 8b 72 08          	mov    0x8(%rdx),%rsi
  40a241:	31 d2                	xor    %edx,%edx
  40a243:	80 3e 2a             	cmpb   $0x2a,(%rsi)
  40a246:	0f 94 c2             	sete   %dl
  40a249:	48 01 d6             	add    %rdx,%rsi
  40a24c:	f3 a6                	repz cmpsb %es:(%rdi),%ds:(%rsi)
  40a24e:	40 0f 97 c6          	seta   %sil
  40a252:	0f 92 c1             	setb   %cl
  40a255:	31 d2                	xor    %edx,%edx
  40a257:	40 38 ce             	cmp    %cl,%sil
  40a25a:	49 0f 44 d0          	cmove  %r8,%rdx
  40a25e:	48 89 10             	mov    %rdx,(%rax)
  40a261:	c3                   	retq   
  40a262:	66 0f 1f 44 00 00    	nopw   0x0(%rax,%rax,1)
  40a268:	48 8b 17             	mov    (%rdi),%rdx
  40a26b:	48 89 16             	mov    %rdx,(%rsi)
  40a26e:	48 c7 07 00 00 00 00 	movq   $0x0,(%rdi)
  40a275:	c3                   	retq   
  40a276:	66 2e 0f 1f 84 00 00 	nopw   %cs:0x0(%rax,%rax,1)
  40a27d:	00 00 00 
  40a280:	48 c7 06 00 00 00 00 	movq   $0x0,(%rsi)
  40a287:	c3                   	retq   
  40a288:	90                   	nop
  40a289:	90                   	nop
  40a28a:	90                   	nop
  40a28b:	90                   	nop
  40a28c:	90                   	nop
  40a28d:	90                   	nop
  40a28e:	90                   	nop
  40a28f:	90                   	nop

000000000040a290 <_ZN5boost6detail8function15functor_managerIN3ros21DefaultMessageCreatorIN6SpyKee7Motion_ISaIvEEEEEE6manageERKNS1_15function_bufferERSB_NS1_30functor_manager_operation_typeE>:
  40a290:	83 fa 04             	cmp    $0x4,%edx
  40a293:	49 89 f8             	mov    %rdi,%r8
  40a296:	48 89 f0             	mov    %rsi,%rax
  40a299:	74 25                	je     40a2c0 <_ZN5boost6detail8function15functor_managerIN3ros21DefaultMessageCreatorIN6SpyKee7Motion_ISaIvEEEEEE6manageERKNS1_15function_bufferERSB_NS1_30functor_manager_operation_typeE+0x30>
  40a29b:	83 fa 01             	cmp    $0x1,%edx
  40a29e:	76 19                	jbe    40a2b9 <_ZN5boost6detail8function15functor_managerIN3ros21DefaultMessageCreatorIN6SpyKee7Motion_ISaIvEEEEEE6manageERKNS1_15function_bufferERSB_NS1_30functor_manager_operation_typeE+0x29>
  40a2a0:	83 fa 02             	cmp    $0x2,%edx
  40a2a3:	74 14                	je     40a2b9 <_ZN5boost6detail8function15functor_managerIN3ros21DefaultMessageCreatorIN6SpyKee7Motion_ISaIvEEEEEE6manageERKNS1_15function_bufferERSB_NS1_30functor_manager_operation_typeE+0x29>
  40a2a5:	83 fa 03             	cmp    $0x3,%edx
  40a2a8:	74 26                	je     40a2d0 <_ZN5boost6detail8function15functor_managerIN3ros21DefaultMessageCreatorIN6SpyKee7Motion_ISaIvEEEEEE6manageERKNS1_15function_bufferERSB_NS1_30functor_manager_operation_typeE+0x40>
  40a2aa:	48 c7 06 60 33 41 00 	movq   $0x413360,(%rsi)
  40a2b1:	c6 46 08 00          	movb   $0x0,0x8(%rsi)
  40a2b5:	c6 46 09 00          	movb   $0x0,0x9(%rsi)
  40a2b9:	f3 c3                	repz retq 
  40a2bb:	0f 1f 44 00 00       	nopl   0x0(%rax,%rax,1)
  40a2c0:	48 c7 06 60 33 41 00 	movq   $0x413360,(%rsi)
  40a2c7:	c6 46 08 00          	movb   $0x0,0x8(%rsi)
  40a2cb:	c6 46 09 00          	movb   $0x0,0x9(%rsi)
  40a2cf:	c3                   	retq   
  40a2d0:	48 8b 16             	mov    (%rsi),%rdx
  40a2d3:	b9 38 00 00 00       	mov    $0x38,%ecx
  40a2d8:	bf 80 33 41 00       	mov    $0x413380,%edi
  40a2dd:	48 8b 72 08          	mov    0x8(%rdx),%rsi
  40a2e1:	31 d2                	xor    %edx,%edx
  40a2e3:	80 3e 2a             	cmpb   $0x2a,(%rsi)
  40a2e6:	0f 94 c2             	sete   %dl
  40a2e9:	48 01 d6             	add    %rdx,%rsi
  40a2ec:	f3 a6                	repz cmpsb %es:(%rdi),%ds:(%rsi)
  40a2ee:	40 0f 97 c6          	seta   %sil
  40a2f2:	0f 92 c1             	setb   %cl
  40a2f5:	31 d2                	xor    %edx,%edx
  40a2f7:	40 38 ce             	cmp    %cl,%sil
  40a2fa:	49 0f 44 d0          	cmove  %r8,%rdx
  40a2fe:	48 89 10             	mov    %rdx,(%rax)
  40a301:	c3                   	retq   
  40a302:	90                   	nop
  40a303:	90                   	nop
  40a304:	90                   	nop
  40a305:	90                   	nop
  40a306:	90                   	nop
  40a307:	90                   	nop
  40a308:	90                   	nop
  40a309:	90                   	nop
  40a30a:	90                   	nop
  40a30b:	90                   	nop
  40a30c:	90                   	nop
  40a30d:	90                   	nop
  40a30e:	90                   	nop
  40a30f:	90                   	nop

000000000040a310 <_ZN5boost6detail8function15functor_managerINS_3_bi6bind_tIN3ros17SerializedMessageEPFS6_RKN11sensor_msgs16CompressedImage_ISaIvEEEENS3_5list1INS_17reference_wrapperISB_EEEEEEE6manageERKNS1_15function_bufferERSL_NS1_30functor_manager_operation_typeE>:
  40a310:	83 fa 04             	cmp    $0x4,%edx
  40a313:	49 89 f8             	mov    %rdi,%r8
  40a316:	48 89 f0             	mov    %rsi,%rax
  40a319:	74 25                	je     40a340 <_ZN5boost6detail8function15functor_managerINS_3_bi6bind_tIN3ros17SerializedMessageEPFS6_RKN11sensor_msgs16CompressedImage_ISaIvEEEENS3_5list1INS_17reference_wrapperISB_EEEEEEE6manageERKNS1_15function_bufferERSL_NS1_30functor_manager_operation_typeE+0x30>
  40a31b:	83 fa 01             	cmp    $0x1,%edx
  40a31e:	76 30                	jbe    40a350 <_ZN5boost6detail8function15functor_managerINS_3_bi6bind_tIN3ros17SerializedMessageEPFS6_RKN11sensor_msgs16CompressedImage_ISaIvEEEENS3_5list1INS_17reference_wrapperISB_EEEEEEE6manageERKNS1_15function_bufferERSL_NS1_30functor_manager_operation_typeE+0x40>
  40a320:	83 fa 02             	cmp    $0x2,%edx
  40a323:	74 14                	je     40a339 <_ZN5boost6detail8function15functor_managerINS_3_bi6bind_tIN3ros17SerializedMessageEPFS6_RKN11sensor_msgs16CompressedImage_ISaIvEEEENS3_5list1INS_17reference_wrapperISB_EEEEEEE6manageERKNS1_15function_bufferERSL_NS1_30functor_manager_operation_typeE+0x29>
  40a325:	83 fa 03             	cmp    $0x3,%edx
  40a328:	74 3e                	je     40a368 <_ZN5boost6detail8function15functor_managerINS_3_bi6bind_tIN3ros17SerializedMessageEPFS6_RKN11sensor_msgs16CompressedImage_ISaIvEEEENS3_5list1INS_17reference_wrapperISB_EEEEEEE6manageERKNS1_15function_bufferERSL_NS1_30functor_manager_operation_typeE+0x58>
  40a32a:	48 c7 06 30 37 41 00 	movq   $0x413730,(%rsi)
  40a331:	c6 46 08 00          	movb   $0x0,0x8(%rsi)
  40a335:	c6 46 09 00          	movb   $0x0,0x9(%rsi)
  40a339:	f3 c3                	repz retq 
  40a33b:	0f 1f 44 00 00       	nopl   0x0(%rax,%rax,1)
  40a340:	48 c7 06 30 37 41 00 	movq   $0x413730,(%rsi)
  40a347:	c6 46 08 00          	movb   $0x0,0x8(%rsi)
  40a34b:	c6 46 09 00          	movb   $0x0,0x9(%rsi)
  40a34f:	c3                   	retq   
  40a350:	48 85 f6             	test   %rsi,%rsi
  40a353:	74 e4                	je     40a339 <_ZN5boost6detail8function15functor_managerINS_3_bi6bind_tIN3ros17SerializedMessageEPFS6_RKN11sensor_msgs16CompressedImage_ISaIvEEEENS3_5list1INS_17reference_wrapperISB_EEEEEEE6manageERKNS1_15function_bufferERSL_NS1_30functor_manager_operation_typeE+0x29>
  40a355:	48 8b 17             	mov    (%rdi),%rdx
  40a358:	48 89 16             	mov    %rdx,(%rsi)
  40a35b:	48 8b 57 08          	mov    0x8(%rdi),%rdx
  40a35f:	48 89 56 08          	mov    %rdx,0x8(%rsi)
  40a363:	c3                   	retq   
  40a364:	0f 1f 40 00          	nopl   0x0(%rax)
  40a368:	48 8b 16             	mov    (%rsi),%rdx
  40a36b:	b9 88 00 00 00       	mov    $0x88,%ecx
  40a370:	bf 40 37 41 00       	mov    $0x413740,%edi
  40a375:	48 8b 72 08          	mov    0x8(%rdx),%rsi
  40a379:	31 d2                	xor    %edx,%edx
  40a37b:	80 3e 2a             	cmpb   $0x2a,(%rsi)
  40a37e:	0f 94 c2             	sete   %dl
  40a381:	48 01 d6             	add    %rdx,%rsi
  40a384:	f3 a6                	repz cmpsb %es:(%rdi),%ds:(%rsi)
  40a386:	40 0f 97 c6          	seta   %sil
  40a38a:	0f 92 c1             	setb   %cl
  40a38d:	31 d2                	xor    %edx,%edx
  40a38f:	40 38 ce             	cmp    %cl,%sil
  40a392:	49 0f 44 d0          	cmove  %r8,%rdx
  40a396:	48 89 10             	mov    %rdx,(%rax)
  40a399:	c3                   	retq   
  40a39a:	90                   	nop
  40a39b:	90                   	nop
  40a39c:	90                   	nop
  40a39d:	90                   	nop
  40a39e:	90                   	nop
  40a39f:	90                   	nop

000000000040a3a0 <_ZNK11sensor_msgs16CompressedImage_ISaIvEE19serializationLengthEv>:
  40a3a0:	48 8b 47 38          	mov    0x38(%rdi),%rax
  40a3a4:	48 8b 57 20          	mov    0x20(%rdi),%rdx
  40a3a8:	48 8b 52 e8          	mov    -0x18(%rdx),%rdx
  40a3ac:	03 50 e8             	add    -0x18(%rax),%edx
  40a3af:	48 8b 47 48          	mov    0x48(%rdi),%rax
  40a3b3:	48 2b 47 40          	sub    0x40(%rdi),%rax
  40a3b7:	8d 44 02 18          	lea    0x18(%rdx,%rax,1),%eax
  40a3bb:	c3                   	retq   
  40a3bc:	90                   	nop
  40a3bd:	90                   	nop
  40a3be:	90                   	nop
  40a3bf:	90                   	nop

000000000040a3c0 <_ZN5boost17bad_function_callD0Ev>:
  40a3c0:	53                   	push   %rbx
  40a3c1:	48 89 fb             	mov    %rdi,%rbx
  40a3c4:	48 c7 07 f0 34 41 00 	movq   $0x4134f0,(%rdi)
  40a3cb:	e8 80 f1 ff ff       	callq  409550 <_ZNSt13runtime_errorD2Ev@plt>
  40a3d0:	48 89 df             	mov    %rbx,%rdi
  40a3d3:	5b                   	pop    %rbx
  40a3d4:	e9 17 f1 ff ff       	jmpq   4094f0 <_ZdlPv@plt>
  40a3d9:	90                   	nop
  40a3da:	90                   	nop
  40a3db:	90                   	nop
  40a3dc:	90                   	nop
  40a3dd:	90                   	nop
  40a3de:	90                   	nop
  40a3df:	90                   	nop

000000000040a3e0 <_ZN6SpyKee7Motion_ISaIvEE11deserializeEPh>:
  40a3e0:	48 89 5c 24 e8       	mov    %rbx,-0x18(%rsp)
  40a3e5:	48 89 6c 24 f0       	mov    %rbp,-0x10(%rsp)
  40a3ea:	48 89 fb             	mov    %rdi,%rbx
  40a3ed:	4c 89 64 24 f8       	mov    %r12,-0x8(%rsp)
  40a3f2:	48 83 ec 18          	sub    $0x18,%rsp
  40a3f6:	0f b6 06             	movzbl (%rsi),%eax
  40a3f9:	4c 8d 66 02          	lea    0x2(%rsi),%r12
  40a3fd:	48 89 f5             	mov    %rsi,%rbp
  40a400:	88 47 08             	mov    %al,0x8(%rdi)
  40a403:	48 8d 86 00 ca 9a 3b 	lea    0x3b9aca00(%rsi),%rax
  40a40a:	49 39 c4             	cmp    %rax,%r12
  40a40d:	76 05                	jbe    40a414 <_ZN6SpyKee7Motion_ISaIvEE11deserializeEPh+0x34>
  40a40f:	e8 cc f0 ff ff       	callq  4094e0 <_ZN3ros13serialization18throwStreamOverrunEv@plt>
  40a414:	0f b6 45 01          	movzbl 0x1(%rbp),%eax
  40a418:	48 8b 6c 24 08       	mov    0x8(%rsp),%rbp
  40a41d:	88 43 09             	mov    %al,0x9(%rbx)
  40a420:	4c 89 e0             	mov    %r12,%rax
  40a423:	48 8b 1c 24          	mov    (%rsp),%rbx
  40a427:	4c 8b 64 24 10       	mov    0x10(%rsp),%r12
  40a42c:	48 83 c4 18          	add    $0x18,%rsp
  40a430:	c3                   	retq   
  40a431:	90                   	nop
  40a432:	90                   	nop
  40a433:	90                   	nop
  40a434:	90                   	nop
  40a435:	90                   	nop
  40a436:	90                   	nop
  40a437:	90                   	nop
  40a438:	90                   	nop
  40a439:	90                   	nop
  40a43a:	90                   	nop
  40a43b:	90                   	nop
  40a43c:	90                   	nop
  40a43d:	90                   	nop
  40a43e:	90                   	nop
  40a43f:	90                   	nop

000000000040a440 <_ZN5boost6detail18sp_counted_impl_pdIPhNS_21checked_array_deleterIhEEE11get_deleterERKSt9type_info>:
  40a440:	48 8b 76 08          	mov    0x8(%rsi),%rsi
  40a444:	48 89 fa             	mov    %rdi,%rdx
  40a447:	48 81 fe 20 38 41 00 	cmp    $0x413820,%rsi
  40a44e:	74 20                	je     40a470 <_ZN5boost6detail18sp_counted_impl_pdIPhNS_21checked_array_deleterIhEEE11get_deleterERKSt9type_info+0x30>
  40a450:	31 c0                	xor    %eax,%eax
  40a452:	80 3e 2a             	cmpb   $0x2a,(%rsi)
  40a455:	74 0e                	je     40a465 <_ZN5boost6detail18sp_counted_impl_pdIPhNS_21checked_array_deleterIhEEE11get_deleterERKSt9type_info+0x25>
  40a457:	bf 20 38 41 00       	mov    $0x413820,%edi
  40a45c:	b9 23 00 00 00       	mov    $0x23,%ecx
  40a461:	f3 a6                	repz cmpsb %es:(%rdi),%ds:(%rsi)
  40a463:	74 0b                	je     40a470 <_ZN5boost6detail18sp_counted_impl_pdIPhNS_21checked_array_deleterIhEEE11get_deleterERKSt9type_info+0x30>
  40a465:	f3 c3                	repz retq 
  40a467:	66 0f 1f 84 00 00 00 	nopw   0x0(%rax,%rax,1)
  40a46e:	00 00 
  40a470:	48 8d 42 18          	lea    0x18(%rdx),%rax
  40a474:	c3                   	retq   
  40a475:	90                   	nop
  40a476:	90                   	nop
  40a477:	90                   	nop
  40a478:	90                   	nop
  40a479:	90                   	nop
  40a47a:	90                   	nop
  40a47b:	90                   	nop
  40a47c:	90                   	nop
  40a47d:	90                   	nop
  40a47e:	90                   	nop
  40a47f:	90                   	nop

000000000040a480 <_ZN5boost6detail18sp_counted_impl_pdIPN6SpyKee7Motion_ISaIvEEENS0_13sp_ms_deleterIS5_EEE11get_deleterERKSt9type_info>:
  40a480:	48 8b 76 08          	mov    0x8(%rsi),%rsi
  40a484:	48 89 fa             	mov    %rdi,%rdx
  40a487:	48 81 fe a0 32 41 00 	cmp    $0x4132a0,%rsi
  40a48e:	74 20                	je     40a4b0 <_ZN5boost6detail18sp_counted_impl_pdIPN6SpyKee7Motion_ISaIvEEENS0_13sp_ms_deleterIS5_EEE11get_deleterERKSt9type_info+0x30>
  40a490:	31 c0                	xor    %eax,%eax
  40a492:	80 3e 2a             	cmpb   $0x2a,(%rsi)
  40a495:	74 0e                	je     40a4a5 <_ZN5boost6detail18sp_counted_impl_pdIPN6SpyKee7Motion_ISaIvEEENS0_13sp_ms_deleterIS5_EEE11get_deleterERKSt9type_info+0x25>
  40a497:	bf a0 32 41 00       	mov    $0x4132a0,%edi
  40a49c:	b9 39 00 00 00       	mov    $0x39,%ecx
  40a4a1:	f3 a6                	repz cmpsb %es:(%rdi),%ds:(%rsi)
  40a4a3:	74 0b                	je     40a4b0 <_ZN5boost6detail18sp_counted_impl_pdIPN6SpyKee7Motion_ISaIvEEENS0_13sp_ms_deleterIS5_EEE11get_deleterERKSt9type_info+0x30>
  40a4a5:	f3 c3                	repz retq 
  40a4a7:	66 0f 1f 84 00 00 00 	nopw   0x0(%rax,%rax,1)
  40a4ae:	00 00 
  40a4b0:	48 8d 42 18          	lea    0x18(%rdx),%rax
  40a4b4:	c3                   	retq   
  40a4b5:	90                   	nop
  40a4b6:	90                   	nop
  40a4b7:	90                   	nop
  40a4b8:	90                   	nop
  40a4b9:	90                   	nop
  40a4ba:	90                   	nop
  40a4bb:	90                   	nop
  40a4bc:	90                   	nop
  40a4bd:	90                   	nop
  40a4be:	90                   	nop
  40a4bf:	90                   	nop

000000000040a4c0 <_ZNK8std_msgs7Header_ISaIvEE9serializeEPhj>:
  40a4c0:	4c 89 74 24 f0       	mov    %r14,-0x10(%rsp)
  40a4c5:	48 8d 46 08          	lea    0x8(%rsi),%rax
  40a4c9:	4c 8d b6 00 ca 9a 3b 	lea    0x3b9aca00(%rsi),%r14
  40a4d0:	4c 89 64 24 e0       	mov    %r12,-0x20(%rsp)
  40a4d5:	4c 89 6c 24 e8       	mov    %r13,-0x18(%rsp)
  40a4da:	49 89 fc             	mov    %rdi,%r12
  40a4dd:	48 89 5c 24 d0       	mov    %rbx,-0x30(%rsp)
  40a4e2:	48 89 6c 24 d8       	mov    %rbp,-0x28(%rsp)
  40a4e7:	49 89 f5             	mov    %rsi,%r13
  40a4ea:	4c 89 7c 24 f8       	mov    %r15,-0x8(%rsp)
  40a4ef:	48 83 ec 48          	sub    $0x48,%rsp
  40a4f3:	49 39 c6             	cmp    %rax,%r14
  40a4f6:	89 16                	mov    %edx,(%rsi)
  40a4f8:	8b 5f 0c             	mov    0xc(%rdi),%ebx
  40a4fb:	0f 82 8f 00 00 00    	jb     40a590 <_ZNK8std_msgs7Header_ISaIvEE9serializeEPhj+0xd0>
  40a501:	49 8d 45 0c          	lea    0xc(%r13),%rax
  40a505:	41 89 5d 04          	mov    %ebx,0x4(%r13)
  40a509:	41 8b 5c 24 10       	mov    0x10(%r12),%ebx
  40a50e:	49 39 c6             	cmp    %rax,%r14
  40a511:	73 05                	jae    40a518 <_ZNK8std_msgs7Header_ISaIvEE9serializeEPhj+0x58>
  40a513:	e8 c8 ef ff ff       	callq  4094e0 <_ZN3ros13serialization18throwStreamOverrunEv@plt>
  40a518:	41 89 5d 08          	mov    %ebx,0x8(%r13)
  40a51c:	49 8b 44 24 18       	mov    0x18(%r12),%rax
  40a521:	49 8d 6d 10          	lea    0x10(%r13),%rbp
  40a525:	49 39 ee             	cmp    %rbp,%r14
  40a528:	4c 8b 78 e8          	mov    -0x18(%rax),%r15
  40a52c:	44 89 fb             	mov    %r15d,%ebx
  40a52f:	72 4f                	jb     40a580 <_ZNK8std_msgs7Header_ISaIvEE9serializeEPhj+0xc0>
  40a531:	4d 85 ff             	test   %r15,%r15
  40a534:	41 89 5d 0c          	mov    %ebx,0xc(%r13)
  40a538:	74 1b                	je     40a555 <_ZNK8std_msgs7Header_ISaIvEE9serializeEPhj+0x95>
  40a53a:	48 01 eb             	add    %rbp,%rbx
  40a53d:	49 8b 74 24 18       	mov    0x18(%r12),%rsi
  40a542:	49 39 de             	cmp    %rbx,%r14
  40a545:	72 59                	jb     40a5a0 <_ZNK8std_msgs7Header_ISaIvEE9serializeEPhj+0xe0>
  40a547:	48 89 ef             	mov    %rbp,%rdi
  40a54a:	4c 89 fa             	mov    %r15,%rdx
  40a54d:	48 89 dd             	mov    %rbx,%rbp
  40a550:	e8 bb f1 ff ff       	callq  409710 <memcpy@plt>
  40a555:	48 89 e8             	mov    %rbp,%rax
  40a558:	48 8b 5c 24 18       	mov    0x18(%rsp),%rbx
  40a55d:	48 8b 6c 24 20       	mov    0x20(%rsp),%rbp
  40a562:	4c 8b 64 24 28       	mov    0x28(%rsp),%r12
  40a567:	4c 8b 6c 24 30       	mov    0x30(%rsp),%r13
  40a56c:	4c 8b 74 24 38       	mov    0x38(%rsp),%r14
  40a571:	4c 8b 7c 24 40       	mov    0x40(%rsp),%r15
  40a576:	48 83 c4 48          	add    $0x48,%rsp
  40a57a:	c3                   	retq   
  40a57b:	0f 1f 44 00 00       	nopl   0x0(%rax,%rax,1)
  40a580:	e8 5b ef ff ff       	callq  4094e0 <_ZN3ros13serialization18throwStreamOverrunEv@plt>
  40a585:	eb aa                	jmp    40a531 <_ZNK8std_msgs7Header_ISaIvEE9serializeEPhj+0x71>
  40a587:	66 0f 1f 84 00 00 00 	nopw   0x0(%rax,%rax,1)
  40a58e:	00 00 
  40a590:	e8 4b ef ff ff       	callq  4094e0 <_ZN3ros13serialization18throwStreamOverrunEv@plt>
  40a595:	e9 67 ff ff ff       	jmpq   40a501 <_ZNK8std_msgs7Header_ISaIvEE9serializeEPhj+0x41>
  40a59a:	66 0f 1f 44 00 00    	nopw   0x0(%rax,%rax,1)
  40a5a0:	48 89 74 24 08       	mov    %rsi,0x8(%rsp)
  40a5a5:	e8 36 ef ff ff       	callq  4094e0 <_ZN3ros13serialization18throwStreamOverrunEv@plt>
  40a5aa:	48 8b 74 24 08       	mov    0x8(%rsp),%rsi
  40a5af:	eb 96                	jmp    40a547 <_ZNK8std_msgs7Header_ISaIvEE9serializeEPhj+0x87>
  40a5b1:	90                   	nop
  40a5b2:	90                   	nop
  40a5b3:	90                   	nop
  40a5b4:	90                   	nop
  40a5b5:	90                   	nop
  40a5b6:	90                   	nop
  40a5b7:	90                   	nop
  40a5b8:	90                   	nop
  40a5b9:	90                   	nop
  40a5ba:	90                   	nop
  40a5bb:	90                   	nop
  40a5bc:	90                   	nop
  40a5bd:	90                   	nop
  40a5be:	90                   	nop
  40a5bf:	90                   	nop

000000000040a5c0 <_ZNK11sensor_msgs16CompressedImage_ISaIvEE9serializeEPhj>:
  40a5c0:	48 89 5c 24 d0       	mov    %rbx,-0x30(%rsp)
  40a5c5:	48 89 6c 24 d8       	mov    %rbp,-0x28(%rsp)
  40a5ca:	48 8d ae 00 ca 9a 3b 	lea    0x3b9aca00(%rsi),%rbp
  40a5d1:	4c 89 6c 24 e8       	mov    %r13,-0x18(%rsp)
  40a5d6:	4c 89 64 24 e0       	mov    %r12,-0x20(%rsp)
  40a5db:	48 89 fb             	mov    %rdi,%rbx
  40a5de:	4c 89 74 24 f0       	mov    %r14,-0x10(%rsp)
  40a5e3:	4c 89 7c 24 f8       	mov    %r15,-0x8(%rsp)
  40a5e8:	48 83 ec 48          	sub    $0x48,%rsp
  40a5ec:	8b 47 10             	mov    0x10(%rdi),%eax
  40a5ef:	49 89 f5             	mov    %rsi,%r13
  40a5f2:	89 06                	mov    %eax,(%rsi)
  40a5f4:	48 8d 46 08          	lea    0x8(%rsi),%rax
  40a5f8:	44 8b 67 14          	mov    0x14(%rdi),%r12d
  40a5fc:	48 39 c5             	cmp    %rax,%rbp
  40a5ff:	0f 82 1b 01 00 00    	jb     40a720 <_ZNK11sensor_msgs16CompressedImage_ISaIvEE9serializeEPhj+0x160>
  40a605:	49 8d 45 0c          	lea    0xc(%r13),%rax
  40a609:	45 89 65 04          	mov    %r12d,0x4(%r13)
  40a60d:	44 8b 63 18          	mov    0x18(%rbx),%r12d
  40a611:	48 39 c5             	cmp    %rax,%rbp
  40a614:	73 05                	jae    40a61b <_ZNK11sensor_msgs16CompressedImage_ISaIvEE9serializeEPhj+0x5b>
  40a616:	e8 c5 ee ff ff       	callq  4094e0 <_ZN3ros13serialization18throwStreamOverrunEv@plt>
  40a61b:	45 89 65 08          	mov    %r12d,0x8(%r13)
  40a61f:	48 8b 43 20          	mov    0x20(%rbx),%rax
  40a623:	4d 8d 75 10          	lea    0x10(%r13),%r14
  40a627:	4c 39 f5             	cmp    %r14,%rbp
  40a62a:	4c 8b 78 e8          	mov    -0x18(%rax),%r15
  40a62e:	45 89 fc             	mov    %r15d,%r12d
  40a631:	0f 82 d9 00 00 00    	jb     40a710 <_ZNK11sensor_msgs16CompressedImage_ISaIvEE9serializeEPhj+0x150>
  40a637:	4d 85 ff             	test   %r15,%r15
  40a63a:	45 89 65 0c          	mov    %r12d,0xc(%r13)
  40a63e:	74 1e                	je     40a65e <_ZNK11sensor_msgs16CompressedImage_ISaIvEE9serializeEPhj+0x9e>
  40a640:	4d 01 f4             	add    %r14,%r12
  40a643:	48 8b 73 20          	mov    0x20(%rbx),%rsi
  40a647:	4c 39 e5             	cmp    %r12,%rbp
  40a64a:	0f 82 28 01 00 00    	jb     40a778 <_ZNK11sensor_msgs16CompressedImage_ISaIvEE9serializeEPhj+0x1b8>
  40a650:	4c 89 f7             	mov    %r14,%rdi
  40a653:	4c 89 fa             	mov    %r15,%rdx
  40a656:	4d 89 e6             	mov    %r12,%r14
  40a659:	e8 b2 f0 ff ff       	callq  409710 <memcpy@plt>
  40a65e:	48 8b 43 38          	mov    0x38(%rbx),%rax
  40a662:	4d 8d 6e 04          	lea    0x4(%r14),%r13
  40a666:	4c 39 ed             	cmp    %r13,%rbp
  40a669:	4c 8b 78 e8          	mov    -0x18(%rax),%r15
  40a66d:	45 89 fc             	mov    %r15d,%r12d
  40a670:	0f 82 8a 00 00 00    	jb     40a700 <_ZNK11sensor_msgs16CompressedImage_ISaIvEE9serializeEPhj+0x140>
  40a676:	4d 85 ff             	test   %r15,%r15
  40a679:	45 89 26             	mov    %r12d,(%r14)
  40a67c:	74 1e                	je     40a69c <_ZNK11sensor_msgs16CompressedImage_ISaIvEE9serializeEPhj+0xdc>
  40a67e:	4d 01 ec             	add    %r13,%r12
  40a681:	48 8b 73 38          	mov    0x38(%rbx),%rsi
  40a685:	4c 39 e5             	cmp    %r12,%rbp
  40a688:	0f 82 d2 00 00 00    	jb     40a760 <_ZNK11sensor_msgs16CompressedImage_ISaIvEE9serializeEPhj+0x1a0>
  40a68e:	4c 89 ef             	mov    %r13,%rdi
  40a691:	4c 89 fa             	mov    %r15,%rdx
  40a694:	4d 89 e5             	mov    %r12,%r13
  40a697:	e8 74 f0 ff ff       	callq  409710 <memcpy@plt>
  40a69c:	4d 8d 75 04          	lea    0x4(%r13),%r14
  40a6a0:	4c 8b 7b 48          	mov    0x48(%rbx),%r15
  40a6a4:	44 2b 7b 40          	sub    0x40(%rbx),%r15d
  40a6a8:	4c 39 f5             	cmp    %r14,%rbp
  40a6ab:	0f 82 7f 00 00 00    	jb     40a730 <_ZNK11sensor_msgs16CompressedImage_ISaIvEE9serializeEPhj+0x170>
  40a6b1:	45 89 7d 00          	mov    %r15d,0x0(%r13)
  40a6b5:	48 8b 73 40          	mov    0x40(%rbx),%rsi
  40a6b9:	4d 89 f4             	mov    %r14,%r12
  40a6bc:	48 39 73 48          	cmp    %rsi,0x48(%rbx)
  40a6c0:	74 14                	je     40a6d6 <_ZNK11sensor_msgs16CompressedImage_ISaIvEE9serializeEPhj+0x116>
  40a6c2:	44 89 fa             	mov    %r15d,%edx
  40a6c5:	4d 8d 24 16          	lea    (%r14,%rdx,1),%r12
  40a6c9:	4c 39 e5             	cmp    %r12,%rbp
  40a6cc:	72 72                	jb     40a740 <_ZNK11sensor_msgs16CompressedImage_ISaIvEE9serializeEPhj+0x180>
  40a6ce:	4c 89 f7             	mov    %r14,%rdi
  40a6d1:	e8 3a f0 ff ff       	callq  409710 <memcpy@plt>
  40a6d6:	4c 89 e0             	mov    %r12,%rax
  40a6d9:	48 8b 5c 24 18       	mov    0x18(%rsp),%rbx
  40a6de:	48 8b 6c 24 20       	mov    0x20(%rsp),%rbp
  40a6e3:	4c 8b 64 24 28       	mov    0x28(%rsp),%r12
  40a6e8:	4c 8b 6c 24 30       	mov    0x30(%rsp),%r13
  40a6ed:	4c 8b 74 24 38       	mov    0x38(%rsp),%r14
  40a6f2:	4c 8b 7c 24 40       	mov    0x40(%rsp),%r15
  40a6f7:	48 83 c4 48          	add    $0x48,%rsp
  40a6fb:	c3                   	retq   
  40a6fc:	0f 1f 40 00          	nopl   0x0(%rax)
  40a700:	e8 db ed ff ff       	callq  4094e0 <_ZN3ros13serialization18throwStreamOverrunEv@plt>
  40a705:	e9 6c ff ff ff       	jmpq   40a676 <_ZNK11sensor_msgs16CompressedImage_ISaIvEE9serializeEPhj+0xb6>
  40a70a:	66 0f 1f 44 00 00    	nopw   0x0(%rax,%rax,1)
  40a710:	e8 cb ed ff ff       	callq  4094e0 <_ZN3ros13serialization18throwStreamOverrunEv@plt>
  40a715:	e9 1d ff ff ff       	jmpq   40a637 <_ZNK11sensor_msgs16CompressedImage_ISaIvEE9serializeEPhj+0x77>
  40a71a:	66 0f 1f 44 00 00    	nopw   0x0(%rax,%rax,1)
  40a720:	e8 bb ed ff ff       	callq  4094e0 <_ZN3ros13serialization18throwStreamOverrunEv@plt>
  40a725:	e9 db fe ff ff       	jmpq   40a605 <_ZNK11sensor_msgs16CompressedImage_ISaIvEE9serializeEPhj+0x45>
  40a72a:	66 0f 1f 44 00 00    	nopw   0x0(%rax,%rax,1)
  40a730:	e8 ab ed ff ff       	callq  4094e0 <_ZN3ros13serialization18throwStreamOverrunEv@plt>
  40a735:	e9 77 ff ff ff       	jmpq   40a6b1 <_ZNK11sensor_msgs16CompressedImage_ISaIvEE9serializeEPhj+0xf1>
  40a73a:	66 0f 1f 44 00 00    	nopw   0x0(%rax,%rax,1)
  40a740:	48 89 54 24 08       	mov    %rdx,0x8(%rsp)
  40a745:	48 89 34 24          	mov    %rsi,(%rsp)
  40a749:	e8 92 ed ff ff       	callq  4094e0 <_ZN3ros13serialization18throwStreamOverrunEv@plt>
  40a74e:	48 8b 34 24          	mov    (%rsp),%rsi
  40a752:	48 8b 54 24 08       	mov    0x8(%rsp),%rdx
  40a757:	e9 72 ff ff ff       	jmpq   40a6ce <_ZNK11sensor_msgs16CompressedImage_ISaIvEE9serializeEPhj+0x10e>
  40a75c:	0f 1f 40 00          	nopl   0x0(%rax)
  40a760:	48 89 34 24          	mov    %rsi,(%rsp)
  40a764:	e8 77 ed ff ff       	callq  4094e0 <_ZN3ros13serialization18throwStreamOverrunEv@plt>
  40a769:	48 8b 34 24          	mov    (%rsp),%rsi
  40a76d:	e9 1c ff ff ff       	jmpq   40a68e <_ZNK11sensor_msgs16CompressedImage_ISaIvEE9serializeEPhj+0xce>
  40a772:	66 0f 1f 44 00 00    	nopw   0x0(%rax,%rax,1)
  40a778:	48 89 34 24          	mov    %rsi,(%rsp)
  40a77c:	e8 5f ed ff ff       	callq  4094e0 <_ZN3ros13serialization18throwStreamOverrunEv@plt>
  40a781:	48 8b 34 24          	mov    (%rsp),%rsi
  40a785:	e9 c6 fe ff ff       	jmpq   40a650 <_ZNK11sensor_msgs16CompressedImage_ISaIvEE9serializeEPhj+0x90>
  40a78a:	90                   	nop
  40a78b:	90                   	nop
  40a78c:	90                   	nop
  40a78d:	90                   	nop
  40a78e:	90                   	nop
  40a78f:	90                   	nop

000000000040a790 <_ZThn56_NK5boost16exception_detail10clone_implINS0_19error_info_injectorINS_17bad_function_callEEEE5cloneEv>:
  40a790:	48 83 ef 38          	sub    $0x38,%rdi
  40a794:	eb 0a                	jmp    40a7a0 <_ZNK5boost16exception_detail10clone_implINS0_19error_info_injectorINS_17bad_function_callEEEE5cloneEv>
  40a796:	66 2e 0f 1f 84 00 00 	nopw   %cs:0x0(%rax,%rax,1)
  40a79d:	00 00 00 

000000000040a7a0 <_ZNK5boost16exception_detail10clone_implINS0_19error_info_injectorINS_17bad_function_callEEEE5cloneEv>:
  40a7a0:	55                   	push   %rbp
  40a7a1:	48 89 fd             	mov    %rdi,%rbp
  40a7a4:	bf 40 00 00 00       	mov    $0x40,%edi
  40a7a9:	53                   	push   %rbx
  40a7aa:	48 83 ec 08          	sub    $0x8,%rsp
  40a7ae:	e8 6d ed ff ff       	callq  409520 <_Znwm@plt>
  40a7b3:	48 8d 75 08          	lea    0x8(%rbp),%rsi
  40a7b7:	48 8d 78 08          	lea    0x8(%rax),%rdi
  40a7bb:	48 c7 00 90 78 61 00 	movq   $0x617890,(%rax)
  40a7c2:	48 89 c3             	mov    %rax,%rbx
  40a7c5:	e8 46 ec ff ff       	callq  409410 <_ZNSsC1ERKSs@plt>
  40a7ca:	48 c7 03 f0 34 41 00 	movq   $0x4134f0,(%rbx)
  40a7d1:	48 c7 43 10 30 35 41 	movq   $0x413530,0x10(%rbx)
  40a7d8:	00 
  40a7d9:	48 8b 7d 18          	mov    0x18(%rbp),%rdi
  40a7dd:	48 85 ff             	test   %rdi,%rdi
  40a7e0:	48 89 7b 18          	mov    %rdi,0x18(%rbx)
  40a7e4:	74 06                	je     40a7ec <_ZNK5boost16exception_detail10clone_implINS0_19error_info_injectorINS_17bad_function_callEEEE5cloneEv+0x4c>
  40a7e6:	48 8b 07             	mov    (%rdi),%rax
  40a7e9:	ff 50 18             	callq  *0x18(%rax)
  40a7ec:	48 8b 45 20          	mov    0x20(%rbp),%rax
  40a7f0:	48 89 43 20          	mov    %rax,0x20(%rbx)
  40a7f4:	48 8b 45 28          	mov    0x28(%rbp),%rax
  40a7f8:	48 89 43 28          	mov    %rax,0x28(%rbx)
  40a7fc:	8b 45 30             	mov    0x30(%rbp),%eax
  40a7ff:	48 c7 03 f0 35 41 00 	movq   $0x4135f0,(%rbx)
  40a806:	48 c7 43 10 28 36 41 	movq   $0x413628,0x10(%rbx)
  40a80d:	00 
  40a80e:	48 c7 43 38 48 36 41 	movq   $0x413648,0x38(%rbx)
  40a815:	00 
  40a816:	89 43 30             	mov    %eax,0x30(%rbx)
  40a819:	48 83 c4 08          	add    $0x8,%rsp
  40a81d:	48 8d 43 38          	lea    0x38(%rbx),%rax
  40a821:	5b                   	pop    %rbx
  40a822:	5d                   	pop    %rbp
  40a823:	c3                   	retq   
  40a824:	48 89 df             	mov    %rbx,%rdi
  40a827:	48 89 c5             	mov    %rax,%rbp
  40a82a:	e8 21 ef ff ff       	callq  409750 <_ZNSt9exceptionD2Ev@plt>
  40a82f:	48 89 df             	mov    %rbx,%rdi
  40a832:	e8 b9 ec ff ff       	callq  4094f0 <_ZdlPv@plt>
  40a837:	48 89 ef             	mov    %rbp,%rdi
  40a83a:	e8 e1 ee ff ff       	callq  409720 <_Unwind_Resume@plt>
  40a83f:	48 89 df             	mov    %rbx,%rdi
  40a842:	48 89 c5             	mov    %rax,%rbp
  40a845:	e8 96 f9 ff ff       	callq  40a1e0 <_ZN5boost17bad_function_callD1Ev>
  40a84a:	eb e3                	jmp    40a82f <_ZNK5boost16exception_detail10clone_implINS0_19error_info_injectorINS_17bad_function_callEEEE5cloneEv+0x8f>
  40a84c:	90                   	nop
  40a84d:	90                   	nop
  40a84e:	90                   	nop
  40a84f:	90                   	nop

000000000040a850 <_ZN5boost6detail8function15functor_managerINS_8functionIFvRKNS_10shared_ptrIKN6SpyKee7Motion_ISaIvEEEEEEEEE6manageERKNS1_15function_bufferERSG_NS1_30functor_manager_operation_typeE>:
  40a850:	48 89 5c 24 e8       	mov    %rbx,-0x18(%rsp)
  40a855:	48 89 6c 24 f0       	mov    %rbp,-0x10(%rsp)
  40a85a:	48 89 f8             	mov    %rdi,%rax
  40a85d:	4c 89 64 24 f8       	mov    %r12,-0x8(%rsp)
  40a862:	48 83 ec 18          	sub    $0x18,%rsp
  40a866:	83 fa 04             	cmp    $0x4,%edx
  40a869:	48 89 f3             	mov    %rsi,%rbx
  40a86c:	74 1d                	je     40a88b <_ZN5boost6detail8function15functor_managerINS_8functionIFvRKNS_10shared_ptrIKN6SpyKee7Motion_ISaIvEEEEEEEEE6manageERKNS1_15function_bufferERSG_NS1_30functor_manager_operation_typeE+0x3b>
  40a86e:	85 d2                	test   %edx,%edx
  40a870:	74 3e                	je     40a8b0 <_ZN5boost6detail8function15functor_managerINS_8functionIFvRKNS_10shared_ptrIKN6SpyKee7Motion_ISaIvEEEEEEEEE6manageERKNS1_15function_bufferERSG_NS1_30functor_manager_operation_typeE+0x60>
  40a872:	83 fa 01             	cmp    $0x1,%edx
  40a875:	0f 84 05 01 00 00    	je     40a980 <_ZN5boost6detail8function15functor_managerINS_8functionIFvRKNS_10shared_ptrIKN6SpyKee7Motion_ISaIvEEEEEEEEE6manageERKNS1_15function_bufferERSG_NS1_30functor_manager_operation_typeE+0x130>
  40a87b:	83 fa 02             	cmp    $0x2,%edx
  40a87e:	66 90                	xchg   %ax,%ax
  40a880:	0f 84 aa 00 00 00    	je     40a930 <_ZN5boost6detail8function15functor_managerINS_8functionIFvRKNS_10shared_ptrIKN6SpyKee7Motion_ISaIvEEEEEEEEE6manageERKNS1_15function_bufferERSG_NS1_30functor_manager_operation_typeE+0xe0>
  40a886:	83 fa 03             	cmp    $0x3,%edx
  40a889:	74 75                	je     40a900 <_ZN5boost6detail8function15functor_managerINS_8functionIFvRKNS_10shared_ptrIKN6SpyKee7Motion_ISaIvEEEEEEEEE6manageERKNS1_15function_bufferERSG_NS1_30functor_manager_operation_typeE+0xb0>
  40a88b:	48 c7 03 c0 36 41 00 	movq   $0x4136c0,(%rbx)
  40a892:	c6 43 08 00          	movb   $0x0,0x8(%rbx)
  40a896:	c6 43 09 00          	movb   $0x0,0x9(%rbx)
  40a89a:	48 8b 1c 24          	mov    (%rsp),%rbx
  40a89e:	48 8b 6c 24 08       	mov    0x8(%rsp),%rbp
  40a8a3:	4c 8b 64 24 10       	mov    0x10(%rsp),%r12
  40a8a8:	48 83 c4 18          	add    $0x18,%rsp
  40a8ac:	c3                   	retq   
  40a8ad:	0f 1f 00             	nopl   (%rax)
  40a8b0:	4c 8b 27             	mov    (%rdi),%r12
  40a8b3:	bf 20 00 00 00       	mov    $0x20,%edi
  40a8b8:	e8 63 ec ff ff       	callq  409520 <_Znwm@plt>
  40a8bd:	48 89 c5             	mov    %rax,%rbp
  40a8c0:	48 c7 00 00 00 00 00 	movq   $0x0,(%rax)
  40a8c7:	49 8b 04 24          	mov    (%r12),%rax
  40a8cb:	48 85 c0             	test   %rax,%rax
  40a8ce:	74 27                	je     40a8f7 <_ZN5boost6detail8function15functor_managerINS_8functionIFvRKNS_10shared_ptrIKN6SpyKee7Motion_ISaIvEEEEEEEEE6manageERKNS1_15function_bufferERSG_NS1_30functor_manager_operation_typeE+0xa7>
  40a8d0:	a8 01                	test   $0x1,%al
  40a8d2:	48 89 45 00          	mov    %rax,0x0(%rbp)
  40a8d6:	0f 84 bc 00 00 00    	je     40a998 <_ZN5boost6detail8function15functor_managerINS_8functionIFvRKNS_10shared_ptrIKN6SpyKee7Motion_ISaIvEEEEEEEEE6manageERKNS1_15function_bufferERSG_NS1_30functor_manager_operation_typeE+0x148>
  40a8dc:	49 8b 44 24 08       	mov    0x8(%r12),%rax
  40a8e1:	48 89 45 08          	mov    %rax,0x8(%rbp)
  40a8e5:	49 8b 44 24 10       	mov    0x10(%r12),%rax
  40a8ea:	48 89 45 10          	mov    %rax,0x10(%rbp)
  40a8ee:	49 8b 44 24 18       	mov    0x18(%r12),%rax
  40a8f3:	48 89 45 18          	mov    %rax,0x18(%rbp)
  40a8f7:	48 89 2b             	mov    %rbp,(%rbx)
  40a8fa:	eb 9e                	jmp    40a89a <_ZN5boost6detail8function15functor_managerINS_8functionIFvRKNS_10shared_ptrIKN6SpyKee7Motion_ISaIvEEEEEEEEE6manageERKNS1_15function_bufferERSG_NS1_30functor_manager_operation_typeE+0x4a>
  40a8fc:	0f 1f 40 00          	nopl   0x0(%rax)
  40a900:	48 8b 16             	mov    (%rsi),%rdx
  40a903:	bf e0 36 41 00       	mov    $0x4136e0,%edi
  40a908:	b9 44 00 00 00       	mov    $0x44,%ecx
  40a90d:	48 8b 72 08          	mov    0x8(%rdx),%rsi
  40a911:	31 d2                	xor    %edx,%edx
  40a913:	80 3e 2a             	cmpb   $0x2a,(%rsi)
  40a916:	0f 94 c2             	sete   %dl
  40a919:	48 01 d6             	add    %rdx,%rsi
  40a91c:	f3 a6                	repz cmpsb %es:(%rdi),%ds:(%rsi)
  40a91e:	75 4a                	jne    40a96a <_ZN5boost6detail8function15functor_managerINS_8functionIFvRKNS_10shared_ptrIKN6SpyKee7Motion_ISaIvEEEEEEEEE6manageERKNS1_15function_bufferERSG_NS1_30functor_manager_operation_typeE+0x11a>
  40a920:	48 8b 00             	mov    (%rax),%rax
  40a923:	48 89 03             	mov    %rax,(%rbx)
  40a926:	e9 6f ff ff ff       	jmpq   40a89a <_ZN5boost6detail8function15functor_managerINS_8functionIFvRKNS_10shared_ptrIKN6SpyKee7Motion_ISaIvEEEEEEEEE6manageERKNS1_15function_bufferERSG_NS1_30functor_manager_operation_typeE+0x4a>
  40a92b:	0f 1f 44 00 00       	nopl   0x0(%rax,%rax,1)
  40a930:	48 8b 2e             	mov    (%rsi),%rbp
  40a933:	48 85 ed             	test   %rbp,%rbp
  40a936:	74 32                	je     40a96a <_ZN5boost6detail8function15functor_managerINS_8functionIFvRKNS_10shared_ptrIKN6SpyKee7Motion_ISaIvEEEEEEEEE6manageERKNS1_15function_bufferERSG_NS1_30functor_manager_operation_typeE+0x11a>
  40a938:	48 8b 45 00          	mov    0x0(%rbp),%rax
  40a93c:	48 85 c0             	test   %rax,%rax
  40a93f:	74 21                	je     40a962 <_ZN5boost6detail8function15functor_managerINS_8functionIFvRKNS_10shared_ptrIKN6SpyKee7Motion_ISaIvEEEEEEEEE6manageERKNS1_15function_bufferERSG_NS1_30functor_manager_operation_typeE+0x112>
  40a941:	a8 01                	test   $0x1,%al
  40a943:	75 15                	jne    40a95a <_ZN5boost6detail8function15functor_managerINS_8functionIFvRKNS_10shared_ptrIKN6SpyKee7Motion_ISaIvEEEEEEEEE6manageERKNS1_15function_bufferERSG_NS1_30functor_manager_operation_typeE+0x10a>
  40a945:	48 83 e0 fe          	and    $0xfffffffffffffffe,%rax
  40a949:	48 8b 00             	mov    (%rax),%rax
  40a94c:	48 85 c0             	test   %rax,%rax
  40a94f:	74 09                	je     40a95a <_ZN5boost6detail8function15functor_managerINS_8functionIFvRKNS_10shared_ptrIKN6SpyKee7Motion_ISaIvEEEEEEEEE6manageERKNS1_15function_bufferERSG_NS1_30functor_manager_operation_typeE+0x10a>
  40a951:	48 8d 7d 08          	lea    0x8(%rbp),%rdi
  40a955:	48 89 fe             	mov    %rdi,%rsi
  40a958:	ff d0                	callq  *%rax
  40a95a:	48 c7 45 00 00 00 00 	movq   $0x0,0x0(%rbp)
  40a961:	00 
  40a962:	48 89 ef             	mov    %rbp,%rdi
  40a965:	e8 86 eb ff ff       	callq  4094f0 <_ZdlPv@plt>
  40a96a:	48 c7 03 00 00 00 00 	movq   $0x0,(%rbx)
  40a971:	e9 24 ff ff ff       	jmpq   40a89a <_ZN5boost6detail8function15functor_managerINS_8functionIFvRKNS_10shared_ptrIKN6SpyKee7Motion_ISaIvEEEEEEEEE6manageERKNS1_15function_bufferERSG_NS1_30functor_manager_operation_typeE+0x4a>
  40a976:	66 2e 0f 1f 84 00 00 	nopw   %cs:0x0(%rax,%rax,1)
  40a97d:	00 00 00 
  40a980:	48 8b 17             	mov    (%rdi),%rdx
  40a983:	48 89 16             	mov    %rdx,(%rsi)
  40a986:	48 c7 07 00 00 00 00 	movq   $0x0,(%rdi)
  40a98d:	e9 08 ff ff ff       	jmpq   40a89a <_ZN5boost6detail8function15functor_managerINS_8functionIFvRKNS_10shared_ptrIKN6SpyKee7Motion_ISaIvEEEEEEEEE6manageERKNS1_15function_bufferERSG_NS1_30functor_manager_operation_typeE+0x4a>
  40a992:	66 0f 1f 44 00 00    	nopw   0x0(%rax,%rax,1)
  40a998:	48 83 e0 fe          	and    $0xfffffffffffffffe,%rax
  40a99c:	48 8d 75 08          	lea    0x8(%rbp),%rsi
  40a9a0:	49 8d 7c 24 08       	lea    0x8(%r12),%rdi
  40a9a5:	31 d2                	xor    %edx,%edx
  40a9a7:	ff 10                	callq  *(%rax)
  40a9a9:	e9 49 ff ff ff       	jmpq   40a8f7 <_ZN5boost6detail8function15functor_managerINS_8functionIFvRKNS_10shared_ptrIKN6SpyKee7Motion_ISaIvEEEEEEEEE6manageERKNS1_15function_bufferERSG_NS1_30functor_manager_operation_typeE+0xa7>
  40a9ae:	48 89 c3             	mov    %rax,%rbx
  40a9b1:	48 89 ef             	mov    %rbp,%rdi
  40a9b4:	e8 37 eb ff ff       	callq  4094f0 <_ZdlPv@plt>
  40a9b9:	48 89 df             	mov    %rbx,%rdi
  40a9bc:	e8 5f ed ff ff       	callq  409720 <_Unwind_Resume@plt>
  40a9c1:	90                   	nop
  40a9c2:	90                   	nop
  40a9c3:	90                   	nop
  40a9c4:	90                   	nop
  40a9c5:	90                   	nop
  40a9c6:	90                   	nop
  40a9c7:	90                   	nop
  40a9c8:	90                   	nop
  40a9c9:	90                   	nop
  40a9ca:	90                   	nop
  40a9cb:	90                   	nop
  40a9cc:	90                   	nop
  40a9cd:	90                   	nop
  40a9ce:	90                   	nop
  40a9cf:	90                   	nop

000000000040a9d0 <_ZThn16_N5boost16exception_detail19error_info_injectorINS_17bad_function_callEED1Ev>:
  40a9d0:	48 83 ef 10          	sub    $0x10,%rdi
  40a9d4:	e9 07 00 00 00       	jmpq   40a9e0 <_ZN5boost16exception_detail19error_info_injectorINS_17bad_function_callEED1Ev>
  40a9d9:	90                   	nop
  40a9da:	90                   	nop
  40a9db:	90                   	nop
  40a9dc:	90                   	nop
  40a9dd:	90                   	nop
  40a9de:	90                   	nop
  40a9df:	90                   	nop

000000000040a9e0 <_ZN5boost16exception_detail19error_info_injectorINS_17bad_function_callEED1Ev>:
  40a9e0:	53                   	push   %rbx
  40a9e1:	48 89 fb             	mov    %rdi,%rbx
  40a9e4:	48 c7 07 50 35 41 00 	movq   $0x413550,(%rdi)
  40a9eb:	48 c7 47 10 30 35 41 	movq   $0x413530,0x10(%rdi)
  40a9f2:	00 
  40a9f3:	48 8b 7f 18          	mov    0x18(%rdi),%rdi
  40a9f7:	48 85 ff             	test   %rdi,%rdi
  40a9fa:	74 12                	je     40aa0e <_ZN5boost16exception_detail19error_info_injectorINS_17bad_function_callEED1Ev+0x2e>
  40a9fc:	48 8b 07             	mov    (%rdi),%rax
  40a9ff:	ff 50 20             	callq  *0x20(%rax)
  40aa02:	84 c0                	test   %al,%al
  40aa04:	74 08                	je     40aa0e <_ZN5boost16exception_detail19error_info_injectorINS_17bad_function_callEED1Ev+0x2e>
  40aa06:	48 c7 43 18 00 00 00 	movq   $0x0,0x18(%rbx)
  40aa0d:	00 
  40aa0e:	48 c7 03 f0 34 41 00 	movq   $0x4134f0,(%rbx)
  40aa15:	48 89 df             	mov    %rbx,%rdi
  40aa18:	5b                   	pop    %rbx
  40aa19:	e9 32 eb ff ff       	jmpq   409550 <_ZNSt13runtime_errorD2Ev@plt>
  40aa1e:	48 83 c2 01          	add    $0x1,%rdx
  40aa22:	48 89 c7             	mov    %rax,%rdi
  40aa25:	74 05                	je     40aa2c <_ZN5boost16exception_detail19error_info_injectorINS_17bad_function_callEED1Ev+0x4c>
  40aa27:	e8 f4 ec ff ff       	callq  409720 <_Unwind_Resume@plt>
  40aa2c:	e8 8f eb ff ff       	callq  4095c0 <__cxa_call_unexpected@plt>
  40aa31:	90                   	nop
  40aa32:	90                   	nop
  40aa33:	90                   	nop
  40aa34:	90                   	nop
  40aa35:	90                   	nop
  40aa36:	90                   	nop
  40aa37:	90                   	nop
  40aa38:	90                   	nop
  40aa39:	90                   	nop
  40aa3a:	90                   	nop
  40aa3b:	90                   	nop
  40aa3c:	90                   	nop
  40aa3d:	90                   	nop
  40aa3e:	90                   	nop
  40aa3f:	90                   	nop

000000000040aa40 <_ZThn56_N5boost16exception_detail10clone_implINS0_19error_info_injectorINS_17bad_function_callEEEED1Ev>:
  40aa40:	48 83 ef 38          	sub    $0x38,%rdi
  40aa44:	e9 17 00 00 00       	jmpq   40aa60 <_ZN5boost16exception_detail10clone_implINS0_19error_info_injectorINS_17bad_function_callEEEED1Ev>
  40aa49:	0f 1f 80 00 00 00 00 	nopl   0x0(%rax)

000000000040aa50 <_ZThn16_N5boost16exception_detail10clone_implINS0_19error_info_injectorINS_17bad_function_callEEEED1Ev>:
  40aa50:	48 83 ef 10          	sub    $0x10,%rdi
  40aa54:	e9 07 00 00 00       	jmpq   40aa60 <_ZN5boost16exception_detail10clone_implINS0_19error_info_injectorINS_17bad_function_callEEEED1Ev>
  40aa59:	90                   	nop
  40aa5a:	90                   	nop
  40aa5b:	90                   	nop
  40aa5c:	90                   	nop
  40aa5d:	90                   	nop
  40aa5e:	90                   	nop
  40aa5f:	90                   	nop

000000000040aa60 <_ZN5boost16exception_detail10clone_implINS0_19error_info_injectorINS_17bad_function_callEEEED1Ev>:
  40aa60:	53                   	push   %rbx
  40aa61:	48 89 fb             	mov    %rdi,%rbx
  40aa64:	48 c7 47 38 b0 35 41 	movq   $0x4135b0,0x38(%rdi)
  40aa6b:	00 
  40aa6c:	48 c7 07 50 35 41 00 	movq   $0x413550,(%rdi)
  40aa73:	48 c7 47 10 30 35 41 	movq   $0x413530,0x10(%rdi)
  40aa7a:	00 
  40aa7b:	48 8b 7f 18          	mov    0x18(%rdi),%rdi
  40aa7f:	48 85 ff             	test   %rdi,%rdi
  40aa82:	74 12                	je     40aa96 <_ZN5boost16exception_detail10clone_implINS0_19error_info_injectorINS_17bad_function_callEEEED1Ev+0x36>
  40aa84:	48 8b 07             	mov    (%rdi),%rax
  40aa87:	ff 50 20             	callq  *0x20(%rax)
  40aa8a:	84 c0                	test   %al,%al
  40aa8c:	74 08                	je     40aa96 <_ZN5boost16exception_detail10clone_implINS0_19error_info_injectorINS_17bad_function_callEEEED1Ev+0x36>
  40aa8e:	48 c7 43 18 00 00 00 	movq   $0x0,0x18(%rbx)
  40aa95:	00 
  40aa96:	48 c7 03 f0 34 41 00 	movq   $0x4134f0,(%rbx)
  40aa9d:	48 89 df             	mov    %rbx,%rdi
  40aaa0:	5b                   	pop    %rbx
  40aaa1:	e9 aa ea ff ff       	jmpq   409550 <_ZNSt13runtime_errorD2Ev@plt>
  40aaa6:	48 83 c2 01          	add    $0x1,%rdx
  40aaaa:	48 89 c7             	mov    %rax,%rdi
  40aaad:	74 05                	je     40aab4 <_ZN5boost16exception_detail10clone_implINS0_19error_info_injectorINS_17bad_function_callEEEED1Ev+0x54>
  40aaaf:	e8 6c ec ff ff       	callq  409720 <_Unwind_Resume@plt>
  40aab4:	e8 07 eb ff ff       	callq  4095c0 <__cxa_call_unexpected@plt>
  40aab9:	90                   	nop
  40aaba:	90                   	nop
  40aabb:	90                   	nop
  40aabc:	90                   	nop
  40aabd:	90                   	nop
  40aabe:	90                   	nop
  40aabf:	90                   	nop

000000000040aac0 <_ZThn16_N5boost16exception_detail19error_info_injectorINS_17bad_function_callEED0Ev>:
  40aac0:	48 83 ef 10          	sub    $0x10,%rdi
  40aac4:	eb 0a                	jmp    40aad0 <_ZN5boost16exception_detail19error_info_injectorINS_17bad_function_callEED0Ev>
  40aac6:	66 2e 0f 1f 84 00 00 	nopw   %cs:0x0(%rax,%rax,1)
  40aacd:	00 00 00 

000000000040aad0 <_ZN5boost16exception_detail19error_info_injectorINS_17bad_function_callEED0Ev>:
  40aad0:	53                   	push   %rbx
  40aad1:	48 89 fb             	mov    %rdi,%rbx
  40aad4:	48 c7 07 50 35 41 00 	movq   $0x413550,(%rdi)
  40aadb:	48 c7 47 10 30 35 41 	movq   $0x413530,0x10(%rdi)
  40aae2:	00 
  40aae3:	48 8b 7f 18          	mov    0x18(%rdi),%rdi
  40aae7:	48 85 ff             	test   %rdi,%rdi
  40aaea:	74 12                	je     40aafe <_ZN5boost16exception_detail19error_info_injectorINS_17bad_function_callEED0Ev+0x2e>
  40aaec:	48 8b 07             	mov    (%rdi),%rax
  40aaef:	ff 50 20             	callq  *0x20(%rax)
  40aaf2:	84 c0                	test   %al,%al
  40aaf4:	74 08                	je     40aafe <_ZN5boost16exception_detail19error_info_injectorINS_17bad_function_callEED0Ev+0x2e>
  40aaf6:	48 c7 43 18 00 00 00 	movq   $0x0,0x18(%rbx)
  40aafd:	00 
  40aafe:	48 89 df             	mov    %rbx,%rdi
  40ab01:	48 c7 03 f0 34 41 00 	movq   $0x4134f0,(%rbx)
  40ab08:	e8 43 ea ff ff       	callq  409550 <_ZNSt13runtime_errorD2Ev@plt>
  40ab0d:	48 89 df             	mov    %rbx,%rdi
  40ab10:	5b                   	pop    %rbx
  40ab11:	e9 da e9 ff ff       	jmpq   4094f0 <_ZdlPv@plt>
  40ab16:	48 83 c2 01          	add    $0x1,%rdx
  40ab1a:	48 89 c7             	mov    %rax,%rdi
  40ab1d:	74 05                	je     40ab24 <_ZN5boost16exception_detail19error_info_injectorINS_17bad_function_callEED0Ev+0x54>
  40ab1f:	e8 fc eb ff ff       	callq  409720 <_Unwind_Resume@plt>
  40ab24:	e8 97 ea ff ff       	callq  4095c0 <__cxa_call_unexpected@plt>
  40ab29:	90                   	nop
  40ab2a:	90                   	nop
  40ab2b:	90                   	nop
  40ab2c:	90                   	nop
  40ab2d:	90                   	nop
  40ab2e:	90                   	nop
  40ab2f:	90                   	nop

000000000040ab30 <_ZThn56_N5boost16exception_detail10clone_implINS0_19error_info_injectorINS_17bad_function_callEEEED0Ev>:
  40ab30:	48 83 ef 38          	sub    $0x38,%rdi
  40ab34:	eb 1a                	jmp    40ab50 <_ZN5boost16exception_detail10clone_implINS0_19error_info_injectorINS_17bad_function_callEEEED0Ev>
  40ab36:	66 2e 0f 1f 84 00 00 	nopw   %cs:0x0(%rax,%rax,1)
  40ab3d:	00 00 00 

000000000040ab40 <_ZThn16_N5boost16exception_detail10clone_implINS0_19error_info_injectorINS_17bad_function_callEEEED0Ev>:
  40ab40:	48 83 ef 10          	sub    $0x10,%rdi
  40ab44:	eb 0a                	jmp    40ab50 <_ZN5boost16exception_detail10clone_implINS0_19error_info_injectorINS_17bad_function_callEEEED0Ev>
  40ab46:	66 2e 0f 1f 84 00 00 	nopw   %cs:0x0(%rax,%rax,1)
  40ab4d:	00 00 00 

000000000040ab50 <_ZN5boost16exception_detail10clone_implINS0_19error_info_injectorINS_17bad_function_callEEEED0Ev>:
  40ab50:	53                   	push   %rbx
  40ab51:	48 89 fb             	mov    %rdi,%rbx
  40ab54:	48 c7 47 38 b0 35 41 	movq   $0x4135b0,0x38(%rdi)
  40ab5b:	00 
  40ab5c:	48 c7 07 50 35 41 00 	movq   $0x413550,(%rdi)
  40ab63:	48 c7 47 10 30 35 41 	movq   $0x413530,0x10(%rdi)
  40ab6a:	00 
  40ab6b:	48 8b 7f 18          	mov    0x18(%rdi),%rdi
  40ab6f:	48 85 ff             	test   %rdi,%rdi
  40ab72:	74 12                	je     40ab86 <_ZN5boost16exception_detail10clone_implINS0_19error_info_injectorINS_17bad_function_callEEEED0Ev+0x36>
  40ab74:	48 8b 07             	mov    (%rdi),%rax
  40ab77:	ff 50 20             	callq  *0x20(%rax)
  40ab7a:	84 c0                	test   %al,%al
  40ab7c:	74 08                	je     40ab86 <_ZN5boost16exception_detail10clone_implINS0_19error_info_injectorINS_17bad_function_callEEEED0Ev+0x36>
  40ab7e:	48 c7 43 18 00 00 00 	movq   $0x0,0x18(%rbx)
  40ab85:	00 
  40ab86:	48 89 df             	mov    %rbx,%rdi
  40ab89:	48 c7 03 f0 34 41 00 	movq   $0x4134f0,(%rbx)
  40ab90:	e8 bb e9 ff ff       	callq  409550 <_ZNSt13runtime_errorD2Ev@plt>
  40ab95:	48 89 df             	mov    %rbx,%rdi
  40ab98:	5b                   	pop    %rbx
  40ab99:	e9 52 e9 ff ff       	jmpq   4094f0 <_ZdlPv@plt>
  40ab9e:	48 83 c2 01          	add    $0x1,%rdx
  40aba2:	48 89 c7             	mov    %rax,%rdi
  40aba5:	74 05                	je     40abac <_ZN5boost16exception_detail10clone_implINS0_19error_info_injectorINS_17bad_function_callEEEED0Ev+0x5c>
  40aba7:	e8 74 eb ff ff       	callq  409720 <_Unwind_Resume@plt>
  40abac:	e8 0f ea ff ff       	callq  4095c0 <__cxa_call_unexpected@plt>
  40abb1:	90                   	nop
  40abb2:	90                   	nop
  40abb3:	90                   	nop
  40abb4:	90                   	nop
  40abb5:	90                   	nop
  40abb6:	90                   	nop
  40abb7:	90                   	nop
  40abb8:	90                   	nop
  40abb9:	90                   	nop
  40abba:	90                   	nop
  40abbb:	90                   	nop
  40abbc:	90                   	nop
  40abbd:	90                   	nop
  40abbe:	90                   	nop
  40abbf:	90                   	nop

000000000040abc0 <_ZN8std_msgs7Header_ISaIvEE11deserializeEPh>:
  40abc0:	48 89 5c 24 d8       	mov    %rbx,-0x28(%rsp)
  40abc5:	4c 89 6c 24 f0       	mov    %r13,-0x10(%rsp)
  40abca:	48 89 fb             	mov    %rdi,%rbx
  40abcd:	4c 89 74 24 f8       	mov    %r14,-0x8(%rsp)
  40abd2:	48 89 6c 24 e0       	mov    %rbp,-0x20(%rsp)
  40abd7:	4c 8d b6 00 ca 9a 3b 	lea    0x3b9aca00(%rsi),%r14
  40abde:	4c 89 64 24 e8       	mov    %r12,-0x18(%rsp)
  40abe3:	48 83 ec 48          	sub    $0x48,%rsp
  40abe7:	8b 06                	mov    (%rsi),%eax
  40abe9:	49 89 f5             	mov    %rsi,%r13
  40abec:	89 47 08             	mov    %eax,0x8(%rdi)
  40abef:	48 8d 46 08          	lea    0x8(%rsi),%rax
  40abf3:	49 39 c6             	cmp    %rax,%r14
  40abf6:	73 05                	jae    40abfd <_ZN8std_msgs7Header_ISaIvEE11deserializeEPh+0x3d>
  40abf8:	e8 e3 e8 ff ff       	callq  4094e0 <_ZN3ros13serialization18throwStreamOverrunEv@plt>
  40abfd:	41 8b 45 04          	mov    0x4(%r13),%eax
  40ac01:	89 43 0c             	mov    %eax,0xc(%rbx)
  40ac04:	49 8d 45 0c          	lea    0xc(%r13),%rax
  40ac08:	49 39 c6             	cmp    %rax,%r14
  40ac0b:	73 05                	jae    40ac12 <_ZN8std_msgs7Header_ISaIvEE11deserializeEPh+0x52>
  40ac0d:	e8 ce e8 ff ff       	callq  4094e0 <_ZN3ros13serialization18throwStreamOverrunEv@plt>
  40ac12:	41 8b 45 08          	mov    0x8(%r13),%eax
  40ac16:	49 8d 6d 10          	lea    0x10(%r13),%rbp
  40ac1a:	4c 8d 63 18          	lea    0x18(%rbx),%r12
  40ac1e:	49 39 ee             	cmp    %rbp,%r14
  40ac21:	89 43 10             	mov    %eax,0x10(%rbx)
  40ac24:	73 05                	jae    40ac2b <_ZN8std_msgs7Header_ISaIvEE11deserializeEPh+0x6b>
  40ac26:	e8 b5 e8 ff ff       	callq  4094e0 <_ZN3ros13serialization18throwStreamOverrunEv@plt>
  40ac2b:	41 8b 55 0c          	mov    0xc(%r13),%edx
  40ac2f:	85 d2                	test   %edx,%edx
  40ac31:	74 75                	je     40aca8 <_ZN8std_msgs7Header_ISaIvEE11deserializeEPh+0xe8>
  40ac33:	48 8d 5c 15 00       	lea    0x0(%rbp,%rdx,1),%rbx
  40ac38:	49 39 de             	cmp    %rbx,%r14
  40ac3b:	72 53                	jb     40ac90 <_ZN8std_msgs7Header_ISaIvEE11deserializeEPh+0xd0>
  40ac3d:	48 8d 7c 24 10       	lea    0x10(%rsp),%rdi
  40ac42:	48 8d 4c 24 1e       	lea    0x1e(%rsp),%rcx
  40ac47:	48 89 ee             	mov    %rbp,%rsi
  40ac4a:	e8 81 e7 ff ff       	callq  4093d0 <_ZNSsC1EPKcmRKSaIcE@plt>
  40ac4f:	48 8d 74 24 10       	lea    0x10(%rsp),%rsi
  40ac54:	4c 89 e7             	mov    %r12,%rdi
  40ac57:	e8 84 e9 ff ff       	callq  4095e0 <_ZNSs6assignERKSs@plt>
  40ac5c:	48 8b 44 24 10       	mov    0x10(%rsp),%rax
  40ac61:	48 8d 78 e8          	lea    -0x18(%rax),%rdi
  40ac65:	48 81 ff 00 77 61 00 	cmp    $0x617700,%rdi
  40ac6c:	75 53                	jne    40acc1 <_ZN8std_msgs7Header_ISaIvEE11deserializeEPh+0x101>
  40ac6e:	48 89 d8             	mov    %rbx,%rax
  40ac71:	48 8b 6c 24 28       	mov    0x28(%rsp),%rbp
  40ac76:	48 8b 5c 24 20       	mov    0x20(%rsp),%rbx
  40ac7b:	4c 8b 64 24 30       	mov    0x30(%rsp),%r12
  40ac80:	4c 8b 6c 24 38       	mov    0x38(%rsp),%r13
  40ac85:	4c 8b 74 24 40       	mov    0x40(%rsp),%r14
  40ac8a:	48 83 c4 48          	add    $0x48,%rsp
  40ac8e:	c3                   	retq   
  40ac8f:	90                   	nop
  40ac90:	48 89 54 24 08       	mov    %rdx,0x8(%rsp)
  40ac95:	e8 46 e8 ff ff       	callq  4094e0 <_ZN3ros13serialization18throwStreamOverrunEv@plt>
  40ac9a:	48 8b 54 24 08       	mov    0x8(%rsp),%rdx
  40ac9f:	eb 9c                	jmp    40ac3d <_ZN8std_msgs7Header_ISaIvEE11deserializeEPh+0x7d>
  40aca1:	0f 1f 80 00 00 00 00 	nopl   0x0(%rax)
  40aca8:	48 8b 43 18          	mov    0x18(%rbx),%rax
  40acac:	31 c9                	xor    %ecx,%ecx
  40acae:	31 f6                	xor    %esi,%esi
  40acb0:	4c 89 e7             	mov    %r12,%rdi
  40acb3:	48 89 eb             	mov    %rbp,%rbx
  40acb6:	48 8b 50 e8          	mov    -0x18(%rax),%rdx
  40acba:	e8 31 e9 ff ff       	callq  4095f0 <_ZNSs9_M_mutateEmmm@plt>
  40acbf:	eb ad                	jmp    40ac6e <_ZN8std_msgs7Header_ISaIvEE11deserializeEPh+0xae>
  40acc1:	ba 80 92 40 00       	mov    $0x409280,%edx
  40acc6:	48 85 d2             	test   %rdx,%rdx
  40acc9:	74 2d                	je     40acf8 <_ZN8std_msgs7Header_ISaIvEE11deserializeEPh+0x138>
  40accb:	83 ca ff             	or     $0xffffffff,%edx
  40acce:	f0 0f c1 50 f8       	lock xadd %edx,-0x8(%rax)
  40acd3:	85 d2                	test   %edx,%edx
  40acd5:	7f 97                	jg     40ac6e <_ZN8std_msgs7Header_ISaIvEE11deserializeEPh+0xae>
  40acd7:	48 8d 74 24 1f       	lea    0x1f(%rsp),%rsi
  40acdc:	e8 af e7 ff ff       	callq  409490 <_ZNSs4_Rep10_M_destroyERKSaIcE@plt>
  40ace1:	eb 8b                	jmp    40ac6e <_ZN8std_msgs7Header_ISaIvEE11deserializeEPh+0xae>
  40ace3:	48 8d 7c 24 10       	lea    0x10(%rsp),%rdi
  40ace8:	48 89 c3             	mov    %rax,%rbx
  40aceb:	e8 a0 e9 ff ff       	callq  409690 <_ZNSsD1Ev@plt>
  40acf0:	48 89 df             	mov    %rbx,%rdi
  40acf3:	e8 28 ea ff ff       	callq  409720 <_Unwind_Resume@plt>
  40acf8:	8b 50 f8             	mov    -0x8(%rax),%edx
  40acfb:	8d 4a ff             	lea    -0x1(%rdx),%ecx
  40acfe:	89 48 f8             	mov    %ecx,-0x8(%rax)
  40ad01:	eb d0                	jmp    40acd3 <_ZN8std_msgs7Header_ISaIvEE11deserializeEPh+0x113>
  40ad03:	90                   	nop
  40ad04:	90                   	nop
  40ad05:	90                   	nop
  40ad06:	90                   	nop
  40ad07:	90                   	nop
  40ad08:	90                   	nop
  40ad09:	90                   	nop
  40ad0a:	90                   	nop
  40ad0b:	90                   	nop
  40ad0c:	90                   	nop
  40ad0d:	90                   	nop
  40ad0e:	90                   	nop
  40ad0f:	90                   	nop

000000000040ad10 <_ZN5boost6detail18sp_counted_impl_pdIPN6SpyKee7Motion_ISaIvEEENS0_13sp_ms_deleterIS5_EEE7disposeEv>:
  40ad10:	48 89 5c 24 e8       	mov    %rbx,-0x18(%rsp)
  40ad15:	48 89 6c 24 f0       	mov    %rbp,-0x10(%rsp)
  40ad1a:	48 89 fb             	mov    %rdi,%rbx
  40ad1d:	4c 89 64 24 f8       	mov    %r12,-0x8(%rsp)
  40ad22:	48 83 ec 18          	sub    $0x18,%rsp
  40ad26:	80 7f 18 00          	cmpb   $0x0,0x18(%rdi)
  40ad2a:	75 14                	jne    40ad40 <_ZN5boost6detail18sp_counted_impl_pdIPN6SpyKee7Motion_ISaIvEEENS0_13sp_ms_deleterIS5_EEE7disposeEv+0x30>
  40ad2c:	48 8b 1c 24          	mov    (%rsp),%rbx
  40ad30:	48 8b 6c 24 08       	mov    0x8(%rsp),%rbp
  40ad35:	4c 8b 64 24 10       	mov    0x10(%rsp),%r12
  40ad3a:	48 83 c4 18          	add    $0x18,%rsp
  40ad3e:	c3                   	retq   
  40ad3f:	90                   	nop
  40ad40:	48 8b 6f 38          	mov    0x38(%rdi),%rbp
  40ad44:	48 c7 47 20 70 32 41 	movq   $0x413270,0x20(%rdi)
  40ad4b:	00 
  40ad4c:	48 85 ed             	test   %rbp,%rbp
  40ad4f:	74 13                	je     40ad64 <_ZN5boost6detail18sp_counted_impl_pdIPN6SpyKee7Motion_ISaIvEEENS0_13sp_ms_deleterIS5_EEE7disposeEv+0x54>
  40ad51:	41 bc ff ff ff ff    	mov    $0xffffffff,%r12d
  40ad57:	44 89 e0             	mov    %r12d,%eax
  40ad5a:	f0 0f c1 45 08       	lock xadd %eax,0x8(%rbp)
  40ad5f:	83 f8 01             	cmp    $0x1,%eax
  40ad62:	74 0c                	je     40ad70 <_ZN5boost6detail18sp_counted_impl_pdIPN6SpyKee7Motion_ISaIvEEENS0_13sp_ms_deleterIS5_EEE7disposeEv+0x60>
  40ad64:	c6 43 18 00          	movb   $0x0,0x18(%rbx)
  40ad68:	eb c2                	jmp    40ad2c <_ZN5boost6detail18sp_counted_impl_pdIPN6SpyKee7Motion_ISaIvEEENS0_13sp_ms_deleterIS5_EEE7disposeEv+0x1c>
  40ad6a:	66 0f 1f 44 00 00    	nopw   0x0(%rax,%rax,1)
  40ad70:	48 8b 45 00          	mov    0x0(%rbp),%rax
  40ad74:	48 89 ef             	mov    %rbp,%rdi
  40ad77:	ff 50 10             	callq  *0x10(%rax)
  40ad7a:	f0 44 0f c1 65 0c    	lock xadd %r12d,0xc(%rbp)
  40ad80:	41 83 fc 01          	cmp    $0x1,%r12d
  40ad84:	75 de                	jne    40ad64 <_ZN5boost6detail18sp_counted_impl_pdIPN6SpyKee7Motion_ISaIvEEENS0_13sp_ms_deleterIS5_EEE7disposeEv+0x54>
  40ad86:	48 8b 45 00          	mov    0x0(%rbp),%rax
  40ad8a:	48 89 ef             	mov    %rbp,%rdi
  40ad8d:	ff 50 18             	callq  *0x18(%rax)
  40ad90:	eb d2                	jmp    40ad64 <_ZN5boost6detail18sp_counted_impl_pdIPN6SpyKee7Motion_ISaIvEEENS0_13sp_ms_deleterIS5_EEE7disposeEv+0x54>
  40ad92:	90                   	nop
  40ad93:	90                   	nop
  40ad94:	90                   	nop
  40ad95:	90                   	nop
  40ad96:	90                   	nop
  40ad97:	90                   	nop
  40ad98:	90                   	nop
  40ad99:	90                   	nop
  40ad9a:	90                   	nop
  40ad9b:	90                   	nop
  40ad9c:	90                   	nop
  40ad9d:	90                   	nop
  40ad9e:	90                   	nop
  40ad9f:	90                   	nop

000000000040ada0 <_ZN5boost6detail18sp_counted_impl_pdIPN6SpyKee7Motion_ISaIvEEENS0_13sp_ms_deleterIS5_EEED0Ev>:
  40ada0:	48 89 5c 24 f0       	mov    %rbx,-0x10(%rsp)
  40ada5:	48 89 6c 24 f8       	mov    %rbp,-0x8(%rsp)
  40adaa:	48 83 ec 18          	sub    $0x18,%rsp
  40adae:	80 7f 18 00          	cmpb   $0x0,0x18(%rdi)
  40adb2:	48 89 fb             	mov    %rdi,%rbx
  40adb5:	48 c7 07 30 33 41 00 	movq   $0x413330,(%rdi)
  40adbc:	75 22                	jne    40ade0 <_ZN5boost6detail18sp_counted_impl_pdIPN6SpyKee7Motion_ISaIvEEENS0_13sp_ms_deleterIS5_EEED0Ev+0x40>
  40adbe:	48 c7 03 f0 32 41 00 	movq   $0x4132f0,(%rbx)
  40adc5:	48 89 df             	mov    %rbx,%rdi
  40adc8:	48 8b 6c 24 10       	mov    0x10(%rsp),%rbp
  40adcd:	48 8b 5c 24 08       	mov    0x8(%rsp),%rbx
  40add2:	48 83 c4 18          	add    $0x18,%rsp
  40add6:	e9 15 e7 ff ff       	jmpq   4094f0 <_ZdlPv@plt>
  40addb:	0f 1f 44 00 00       	nopl   0x0(%rax,%rax,1)
  40ade0:	48 8b 6f 38          	mov    0x38(%rdi),%rbp
  40ade4:	48 c7 47 20 70 32 41 	movq   $0x413270,0x20(%rdi)
  40adeb:	00 
  40adec:	48 85 ed             	test   %rbp,%rbp
  40adef:	74 0f                	je     40ae00 <_ZN5boost6detail18sp_counted_impl_pdIPN6SpyKee7Motion_ISaIvEEENS0_13sp_ms_deleterIS5_EEED0Ev+0x60>
  40adf1:	b8 ff ff ff ff       	mov    $0xffffffff,%eax
  40adf6:	f0 0f c1 45 08       	lock xadd %eax,0x8(%rbp)
  40adfb:	83 f8 01             	cmp    $0x1,%eax
  40adfe:	74 10                	je     40ae10 <_ZN5boost6detail18sp_counted_impl_pdIPN6SpyKee7Motion_ISaIvEEENS0_13sp_ms_deleterIS5_EEED0Ev+0x70>
  40ae00:	c6 43 18 00          	movb   $0x0,0x18(%rbx)
  40ae04:	eb b8                	jmp    40adbe <_ZN5boost6detail18sp_counted_impl_pdIPN6SpyKee7Motion_ISaIvEEENS0_13sp_ms_deleterIS5_EEED0Ev+0x1e>
  40ae06:	66 2e 0f 1f 84 00 00 	nopw   %cs:0x0(%rax,%rax,1)
  40ae0d:	00 00 00 
  40ae10:	48 8b 45 00          	mov    0x0(%rbp),%rax
  40ae14:	48 89 ef             	mov    %rbp,%rdi
  40ae17:	ff 50 10             	callq  *0x10(%rax)
  40ae1a:	b8 ff ff ff ff       	mov    $0xffffffff,%eax
  40ae1f:	f0 0f c1 45 0c       	lock xadd %eax,0xc(%rbp)
  40ae24:	83 f8 01             	cmp    $0x1,%eax
  40ae27:	75 d7                	jne    40ae00 <_ZN5boost6detail18sp_counted_impl_pdIPN6SpyKee7Motion_ISaIvEEENS0_13sp_ms_deleterIS5_EEED0Ev+0x60>
  40ae29:	48 8b 45 00          	mov    0x0(%rbp),%rax
  40ae2d:	48 89 ef             	mov    %rbp,%rdi
  40ae30:	ff 50 18             	callq  *0x18(%rax)
  40ae33:	eb cb                	jmp    40ae00 <_ZN5boost6detail18sp_counted_impl_pdIPN6SpyKee7Motion_ISaIvEEENS0_13sp_ms_deleterIS5_EEED0Ev+0x60>
  40ae35:	48 c7 03 f0 32 41 00 	movq   $0x4132f0,(%rbx)
  40ae3c:	48 89 c7             	mov    %rax,%rdi
  40ae3f:	e8 dc e8 ff ff       	callq  409720 <_Unwind_Resume@plt>
  40ae44:	90                   	nop
  40ae45:	90                   	nop
  40ae46:	90                   	nop
  40ae47:	90                   	nop
  40ae48:	90                   	nop
  40ae49:	90                   	nop
  40ae4a:	90                   	nop
  40ae4b:	90                   	nop
  40ae4c:	90                   	nop
  40ae4d:	90                   	nop
  40ae4e:	90                   	nop
  40ae4f:	90                   	nop

000000000040ae50 <_ZN5boost6detail18sp_counted_impl_pdIPN6SpyKee7Motion_ISaIvEEENS0_13sp_ms_deleterIS5_EEED1Ev>:
  40ae50:	48 89 5c 24 f0       	mov    %rbx,-0x10(%rsp)
  40ae55:	48 89 6c 24 f8       	mov    %rbp,-0x8(%rsp)
  40ae5a:	48 83 ec 18          	sub    $0x18,%rsp
  40ae5e:	80 7f 18 00          	cmpb   $0x0,0x18(%rdi)
  40ae62:	48 89 fb             	mov    %rdi,%rbx
  40ae65:	48 c7 07 30 33 41 00 	movq   $0x413330,(%rdi)
  40ae6c:	75 1a                	jne    40ae88 <_ZN5boost6detail18sp_counted_impl_pdIPN6SpyKee7Motion_ISaIvEEENS0_13sp_ms_deleterIS5_EEED1Ev+0x38>
  40ae6e:	48 c7 03 f0 32 41 00 	movq   $0x4132f0,(%rbx)
  40ae75:	48 8b 6c 24 10       	mov    0x10(%rsp),%rbp
  40ae7a:	48 8b 5c 24 08       	mov    0x8(%rsp),%rbx
  40ae7f:	48 83 c4 18          	add    $0x18,%rsp
  40ae83:	c3                   	retq   
  40ae84:	0f 1f 40 00          	nopl   0x0(%rax)
  40ae88:	48 8b 6f 38          	mov    0x38(%rdi),%rbp
  40ae8c:	48 c7 47 20 70 32 41 	movq   $0x413270,0x20(%rdi)
  40ae93:	00 
  40ae94:	48 85 ed             	test   %rbp,%rbp
  40ae97:	74 0f                	je     40aea8 <_ZN5boost6detail18sp_counted_impl_pdIPN6SpyKee7Motion_ISaIvEEENS0_13sp_ms_deleterIS5_EEED1Ev+0x58>
  40ae99:	b8 ff ff ff ff       	mov    $0xffffffff,%eax
  40ae9e:	f0 0f c1 45 08       	lock xadd %eax,0x8(%rbp)
  40aea3:	83 f8 01             	cmp    $0x1,%eax
  40aea6:	74 08                	je     40aeb0 <_ZN5boost6detail18sp_counted_impl_pdIPN6SpyKee7Motion_ISaIvEEENS0_13sp_ms_deleterIS5_EEED1Ev+0x60>
  40aea8:	c6 43 18 00          	movb   $0x0,0x18(%rbx)
  40aeac:	eb c0                	jmp    40ae6e <_ZN5boost6detail18sp_counted_impl_pdIPN6SpyKee7Motion_ISaIvEEENS0_13sp_ms_deleterIS5_EEED1Ev+0x1e>
  40aeae:	66 90                	xchg   %ax,%ax
  40aeb0:	48 8b 45 00          	mov    0x0(%rbp),%rax
  40aeb4:	48 89 ef             	mov    %rbp,%rdi
  40aeb7:	ff 50 10             	callq  *0x10(%rax)
  40aeba:	b8 ff ff ff ff       	mov    $0xffffffff,%eax
  40aebf:	f0 0f c1 45 0c       	lock xadd %eax,0xc(%rbp)
  40aec4:	83 f8 01             	cmp    $0x1,%eax
  40aec7:	75 df                	jne    40aea8 <_ZN5boost6detail18sp_counted_impl_pdIPN6SpyKee7Motion_ISaIvEEENS0_13sp_ms_deleterIS5_EEED1Ev+0x58>
  40aec9:	48 8b 45 00          	mov    0x0(%rbp),%rax
  40aecd:	48 89 ef             	mov    %rbp,%rdi
  40aed0:	ff 50 18             	callq  *0x18(%rax)
  40aed3:	eb d3                	jmp    40aea8 <_ZN5boost6detail18sp_counted_impl_pdIPN6SpyKee7Motion_ISaIvEEENS0_13sp_ms_deleterIS5_EEED1Ev+0x58>
  40aed5:	48 c7 03 f0 32 41 00 	movq   $0x4132f0,(%rbx)
  40aedc:	48 89 c7             	mov    %rax,%rdi
  40aedf:	e8 3c e8 ff ff       	callq  409720 <_Unwind_Resume@plt>
  40aee4:	90                   	nop
  40aee5:	90                   	nop
  40aee6:	90                   	nop
  40aee7:	90                   	nop
  40aee8:	90                   	nop
  40aee9:	90                   	nop
  40aeea:	90                   	nop
  40aeeb:	90                   	nop
  40aeec:	90                   	nop
  40aeed:	90                   	nop
  40aeee:	90                   	nop
  40aeef:	90                   	nop

000000000040aef0 <_ZN5boost6detail12shared_countD1Ev>:
  40aef0:	48 89 5c 24 f0       	mov    %rbx,-0x10(%rsp)
  40aef5:	48 89 6c 24 f8       	mov    %rbp,-0x8(%rsp)
  40aefa:	48 83 ec 18          	sub    $0x18,%rsp
  40aefe:	48 8b 1f             	mov    (%rdi),%rbx
  40af01:	48 85 db             	test   %rbx,%rbx
  40af04:	74 11                	je     40af17 <_ZN5boost6detail12shared_countD1Ev+0x27>
  40af06:	bd ff ff ff ff       	mov    $0xffffffff,%ebp
  40af0b:	89 e8                	mov    %ebp,%eax
  40af0d:	f0 0f c1 43 08       	lock xadd %eax,0x8(%rbx)
  40af12:	83 f8 01             	cmp    $0x1,%eax
  40af15:	74 19                	je     40af30 <_ZN5boost6detail12shared_countD1Ev+0x40>
  40af17:	48 8b 5c 24 08       	mov    0x8(%rsp),%rbx
  40af1c:	48 8b 6c 24 10       	mov    0x10(%rsp),%rbp
  40af21:	48 83 c4 18          	add    $0x18,%rsp
  40af25:	c3                   	retq   
  40af26:	66 2e 0f 1f 84 00 00 	nopw   %cs:0x0(%rax,%rax,1)
  40af2d:	00 00 00 
  40af30:	48 8b 03             	mov    (%rbx),%rax
  40af33:	48 89 df             	mov    %rbx,%rdi
  40af36:	ff 50 10             	callq  *0x10(%rax)
  40af39:	f0 0f c1 6b 0c       	lock xadd %ebp,0xc(%rbx)
  40af3e:	83 fd 01             	cmp    $0x1,%ebp
  40af41:	75 d4                	jne    40af17 <_ZN5boost6detail12shared_countD1Ev+0x27>
  40af43:	48 8b 03             	mov    (%rbx),%rax
  40af46:	48 89 df             	mov    %rbx,%rdi
  40af49:	48 8b 6c 24 10       	mov    0x10(%rsp),%rbp
  40af4e:	48 8b 5c 24 08       	mov    0x8(%rsp),%rbx
  40af53:	48 8b 40 18          	mov    0x18(%rax),%rax
  40af57:	48 83 c4 18          	add    $0x18,%rsp
  40af5b:	ff e0                	jmpq   *%rax
  40af5d:	90                   	nop
  40af5e:	90                   	nop
  40af5f:	90                   	nop

000000000040af60 <_ZN5boost17bad_function_callC1Ev>:
  40af60:	53                   	push   %rbx
  40af61:	be 83 2d 41 00       	mov    $0x412d83,%esi
  40af66:	48 89 fb             	mov    %rdi,%rbx
  40af69:	48 83 ec 10          	sub    $0x10,%rsp
  40af6d:	48 8d 54 24 0e       	lea    0xe(%rsp),%rdx
  40af72:	48 89 e7             	mov    %rsp,%rdi
  40af75:	e8 f6 e5 ff ff       	callq  409570 <_ZNSsC1EPKcRKSaIcE@plt>
  40af7a:	48 89 e6             	mov    %rsp,%rsi
  40af7d:	48 89 df             	mov    %rbx,%rdi
  40af80:	e8 1b e7 ff ff       	callq  4096a0 <_ZNSt13runtime_errorC2ERKSs@plt>
  40af85:	48 8b 04 24          	mov    (%rsp),%rax
  40af89:	48 8d 78 e8          	lea    -0x18(%rax),%rdi
  40af8d:	48 81 ff 00 77 61 00 	cmp    $0x617700,%rdi
  40af94:	75 0d                	jne    40afa3 <_ZN5boost17bad_function_callC1Ev+0x43>
  40af96:	48 c7 03 f0 34 41 00 	movq   $0x4134f0,(%rbx)
  40af9d:	48 83 c4 10          	add    $0x10,%rsp
  40afa1:	5b                   	pop    %rbx
  40afa2:	c3                   	retq   
  40afa3:	ba 80 92 40 00       	mov    $0x409280,%edx
  40afa8:	48 85 d2             	test   %rdx,%rdx
  40afab:	74 2b                	je     40afd8 <_ZN5boost17bad_function_callC1Ev+0x78>
  40afad:	83 ca ff             	or     $0xffffffff,%edx
  40afb0:	f0 0f c1 50 f8       	lock xadd %edx,-0x8(%rax)
  40afb5:	85 d2                	test   %edx,%edx
  40afb7:	7f dd                	jg     40af96 <_ZN5boost17bad_function_callC1Ev+0x36>
  40afb9:	48 8d 74 24 0f       	lea    0xf(%rsp),%rsi
  40afbe:	e8 cd e4 ff ff       	callq  409490 <_ZNSs4_Rep10_M_destroyERKSaIcE@plt>
  40afc3:	eb d1                	jmp    40af96 <_ZN5boost17bad_function_callC1Ev+0x36>
  40afc5:	48 89 c3             	mov    %rax,%rbx
  40afc8:	48 89 e7             	mov    %rsp,%rdi
  40afcb:	e8 c0 e6 ff ff       	callq  409690 <_ZNSsD1Ev@plt>
  40afd0:	48 89 df             	mov    %rbx,%rdi
  40afd3:	e8 48 e7 ff ff       	callq  409720 <_Unwind_Resume@plt>
  40afd8:	8b 50 f8             	mov    -0x8(%rax),%edx
  40afdb:	8d 4a ff             	lea    -0x1(%rdx),%ecx
  40afde:	89 48 f8             	mov    %ecx,-0x8(%rax)
  40afe1:	eb d2                	jmp    40afb5 <_ZN5boost17bad_function_callC1Ev+0x55>
  40afe3:	90                   	nop
  40afe4:	90                   	nop
  40afe5:	90                   	nop
  40afe6:	90                   	nop
  40afe7:	90                   	nop
  40afe8:	90                   	nop
  40afe9:	90                   	nop
  40afea:	90                   	nop
  40afeb:	90                   	nop
  40afec:	90                   	nop
  40afed:	90                   	nop
  40afee:	90                   	nop
  40afef:	90                   	nop

000000000040aff0 <_ZN5boost6detail8function16has_empty_targetEz>:
  40aff0:	31 c0                	xor    %eax,%eax
  40aff2:	c3                   	retq   
  40aff3:	90                   	nop
  40aff4:	90                   	nop
  40aff5:	90                   	nop
  40aff6:	90                   	nop
  40aff7:	90                   	nop
  40aff8:	90                   	nop
  40aff9:	90                   	nop
  40affa:	90                   	nop
  40affb:	90                   	nop
  40affc:	90                   	nop
  40affd:	90                   	nop
  40affe:	90                   	nop
  40afff:	90                   	nop

000000000040b000 <_ZN8std_msgs7Header_ISaIvEED1Ev>:
  40b000:	48 89 6c 24 f8       	mov    %rbp,-0x8(%rsp)
  40b005:	48 89 5c 24 f0       	mov    %rbx,-0x10(%rsp)
  40b00a:	48 83 ec 28          	sub    $0x28,%rsp
  40b00e:	48 8b 5f 28          	mov    0x28(%rdi),%rbx
  40b012:	48 89 fd             	mov    %rdi,%rbp
  40b015:	48 c7 07 30 32 41 00 	movq   $0x413230,(%rdi)
  40b01c:	48 85 db             	test   %rbx,%rbx
  40b01f:	74 0f                	je     40b030 <_ZN8std_msgs7Header_ISaIvEED1Ev+0x30>
  40b021:	b8 ff ff ff ff       	mov    $0xffffffff,%eax
  40b026:	f0 0f c1 43 08       	lock xadd %eax,0x8(%rbx)
  40b02b:	83 f8 01             	cmp    $0x1,%eax
  40b02e:	74 20                	je     40b050 <_ZN8std_msgs7Header_ISaIvEED1Ev+0x50>
  40b030:	48 8b 45 18          	mov    0x18(%rbp),%rax
  40b034:	48 8d 78 e8          	lea    -0x18(%rax),%rdi
  40b038:	48 81 ff 00 77 61 00 	cmp    $0x617700,%rdi
  40b03f:	75 32                	jne    40b073 <_ZN8std_msgs7Header_ISaIvEED1Ev+0x73>
  40b041:	48 8b 5c 24 18       	mov    0x18(%rsp),%rbx
  40b046:	48 8b 6c 24 20       	mov    0x20(%rsp),%rbp
  40b04b:	48 83 c4 28          	add    $0x28,%rsp
  40b04f:	c3                   	retq   
  40b050:	48 8b 03             	mov    (%rbx),%rax
  40b053:	48 89 df             	mov    %rbx,%rdi
  40b056:	ff 50 10             	callq  *0x10(%rax)
  40b059:	b8 ff ff ff ff       	mov    $0xffffffff,%eax
  40b05e:	f0 0f c1 43 0c       	lock xadd %eax,0xc(%rbx)
  40b063:	83 f8 01             	cmp    $0x1,%eax
  40b066:	75 c8                	jne    40b030 <_ZN8std_msgs7Header_ISaIvEED1Ev+0x30>
  40b068:	48 8b 03             	mov    (%rbx),%rax
  40b06b:	48 89 df             	mov    %rbx,%rdi
  40b06e:	ff 50 18             	callq  *0x18(%rax)
  40b071:	eb bd                	jmp    40b030 <_ZN8std_msgs7Header_ISaIvEED1Ev+0x30>
  40b073:	ba 80 92 40 00       	mov    $0x409280,%edx
  40b078:	48 85 d2             	test   %rdx,%rdx
  40b07b:	74 2c                	je     40b0a9 <_ZN8std_msgs7Header_ISaIvEED1Ev+0xa9>
  40b07d:	83 ca ff             	or     $0xffffffff,%edx
  40b080:	f0 0f c1 50 f8       	lock xadd %edx,-0x8(%rax)
  40b085:	85 d2                	test   %edx,%edx
  40b087:	7f b8                	jg     40b041 <_ZN8std_msgs7Header_ISaIvEED1Ev+0x41>
  40b089:	48 8d 74 24 0f       	lea    0xf(%rsp),%rsi
  40b08e:	e8 fd e3 ff ff       	callq  409490 <_ZNSs4_Rep10_M_destroyERKSaIcE@plt>
  40b093:	eb ac                	jmp    40b041 <_ZN8std_msgs7Header_ISaIvEED1Ev+0x41>
  40b095:	48 8d 7d 18          	lea    0x18(%rbp),%rdi
  40b099:	48 89 c3             	mov    %rax,%rbx
  40b09c:	e8 ef e5 ff ff       	callq  409690 <_ZNSsD1Ev@plt>
  40b0a1:	48 89 df             	mov    %rbx,%rdi
  40b0a4:	e8 77 e6 ff ff       	callq  409720 <_Unwind_Resume@plt>
  40b0a9:	8b 50 f8             	mov    -0x8(%rax),%edx
  40b0ac:	8d 4a ff             	lea    -0x1(%rdx),%ecx
  40b0af:	89 48 f8             	mov    %ecx,-0x8(%rax)
  40b0b2:	eb d1                	jmp    40b085 <_ZN8std_msgs7Header_ISaIvEED1Ev+0x85>
  40b0b4:	90                   	nop
  40b0b5:	90                   	nop
  40b0b6:	90                   	nop
  40b0b7:	90                   	nop
  40b0b8:	90                   	nop
  40b0b9:	90                   	nop
  40b0ba:	90                   	nop
  40b0bb:	90                   	nop
  40b0bc:	90                   	nop
  40b0bd:	90                   	nop
  40b0be:	90                   	nop
  40b0bf:	90                   	nop

000000000040b0c0 <_ZN11sensor_msgs16CompressedImage_ISaIvEED1Ev>:
  40b0c0:	55                   	push   %rbp
  40b0c1:	53                   	push   %rbx
  40b0c2:	48 89 fb             	mov    %rdi,%rbx
  40b0c5:	48 83 ec 18          	sub    $0x18,%rsp
  40b0c9:	48 8b 6f 60          	mov    0x60(%rdi),%rbp
  40b0cd:	48 c7 07 f0 31 41 00 	movq   $0x4131f0,(%rdi)
  40b0d4:	48 85 ed             	test   %rbp,%rbp
  40b0d7:	74 0f                	je     40b0e8 <_ZN11sensor_msgs16CompressedImage_ISaIvEED1Ev+0x28>
  40b0d9:	b8 ff ff ff ff       	mov    $0xffffffff,%eax
  40b0de:	f0 0f c1 45 08       	lock xadd %eax,0x8(%rbp)
  40b0e3:	83 f8 01             	cmp    $0x1,%eax
  40b0e6:	74 60                	je     40b148 <_ZN11sensor_msgs16CompressedImage_ISaIvEED1Ev+0x88>
  40b0e8:	48 8b 7b 40          	mov    0x40(%rbx),%rdi
  40b0ec:	48 85 ff             	test   %rdi,%rdi
  40b0ef:	74 05                	je     40b0f6 <_ZN11sensor_msgs16CompressedImage_ISaIvEED1Ev+0x36>
  40b0f1:	e8 fa e3 ff ff       	callq  4094f0 <_ZdlPv@plt>
  40b0f6:	48 8b 43 38          	mov    0x38(%rbx),%rax
  40b0fa:	48 8d 78 e8          	lea    -0x18(%rax),%rdi
  40b0fe:	48 81 ff 00 77 61 00 	cmp    $0x617700,%rdi
  40b105:	0f 85 ac 00 00 00    	jne    40b1b7 <_ZN11sensor_msgs16CompressedImage_ISaIvEED1Ev+0xf7>
  40b10b:	48 8b 6b 30          	mov    0x30(%rbx),%rbp
  40b10f:	48 c7 43 08 30 32 41 	movq   $0x413230,0x8(%rbx)
  40b116:	00 
  40b117:	48 85 ed             	test   %rbp,%rbp
  40b11a:	74 0f                	je     40b12b <_ZN11sensor_msgs16CompressedImage_ISaIvEED1Ev+0x6b>
  40b11c:	b8 ff ff ff ff       	mov    $0xffffffff,%eax
  40b121:	f0 0f c1 45 08       	lock xadd %eax,0x8(%rbp)
  40b126:	83 f8 01             	cmp    $0x1,%eax
  40b129:	74 45                	je     40b170 <_ZN11sensor_msgs16CompressedImage_ISaIvEED1Ev+0xb0>
  40b12b:	48 8b 43 20          	mov    0x20(%rbx),%rax
  40b12f:	48 8d 78 e8          	lea    -0x18(%rax),%rdi
  40b133:	48 81 ff 00 77 61 00 	cmp    $0x617700,%rdi
  40b13a:	75 59                	jne    40b195 <_ZN11sensor_msgs16CompressedImage_ISaIvEED1Ev+0xd5>
  40b13c:	48 83 c4 18          	add    $0x18,%rsp
  40b140:	5b                   	pop    %rbx
  40b141:	5d                   	pop    %rbp
  40b142:	c3                   	retq   
  40b143:	0f 1f 44 00 00       	nopl   0x0(%rax,%rax,1)
  40b148:	48 8b 45 00          	mov    0x0(%rbp),%rax
  40b14c:	48 89 ef             	mov    %rbp,%rdi
  40b14f:	ff 50 10             	callq  *0x10(%rax)
  40b152:	b8 ff ff ff ff       	mov    $0xffffffff,%eax
  40b157:	f0 0f c1 45 0c       	lock xadd %eax,0xc(%rbp)
  40b15c:	83 f8 01             	cmp    $0x1,%eax
  40b15f:	75 87                	jne    40b0e8 <_ZN11sensor_msgs16CompressedImage_ISaIvEED1Ev+0x28>
  40b161:	48 8b 45 00          	mov    0x0(%rbp),%rax
  40b165:	48 89 ef             	mov    %rbp,%rdi
  40b168:	ff 50 18             	callq  *0x18(%rax)
  40b16b:	e9 78 ff ff ff       	jmpq   40b0e8 <_ZN11sensor_msgs16CompressedImage_ISaIvEED1Ev+0x28>
  40b170:	48 8b 45 00          	mov    0x0(%rbp),%rax
  40b174:	48 89 ef             	mov    %rbp,%rdi
  40b177:	ff 50 10             	callq  *0x10(%rax)
  40b17a:	b8 ff ff ff ff       	mov    $0xffffffff,%eax
  40b17f:	f0 0f c1 45 0c       	lock xadd %eax,0xc(%rbp)
  40b184:	83 f8 01             	cmp    $0x1,%eax
  40b187:	75 a2                	jne    40b12b <_ZN11sensor_msgs16CompressedImage_ISaIvEED1Ev+0x6b>
  40b189:	48 8b 45 00          	mov    0x0(%rbp),%rax
  40b18d:	48 89 ef             	mov    %rbp,%rdi
  40b190:	ff 50 18             	callq  *0x18(%rax)
  40b193:	eb 96                	jmp    40b12b <_ZN11sensor_msgs16CompressedImage_ISaIvEED1Ev+0x6b>
  40b195:	ba 80 92 40 00       	mov    $0x409280,%edx
  40b19a:	48 85 d2             	test   %rdx,%rdx
  40b19d:	74 41                	je     40b1e0 <_ZN11sensor_msgs16CompressedImage_ISaIvEED1Ev+0x120>
  40b19f:	83 ca ff             	or     $0xffffffff,%edx
  40b1a2:	f0 0f c1 50 f8       	lock xadd %edx,-0x8(%rax)
  40b1a7:	85 d2                	test   %edx,%edx
  40b1a9:	7f 91                	jg     40b13c <_ZN11sensor_msgs16CompressedImage_ISaIvEED1Ev+0x7c>
  40b1ab:	48 8d 74 24 0f       	lea    0xf(%rsp),%rsi
  40b1b0:	e8 db e2 ff ff       	callq  409490 <_ZNSs4_Rep10_M_destroyERKSaIcE@plt>
  40b1b5:	eb 85                	jmp    40b13c <_ZN11sensor_msgs16CompressedImage_ISaIvEED1Ev+0x7c>
  40b1b7:	ba 80 92 40 00       	mov    $0x409280,%edx
  40b1bc:	48 85 d2             	test   %rdx,%rdx
  40b1bf:	74 2a                	je     40b1eb <_ZN11sensor_msgs16CompressedImage_ISaIvEED1Ev+0x12b>
  40b1c1:	83 ca ff             	or     $0xffffffff,%edx
  40b1c4:	f0 0f c1 50 f8       	lock xadd %edx,-0x8(%rax)
  40b1c9:	85 d2                	test   %edx,%edx
  40b1cb:	0f 8f 3a ff ff ff    	jg     40b10b <_ZN11sensor_msgs16CompressedImage_ISaIvEED1Ev+0x4b>
  40b1d1:	48 8d 74 24 0e       	lea    0xe(%rsp),%rsi
  40b1d6:	e8 b5 e2 ff ff       	callq  409490 <_ZNSs4_Rep10_M_destroyERKSaIcE@plt>
  40b1db:	e9 2b ff ff ff       	jmpq   40b10b <_ZN11sensor_msgs16CompressedImage_ISaIvEED1Ev+0x4b>
  40b1e0:	8b 50 f8             	mov    -0x8(%rax),%edx
  40b1e3:	8d 4a ff             	lea    -0x1(%rdx),%ecx
  40b1e6:	89 48 f8             	mov    %ecx,-0x8(%rax)
  40b1e9:	eb bc                	jmp    40b1a7 <_ZN11sensor_msgs16CompressedImage_ISaIvEED1Ev+0xe7>
  40b1eb:	8b 50 f8             	mov    -0x8(%rax),%edx
  40b1ee:	8d 4a ff             	lea    -0x1(%rdx),%ecx
  40b1f1:	89 48 f8             	mov    %ecx,-0x8(%rax)
  40b1f4:	eb d3                	jmp    40b1c9 <_ZN11sensor_msgs16CompressedImage_ISaIvEED1Ev+0x109>
  40b1f6:	48 8d 7b 20          	lea    0x20(%rbx),%rdi
  40b1fa:	48 89 c5             	mov    %rax,%rbp
  40b1fd:	e8 8e e4 ff ff       	callq  409690 <_ZNSsD1Ev@plt>
  40b202:	48 89 ef             	mov    %rbp,%rdi
  40b205:	e8 16 e5 ff ff       	callq  409720 <_Unwind_Resume@plt>
  40b20a:	48 8b 7b 40          	mov    0x40(%rbx),%rdi
  40b20e:	48 89 c5             	mov    %rax,%rbp
  40b211:	48 85 ff             	test   %rdi,%rdi
  40b214:	74 05                	je     40b21b <_ZN11sensor_msgs16CompressedImage_ISaIvEED1Ev+0x15b>
  40b216:	e8 d5 e2 ff ff       	callq  4094f0 <_ZdlPv@plt>
  40b21b:	48 8d 7b 38          	lea    0x38(%rbx),%rdi
  40b21f:	e8 6c e4 ff ff       	callq  409690 <_ZNSsD1Ev@plt>
  40b224:	48 8d 7b 08          	lea    0x8(%rbx),%rdi
  40b228:	e8 d3 fd ff ff       	callq  40b000 <_ZN8std_msgs7Header_ISaIvEED1Ev>
  40b22d:	48 89 ef             	mov    %rbp,%rdi
  40b230:	e8 eb e4 ff ff       	callq  409720 <_Unwind_Resume@plt>
  40b235:	90                   	nop
  40b236:	90                   	nop
  40b237:	90                   	nop
  40b238:	90                   	nop
  40b239:	90                   	nop
  40b23a:	90                   	nop
  40b23b:	90                   	nop
  40b23c:	90                   	nop
  40b23d:	90                   	nop
  40b23e:	90                   	nop
  40b23f:	90                   	nop

000000000040b240 <_ZN5boost16exception_detail12refcount_ptrINS0_20error_info_containerEED1Ev>:
  40b240:	53                   	push   %rbx
  40b241:	48 89 fb             	mov    %rdi,%rbx
  40b244:	48 8b 3f             	mov    (%rdi),%rdi
  40b247:	48 85 ff             	test   %rdi,%rdi
  40b24a:	74 11                	je     40b25d <_ZN5boost16exception_detail12refcount_ptrINS0_20error_info_containerEED1Ev+0x1d>
  40b24c:	48 8b 07             	mov    (%rdi),%rax
  40b24f:	ff 50 20             	callq  *0x20(%rax)
  40b252:	84 c0                	test   %al,%al
  40b254:	74 07                	je     40b25d <_ZN5boost16exception_detail12refcount_ptrINS0_20error_info_containerEED1Ev+0x1d>
  40b256:	48 c7 03 00 00 00 00 	movq   $0x0,(%rbx)
  40b25d:	5b                   	pop    %rbx
  40b25e:	c3                   	retq   
  40b25f:	90                   	nop

000000000040b260 <_ZN5boost16exception_detail12refcount_ptrINS0_20error_info_containerEEaSERKS3_>:
  40b260:	48 89 5c 24 f0       	mov    %rbx,-0x10(%rsp)
  40b265:	48 89 6c 24 f8       	mov    %rbp,-0x8(%rsp)
  40b26a:	48 89 fb             	mov    %rdi,%rbx
  40b26d:	48 83 ec 18          	sub    $0x18,%rsp
  40b271:	48 8b 3f             	mov    (%rdi),%rdi
  40b274:	48 8b 2e             	mov    (%rsi),%rbp
  40b277:	48 85 ff             	test   %rdi,%rdi
  40b27a:	74 06                	je     40b282 <_ZN5boost16exception_detail12refcount_ptrINS0_20error_info_containerEEaSERKS3_+0x22>
  40b27c:	48 8b 07             	mov    (%rdi),%rax
  40b27f:	ff 50 20             	callq  *0x20(%rax)
  40b282:	48 85 ed             	test   %rbp,%rbp
  40b285:	48 89 2b             	mov    %rbp,(%rbx)
  40b288:	74 0a                	je     40b294 <_ZN5boost16exception_detail12refcount_ptrINS0_20error_info_containerEEaSERKS3_+0x34>
  40b28a:	48 8b 45 00          	mov    0x0(%rbp),%rax
  40b28e:	48 89 ef             	mov    %rbp,%rdi
  40b291:	ff 50 18             	callq  *0x18(%rax)
  40b294:	48 89 d8             	mov    %rbx,%rax
  40b297:	48 8b 6c 24 10       	mov    0x10(%rsp),%rbp
  40b29c:	48 8b 5c 24 08       	mov    0x8(%rsp),%rbx
  40b2a1:	48 83 c4 18          	add    $0x18,%rsp
  40b2a5:	c3                   	retq   
  40b2a6:	90                   	nop
  40b2a7:	90                   	nop
  40b2a8:	90                   	nop
  40b2a9:	90                   	nop
  40b2aa:	90                   	nop
  40b2ab:	90                   	nop
  40b2ac:	90                   	nop
  40b2ad:	90                   	nop
  40b2ae:	90                   	nop
  40b2af:	90                   	nop

000000000040b2b0 <_ZN5boost9function1IvRKN3ros25SingleSubscriberPublisherEED1Ev>:
  40b2b0:	53                   	push   %rbx
  40b2b1:	48 8b 07             	mov    (%rdi),%rax
  40b2b4:	48 89 fb             	mov    %rdi,%rbx
  40b2b7:	48 85 c0             	test   %rax,%rax
  40b2ba:	74 25                	je     40b2e1 <_ZN5boost9function1IvRKN3ros25SingleSubscriberPublisherEED1Ev+0x31>
  40b2bc:	a8 01                	test   $0x1,%al
  40b2be:	75 1a                	jne    40b2da <_ZN5boost9function1IvRKN3ros25SingleSubscriberPublisherEED1Ev+0x2a>
  40b2c0:	48 83 e0 fe          	and    $0xfffffffffffffffe,%rax
  40b2c4:	48 8b 00             	mov    (%rax),%rax
  40b2c7:	48 85 c0             	test   %rax,%rax
  40b2ca:	74 0e                	je     40b2da <_ZN5boost9function1IvRKN3ros25SingleSubscriberPublisherEED1Ev+0x2a>
  40b2cc:	48 8d 7f 08          	lea    0x8(%rdi),%rdi
  40b2d0:	ba 02 00 00 00       	mov    $0x2,%edx
  40b2d5:	48 89 fe             	mov    %rdi,%rsi
  40b2d8:	ff d0                	callq  *%rax
  40b2da:	48 c7 03 00 00 00 00 	movq   $0x0,(%rbx)
  40b2e1:	5b                   	pop    %rbx
  40b2e2:	c3                   	retq   
  40b2e3:	90                   	nop
  40b2e4:	90                   	nop
  40b2e5:	90                   	nop
  40b2e6:	90                   	nop
  40b2e7:	90                   	nop
  40b2e8:	90                   	nop
  40b2e9:	90                   	nop
  40b2ea:	90                   	nop
  40b2eb:	90                   	nop
  40b2ec:	90                   	nop
  40b2ed:	90                   	nop
  40b2ee:	90                   	nop
  40b2ef:	90                   	nop

000000000040b2f0 <_ZN5boost8functionIFvRKNS_10shared_ptrIKN6SpyKee7Motion_ISaIvEEEEEEED1Ev>:
  40b2f0:	53                   	push   %rbx
  40b2f1:	48 8b 07             	mov    (%rdi),%rax
  40b2f4:	48 89 fb             	mov    %rdi,%rbx
  40b2f7:	48 85 c0             	test   %rax,%rax
  40b2fa:	74 25                	je     40b321 <_ZN5boost8functionIFvRKNS_10shared_ptrIKN6SpyKee7Motion_ISaIvEEEEEEED1Ev+0x31>
  40b2fc:	a8 01                	test   $0x1,%al
  40b2fe:	75 1a                	jne    40b31a <_ZN5boost8functionIFvRKNS_10shared_ptrIKN6SpyKee7Motion_ISaIvEEEEEEED1Ev+0x2a>
  40b300:	48 83 e0 fe          	and    $0xfffffffffffffffe,%rax
  40b304:	48 8b 00             	mov    (%rax),%rax
  40b307:	48 85 c0             	test   %rax,%rax
  40b30a:	74 0e                	je     40b31a <_ZN5boost8functionIFvRKNS_10shared_ptrIKN6SpyKee7Motion_ISaIvEEEEEEED1Ev+0x2a>
  40b30c:	48 8d 7f 08          	lea    0x8(%rdi),%rdi
  40b310:	ba 02 00 00 00       	mov    $0x2,%edx
  40b315:	48 89 fe             	mov    %rdi,%rsi
  40b318:	ff d0                	callq  *%rax
  40b31a:	48 c7 03 00 00 00 00 	movq   $0x0,(%rbx)
  40b321:	5b                   	pop    %rbx
  40b322:	c3                   	retq   
  40b323:	90                   	nop
  40b324:	90                   	nop
  40b325:	90                   	nop
  40b326:	90                   	nop
  40b327:	90                   	nop
  40b328:	90                   	nop
  40b329:	90                   	nop
  40b32a:	90                   	nop
  40b32b:	90                   	nop
  40b32c:	90                   	nop
  40b32d:	90                   	nop
  40b32e:	90                   	nop
  40b32f:	90                   	nop

000000000040b330 <_ZN3ros16AdvertiseOptionsD1Ev>:
  40b330:	55                   	push   %rbp
  40b331:	53                   	push   %rbx
  40b332:	48 89 fb             	mov    %rdi,%rbx
  40b335:	48 83 ec 18          	sub    $0x18,%rsp
  40b339:	48 8b 6f 78          	mov    0x78(%rdi),%rbp
  40b33d:	48 85 ed             	test   %rbp,%rbp
  40b340:	74 13                	je     40b355 <_ZN3ros16AdvertiseOptionsD1Ev+0x25>
  40b342:	b8 ff ff ff ff       	mov    $0xffffffff,%eax
  40b347:	f0 0f c1 45 08       	lock xadd %eax,0x8(%rbp)
  40b34c:	83 f8 01             	cmp    $0x1,%eax
  40b34f:	0f 84 d3 00 00 00    	je     40b428 <_ZN3ros16AdvertiseOptionsD1Ev+0xf8>
  40b355:	48 8b 43 48          	mov    0x48(%rbx),%rax
  40b359:	48 85 c0             	test   %rax,%rax
  40b35c:	74 10                	je     40b36e <_ZN3ros16AdvertiseOptionsD1Ev+0x3e>
  40b35e:	a8 01                	test   $0x1,%al
  40b360:	0f 84 9a 00 00 00    	je     40b400 <_ZN3ros16AdvertiseOptionsD1Ev+0xd0>
  40b366:	48 c7 43 48 00 00 00 	movq   $0x0,0x48(%rbx)
  40b36d:	00 
  40b36e:	48 8b 43 28          	mov    0x28(%rbx),%rax
  40b372:	48 85 c0             	test   %rax,%rax
  40b375:	74 0c                	je     40b383 <_ZN3ros16AdvertiseOptionsD1Ev+0x53>
  40b377:	a8 01                	test   $0x1,%al
  40b379:	74 65                	je     40b3e0 <_ZN3ros16AdvertiseOptionsD1Ev+0xb0>
  40b37b:	48 c7 43 28 00 00 00 	movq   $0x0,0x28(%rbx)
  40b382:	00 
  40b383:	48 8b 43 20          	mov    0x20(%rbx),%rax
  40b387:	48 8d 78 e8          	lea    -0x18(%rax),%rdi
  40b38b:	48 81 ff 00 77 61 00 	cmp    $0x617700,%rdi
  40b392:	0f 85 43 01 00 00    	jne    40b4db <_ZN3ros16AdvertiseOptionsD1Ev+0x1ab>
  40b398:	48 8b 43 18          	mov    0x18(%rbx),%rax
  40b39c:	48 8d 78 e8          	lea    -0x18(%rax),%rdi
  40b3a0:	48 81 ff 00 77 61 00 	cmp    $0x617700,%rdi
  40b3a7:	0f 85 01 01 00 00    	jne    40b4ae <_ZN3ros16AdvertiseOptionsD1Ev+0x17e>
  40b3ad:	48 8b 43 10          	mov    0x10(%rbx),%rax
  40b3b1:	48 8d 78 e8          	lea    -0x18(%rax),%rdi
  40b3b5:	48 81 ff 00 77 61 00 	cmp    $0x617700,%rdi
  40b3bc:	0f 85 bf 00 00 00    	jne    40b481 <_ZN3ros16AdvertiseOptionsD1Ev+0x151>
  40b3c2:	48 8b 03             	mov    (%rbx),%rax
  40b3c5:	48 8d 78 e8          	lea    -0x18(%rax),%rdi
  40b3c9:	48 81 ff 00 77 61 00 	cmp    $0x617700,%rdi
  40b3d0:	0f 85 7e 00 00 00    	jne    40b454 <_ZN3ros16AdvertiseOptionsD1Ev+0x124>
  40b3d6:	48 83 c4 18          	add    $0x18,%rsp
  40b3da:	5b                   	pop    %rbx
  40b3db:	5d                   	pop    %rbp
  40b3dc:	c3                   	retq   
  40b3dd:	0f 1f 00             	nopl   (%rax)
  40b3e0:	48 83 e0 fe          	and    $0xfffffffffffffffe,%rax
  40b3e4:	48 8b 00             	mov    (%rax),%rax
  40b3e7:	48 85 c0             	test   %rax,%rax
  40b3ea:	74 8f                	je     40b37b <_ZN3ros16AdvertiseOptionsD1Ev+0x4b>
  40b3ec:	48 8d 7b 30          	lea    0x30(%rbx),%rdi
  40b3f0:	ba 02 00 00 00       	mov    $0x2,%edx
  40b3f5:	48 89 fe             	mov    %rdi,%rsi
  40b3f8:	ff d0                	callq  *%rax
  40b3fa:	e9 7c ff ff ff       	jmpq   40b37b <_ZN3ros16AdvertiseOptionsD1Ev+0x4b>
  40b3ff:	90                   	nop
  40b400:	48 83 e0 fe          	and    $0xfffffffffffffffe,%rax
  40b404:	48 8b 00             	mov    (%rax),%rax
  40b407:	48 85 c0             	test   %rax,%rax
  40b40a:	0f 84 56 ff ff ff    	je     40b366 <_ZN3ros16AdvertiseOptionsD1Ev+0x36>
  40b410:	48 8d 7b 50          	lea    0x50(%rbx),%rdi
  40b414:	ba 02 00 00 00       	mov    $0x2,%edx
  40b419:	48 89 fe             	mov    %rdi,%rsi
  40b41c:	ff d0                	callq  *%rax
  40b41e:	e9 43 ff ff ff       	jmpq   40b366 <_ZN3ros16AdvertiseOptionsD1Ev+0x36>
  40b423:	0f 1f 44 00 00       	nopl   0x0(%rax,%rax,1)
  40b428:	48 8b 45 00          	mov    0x0(%rbp),%rax
  40b42c:	48 89 ef             	mov    %rbp,%rdi
  40b42f:	ff 50 10             	callq  *0x10(%rax)
  40b432:	b8 ff ff ff ff       	mov    $0xffffffff,%eax
  40b437:	f0 0f c1 45 0c       	lock xadd %eax,0xc(%rbp)
  40b43c:	83 f8 01             	cmp    $0x1,%eax
  40b43f:	0f 85 10 ff ff ff    	jne    40b355 <_ZN3ros16AdvertiseOptionsD1Ev+0x25>
  40b445:	48 8b 45 00          	mov    0x0(%rbp),%rax
  40b449:	48 89 ef             	mov    %rbp,%rdi
  40b44c:	ff 50 18             	callq  *0x18(%rax)
  40b44f:	e9 01 ff ff ff       	jmpq   40b355 <_ZN3ros16AdvertiseOptionsD1Ev+0x25>
  40b454:	ba 80 92 40 00       	mov    $0x409280,%edx
  40b459:	48 85 d2             	test   %rdx,%rdx
  40b45c:	0f 84 f7 00 00 00    	je     40b559 <_ZN3ros16AdvertiseOptionsD1Ev+0x229>
  40b462:	83 ca ff             	or     $0xffffffff,%edx
  40b465:	f0 0f c1 50 f8       	lock xadd %edx,-0x8(%rax)
  40b46a:	85 d2                	test   %edx,%edx
  40b46c:	0f 8f 64 ff ff ff    	jg     40b3d6 <_ZN3ros16AdvertiseOptionsD1Ev+0xa6>
  40b472:	48 8d 74 24 0f       	lea    0xf(%rsp),%rsi
  40b477:	e8 14 e0 ff ff       	callq  409490 <_ZNSs4_Rep10_M_destroyERKSaIcE@plt>
  40b47c:	e9 55 ff ff ff       	jmpq   40b3d6 <_ZN3ros16AdvertiseOptionsD1Ev+0xa6>
  40b481:	ba 80 92 40 00       	mov    $0x409280,%edx
  40b486:	48 85 d2             	test   %rdx,%rdx
  40b489:	0f 84 d8 00 00 00    	je     40b567 <_ZN3ros16AdvertiseOptionsD1Ev+0x237>
  40b48f:	83 ca ff             	or     $0xffffffff,%edx
  40b492:	f0 0f c1 50 f8       	lock xadd %edx,-0x8(%rax)
  40b497:	85 d2                	test   %edx,%edx
  40b499:	0f 8f 23 ff ff ff    	jg     40b3c2 <_ZN3ros16AdvertiseOptionsD1Ev+0x92>
  40b49f:	48 8d 74 24 0e       	lea    0xe(%rsp),%rsi
  40b4a4:	e8 e7 df ff ff       	callq  409490 <_ZNSs4_Rep10_M_destroyERKSaIcE@plt>
  40b4a9:	e9 14 ff ff ff       	jmpq   40b3c2 <_ZN3ros16AdvertiseOptionsD1Ev+0x92>
  40b4ae:	ba 80 92 40 00       	mov    $0x409280,%edx
  40b4b3:	48 85 d2             	test   %rdx,%rdx
  40b4b6:	0f 84 b9 00 00 00    	je     40b575 <_ZN3ros16AdvertiseOptionsD1Ev+0x245>
  40b4bc:	83 ca ff             	or     $0xffffffff,%edx
  40b4bf:	f0 0f c1 50 f8       	lock xadd %edx,-0x8(%rax)
  40b4c4:	85 d2                	test   %edx,%edx
  40b4c6:	0f 8f e1 fe ff ff    	jg     40b3ad <_ZN3ros16AdvertiseOptionsD1Ev+0x7d>
  40b4cc:	48 8d 74 24 0d       	lea    0xd(%rsp),%rsi
  40b4d1:	e8 ba df ff ff       	callq  409490 <_ZNSs4_Rep10_M_destroyERKSaIcE@plt>
  40b4d6:	e9 d2 fe ff ff       	jmpq   40b3ad <_ZN3ros16AdvertiseOptionsD1Ev+0x7d>
  40b4db:	ba 80 92 40 00       	mov    $0x409280,%edx
  40b4e0:	48 85 d2             	test   %rdx,%rdx
  40b4e3:	74 5b                	je     40b540 <_ZN3ros16AdvertiseOptionsD1Ev+0x210>
  40b4e5:	83 ca ff             	or     $0xffffffff,%edx
  40b4e8:	f0 0f c1 50 f8       	lock xadd %edx,-0x8(%rax)
  40b4ed:	85 d2                	test   %edx,%edx
  40b4ef:	0f 8f a3 fe ff ff    	jg     40b398 <_ZN3ros16AdvertiseOptionsD1Ev+0x68>
  40b4f5:	48 8d 74 24 0c       	lea    0xc(%rsp),%rsi
  40b4fa:	e8 91 df ff ff       	callq  409490 <_ZNSs4_Rep10_M_destroyERKSaIcE@plt>
  40b4ff:	e9 94 fe ff ff       	jmpq   40b398 <_ZN3ros16AdvertiseOptionsD1Ev+0x68>
  40b504:	48 89 c5             	mov    %rax,%rbp
  40b507:	48 8d 7b 20          	lea    0x20(%rbx),%rdi
  40b50b:	e8 80 e1 ff ff       	callq  409690 <_ZNSsD1Ev@plt>
  40b510:	48 8d 7b 18          	lea    0x18(%rbx),%rdi
  40b514:	e8 77 e1 ff ff       	callq  409690 <_ZNSsD1Ev@plt>
  40b519:	48 8d 7b 10          	lea    0x10(%rbx),%rdi
  40b51d:	e8 6e e1 ff ff       	callq  409690 <_ZNSsD1Ev@plt>
  40b522:	48 89 df             	mov    %rbx,%rdi
  40b525:	e8 66 e1 ff ff       	callq  409690 <_ZNSsD1Ev@plt>
  40b52a:	48 89 ef             	mov    %rbp,%rdi
  40b52d:	e8 ee e1 ff ff       	callq  409720 <_Unwind_Resume@plt>
  40b532:	48 89 c5             	mov    %rax,%rbp
  40b535:	48 8d 7b 28          	lea    0x28(%rbx),%rdi
  40b539:	e8 72 fd ff ff       	callq  40b2b0 <_ZN5boost9function1IvRKN3ros25SingleSubscriberPublisherEED1Ev>
  40b53e:	eb c7                	jmp    40b507 <_ZN3ros16AdvertiseOptionsD1Ev+0x1d7>
  40b540:	8b 50 f8             	mov    -0x8(%rax),%edx
  40b543:	8d 4a ff             	lea    -0x1(%rdx),%ecx
  40b546:	89 48 f8             	mov    %ecx,-0x8(%rax)
  40b549:	eb a2                	jmp    40b4ed <_ZN3ros16AdvertiseOptionsD1Ev+0x1bd>
  40b54b:	48 8d 7b 48          	lea    0x48(%rbx),%rdi
  40b54f:	48 89 c5             	mov    %rax,%rbp
  40b552:	e8 59 fd ff ff       	callq  40b2b0 <_ZN5boost9function1IvRKN3ros25SingleSubscriberPublisherEED1Ev>
  40b557:	eb dc                	jmp    40b535 <_ZN3ros16AdvertiseOptionsD1Ev+0x205>
  40b559:	8b 50 f8             	mov    -0x8(%rax),%edx
  40b55c:	8d 4a ff             	lea    -0x1(%rdx),%ecx
  40b55f:	89 48 f8             	mov    %ecx,-0x8(%rax)
  40b562:	e9 03 ff ff ff       	jmpq   40b46a <_ZN3ros16AdvertiseOptionsD1Ev+0x13a>
  40b567:	8b 50 f8             	mov    -0x8(%rax),%edx
  40b56a:	8d 4a ff             	lea    -0x1(%rdx),%ecx
  40b56d:	89 48 f8             	mov    %ecx,-0x8(%rax)
  40b570:	e9 22 ff ff ff       	jmpq   40b497 <_ZN3ros16AdvertiseOptionsD1Ev+0x167>
  40b575:	8b 50 f8             	mov    -0x8(%rax),%edx
  40b578:	8d 4a ff             	lea    -0x1(%rdx),%ecx
  40b57b:	89 48 f8             	mov    %ecx,-0x8(%rax)
  40b57e:	e9 41 ff ff ff       	jmpq   40b4c4 <_ZN3ros16AdvertiseOptionsD1Ev+0x194>
  40b583:	90                   	nop
  40b584:	90                   	nop
  40b585:	90                   	nop
  40b586:	90                   	nop
  40b587:	90                   	nop
  40b588:	90                   	nop
  40b589:	90                   	nop
  40b58a:	90                   	nop
  40b58b:	90                   	nop
  40b58c:	90                   	nop
  40b58d:	90                   	nop
  40b58e:	90                   	nop
  40b58f:	90                   	nop

000000000040b590 <_ZN3ros10NodeHandle9advertiseIN11sensor_msgs16CompressedImage_ISaIvEEEEENS_9PublisherERKSsjb>:
  40b590:	41 57                	push   %r15
  40b592:	49 89 f7             	mov    %rsi,%r15
  40b595:	48 89 d6             	mov    %rdx,%rsi
  40b598:	41 56                	push   %r14
  40b59a:	45 89 c6             	mov    %r8d,%r14d
  40b59d:	41 55                	push   %r13
  40b59f:	41 89 cd             	mov    %ecx,%r13d
  40b5a2:	41 54                	push   %r12
  40b5a4:	55                   	push   %rbp
  40b5a5:	48 89 fd             	mov    %rdi,%rbp
  40b5a8:	53                   	push   %rbx
  40b5a9:	48 81 ec 78 01 00 00 	sub    $0x178,%rsp
  40b5b0:	48 8d 7c 24 10       	lea    0x10(%rsp),%rdi
  40b5b5:	48 c7 44 24 10 18 77 	movq   $0x617718,0x10(%rsp)
  40b5bc:	61 00 
  40b5be:	48 c7 44 24 20 18 77 	movq   $0x617718,0x20(%rsp)
  40b5c5:	61 00 
  40b5c7:	48 c7 44 24 28 18 77 	movq   $0x617718,0x28(%rsp)
  40b5ce:	61 00 
  40b5d0:	48 c7 44 24 30 18 77 	movq   $0x617718,0x30(%rsp)
  40b5d7:	61 00 
  40b5d9:	4c 8d a4 24 a0 00 00 	lea    0xa0(%rsp),%r12
  40b5e0:	00 
  40b5e1:	48 c7 44 24 38 00 00 	movq   $0x0,0x38(%rsp)
  40b5e8:	00 00 
  40b5ea:	48 c7 44 24 58 00 00 	movq   $0x0,0x58(%rsp)
  40b5f1:	00 00 
  40b5f3:	48 8d 9c 24 c0 00 00 	lea    0xc0(%rsp),%rbx
  40b5fa:	00 
  40b5fb:	48 c7 44 24 78 00 00 	movq   $0x0,0x78(%rsp)
  40b602:	00 00 
  40b604:	48 c7 84 24 80 00 00 	movq   $0x0,0x80(%rsp)
  40b60b:	00 00 00 00 00 
  40b610:	48 c7 84 24 88 00 00 	movq   $0x0,0x88(%rsp)
  40b617:	00 00 00 00 00 
  40b61c:	c6 84 24 90 00 00 00 	movb   $0x0,0x90(%rsp)
  40b623:	00 
  40b624:	48 c7 84 24 c0 00 00 	movq   $0x0,0xc0(%rsp)
  40b62b:	00 00 00 00 00 
  40b630:	48 c7 84 24 a0 00 00 	movq   $0x0,0xa0(%rsp)
  40b637:	00 00 00 00 00 
  40b63c:	e8 9f df ff ff       	callq  4095e0 <_ZNSs6assignERKSs@plt>
  40b641:	48 8b 84 24 a0 00 00 	mov    0xa0(%rsp),%rax
  40b648:	00 
  40b649:	44 89 6c 24 18       	mov    %r13d,0x18(%rsp)
  40b64e:	4c 8d a4 24 a0 00 00 	lea    0xa0(%rsp),%r12
  40b655:	00 
  40b656:	48 c7 84 24 00 01 00 	movq   $0x0,0x100(%rsp)
  40b65d:	00 00 00 00 00 
  40b662:	48 85 c0             	test   %rax,%rax
  40b665:	0f 84 9d 08 00 00    	je     40bf08 <_ZN3ros10NodeHandle9advertiseIN11sensor_msgs16CompressedImage_ISaIvEEEEENS_9PublisherERKSsjb+0x978>
  40b66b:	a8 01                	test   $0x1,%al
  40b66d:	48 89 84 24 00 01 00 	mov    %rax,0x100(%rsp)
  40b674:	00 
  40b675:	0f 84 95 06 00 00    	je     40bd10 <_ZN3ros10NodeHandle9advertiseIN11sensor_msgs16CompressedImage_ISaIvEEEEENS_9PublisherERKSsjb+0x780>
  40b67b:	48 8b 94 24 a8 00 00 	mov    0xa8(%rsp),%rdx
  40b682:	00 
  40b683:	48 89 94 24 08 01 00 	mov    %rdx,0x108(%rsp)
  40b68a:	00 
  40b68b:	48 8b 94 24 b0 00 00 	mov    0xb0(%rsp),%rdx
  40b692:	00 
  40b693:	48 89 94 24 10 01 00 	mov    %rdx,0x110(%rsp)
  40b69a:	00 
  40b69b:	48 8b 94 24 b8 00 00 	mov    0xb8(%rsp),%rdx
  40b6a2:	00 
  40b6a3:	48 89 94 24 18 01 00 	mov    %rdx,0x118(%rsp)
  40b6aa:	00 
  40b6ab:	a8 01                	test   $0x1,%al
  40b6ad:	48 89 84 24 e0 00 00 	mov    %rax,0xe0(%rsp)
  40b6b4:	00 
  40b6b5:	0f 84 2d 06 00 00    	je     40bce8 <_ZN3ros10NodeHandle9advertiseIN11sensor_msgs16CompressedImage_ISaIvEEEEENS_9PublisherERKSsjb+0x758>
  40b6bb:	48 8b 84 24 08 01 00 	mov    0x108(%rsp),%rax
  40b6c2:	00 
  40b6c3:	48 8d 9c 24 e0 00 00 	lea    0xe0(%rsp),%rbx
  40b6ca:	00 
  40b6cb:	48 89 84 24 e8 00 00 	mov    %rax,0xe8(%rsp)
  40b6d2:	00 
  40b6d3:	48 8b 84 24 10 01 00 	mov    0x110(%rsp),%rax
  40b6da:	00 
  40b6db:	48 89 84 24 f0 00 00 	mov    %rax,0xf0(%rsp)
  40b6e2:	00 
  40b6e3:	48 8b 84 24 18 01 00 	mov    0x118(%rsp),%rax
  40b6ea:	00 
  40b6eb:	48 89 84 24 f8 00 00 	mov    %rax,0xf8(%rsp)
  40b6f2:	00 
  40b6f3:	48 8b 44 24 38       	mov    0x38(%rsp),%rax
  40b6f8:	48 c7 84 24 00 01 00 	movq   $0x0,0x100(%rsp)
  40b6ff:	00 00 00 00 00 
  40b704:	48 85 c0             	test   %rax,%rax
  40b707:	0f 84 63 06 00 00    	je     40bd70 <_ZN3ros10NodeHandle9advertiseIN11sensor_msgs16CompressedImage_ISaIvEEEEENS_9PublisherERKSsjb+0x7e0>
  40b70d:	a8 01                	test   $0x1,%al
  40b70f:	48 89 84 24 00 01 00 	mov    %rax,0x100(%rsp)
  40b716:	00 
  40b717:	0f 84 93 07 00 00    	je     40beb0 <_ZN3ros10NodeHandle9advertiseIN11sensor_msgs16CompressedImage_ISaIvEEEEENS_9PublisherERKSsjb+0x920>
  40b71d:	48 8b 44 24 40       	mov    0x40(%rsp),%rax
  40b722:	48 89 84 24 08 01 00 	mov    %rax,0x108(%rsp)
  40b729:	00 
  40b72a:	48 8b 44 24 48       	mov    0x48(%rsp),%rax
  40b72f:	48 89 84 24 10 01 00 	mov    %rax,0x110(%rsp)
  40b736:	00 
  40b737:	48 8b 44 24 50       	mov    0x50(%rsp),%rax
  40b73c:	48 89 84 24 18 01 00 	mov    %rax,0x118(%rsp)
  40b743:	00 
  40b744:	48 c7 44 24 38 00 00 	movq   $0x0,0x38(%rsp)
  40b74b:	00 00 
  40b74d:	48 8b 84 24 e0 00 00 	mov    0xe0(%rsp),%rax
  40b754:	00 
  40b755:	48 85 c0             	test   %rax,%rax
  40b758:	0f 84 6a 06 00 00    	je     40bdc8 <_ZN3ros10NodeHandle9advertiseIN11sensor_msgs16CompressedImage_ISaIvEEEEENS_9PublisherERKSsjb+0x838>
  40b75e:	a8 01                	test   $0x1,%al
  40b760:	48 89 44 24 38       	mov    %rax,0x38(%rsp)
  40b765:	0f 84 25 07 00 00    	je     40be90 <_ZN3ros10NodeHandle9advertiseIN11sensor_msgs16CompressedImage_ISaIvEEEEENS_9PublisherERKSsjb+0x900>
  40b76b:	48 8b 84 24 e8 00 00 	mov    0xe8(%rsp),%rax
  40b772:	00 
  40b773:	48 89 44 24 40       	mov    %rax,0x40(%rsp)
  40b778:	48 8b 84 24 f0 00 00 	mov    0xf0(%rsp),%rax
  40b77f:	00 
  40b780:	48 89 44 24 48       	mov    %rax,0x48(%rsp)
  40b785:	48 8b 84 24 f8 00 00 	mov    0xf8(%rsp),%rax
  40b78c:	00 
  40b78d:	48 89 44 24 50       	mov    %rax,0x50(%rsp)
  40b792:	48 c7 84 24 e0 00 00 	movq   $0x0,0xe0(%rsp)
  40b799:	00 00 00 00 00 
  40b79e:	48 8b 84 24 00 01 00 	mov    0x100(%rsp),%rax
  40b7a5:	00 
  40b7a6:	48 85 c0             	test   %rax,%rax
  40b7a9:	74 14                	je     40b7bf <_ZN3ros10NodeHandle9advertiseIN11sensor_msgs16CompressedImage_ISaIvEEEEENS_9PublisherERKSsjb+0x22f>
  40b7ab:	a8 01                	test   $0x1,%al
  40b7ad:	0f 84 ad 03 00 00    	je     40bb60 <_ZN3ros10NodeHandle9advertiseIN11sensor_msgs16CompressedImage_ISaIvEEEEENS_9PublisherERKSsjb+0x5d0>
  40b7b3:	48 c7 84 24 00 01 00 	movq   $0x0,0x100(%rsp)
  40b7ba:	00 00 00 00 00 
  40b7bf:	48 8b 84 24 c0 00 00 	mov    0xc0(%rsp),%rax
  40b7c6:	00 
  40b7c7:	48 c7 84 24 40 01 00 	movq   $0x0,0x140(%rsp)
  40b7ce:	00 00 00 00 00 
  40b7d3:	48 8d 9c 24 c0 00 00 	lea    0xc0(%rsp),%rbx
  40b7da:	00 
  40b7db:	48 85 c0             	test   %rax,%rax
  40b7de:	0f 84 44 07 00 00    	je     40bf28 <_ZN3ros10NodeHandle9advertiseIN11sensor_msgs16CompressedImage_ISaIvEEEEENS_9PublisherERKSsjb+0x998>
  40b7e4:	a8 01                	test   $0x1,%al
  40b7e6:	48 89 84 24 40 01 00 	mov    %rax,0x140(%rsp)
  40b7ed:	00 
  40b7ee:	0f 84 cc 03 00 00    	je     40bbc0 <_ZN3ros10NodeHandle9advertiseIN11sensor_msgs16CompressedImage_ISaIvEEEEENS_9PublisherERKSsjb+0x630>
  40b7f4:	48 8b 94 24 c8 00 00 	mov    0xc8(%rsp),%rdx
  40b7fb:	00 
  40b7fc:	48 89 94 24 48 01 00 	mov    %rdx,0x148(%rsp)
  40b803:	00 
  40b804:	48 8b 94 24 d0 00 00 	mov    0xd0(%rsp),%rdx
  40b80b:	00 
  40b80c:	48 89 94 24 50 01 00 	mov    %rdx,0x150(%rsp)
  40b813:	00 
  40b814:	48 8b 94 24 d8 00 00 	mov    0xd8(%rsp),%rdx
  40b81b:	00 
  40b81c:	48 89 94 24 58 01 00 	mov    %rdx,0x158(%rsp)
  40b823:	00 
  40b824:	a8 01                	test   $0x1,%al
  40b826:	48 89 84 24 20 01 00 	mov    %rax,0x120(%rsp)
  40b82d:	00 
  40b82e:	0f 84 5c 03 00 00    	je     40bb90 <_ZN3ros10NodeHandle9advertiseIN11sensor_msgs16CompressedImage_ISaIvEEEEENS_9PublisherERKSsjb+0x600>
  40b834:	48 8b 84 24 48 01 00 	mov    0x148(%rsp),%rax
  40b83b:	00 
  40b83c:	4c 8d ac 24 20 01 00 	lea    0x120(%rsp),%r13
  40b843:	00 
  40b844:	48 89 84 24 28 01 00 	mov    %rax,0x128(%rsp)
  40b84b:	00 
  40b84c:	48 8b 84 24 50 01 00 	mov    0x150(%rsp),%rax
  40b853:	00 
  40b854:	48 89 84 24 30 01 00 	mov    %rax,0x130(%rsp)
  40b85b:	00 
  40b85c:	48 8b 84 24 58 01 00 	mov    0x158(%rsp),%rax
  40b863:	00 
  40b864:	48 89 84 24 38 01 00 	mov    %rax,0x138(%rsp)
  40b86b:	00 
  40b86c:	48 8b 44 24 58       	mov    0x58(%rsp),%rax
  40b871:	48 c7 84 24 40 01 00 	movq   $0x0,0x140(%rsp)
  40b878:	00 00 00 00 00 
  40b87d:	48 85 c0             	test   %rax,%rax
  40b880:	0f 84 8a 03 00 00    	je     40bc10 <_ZN3ros10NodeHandle9advertiseIN11sensor_msgs16CompressedImage_ISaIvEEEEENS_9PublisherERKSsjb+0x680>
  40b886:	a8 01                	test   $0x1,%al
  40b888:	48 89 84 24 40 01 00 	mov    %rax,0x140(%rsp)
  40b88f:	00 
  40b890:	0f 84 ca 05 00 00    	je     40be60 <_ZN3ros10NodeHandle9advertiseIN11sensor_msgs16CompressedImage_ISaIvEEEEENS_9PublisherERKSsjb+0x8d0>
  40b896:	48 8b 44 24 60       	mov    0x60(%rsp),%rax
  40b89b:	48 89 84 24 48 01 00 	mov    %rax,0x148(%rsp)
  40b8a2:	00 
  40b8a3:	48 8b 44 24 68       	mov    0x68(%rsp),%rax
  40b8a8:	48 89 84 24 50 01 00 	mov    %rax,0x150(%rsp)
  40b8af:	00 
  40b8b0:	48 8b 44 24 70       	mov    0x70(%rsp),%rax
  40b8b5:	48 89 84 24 58 01 00 	mov    %rax,0x158(%rsp)
  40b8bc:	00 
  40b8bd:	48 c7 44 24 58 00 00 	movq   $0x0,0x58(%rsp)
  40b8c4:	00 00 
  40b8c6:	48 8b 84 24 20 01 00 	mov    0x120(%rsp),%rax
  40b8cd:	00 
  40b8ce:	48 85 c0             	test   %rax,%rax
  40b8d1:	0f 84 99 03 00 00    	je     40bc70 <_ZN3ros10NodeHandle9advertiseIN11sensor_msgs16CompressedImage_ISaIvEEEEENS_9PublisherERKSsjb+0x6e0>
  40b8d7:	a8 01                	test   $0x1,%al
  40b8d9:	48 89 44 24 58       	mov    %rax,0x58(%rsp)
  40b8de:	0f 84 5c 05 00 00    	je     40be40 <_ZN3ros10NodeHandle9advertiseIN11sensor_msgs16CompressedImage_ISaIvEEEEENS_9PublisherERKSsjb+0x8b0>
  40b8e4:	48 8b 84 24 28 01 00 	mov    0x128(%rsp),%rax
  40b8eb:	00 
  40b8ec:	48 89 44 24 60       	mov    %rax,0x60(%rsp)
  40b8f1:	48 8b 84 24 30 01 00 	mov    0x130(%rsp),%rax
  40b8f8:	00 
  40b8f9:	48 89 44 24 68       	mov    %rax,0x68(%rsp)
  40b8fe:	48 8b 84 24 38 01 00 	mov    0x138(%rsp),%rax
  40b905:	00 
  40b906:	48 89 44 24 70       	mov    %rax,0x70(%rsp)
  40b90b:	48 c7 84 24 20 01 00 	movq   $0x0,0x120(%rsp)
  40b912:	00 00 00 00 00 
  40b917:	48 8b 84 24 40 01 00 	mov    0x140(%rsp),%rax
  40b91e:	00 
  40b91f:	48 85 c0             	test   %rax,%rax
  40b922:	74 14                	je     40b938 <_ZN3ros10NodeHandle9advertiseIN11sensor_msgs16CompressedImage_ISaIvEEEEENS_9PublisherERKSsjb+0x3a8>
  40b924:	a8 01                	test   $0x1,%al
  40b926:	0f 84 0c 02 00 00    	je     40bb38 <_ZN3ros10NodeHandle9advertiseIN11sensor_msgs16CompressedImage_ISaIvEEEEENS_9PublisherERKSsjb+0x5a8>
  40b92c:	48 c7 84 24 40 01 00 	movq   $0x0,0x140(%rsp)
  40b933:	00 00 00 00 00 
  40b938:	48 8d 7c 24 20       	lea    0x20(%rsp),%rdi
  40b93d:	ba 20 00 00 00       	mov    $0x20,%edx
  40b942:	be 98 25 41 00       	mov    $0x412598,%esi
  40b947:	e8 44 dc ff ff       	callq  409590 <_ZNSs6assignEPKcm@plt>
  40b94c:	48 8d 7c 24 28       	lea    0x28(%rsp),%rdi
  40b951:	ba 1b 00 00 00       	mov    $0x1b,%edx
  40b956:	be a1 2d 41 00       	mov    $0x412da1,%esi
  40b95b:	e8 30 dc ff ff       	callq  409590 <_ZNSs6assignEPKcm@plt>
  40b960:	48 8d 7c 24 30       	lea    0x30(%rsp),%rdi
  40b965:	ba dd 04 00 00       	mov    $0x4dd,%edx
  40b96a:	be c0 25 41 00       	mov    $0x4125c0,%esi
  40b96f:	e8 1c dc ff ff       	callq  409590 <_ZNSs6assignEPKcm@plt>
  40b974:	48 8b 84 24 a0 00 00 	mov    0xa0(%rsp),%rax
  40b97b:	00 
  40b97c:	c6 84 24 91 00 00 00 	movb   $0x1,0x91(%rsp)
  40b983:	01 
  40b984:	48 85 c0             	test   %rax,%rax
  40b987:	74 14                	je     40b99d <_ZN3ros10NodeHandle9advertiseIN11sensor_msgs16CompressedImage_ISaIvEEEEENS_9PublisherERKSsjb+0x40d>
  40b989:	a8 01                	test   $0x1,%al
  40b98b:	0f 84 7f 01 00 00    	je     40bb10 <_ZN3ros10NodeHandle9advertiseIN11sensor_msgs16CompressedImage_ISaIvEEEEENS_9PublisherERKSsjb+0x580>
  40b991:	48 c7 84 24 a0 00 00 	movq   $0x0,0xa0(%rsp)
  40b998:	00 00 00 00 00 
  40b99d:	48 8b 84 24 c0 00 00 	mov    0xc0(%rsp),%rax
  40b9a4:	00 
  40b9a5:	48 85 c0             	test   %rax,%rax
  40b9a8:	74 14                	je     40b9be <_ZN3ros10NodeHandle9advertiseIN11sensor_msgs16CompressedImage_ISaIvEEEEENS_9PublisherERKSsjb+0x42e>
  40b9aa:	a8 01                	test   $0x1,%al
  40b9ac:	0f 84 36 01 00 00    	je     40bae8 <_ZN3ros10NodeHandle9advertiseIN11sensor_msgs16CompressedImage_ISaIvEEEEENS_9PublisherERKSsjb+0x558>
  40b9b2:	48 c7 84 24 c0 00 00 	movq   $0x0,0xc0(%rsp)
  40b9b9:	00 00 00 00 00 
  40b9be:	48 8d 54 24 10       	lea    0x10(%rsp),%rdx
  40b9c3:	4c 89 fe             	mov    %r15,%rsi
  40b9c6:	48 89 ef             	mov    %rbp,%rdi
  40b9c9:	44 88 b4 24 90 00 00 	mov    %r14b,0x90(%rsp)
  40b9d0:	00 
  40b9d1:	e8 6a dd ff ff       	callq  409740 <_ZN3ros10NodeHandle9advertiseERNS_16AdvertiseOptionsE@plt>
  40b9d6:	48 8b 9c 24 88 00 00 	mov    0x88(%rsp),%rbx
  40b9dd:	00 
  40b9de:	48 85 db             	test   %rbx,%rbx
  40b9e1:	74 13                	je     40b9f6 <_ZN3ros10NodeHandle9advertiseIN11sensor_msgs16CompressedImage_ISaIvEEEEENS_9PublisherERKSsjb+0x466>
  40b9e3:	b8 ff ff ff ff       	mov    $0xffffffff,%eax
  40b9e8:	f0 0f c1 43 08       	lock xadd %eax,0x8(%rbx)
  40b9ed:	83 f8 01             	cmp    $0x1,%eax
  40b9f0:	0f 84 e2 04 00 00    	je     40bed8 <_ZN3ros10NodeHandle9advertiseIN11sensor_msgs16CompressedImage_ISaIvEEEEENS_9PublisherERKSsjb+0x948>
  40b9f6:	48 8b 44 24 58       	mov    0x58(%rsp),%rax
  40b9fb:	48 85 c0             	test   %rax,%rax
  40b9fe:	74 11                	je     40ba11 <_ZN3ros10NodeHandle9advertiseIN11sensor_msgs16CompressedImage_ISaIvEEEEENS_9PublisherERKSsjb+0x481>
  40ba00:	a8 01                	test   $0x1,%al
  40ba02:	0f 84 b8 00 00 00    	je     40bac0 <_ZN3ros10NodeHandle9advertiseIN11sensor_msgs16CompressedImage_ISaIvEEEEENS_9PublisherERKSsjb+0x530>
  40ba08:	48 c7 44 24 58 00 00 	movq   $0x0,0x58(%rsp)
  40ba0f:	00 00 
  40ba11:	48 8b 44 24 38       	mov    0x38(%rsp),%rax
  40ba16:	48 85 c0             	test   %rax,%rax
  40ba19:	74 0d                	je     40ba28 <_ZN3ros10NodeHandle9advertiseIN11sensor_msgs16CompressedImage_ISaIvEEEEENS_9PublisherERKSsjb+0x498>
  40ba1b:	a8 01                	test   $0x1,%al
  40ba1d:	74 79                	je     40ba98 <_ZN3ros10NodeHandle9advertiseIN11sensor_msgs16CompressedImage_ISaIvEEEEENS_9PublisherERKSsjb+0x508>
  40ba1f:	48 c7 44 24 38 00 00 	movq   $0x0,0x38(%rsp)
  40ba26:	00 00 
  40ba28:	48 8b 44 24 30       	mov    0x30(%rsp),%rax
  40ba2d:	48 8d 78 e8          	lea    -0x18(%rax),%rdi
  40ba31:	48 81 ff 00 77 61 00 	cmp    $0x617700,%rdi
  40ba38:	0f 85 33 05 00 00    	jne    40bf71 <_ZN3ros10NodeHandle9advertiseIN11sensor_msgs16CompressedImage_ISaIvEEEEENS_9PublisherERKSsjb+0x9e1>
  40ba3e:	48 8b 44 24 28       	mov    0x28(%rsp),%rax
  40ba43:	48 8d 78 e8          	lea    -0x18(%rax),%rdi
  40ba47:	48 81 ff 00 77 61 00 	cmp    $0x617700,%rdi
  40ba4e:	0f 85 ed 04 00 00    	jne    40bf41 <_ZN3ros10NodeHandle9advertiseIN11sensor_msgs16CompressedImage_ISaIvEEEEENS_9PublisherERKSsjb+0x9b1>
  40ba54:	48 8b 44 24 20       	mov    0x20(%rsp),%rax
  40ba59:	48 8d 78 e8          	lea    -0x18(%rax),%rdi
  40ba5d:	48 81 ff 00 77 61 00 	cmp    $0x617700,%rdi
  40ba64:	0f 85 37 05 00 00    	jne    40bfa1 <_ZN3ros10NodeHandle9advertiseIN11sensor_msgs16CompressedImage_ISaIvEEEEENS_9PublisherERKSsjb+0xa11>
  40ba6a:	48 8b 44 24 10       	mov    0x10(%rsp),%rax
  40ba6f:	48 8d 78 e8          	lea    -0x18(%rax),%rdi
  40ba73:	48 81 ff 00 77 61 00 	cmp    $0x617700,%rdi
  40ba7a:	0f 85 51 05 00 00    	jne    40bfd1 <_ZN3ros10NodeHandle9advertiseIN11sensor_msgs16CompressedImage_ISaIvEEEEENS_9PublisherERKSsjb+0xa41>
  40ba80:	48 81 c4 78 01 00 00 	add    $0x178,%rsp
  40ba87:	48 89 e8             	mov    %rbp,%rax
  40ba8a:	5b                   	pop    %rbx
  40ba8b:	5d                   	pop    %rbp
  40ba8c:	41 5c                	pop    %r12
  40ba8e:	41 5d                	pop    %r13
  40ba90:	41 5e                	pop    %r14
  40ba92:	41 5f                	pop    %r15
  40ba94:	c3                   	retq   
  40ba95:	0f 1f 00             	nopl   (%rax)
  40ba98:	48 83 e0 fe          	and    $0xfffffffffffffffe,%rax
  40ba9c:	48 8b 00             	mov    (%rax),%rax
  40ba9f:	48 85 c0             	test   %rax,%rax
  40baa2:	0f 84 77 ff ff ff    	je     40ba1f <_ZN3ros10NodeHandle9advertiseIN11sensor_msgs16CompressedImage_ISaIvEEEEENS_9PublisherERKSsjb+0x48f>
  40baa8:	48 8d 7c 24 40       	lea    0x40(%rsp),%rdi
  40baad:	ba 02 00 00 00       	mov    $0x2,%edx
  40bab2:	48 89 fe             	mov    %rdi,%rsi
  40bab5:	ff d0                	callq  *%rax
  40bab7:	e9 63 ff ff ff       	jmpq   40ba1f <_ZN3ros10NodeHandle9advertiseIN11sensor_msgs16CompressedImage_ISaIvEEEEENS_9PublisherERKSsjb+0x48f>
  40babc:	0f 1f 40 00          	nopl   0x0(%rax)
  40bac0:	48 83 e0 fe          	and    $0xfffffffffffffffe,%rax
  40bac4:	48 8b 00             	mov    (%rax),%rax
  40bac7:	48 85 c0             	test   %rax,%rax
  40baca:	0f 84 38 ff ff ff    	je     40ba08 <_ZN3ros10NodeHandle9advertiseIN11sensor_msgs16CompressedImage_ISaIvEEEEENS_9PublisherERKSsjb+0x478>
  40bad0:	48 8d 7c 24 60       	lea    0x60(%rsp),%rdi
  40bad5:	ba 02 00 00 00       	mov    $0x2,%edx
  40bada:	48 89 fe             	mov    %rdi,%rsi
  40badd:	ff d0                	callq  *%rax
  40badf:	e9 24 ff ff ff       	jmpq   40ba08 <_ZN3ros10NodeHandle9advertiseIN11sensor_msgs16CompressedImage_ISaIvEEEEENS_9PublisherERKSsjb+0x478>
  40bae4:	0f 1f 40 00          	nopl   0x0(%rax)
  40bae8:	48 83 e0 fe          	and    $0xfffffffffffffffe,%rax
  40baec:	48 8b 00             	mov    (%rax),%rax
  40baef:	48 85 c0             	test   %rax,%rax
  40baf2:	0f 84 ba fe ff ff    	je     40b9b2 <_ZN3ros10NodeHandle9advertiseIN11sensor_msgs16CompressedImage_ISaIvEEEEENS_9PublisherERKSsjb+0x422>
  40baf8:	48 8d 7b 08          	lea    0x8(%rbx),%rdi
  40bafc:	ba 02 00 00 00       	mov    $0x2,%edx
  40bb01:	48 89 fe             	mov    %rdi,%rsi
  40bb04:	ff d0                	callq  *%rax
  40bb06:	e9 a7 fe ff ff       	jmpq   40b9b2 <_ZN3ros10NodeHandle9advertiseIN11sensor_msgs16CompressedImage_ISaIvEEEEENS_9PublisherERKSsjb+0x422>
  40bb0b:	0f 1f 44 00 00       	nopl   0x0(%rax,%rax,1)
  40bb10:	48 83 e0 fe          	and    $0xfffffffffffffffe,%rax
  40bb14:	48 8b 00             	mov    (%rax),%rax
  40bb17:	48 85 c0             	test   %rax,%rax
  40bb1a:	0f 84 71 fe ff ff    	je     40b991 <_ZN3ros10NodeHandle9advertiseIN11sensor_msgs16CompressedImage_ISaIvEEEEENS_9PublisherERKSsjb+0x401>
  40bb20:	49 8d 7c 24 08       	lea    0x8(%r12),%rdi
  40bb25:	ba 02 00 00 00       	mov    $0x2,%edx
  40bb2a:	48 89 fe             	mov    %rdi,%rsi
  40bb2d:	ff d0                	callq  *%rax
  40bb2f:	e9 5d fe ff ff       	jmpq   40b991 <_ZN3ros10NodeHandle9advertiseIN11sensor_msgs16CompressedImage_ISaIvEEEEENS_9PublisherERKSsjb+0x401>
  40bb34:	0f 1f 40 00          	nopl   0x0(%rax)
  40bb38:	48 83 e0 fe          	and    $0xfffffffffffffffe,%rax
  40bb3c:	48 8b 00             	mov    (%rax),%rax
  40bb3f:	48 85 c0             	test   %rax,%rax
  40bb42:	0f 84 e4 fd ff ff    	je     40b92c <_ZN3ros10NodeHandle9advertiseIN11sensor_msgs16CompressedImage_ISaIvEEEEENS_9PublisherERKSsjb+0x39c>
  40bb48:	48 8d b4 24 48 01 00 	lea    0x148(%rsp),%rsi
  40bb4f:	00 
  40bb50:	ba 02 00 00 00       	mov    $0x2,%edx
  40bb55:	48 89 f7             	mov    %rsi,%rdi
  40bb58:	ff d0                	callq  *%rax
  40bb5a:	e9 cd fd ff ff       	jmpq   40b92c <_ZN3ros10NodeHandle9advertiseIN11sensor_msgs16CompressedImage_ISaIvEEEEENS_9PublisherERKSsjb+0x39c>
  40bb5f:	90                   	nop
  40bb60:	48 83 e0 fe          	and    $0xfffffffffffffffe,%rax
  40bb64:	48 8b 00             	mov    (%rax),%rax
  40bb67:	48 85 c0             	test   %rax,%rax
  40bb6a:	0f 84 43 fc ff ff    	je     40b7b3 <_ZN3ros10NodeHandle9advertiseIN11sensor_msgs16CompressedImage_ISaIvEEEEENS_9PublisherERKSsjb+0x223>
  40bb70:	48 8d b4 24 08 01 00 	lea    0x108(%rsp),%rsi
  40bb77:	00 
  40bb78:	48 8d 9c 24 c0 00 00 	lea    0xc0(%rsp),%rbx
  40bb7f:	00 
  40bb80:	ba 02 00 00 00       	mov    $0x2,%edx
  40bb85:	48 89 f7             	mov    %rsi,%rdi
  40bb88:	ff d0                	callq  *%rax
  40bb8a:	e9 24 fc ff ff       	jmpq   40b7b3 <_ZN3ros10NodeHandle9advertiseIN11sensor_msgs16CompressedImage_ISaIvEEEEENS_9PublisherERKSsjb+0x223>
  40bb8f:	90                   	nop
  40bb90:	48 8d 94 24 40 01 00 	lea    0x140(%rsp),%rdx
  40bb97:	00 
  40bb98:	4c 8d ac 24 20 01 00 	lea    0x120(%rsp),%r13
  40bb9f:	00 
  40bba0:	48 83 e0 fe          	and    $0xfffffffffffffffe,%rax
  40bba4:	48 89 d7             	mov    %rdx,%rdi
  40bba7:	48 89 54 24 08       	mov    %rdx,0x8(%rsp)
  40bbac:	49 8d 75 08          	lea    0x8(%r13),%rsi
  40bbb0:	48 83 c7 08          	add    $0x8,%rdi
  40bbb4:	ba 01 00 00 00       	mov    $0x1,%edx
  40bbb9:	ff 10                	callq  *(%rax)
  40bbbb:	e9 ac fc ff ff       	jmpq   40b86c <_ZN3ros10NodeHandle9advertiseIN11sensor_msgs16CompressedImage_ISaIvEEEEENS_9PublisherERKSsjb+0x2dc>
  40bbc0:	48 83 e0 fe          	and    $0xfffffffffffffffe,%rax
  40bbc4:	48 8d 7b 08          	lea    0x8(%rbx),%rdi
  40bbc8:	31 d2                	xor    %edx,%edx
  40bbca:	48 8d b4 24 48 01 00 	lea    0x148(%rsp),%rsi
  40bbd1:	00 
  40bbd2:	ff 10                	callq  *(%rax)
  40bbd4:	48 8b 84 24 40 01 00 	mov    0x140(%rsp),%rax
  40bbdb:	00 
  40bbdc:	48 c7 84 24 20 01 00 	movq   $0x0,0x120(%rsp)
  40bbe3:	00 00 00 00 00 
  40bbe8:	48 85 c0             	test   %rax,%rax
  40bbeb:	0f 85 33 fc ff ff    	jne    40b824 <_ZN3ros10NodeHandle9advertiseIN11sensor_msgs16CompressedImage_ISaIvEEEEENS_9PublisherERKSsjb+0x294>
  40bbf1:	4c 8d ac 24 20 01 00 	lea    0x120(%rsp),%r13
  40bbf8:	00 
  40bbf9:	0f 1f 80 00 00 00 00 	nopl   0x0(%rax)
  40bc00:	48 8b 44 24 58       	mov    0x58(%rsp),%rax
  40bc05:	48 85 c0             	test   %rax,%rax
  40bc08:	0f 85 78 fc ff ff    	jne    40b886 <_ZN3ros10NodeHandle9advertiseIN11sensor_msgs16CompressedImage_ISaIvEEEEENS_9PublisherERKSsjb+0x2f6>
  40bc0e:	66 90                	xchg   %ax,%ax
  40bc10:	48 8b 84 24 40 01 00 	mov    0x140(%rsp),%rax
  40bc17:	00 
  40bc18:	48 85 c0             	test   %rax,%rax
  40bc1b:	0f 84 a5 fc ff ff    	je     40b8c6 <_ZN3ros10NodeHandle9advertiseIN11sensor_msgs16CompressedImage_ISaIvEEEEENS_9PublisherERKSsjb+0x336>
  40bc21:	a8 01                	test   $0x1,%al
  40bc23:	75 2a                	jne    40bc4f <_ZN3ros10NodeHandle9advertiseIN11sensor_msgs16CompressedImage_ISaIvEEEEENS_9PublisherERKSsjb+0x6bf>
  40bc25:	48 83 e0 fe          	and    $0xfffffffffffffffe,%rax
  40bc29:	48 8b 00             	mov    (%rax),%rax
  40bc2c:	48 85 c0             	test   %rax,%rax
  40bc2f:	74 1e                	je     40bc4f <_ZN3ros10NodeHandle9advertiseIN11sensor_msgs16CompressedImage_ISaIvEEEEENS_9PublisherERKSsjb+0x6bf>
  40bc31:	48 8d 94 24 40 01 00 	lea    0x140(%rsp),%rdx
  40bc38:	00 
  40bc39:	48 89 d7             	mov    %rdx,%rdi
  40bc3c:	48 89 54 24 08       	mov    %rdx,0x8(%rsp)
  40bc41:	ba 02 00 00 00       	mov    $0x2,%edx
  40bc46:	48 83 c7 08          	add    $0x8,%rdi
  40bc4a:	48 89 fe             	mov    %rdi,%rsi
  40bc4d:	ff d0                	callq  *%rax
  40bc4f:	48 8b 84 24 20 01 00 	mov    0x120(%rsp),%rax
  40bc56:	00 
  40bc57:	48 c7 84 24 40 01 00 	movq   $0x0,0x140(%rsp)
  40bc5e:	00 00 00 00 00 
  40bc63:	48 85 c0             	test   %rax,%rax
  40bc66:	0f 85 6b fc ff ff    	jne    40b8d7 <_ZN3ros10NodeHandle9advertiseIN11sensor_msgs16CompressedImage_ISaIvEEEEENS_9PublisherERKSsjb+0x347>
  40bc6c:	0f 1f 40 00          	nopl   0x0(%rax)
  40bc70:	48 8b 44 24 58       	mov    0x58(%rsp),%rax
  40bc75:	48 85 c0             	test   %rax,%rax
  40bc78:	0f 84 99 fc ff ff    	je     40b917 <_ZN3ros10NodeHandle9advertiseIN11sensor_msgs16CompressedImage_ISaIvEEEEENS_9PublisherERKSsjb+0x387>
  40bc7e:	31 d2                	xor    %edx,%edx
  40bc80:	a8 01                	test   $0x1,%al
  40bc82:	75 20                	jne    40bca4 <_ZN3ros10NodeHandle9advertiseIN11sensor_msgs16CompressedImage_ISaIvEEEEENS_9PublisherERKSsjb+0x714>
  40bc84:	48 83 e0 fe          	and    $0xfffffffffffffffe,%rax
  40bc88:	48 8b 00             	mov    (%rax),%rax
  40bc8b:	48 85 c0             	test   %rax,%rax
  40bc8e:	74 14                	je     40bca4 <_ZN3ros10NodeHandle9advertiseIN11sensor_msgs16CompressedImage_ISaIvEEEEENS_9PublisherERKSsjb+0x714>
  40bc90:	48 8d 7c 24 60       	lea    0x60(%rsp),%rdi
  40bc95:	b2 02                	mov    $0x2,%dl
  40bc97:	48 89 fe             	mov    %rdi,%rsi
  40bc9a:	ff d0                	callq  *%rax
  40bc9c:	48 8b 94 24 20 01 00 	mov    0x120(%rsp),%rdx
  40bca3:	00 
  40bca4:	48 85 d2             	test   %rdx,%rdx
  40bca7:	48 c7 44 24 58 00 00 	movq   $0x0,0x58(%rsp)
  40bcae:	00 00 
  40bcb0:	0f 84 61 fc ff ff    	je     40b917 <_ZN3ros10NodeHandle9advertiseIN11sensor_msgs16CompressedImage_ISaIvEEEEENS_9PublisherERKSsjb+0x387>
  40bcb6:	f6 c2 01             	test   $0x1,%dl
  40bcb9:	0f 85 4c fc ff ff    	jne    40b90b <_ZN3ros10NodeHandle9advertiseIN11sensor_msgs16CompressedImage_ISaIvEEEEENS_9PublisherERKSsjb+0x37b>
  40bcbf:	48 83 e2 fe          	and    $0xfffffffffffffffe,%rdx
  40bcc3:	48 8b 02             	mov    (%rdx),%rax
  40bcc6:	48 85 c0             	test   %rax,%rax
  40bcc9:	0f 84 3c fc ff ff    	je     40b90b <_ZN3ros10NodeHandle9advertiseIN11sensor_msgs16CompressedImage_ISaIvEEEEENS_9PublisherERKSsjb+0x37b>
  40bccf:	49 8d 7d 08          	lea    0x8(%r13),%rdi
  40bcd3:	ba 02 00 00 00       	mov    $0x2,%edx
  40bcd8:	48 89 fe             	mov    %rdi,%rsi
  40bcdb:	ff d0                	callq  *%rax
  40bcdd:	e9 29 fc ff ff       	jmpq   40b90b <_ZN3ros10NodeHandle9advertiseIN11sensor_msgs16CompressedImage_ISaIvEEEEENS_9PublisherERKSsjb+0x37b>
  40bce2:	66 0f 1f 44 00 00    	nopw   0x0(%rax,%rax,1)
  40bce8:	48 8d 9c 24 e0 00 00 	lea    0xe0(%rsp),%rbx
  40bcef:	00 
  40bcf0:	4c 8d ac 24 00 01 00 	lea    0x100(%rsp),%r13
  40bcf7:	00 
  40bcf8:	48 83 e0 fe          	and    $0xfffffffffffffffe,%rax
  40bcfc:	ba 01 00 00 00       	mov    $0x1,%edx
  40bd01:	48 8d 73 08          	lea    0x8(%rbx),%rsi
  40bd05:	49 8d 7d 08          	lea    0x8(%r13),%rdi
  40bd09:	ff 10                	callq  *(%rax)
  40bd0b:	e9 e3 f9 ff ff       	jmpq   40b6f3 <_ZN3ros10NodeHandle9advertiseIN11sensor_msgs16CompressedImage_ISaIvEEEEENS_9PublisherERKSsjb+0x163>
  40bd10:	48 83 e0 fe          	and    $0xfffffffffffffffe,%rax
  40bd14:	49 8d 7c 24 08       	lea    0x8(%r12),%rdi
  40bd19:	48 8d 9c 24 c0 00 00 	lea    0xc0(%rsp),%rbx
  40bd20:	00 
  40bd21:	31 d2                	xor    %edx,%edx
  40bd23:	48 8d b4 24 08 01 00 	lea    0x108(%rsp),%rsi
  40bd2a:	00 
  40bd2b:	ff 10                	callq  *(%rax)
  40bd2d:	48 8b 84 24 00 01 00 	mov    0x100(%rsp),%rax
  40bd34:	00 
  40bd35:	48 c7 84 24 e0 00 00 	movq   $0x0,0xe0(%rsp)
  40bd3c:	00 00 00 00 00 
  40bd41:	48 85 c0             	test   %rax,%rax
  40bd44:	0f 85 61 f9 ff ff    	jne    40b6ab <_ZN3ros10NodeHandle9advertiseIN11sensor_msgs16CompressedImage_ISaIvEEEEENS_9PublisherERKSsjb+0x11b>
  40bd4a:	48 8d 9c 24 e0 00 00 	lea    0xe0(%rsp),%rbx
  40bd51:	00 
  40bd52:	66 0f 1f 44 00 00    	nopw   0x0(%rax,%rax,1)
  40bd58:	48 8b 44 24 38       	mov    0x38(%rsp),%rax
  40bd5d:	48 85 c0             	test   %rax,%rax
  40bd60:	0f 85 a7 f9 ff ff    	jne    40b70d <_ZN3ros10NodeHandle9advertiseIN11sensor_msgs16CompressedImage_ISaIvEEEEENS_9PublisherERKSsjb+0x17d>
  40bd66:	66 2e 0f 1f 84 00 00 	nopw   %cs:0x0(%rax,%rax,1)
  40bd6d:	00 00 00 
  40bd70:	48 8b 84 24 00 01 00 	mov    0x100(%rsp),%rax
  40bd77:	00 
  40bd78:	48 85 c0             	test   %rax,%rax
  40bd7b:	0f 84 cc f9 ff ff    	je     40b74d <_ZN3ros10NodeHandle9advertiseIN11sensor_msgs16CompressedImage_ISaIvEEEEENS_9PublisherERKSsjb+0x1bd>
  40bd81:	a8 01                	test   $0x1,%al
  40bd83:	75 22                	jne    40bda7 <_ZN3ros10NodeHandle9advertiseIN11sensor_msgs16CompressedImage_ISaIvEEEEENS_9PublisherERKSsjb+0x817>
  40bd85:	48 83 e0 fe          	and    $0xfffffffffffffffe,%rax
  40bd89:	48 8b 00             	mov    (%rax),%rax
  40bd8c:	48 85 c0             	test   %rax,%rax
  40bd8f:	74 16                	je     40bda7 <_ZN3ros10NodeHandle9advertiseIN11sensor_msgs16CompressedImage_ISaIvEEEEENS_9PublisherERKSsjb+0x817>
  40bd91:	4c 8d ac 24 00 01 00 	lea    0x100(%rsp),%r13
  40bd98:	00 
  40bd99:	ba 02 00 00 00       	mov    $0x2,%edx
  40bd9e:	49 8d 7d 08          	lea    0x8(%r13),%rdi
  40bda2:	48 89 fe             	mov    %rdi,%rsi
  40bda5:	ff d0                	callq  *%rax
  40bda7:	48 8b 84 24 e0 00 00 	mov    0xe0(%rsp),%rax
  40bdae:	00 
  40bdaf:	48 c7 84 24 00 01 00 	movq   $0x0,0x100(%rsp)
  40bdb6:	00 00 00 00 00 
  40bdbb:	48 85 c0             	test   %rax,%rax
  40bdbe:	0f 85 9a f9 ff ff    	jne    40b75e <_ZN3ros10NodeHandle9advertiseIN11sensor_msgs16CompressedImage_ISaIvEEEEENS_9PublisherERKSsjb+0x1ce>
  40bdc4:	0f 1f 40 00          	nopl   0x0(%rax)
  40bdc8:	48 8b 44 24 38       	mov    0x38(%rsp),%rax
  40bdcd:	48 85 c0             	test   %rax,%rax
  40bdd0:	0f 84 c8 f9 ff ff    	je     40b79e <_ZN3ros10NodeHandle9advertiseIN11sensor_msgs16CompressedImage_ISaIvEEEEENS_9PublisherERKSsjb+0x20e>
  40bdd6:	31 d2                	xor    %edx,%edx
  40bdd8:	a8 01                	test   $0x1,%al
  40bdda:	75 20                	jne    40bdfc <_ZN3ros10NodeHandle9advertiseIN11sensor_msgs16CompressedImage_ISaIvEEEEENS_9PublisherERKSsjb+0x86c>
  40bddc:	48 83 e0 fe          	and    $0xfffffffffffffffe,%rax
  40bde0:	48 8b 00             	mov    (%rax),%rax
  40bde3:	48 85 c0             	test   %rax,%rax
  40bde6:	74 14                	je     40bdfc <_ZN3ros10NodeHandle9advertiseIN11sensor_msgs16CompressedImage_ISaIvEEEEENS_9PublisherERKSsjb+0x86c>
  40bde8:	48 8d 7c 24 40       	lea    0x40(%rsp),%rdi
  40bded:	b2 02                	mov    $0x2,%dl
  40bdef:	48 89 fe             	mov    %rdi,%rsi
  40bdf2:	ff d0                	callq  *%rax
  40bdf4:	48 8b 94 24 e0 00 00 	mov    0xe0(%rsp),%rdx
  40bdfb:	00 
  40bdfc:	48 85 d2             	test   %rdx,%rdx
  40bdff:	48 c7 44 24 38 00 00 	movq   $0x0,0x38(%rsp)
  40be06:	00 00 
  40be08:	0f 84 90 f9 ff ff    	je     40b79e <_ZN3ros10NodeHandle9advertiseIN11sensor_msgs16CompressedImage_ISaIvEEEEENS_9PublisherERKSsjb+0x20e>
  40be0e:	f6 c2 01             	test   $0x1,%dl
  40be11:	0f 85 7b f9 ff ff    	jne    40b792 <_ZN3ros10NodeHandle9advertiseIN11sensor_msgs16CompressedImage_ISaIvEEEEENS_9PublisherERKSsjb+0x202>
  40be17:	48 83 e2 fe          	and    $0xfffffffffffffffe,%rdx
  40be1b:	48 8b 02             	mov    (%rdx),%rax
  40be1e:	48 85 c0             	test   %rax,%rax
  40be21:	0f 84 6b f9 ff ff    	je     40b792 <_ZN3ros10NodeHandle9advertiseIN11sensor_msgs16CompressedImage_ISaIvEEEEENS_9PublisherERKSsjb+0x202>
  40be27:	48 8d 7b 08          	lea    0x8(%rbx),%rdi
  40be2b:	ba 02 00 00 00       	mov    $0x2,%edx
  40be30:	48 89 fe             	mov    %rdi,%rsi
  40be33:	ff d0                	callq  *%rax
  40be35:	e9 58 f9 ff ff       	jmpq   40b792 <_ZN3ros10NodeHandle9advertiseIN11sensor_msgs16CompressedImage_ISaIvEEEEENS_9PublisherERKSsjb+0x202>
  40be3a:	66 0f 1f 44 00 00    	nopw   0x0(%rax,%rax,1)
  40be40:	48 83 e0 fe          	and    $0xfffffffffffffffe,%rax
  40be44:	48 8d 74 24 60       	lea    0x60(%rsp),%rsi
  40be49:	49 8d 7d 08          	lea    0x8(%r13),%rdi
  40be4d:	ba 01 00 00 00       	mov    $0x1,%edx
  40be52:	ff 10                	callq  *(%rax)
  40be54:	e9 b2 fa ff ff       	jmpq   40b90b <_ZN3ros10NodeHandle9advertiseIN11sensor_msgs16CompressedImage_ISaIvEEEEENS_9PublisherERKSsjb+0x37b>
  40be59:	0f 1f 80 00 00 00 00 	nopl   0x0(%rax)
  40be60:	48 8d 94 24 40 01 00 	lea    0x140(%rsp),%rdx
  40be67:	00 
  40be68:	48 83 e0 fe          	and    $0xfffffffffffffffe,%rax
  40be6c:	48 8d 7c 24 60       	lea    0x60(%rsp),%rdi
  40be71:	48 89 d6             	mov    %rdx,%rsi
  40be74:	48 89 54 24 08       	mov    %rdx,0x8(%rsp)
  40be79:	ba 01 00 00 00       	mov    $0x1,%edx
  40be7e:	48 83 c6 08          	add    $0x8,%rsi
  40be82:	ff 10                	callq  *(%rax)
  40be84:	e9 34 fa ff ff       	jmpq   40b8bd <_ZN3ros10NodeHandle9advertiseIN11sensor_msgs16CompressedImage_ISaIvEEEEENS_9PublisherERKSsjb+0x32d>
  40be89:	0f 1f 80 00 00 00 00 	nopl   0x0(%rax)
  40be90:	48 83 e0 fe          	and    $0xfffffffffffffffe,%rax
  40be94:	48 8d 74 24 40       	lea    0x40(%rsp),%rsi
  40be99:	48 8d 7b 08          	lea    0x8(%rbx),%rdi
  40be9d:	ba 01 00 00 00       	mov    $0x1,%edx
  40bea2:	ff 10                	callq  *(%rax)
  40bea4:	e9 e9 f8 ff ff       	jmpq   40b792 <_ZN3ros10NodeHandle9advertiseIN11sensor_msgs16CompressedImage_ISaIvEEEEENS_9PublisherERKSsjb+0x202>
  40bea9:	0f 1f 80 00 00 00 00 	nopl   0x0(%rax)
  40beb0:	4c 8d ac 24 00 01 00 	lea    0x100(%rsp),%r13
  40beb7:	00 
  40beb8:	48 83 e0 fe          	and    $0xfffffffffffffffe,%rax
  40bebc:	48 8d 7c 24 40       	lea    0x40(%rsp),%rdi
  40bec1:	ba 01 00 00 00       	mov    $0x1,%edx
  40bec6:	49 8d 75 08          	lea    0x8(%r13),%rsi
  40beca:	ff 10                	callq  *(%rax)
  40becc:	e9 73 f8 ff ff       	jmpq   40b744 <_ZN3ros10NodeHandle9advertiseIN11sensor_msgs16CompressedImage_ISaIvEEEEENS_9PublisherERKSsjb+0x1b4>
  40bed1:	0f 1f 80 00 00 00 00 	nopl   0x0(%rax)
  40bed8:	48 8b 03             	mov    (%rbx),%rax
  40bedb:	48 89 df             	mov    %rbx,%rdi
  40bede:	ff 50 10             	callq  *0x10(%rax)
  40bee1:	b8 ff ff ff ff       	mov    $0xffffffff,%eax
  40bee6:	f0 0f c1 43 0c       	lock xadd %eax,0xc(%rbx)
  40beeb:	83 f8 01             	cmp    $0x1,%eax
  40beee:	0f 85 02 fb ff ff    	jne    40b9f6 <_ZN3ros10NodeHandle9advertiseIN11sensor_msgs16CompressedImage_ISaIvEEEEENS_9PublisherERKSsjb+0x466>
  40bef4:	48 8b 03             	mov    (%rbx),%rax
  40bef7:	48 89 df             	mov    %rbx,%rdi
  40befa:	ff 50 18             	callq  *0x18(%rax)
  40befd:	e9 f4 fa ff ff       	jmpq   40b9f6 <_ZN3ros10NodeHandle9advertiseIN11sensor_msgs16CompressedImage_ISaIvEEEEENS_9PublisherERKSsjb+0x466>
  40bf02:	66 0f 1f 44 00 00    	nopw   0x0(%rax,%rax,1)
  40bf08:	48 c7 84 24 e0 00 00 	movq   $0x0,0xe0(%rsp)
  40bf0f:	00 00 00 00 00 
  40bf14:	48 8d 9c 24 e0 00 00 	lea    0xe0(%rsp),%rbx
  40bf1b:	00 
  40bf1c:	e9 37 fe ff ff       	jmpq   40bd58 <_ZN3ros10NodeHandle9advertiseIN11sensor_msgs16CompressedImage_ISaIvEEEEENS_9PublisherERKSsjb+0x7c8>
  40bf21:	0f 1f 80 00 00 00 00 	nopl   0x0(%rax)
  40bf28:	48 c7 84 24 20 01 00 	movq   $0x0,0x120(%rsp)
  40bf2f:	00 00 00 00 00 
  40bf34:	4c 8d ac 24 20 01 00 	lea    0x120(%rsp),%r13
  40bf3b:	00 
  40bf3c:	e9 bf fc ff ff       	jmpq   40bc00 <_ZN3ros10NodeHandle9advertiseIN11sensor_msgs16CompressedImage_ISaIvEEEEENS_9PublisherERKSsjb+0x670>
  40bf41:	ba 80 92 40 00       	mov    $0x409280,%edx
  40bf46:	48 85 d2             	test   %rdx,%rdx
  40bf49:	0f 84 8d 02 00 00    	je     40c1dc <_ZN3ros10NodeHandle9advertiseIN11sensor_msgs16CompressedImage_ISaIvEEEEENS_9PublisherERKSsjb+0xc4c>
  40bf4f:	83 ca ff             	or     $0xffffffff,%edx
  40bf52:	f0 0f c1 50 f8       	lock xadd %edx,-0x8(%rax)
  40bf57:	85 d2                	test   %edx,%edx
  40bf59:	0f 8f f5 fa ff ff    	jg     40ba54 <_ZN3ros10NodeHandle9advertiseIN11sensor_msgs16CompressedImage_ISaIvEEEEENS_9PublisherERKSsjb+0x4c4>
  40bf5f:	48 8d b4 24 6d 01 00 	lea    0x16d(%rsp),%rsi
  40bf66:	00 
  40bf67:	e8 24 d5 ff ff       	callq  409490 <_ZNSs4_Rep10_M_destroyERKSaIcE@plt>
  40bf6c:	e9 e3 fa ff ff       	jmpq   40ba54 <_ZN3ros10NodeHandle9advertiseIN11sensor_msgs16CompressedImage_ISaIvEEEEENS_9PublisherERKSsjb+0x4c4>
  40bf71:	ba 80 92 40 00       	mov    $0x409280,%edx
  40bf76:	48 85 d2             	test   %rdx,%rdx
  40bf79:	0f 84 4f 02 00 00    	je     40c1ce <_ZN3ros10NodeHandle9advertiseIN11sensor_msgs16CompressedImage_ISaIvEEEEENS_9PublisherERKSsjb+0xc3e>
  40bf7f:	83 ca ff             	or     $0xffffffff,%edx
  40bf82:	f0 0f c1 50 f8       	lock xadd %edx,-0x8(%rax)
  40bf87:	85 d2                	test   %edx,%edx
  40bf89:	0f 8f af fa ff ff    	jg     40ba3e <_ZN3ros10NodeHandle9advertiseIN11sensor_msgs16CompressedImage_ISaIvEEEEENS_9PublisherERKSsjb+0x4ae>
  40bf8f:	48 8d b4 24 6c 01 00 	lea    0x16c(%rsp),%rsi
  40bf96:	00 
  40bf97:	e8 f4 d4 ff ff       	callq  409490 <_ZNSs4_Rep10_M_destroyERKSaIcE@plt>
  40bf9c:	e9 9d fa ff ff       	jmpq   40ba3e <_ZN3ros10NodeHandle9advertiseIN11sensor_msgs16CompressedImage_ISaIvEEEEENS_9PublisherERKSsjb+0x4ae>
  40bfa1:	ba 80 92 40 00       	mov    $0x409280,%edx
  40bfa6:	48 85 d2             	test   %rdx,%rdx
  40bfa9:	0f 84 3b 02 00 00    	je     40c1ea <_ZN3ros10NodeHandle9advertiseIN11sensor_msgs16CompressedImage_ISaIvEEEEENS_9PublisherERKSsjb+0xc5a>
  40bfaf:	83 ca ff             	or     $0xffffffff,%edx
  40bfb2:	f0 0f c1 50 f8       	lock xadd %edx,-0x8(%rax)
  40bfb7:	85 d2                	test   %edx,%edx
  40bfb9:	0f 8f ab fa ff ff    	jg     40ba6a <_ZN3ros10NodeHandle9advertiseIN11sensor_msgs16CompressedImage_ISaIvEEEEENS_9PublisherERKSsjb+0x4da>
  40bfbf:	48 8d b4 24 6e 01 00 	lea    0x16e(%rsp),%rsi
  40bfc6:	00 
  40bfc7:	e8 c4 d4 ff ff       	callq  409490 <_ZNSs4_Rep10_M_destroyERKSaIcE@plt>
  40bfcc:	e9 99 fa ff ff       	jmpq   40ba6a <_ZN3ros10NodeHandle9advertiseIN11sensor_msgs16CompressedImage_ISaIvEEEEENS_9PublisherERKSsjb+0x4da>
  40bfd1:	ba 80 92 40 00       	mov    $0x409280,%edx
  40bfd6:	48 85 d2             	test   %rdx,%rdx
  40bfd9:	74 3b                	je     40c016 <_ZN3ros10NodeHandle9advertiseIN11sensor_msgs16CompressedImage_ISaIvEEEEENS_9PublisherERKSsjb+0xa86>
  40bfdb:	83 ca ff             	or     $0xffffffff,%edx
  40bfde:	f0 0f c1 50 f8       	lock xadd %edx,-0x8(%rax)
  40bfe3:	85 d2                	test   %edx,%edx
  40bfe5:	0f 8f 95 fa ff ff    	jg     40ba80 <_ZN3ros10NodeHandle9advertiseIN11sensor_msgs16CompressedImage_ISaIvEEEEENS_9PublisherERKSsjb+0x4f0>
  40bfeb:	48 8d b4 24 6f 01 00 	lea    0x16f(%rsp),%rsi
  40bff2:	00 
  40bff3:	e8 98 d4 ff ff       	callq  409490 <_ZNSs4_Rep10_M_destroyERKSaIcE@plt>
  40bff8:	e9 83 fa ff ff       	jmpq   40ba80 <_ZN3ros10NodeHandle9advertiseIN11sensor_msgs16CompressedImage_ISaIvEEEEENS_9PublisherERKSsjb+0x4f0>
  40bffd:	48 89 c7             	mov    %rax,%rdi
  40c000:	e8 6b d3 ff ff       	callq  409370 <__cxa_begin_catch@plt>
  40c005:	48 c7 84 24 e0 00 00 	movq   $0x0,0xe0(%rsp)
  40c00c:	00 00 00 00 00 
  40c011:	e8 2a d6 ff ff       	callq  409640 <__cxa_rethrow@plt>
  40c016:	8b 50 f8             	mov    -0x8(%rax),%edx
  40c019:	8d 4a ff             	lea    -0x1(%rdx),%ecx
  40c01c:	89 48 f8             	mov    %ecx,-0x8(%rax)
  40c01f:	eb c2                	jmp    40bfe3 <_ZN3ros10NodeHandle9advertiseIN11sensor_msgs16CompressedImage_ISaIvEEEEENS_9PublisherERKSsjb+0xa53>
  40c021:	48 89 c5             	mov    %rax,%rbp
  40c024:	e8 97 d6 ff ff       	callq  4096c0 <__cxa_end_catch@plt>
  40c029:	48 89 df             	mov    %rbx,%rdi
  40c02c:	e8 7f f2 ff ff       	callq  40b2b0 <_ZN5boost9function1IvRKN3ros25SingleSubscriberPublisherEED1Ev>
  40c031:	48 8d 9c 24 c0 00 00 	lea    0xc0(%rsp),%rbx
  40c038:	00 
  40c039:	4c 89 ef             	mov    %r13,%rdi
  40c03c:	e8 6f f2 ff ff       	callq  40b2b0 <_ZN5boost9function1IvRKN3ros25SingleSubscriberPublisherEED1Ev>
  40c041:	4c 89 e7             	mov    %r12,%rdi
  40c044:	e8 67 f2 ff ff       	callq  40b2b0 <_ZN5boost9function1IvRKN3ros25SingleSubscriberPublisherEED1Ev>
  40c049:	48 89 df             	mov    %rbx,%rdi
  40c04c:	48 89 eb             	mov    %rbp,%rbx
  40c04f:	e8 5c f2 ff ff       	callq  40b2b0 <_ZN5boost9function1IvRKN3ros25SingleSubscriberPublisherEED1Ev>
  40c054:	48 8d 7c 24 10       	lea    0x10(%rsp),%rdi
  40c059:	e8 d2 f2 ff ff       	callq  40b330 <_ZN3ros16AdvertiseOptionsD1Ev>
  40c05e:	48 89 df             	mov    %rbx,%rdi
  40c061:	e8 ba d6 ff ff       	callq  409720 <_Unwind_Resume@plt>
  40c066:	48 89 c3             	mov    %rax,%rbx
  40c069:	48 8d 7c 24 30       	lea    0x30(%rsp),%rdi
  40c06e:	e8 1d d6 ff ff       	callq  409690 <_ZNSsD1Ev@plt>
  40c073:	48 8d 7c 24 28       	lea    0x28(%rsp),%rdi
  40c078:	e8 13 d6 ff ff       	callq  409690 <_ZNSsD1Ev@plt>
  40c07d:	48 8d 7c 24 20       	lea    0x20(%rsp),%rdi
  40c082:	e8 09 d6 ff ff       	callq  409690 <_ZNSsD1Ev@plt>
  40c087:	48 8d 7c 24 10       	lea    0x10(%rsp),%rdi
  40c08c:	e8 ff d5 ff ff       	callq  409690 <_ZNSsD1Ev@plt>
  40c091:	48 89 df             	mov    %rbx,%rdi
  40c094:	e8 87 d6 ff ff       	callq  409720 <_Unwind_Resume@plt>
  40c099:	48 89 c3             	mov    %rax,%rbx
  40c09c:	48 8d 7c 24 38       	lea    0x38(%rsp),%rdi
  40c0a1:	e8 0a f2 ff ff       	callq  40b2b0 <_ZN5boost9function1IvRKN3ros25SingleSubscriberPublisherEED1Ev>
  40c0a6:	eb c1                	jmp    40c069 <_ZN3ros10NodeHandle9advertiseIN11sensor_msgs16CompressedImage_ISaIvEEEEENS_9PublisherERKSsjb+0xad9>
  40c0a8:	48 89 c5             	mov    %rax,%rbp
  40c0ab:	eb 9c                	jmp    40c049 <_ZN3ros10NodeHandle9advertiseIN11sensor_msgs16CompressedImage_ISaIvEEEEENS_9PublisherERKSsjb+0xab9>
  40c0ad:	48 89 c7             	mov    %rax,%rdi
  40c0b0:	e8 bb d2 ff ff       	callq  409370 <__cxa_begin_catch@plt>
  40c0b5:	48 c7 84 24 20 01 00 	movq   $0x0,0x120(%rsp)
  40c0bc:	00 00 00 00 00 
  40c0c1:	e8 7a d5 ff ff       	callq  409640 <__cxa_rethrow@plt>
  40c0c6:	48 89 c7             	mov    %rax,%rdi
  40c0c9:	e8 a2 d2 ff ff       	callq  409370 <__cxa_begin_catch@plt>
  40c0ce:	48 c7 44 24 58 00 00 	movq   $0x0,0x58(%rsp)
  40c0d5:	00 00 
  40c0d7:	e8 64 d5 ff ff       	callq  409640 <__cxa_rethrow@plt>
  40c0dc:	48 89 c7             	mov    %rax,%rdi
  40c0df:	e8 8c d2 ff ff       	callq  409370 <__cxa_begin_catch@plt>
  40c0e4:	48 c7 84 24 40 01 00 	movq   $0x0,0x140(%rsp)
  40c0eb:	00 00 00 00 00 
  40c0f0:	e8 4b d5 ff ff       	callq  409640 <__cxa_rethrow@plt>
  40c0f5:	48 89 c7             	mov    %rax,%rdi
  40c0f8:	e8 73 d2 ff ff       	callq  409370 <__cxa_begin_catch@plt>
  40c0fd:	48 c7 84 24 00 01 00 	movq   $0x0,0x100(%rsp)
  40c104:	00 00 00 00 00 
  40c109:	e8 32 d5 ff ff       	callq  409640 <__cxa_rethrow@plt>
  40c10e:	48 89 c7             	mov    %rax,%rdi
  40c111:	e8 5a d2 ff ff       	callq  409370 <__cxa_begin_catch@plt>
  40c116:	48 c7 44 24 38 00 00 	movq   $0x0,0x38(%rsp)
  40c11d:	00 00 
  40c11f:	e8 1c d5 ff ff       	callq  409640 <__cxa_rethrow@plt>
  40c124:	48 89 c5             	mov    %rax,%rbp
  40c127:	e8 94 d5 ff ff       	callq  4096c0 <__cxa_end_catch@plt>
  40c12c:	4c 89 ef             	mov    %r13,%rdi
  40c12f:	e8 7c f1 ff ff       	callq  40b2b0 <_ZN5boost9function1IvRKN3ros25SingleSubscriberPublisherEED1Ev>
  40c134:	48 8b 7c 24 08       	mov    0x8(%rsp),%rdi
  40c139:	e8 72 f1 ff ff       	callq  40b2b0 <_ZN5boost9function1IvRKN3ros25SingleSubscriberPublisherEED1Ev>
  40c13e:	e9 fe fe ff ff       	jmpq   40c041 <_ZN3ros10NodeHandle9advertiseIN11sensor_msgs16CompressedImage_ISaIvEEEEENS_9PublisherERKSsjb+0xab1>
  40c143:	48 89 c5             	mov    %rax,%rbp
  40c146:	e8 75 d5 ff ff       	callq  4096c0 <__cxa_end_catch@plt>
  40c14b:	48 8d 84 24 40 01 00 	lea    0x140(%rsp),%rax
  40c152:	00 
  40c153:	48 89 44 24 08       	mov    %rax,0x8(%rsp)
  40c158:	eb d2                	jmp    40c12c <_ZN3ros10NodeHandle9advertiseIN11sensor_msgs16CompressedImage_ISaIvEEEEENS_9PublisherERKSsjb+0xb9c>
  40c15a:	48 89 c5             	mov    %rax,%rbp
  40c15d:	e8 5e d5 ff ff       	callq  4096c0 <__cxa_end_catch@plt>
  40c162:	e9 c2 fe ff ff       	jmpq   40c029 <_ZN3ros10NodeHandle9advertiseIN11sensor_msgs16CompressedImage_ISaIvEEEEENS_9PublisherERKSsjb+0xa99>
  40c167:	48 89 c5             	mov    %rax,%rbp
  40c16a:	e8 51 d5 ff ff       	callq  4096c0 <__cxa_end_catch@plt>
  40c16f:	90                   	nop
  40c170:	eb ba                	jmp    40c12c <_ZN3ros10NodeHandle9advertiseIN11sensor_msgs16CompressedImage_ISaIvEEEEENS_9PublisherERKSsjb+0xb9c>
  40c172:	48 89 c5             	mov    %rax,%rbp
  40c175:	4c 8d ac 24 00 01 00 	lea    0x100(%rsp),%r13
  40c17c:	00 
  40c17d:	e8 3e d5 ff ff       	callq  4096c0 <__cxa_end_catch@plt>
  40c182:	e9 a2 fe ff ff       	jmpq   40c029 <_ZN3ros10NodeHandle9advertiseIN11sensor_msgs16CompressedImage_ISaIvEEEEENS_9PublisherERKSsjb+0xa99>
  40c187:	48 89 c5             	mov    %rax,%rbp
  40c18a:	4c 8d ac 24 00 01 00 	lea    0x100(%rsp),%r13
  40c191:	00 
  40c192:	e9 9a fe ff ff       	jmpq   40c031 <_ZN3ros10NodeHandle9advertiseIN11sensor_msgs16CompressedImage_ISaIvEEEEENS_9PublisherERKSsjb+0xaa1>
  40c197:	48 8d 7c 24 58       	lea    0x58(%rsp),%rdi
  40c19c:	48 89 c3             	mov    %rax,%rbx
  40c19f:	e8 0c f1 ff ff       	callq  40b2b0 <_ZN5boost9function1IvRKN3ros25SingleSubscriberPublisherEED1Ev>
  40c1a4:	e9 f3 fe ff ff       	jmpq   40c09c <_ZN3ros10NodeHandle9advertiseIN11sensor_msgs16CompressedImage_ISaIvEEEEENS_9PublisherERKSsjb+0xb0c>
  40c1a9:	48 89 c5             	mov    %rax,%rbp
  40c1ac:	e9 90 fe ff ff       	jmpq   40c041 <_ZN3ros10NodeHandle9advertiseIN11sensor_msgs16CompressedImage_ISaIvEEEEENS_9PublisherERKSsjb+0xab1>
  40c1b1:	48 89 c3             	mov    %rax,%rbx
  40c1b4:	e9 9b fe ff ff       	jmpq   40c054 <_ZN3ros10NodeHandle9advertiseIN11sensor_msgs16CompressedImage_ISaIvEEEEENS_9PublisherERKSsjb+0xac4>
  40c1b9:	48 8d 94 24 40 01 00 	lea    0x140(%rsp),%rdx
  40c1c0:	00 
  40c1c1:	48 89 c5             	mov    %rax,%rbp
  40c1c4:	48 89 54 24 08       	mov    %rdx,0x8(%rsp)
  40c1c9:	e9 66 ff ff ff       	jmpq   40c134 <_ZN3ros10NodeHandle9advertiseIN11sensor_msgs16CompressedImage_ISaIvEEEEENS_9PublisherERKSsjb+0xba4>
  40c1ce:	8b 50 f8             	mov    -0x8(%rax),%edx
  40c1d1:	8d 4a ff             	lea    -0x1(%rdx),%ecx
  40c1d4:	89 48 f8             	mov    %ecx,-0x8(%rax)
  40c1d7:	e9 ab fd ff ff       	jmpq   40bf87 <_ZN3ros10NodeHandle9advertiseIN11sensor_msgs16CompressedImage_ISaIvEEEEENS_9PublisherERKSsjb+0x9f7>
  40c1dc:	8b 50 f8             	mov    -0x8(%rax),%edx
  40c1df:	8d 4a ff             	lea    -0x1(%rdx),%ecx
  40c1e2:	89 48 f8             	mov    %ecx,-0x8(%rax)
  40c1e5:	e9 6d fd ff ff       	jmpq   40bf57 <_ZN3ros10NodeHandle9advertiseIN11sensor_msgs16CompressedImage_ISaIvEEEEENS_9PublisherERKSsjb+0x9c7>
  40c1ea:	8b 50 f8             	mov    -0x8(%rax),%edx
  40c1ed:	8d 4a ff             	lea    -0x1(%rdx),%ecx
  40c1f0:	89 48 f8             	mov    %ecx,-0x8(%rax)
  40c1f3:	e9 bf fd ff ff       	jmpq   40bfb7 <_ZN3ros10NodeHandle9advertiseIN11sensor_msgs16CompressedImage_ISaIvEEEEENS_9PublisherERKSsjb+0xa27>
  40c1f8:	90                   	nop
  40c1f9:	90                   	nop
  40c1fa:	90                   	nop
  40c1fb:	90                   	nop
  40c1fc:	90                   	nop
  40c1fd:	90                   	nop
  40c1fe:	90                   	nop
  40c1ff:	90                   	nop

000000000040c200 <_ZNSt6vectorIhSaIhEEaSERKS1_>:
  40c200:	48 89 5c 24 e0       	mov    %rbx,-0x20(%rsp)
  40c205:	4c 89 64 24 f0       	mov    %r12,-0x10(%rsp)
  40c20a:	48 89 fb             	mov    %rdi,%rbx
  40c20d:	48 89 6c 24 e8       	mov    %rbp,-0x18(%rsp)
  40c212:	4c 89 6c 24 f8       	mov    %r13,-0x8(%rsp)
  40c217:	48 83 ec 28          	sub    $0x28,%rsp
  40c21b:	48 39 fe             	cmp    %rdi,%rsi
  40c21e:	49 89 f4             	mov    %rsi,%r12
  40c221:	74 4c                	je     40c26f <_ZNSt6vectorIhSaIhEEaSERKS1_+0x6f>
  40c223:	48 8b 4e 08          	mov    0x8(%rsi),%rcx
  40c227:	4c 8b 2e             	mov    (%rsi),%r13
  40c22a:	48 8b 3f             	mov    (%rdi),%rdi
  40c22d:	48 8b 43 10          	mov    0x10(%rbx),%rax
  40c231:	48 89 cd             	mov    %rcx,%rbp
  40c234:	4c 29 ed             	sub    %r13,%rbp
  40c237:	48 29 f8             	sub    %rdi,%rax
  40c23a:	48 39 c5             	cmp    %rax,%rbp
  40c23d:	76 51                	jbe    40c290 <_ZNSt6vectorIhSaIhEEaSERKS1_+0x90>
  40c23f:	48 89 ef             	mov    %rbp,%rdi
  40c242:	e8 d9 d2 ff ff       	callq  409520 <_Znwm@plt>
  40c247:	48 85 ed             	test   %rbp,%rbp
  40c24a:	49 89 c4             	mov    %rax,%r12
  40c24d:	0f 85 bd 00 00 00    	jne    40c310 <_ZNSt6vectorIhSaIhEEaSERKS1_+0x110>
  40c253:	48 8b 3b             	mov    (%rbx),%rdi
  40c256:	48 85 ff             	test   %rdi,%rdi
  40c259:	74 05                	je     40c260 <_ZNSt6vectorIhSaIhEEaSERKS1_+0x60>
  40c25b:	e8 90 d2 ff ff       	callq  4094f0 <_ZdlPv@plt>
  40c260:	49 8d 3c 2c          	lea    (%r12,%rbp,1),%rdi
  40c264:	4c 89 23             	mov    %r12,(%rbx)
  40c267:	48 89 7b 10          	mov    %rdi,0x10(%rbx)
  40c26b:	48 89 7b 08          	mov    %rdi,0x8(%rbx)
  40c26f:	48 89 d8             	mov    %rbx,%rax
  40c272:	48 8b 6c 24 10       	mov    0x10(%rsp),%rbp
  40c277:	48 8b 5c 24 08       	mov    0x8(%rsp),%rbx
  40c27c:	4c 8b 64 24 18       	mov    0x18(%rsp),%r12
  40c281:	4c 8b 6c 24 20       	mov    0x20(%rsp),%r13
  40c286:	48 83 c4 28          	add    $0x28,%rsp
  40c28a:	c3                   	retq   
  40c28b:	0f 1f 44 00 00       	nopl   0x0(%rax,%rax,1)
  40c290:	48 8b 43 08          	mov    0x8(%rbx),%rax
  40c294:	48 89 c6             	mov    %rax,%rsi
  40c297:	48 29 fe             	sub    %rdi,%rsi
  40c29a:	48 39 f5             	cmp    %rsi,%rbp
  40c29d:	77 21                	ja     40c2c0 <_ZNSt6vectorIhSaIhEEaSERKS1_+0xc0>
  40c29f:	48 85 ed             	test   %rbp,%rbp
  40c2a2:	74 c7                	je     40c26b <_ZNSt6vectorIhSaIhEEaSERKS1_+0x6b>
  40c2a4:	48 89 ea             	mov    %rbp,%rdx
  40c2a7:	4c 89 ee             	mov    %r13,%rsi
  40c2aa:	e8 01 d4 ff ff       	callq  4096b0 <memmove@plt>
  40c2af:	48 89 ef             	mov    %rbp,%rdi
  40c2b2:	48 03 3b             	add    (%rbx),%rdi
  40c2b5:	eb b4                	jmp    40c26b <_ZNSt6vectorIhSaIhEEaSERKS1_+0x6b>
  40c2b7:	66 0f 1f 84 00 00 00 	nopw   0x0(%rax,%rax,1)
  40c2be:	00 00 
  40c2c0:	4c 01 ee             	add    %r13,%rsi
  40c2c3:	48 89 f2             	mov    %rsi,%rdx
  40c2c6:	4c 29 ea             	sub    %r13,%rdx
  40c2c9:	75 25                	jne    40c2f0 <_ZNSt6vectorIhSaIhEEaSERKS1_+0xf0>
  40c2cb:	48 29 f1             	sub    %rsi,%rcx
  40c2ce:	75 08                	jne    40c2d8 <_ZNSt6vectorIhSaIhEEaSERKS1_+0xd8>
  40c2d0:	48 01 ef             	add    %rbp,%rdi
  40c2d3:	eb 96                	jmp    40c26b <_ZNSt6vectorIhSaIhEEaSERKS1_+0x6b>
  40c2d5:	0f 1f 00             	nopl   (%rax)
  40c2d8:	48 89 c7             	mov    %rax,%rdi
  40c2db:	48 89 ca             	mov    %rcx,%rdx
  40c2de:	e8 cd d3 ff ff       	callq  4096b0 <memmove@plt>
  40c2e3:	48 8b 3b             	mov    (%rbx),%rdi
  40c2e6:	eb e8                	jmp    40c2d0 <_ZNSt6vectorIhSaIhEEaSERKS1_+0xd0>
  40c2e8:	0f 1f 84 00 00 00 00 	nopl   0x0(%rax,%rax,1)
  40c2ef:	00 
  40c2f0:	4c 89 ee             	mov    %r13,%rsi
  40c2f3:	e8 b8 d3 ff ff       	callq  4096b0 <memmove@plt>
  40c2f8:	48 8b 43 08          	mov    0x8(%rbx),%rax
  40c2fc:	48 8b 3b             	mov    (%rbx),%rdi
  40c2ff:	49 8b 4c 24 08       	mov    0x8(%r12),%rcx
  40c304:	48 89 c6             	mov    %rax,%rsi
  40c307:	48 29 fe             	sub    %rdi,%rsi
  40c30a:	49 03 34 24          	add    (%r12),%rsi
  40c30e:	eb bb                	jmp    40c2cb <_ZNSt6vectorIhSaIhEEaSERKS1_+0xcb>
  40c310:	48 89 ea             	mov    %rbp,%rdx
  40c313:	4c 89 ee             	mov    %r13,%rsi
  40c316:	48 89 c7             	mov    %rax,%rdi
  40c319:	e8 92 d3 ff ff       	callq  4096b0 <memmove@plt>
  40c31e:	e9 30 ff ff ff       	jmpq   40c253 <_ZNSt6vectorIhSaIhEEaSERKS1_+0x53>
  40c323:	90                   	nop
  40c324:	90                   	nop
  40c325:	90                   	nop
  40c326:	90                   	nop
  40c327:	90                   	nop
  40c328:	90                   	nop
  40c329:	90                   	nop
  40c32a:	90                   	nop
  40c32b:	90                   	nop
  40c32c:	90                   	nop
  40c32d:	90                   	nop
  40c32e:	90                   	nop
  40c32f:	90                   	nop

000000000040c330 <_ZN3ros17SerializedMessageD1Ev>:
  40c330:	48 89 6c 24 f8       	mov    %rbp,-0x8(%rsp)
  40c335:	48 89 5c 24 f0       	mov    %rbx,-0x10(%rsp)
  40c33a:	48 83 ec 18          	sub    $0x18,%rsp
  40c33e:	48 8b 5f 28          	mov    0x28(%rdi),%rbx
  40c342:	48 89 fd             	mov    %rdi,%rbp
  40c345:	48 85 db             	test   %rbx,%rbx
  40c348:	74 0f                	je     40c359 <_ZN3ros17SerializedMessageD1Ev+0x29>
  40c34a:	b8 ff ff ff ff       	mov    $0xffffffff,%eax
  40c34f:	f0 0f c1 43 08       	lock xadd %eax,0x8(%rbx)
  40c354:	83 f8 01             	cmp    $0x1,%eax
  40c357:	74 2f                	je     40c388 <_ZN3ros17SerializedMessageD1Ev+0x58>
  40c359:	48 8b 5d 08          	mov    0x8(%rbp),%rbx
  40c35d:	48 85 db             	test   %rbx,%rbx
  40c360:	74 11                	je     40c373 <_ZN3ros17SerializedMessageD1Ev+0x43>
  40c362:	bd ff ff ff ff       	mov    $0xffffffff,%ebp
  40c367:	89 e8                	mov    %ebp,%eax
  40c369:	f0 0f c1 43 08       	lock xadd %eax,0x8(%rbx)
  40c36e:	83 f8 01             	cmp    $0x1,%eax
  40c371:	74 3d                	je     40c3b0 <_ZN3ros17SerializedMessageD1Ev+0x80>
  40c373:	48 8b 5c 24 08       	mov    0x8(%rsp),%rbx
  40c378:	48 8b 6c 24 10       	mov    0x10(%rsp),%rbp
  40c37d:	48 83 c4 18          	add    $0x18,%rsp
  40c381:	c3                   	retq   
  40c382:	66 0f 1f 44 00 00    	nopw   0x0(%rax,%rax,1)
  40c388:	48 8b 03             	mov    (%rbx),%rax
  40c38b:	48 89 df             	mov    %rbx,%rdi
  40c38e:	ff 50 10             	callq  *0x10(%rax)
  40c391:	b8 ff ff ff ff       	mov    $0xffffffff,%eax
  40c396:	f0 0f c1 43 0c       	lock xadd %eax,0xc(%rbx)
  40c39b:	83 f8 01             	cmp    $0x1,%eax
  40c39e:	75 b9                	jne    40c359 <_ZN3ros17SerializedMessageD1Ev+0x29>
  40c3a0:	48 8b 03             	mov    (%rbx),%rax
  40c3a3:	48 89 df             	mov    %rbx,%rdi
  40c3a6:	ff 50 18             	callq  *0x18(%rax)
  40c3a9:	eb ae                	jmp    40c359 <_ZN3ros17SerializedMessageD1Ev+0x29>
  40c3ab:	0f 1f 44 00 00       	nopl   0x0(%rax,%rax,1)
  40c3b0:	48 8b 03             	mov    (%rbx),%rax
  40c3b3:	48 89 df             	mov    %rbx,%rdi
  40c3b6:	ff 50 10             	callq  *0x10(%rax)
  40c3b9:	f0 0f c1 6b 0c       	lock xadd %ebp,0xc(%rbx)
  40c3be:	83 fd 01             	cmp    $0x1,%ebp
  40c3c1:	75 b0                	jne    40c373 <_ZN3ros17SerializedMessageD1Ev+0x43>
  40c3c3:	48 8b 03             	mov    (%rbx),%rax
  40c3c6:	48 89 df             	mov    %rbx,%rdi
  40c3c9:	48 8b 6c 24 10       	mov    0x10(%rsp),%rbp
  40c3ce:	48 8b 5c 24 08       	mov    0x8(%rsp),%rbx
  40c3d3:	48 8b 40 18          	mov    0x18(%rax),%rax
  40c3d7:	48 83 c4 18          	add    $0x18,%rsp
  40c3db:	ff e0                	jmpq   *%rax
  40c3dd:	48 8d 7d 08          	lea    0x8(%rbp),%rdi
  40c3e1:	48 89 c3             	mov    %rax,%rbx
  40c3e4:	e8 07 eb ff ff       	callq  40aef0 <_ZN5boost6detail12shared_countD1Ev>
  40c3e9:	48 89 df             	mov    %rbx,%rdi
  40c3ec:	e8 2f d3 ff ff       	callq  409720 <_Unwind_Resume@plt>
  40c3f1:	90                   	nop
  40c3f2:	90                   	nop
  40c3f3:	90                   	nop
  40c3f4:	90                   	nop
  40c3f5:	90                   	nop
  40c3f6:	90                   	nop
  40c3f7:	90                   	nop
  40c3f8:	90                   	nop
  40c3f9:	90                   	nop
  40c3fa:	90                   	nop
  40c3fb:	90                   	nop
  40c3fc:	90                   	nop
  40c3fd:	90                   	nop
  40c3fe:	90                   	nop
  40c3ff:	90                   	nop

000000000040c400 <_ZN3ros13serialization16serializeMessageIN11sensor_msgs16CompressedImage_ISaIvEEEEENS_17SerializedMessageERKT_>:
  40c400:	41 57                	push   %r15
  40c402:	41 56                	push   %r14
  40c404:	41 55                	push   %r13
  40c406:	41 54                	push   %r12
  40c408:	49 89 fc             	mov    %rdi,%r12
  40c40b:	55                   	push   %rbp
  40c40c:	48 89 f5             	mov    %rsi,%rbp
  40c40f:	53                   	push   %rbx
  40c410:	48 83 ec 18          	sub    $0x18,%rsp
  40c414:	48 c7 07 00 00 00 00 	movq   $0x0,(%rdi)
  40c41b:	48 c7 47 08 00 00 00 	movq   $0x0,0x8(%rdi)
  40c422:	00 
  40c423:	bf 20 00 00 00       	mov    $0x20,%edi
  40c428:	e8 f3 d0 ff ff       	callq  409520 <_Znwm@plt>
  40c42d:	c7 40 08 01 00 00 00 	movl   $0x1,0x8(%rax)
  40c434:	c7 40 0c 01 00 00 00 	movl   $0x1,0xc(%rax)
  40c43b:	48 c7 00 f0 37 41 00 	movq   $0x4137f0,(%rax)
  40c442:	48 c7 40 10 00 00 00 	movq   $0x0,0x10(%rax)
  40c449:	00 
  40c44a:	49 c7 44 24 10 00 00 	movq   $0x0,0x10(%r12)
  40c451:	00 00 
  40c453:	49 89 44 24 08       	mov    %rax,0x8(%r12)
  40c458:	49 c7 44 24 18 00 00 	movq   $0x0,0x18(%r12)
  40c45f:	00 00 
  40c461:	49 c7 44 24 20 00 00 	movq   $0x0,0x20(%r12)
  40c468:	00 00 
  40c46a:	49 c7 44 24 28 00 00 	movq   $0x0,0x28(%r12)
  40c471:	00 00 
  40c473:	49 c7 44 24 30 00 00 	movq   $0x0,0x30(%r12)
  40c47a:	00 00 
  40c47c:	48 8b 45 20          	mov    0x20(%rbp),%rax
  40c480:	48 8b 55 38          	mov    0x38(%rbp),%rdx
  40c484:	48 8b 5a e8          	mov    -0x18(%rdx),%rbx
  40c488:	03 58 e8             	add    -0x18(%rax),%ebx
  40c48b:	48 8b 45 48          	mov    0x48(%rbp),%rax
  40c48f:	48 2b 45 40          	sub    0x40(%rbp),%rax
  40c493:	8d 5c 03 1c          	lea    0x1c(%rbx,%rax,1),%ebx
  40c497:	49 89 5c 24 10       	mov    %rbx,0x10(%r12)
  40c49c:	48 89 df             	mov    %rbx,%rdi
  40c49f:	e8 bc cd ff ff       	callq  409260 <_Znam@plt>
  40c4a4:	48 85 db             	test   %rbx,%rbx
  40c4a7:	49 89 c5             	mov    %rax,%r13
  40c4aa:	74 10                	je     40c4bc <_ZN3ros13serialization16serializeMessageIN11sensor_msgs16CompressedImage_ISaIvEEEEENS_17SerializedMessageERKT_+0xbc>
  40c4ac:	4c 01 eb             	add    %r13,%rbx
  40c4af:	90                   	nop
  40c4b0:	c6 00 00             	movb   $0x0,(%rax)
  40c4b3:	48 83 c0 01          	add    $0x1,%rax
  40c4b7:	48 39 d8             	cmp    %rbx,%rax
  40c4ba:	75 f4                	jne    40c4b0 <_ZN3ros13serialization16serializeMessageIN11sensor_msgs16CompressedImage_ISaIvEEEEENS_17SerializedMessageERKT_+0xb0>
  40c4bc:	4d 85 ed             	test   %r13,%r13
  40c4bf:	74 0a                	je     40c4cb <_ZN3ros13serialization16serializeMessageIN11sensor_msgs16CompressedImage_ISaIvEEEEENS_17SerializedMessageERKT_+0xcb>
  40c4c1:	4d 3b 2c 24          	cmp    (%r12),%r13
  40c4c5:	0f 84 79 02 00 00    	je     40c744 <_ZN3ros13serialization16serializeMessageIN11sensor_msgs16CompressedImage_ISaIvEEEEENS_17SerializedMessageERKT_+0x344>
  40c4cb:	bf 20 00 00 00       	mov    $0x20,%edi
  40c4d0:	e8 4b d0 ff ff       	callq  409520 <_Znwm@plt>
  40c4d5:	c7 40 08 01 00 00 00 	movl   $0x1,0x8(%rax)
  40c4dc:	c7 40 0c 01 00 00 00 	movl   $0x1,0xc(%rax)
  40c4e3:	48 c7 00 f0 37 41 00 	movq   $0x4137f0,(%rax)
  40c4ea:	4c 89 68 10          	mov    %r13,0x10(%rax)
  40c4ee:	49 8b 5c 24 08       	mov    0x8(%r12),%rbx
  40c4f3:	4d 89 2c 24          	mov    %r13,(%r12)
  40c4f7:	49 89 44 24 08       	mov    %rax,0x8(%r12)
  40c4fc:	48 85 db             	test   %rbx,%rbx
  40c4ff:	74 17                	je     40c518 <_ZN3ros13serialization16serializeMessageIN11sensor_msgs16CompressedImage_ISaIvEEEEENS_17SerializedMessageERKT_+0x118>
  40c501:	b8 ff ff ff ff       	mov    $0xffffffff,%eax
  40c506:	f0 0f c1 43 08       	lock xadd %eax,0x8(%rbx)
  40c50b:	83 f8 01             	cmp    $0x1,%eax
  40c50e:	0f 84 ec 01 00 00    	je     40c700 <_ZN3ros13serialization16serializeMessageIN11sensor_msgs16CompressedImage_ISaIvEEEEENS_17SerializedMessageERKT_+0x300>
  40c514:	4d 8b 2c 24          	mov    (%r12),%r13
  40c518:	45 8b 7c 24 10       	mov    0x10(%r12),%r15d
  40c51d:	4d 8d 75 04          	lea    0x4(%r13),%r14
  40c521:	44 89 fb             	mov    %r15d,%ebx
  40c524:	4c 01 eb             	add    %r13,%rbx
  40c527:	4c 39 f3             	cmp    %r14,%rbx
  40c52a:	73 05                	jae    40c531 <_ZN3ros13serialization16serializeMessageIN11sensor_msgs16CompressedImage_ISaIvEEEEENS_17SerializedMessageERKT_+0x131>
  40c52c:	e8 af cf ff ff       	callq  4094e0 <_ZN3ros13serialization18throwStreamOverrunEv@plt>
  40c531:	49 8d 45 08          	lea    0x8(%r13),%rax
  40c535:	41 83 ef 04          	sub    $0x4,%r15d
  40c539:	45 89 7d 00          	mov    %r15d,0x0(%r13)
  40c53d:	4d 89 74 24 18       	mov    %r14,0x18(%r12)
  40c542:	48 39 c3             	cmp    %rax,%rbx
  40c545:	44 8b 75 10          	mov    0x10(%rbp),%r14d
  40c549:	0f 82 31 01 00 00    	jb     40c680 <_ZN3ros13serialization16serializeMessageIN11sensor_msgs16CompressedImage_ISaIvEEEEENS_17SerializedMessageERKT_+0x280>
  40c54f:	49 8d 45 0c          	lea    0xc(%r13),%rax
  40c553:	45 89 75 04          	mov    %r14d,0x4(%r13)
  40c557:	44 8b 75 14          	mov    0x14(%rbp),%r14d
  40c55b:	48 39 c3             	cmp    %rax,%rbx
  40c55e:	0f 82 4c 01 00 00    	jb     40c6b0 <_ZN3ros13serialization16serializeMessageIN11sensor_msgs16CompressedImage_ISaIvEEEEENS_17SerializedMessageERKT_+0x2b0>
  40c564:	49 8d 45 10          	lea    0x10(%r13),%rax
  40c568:	45 89 75 08          	mov    %r14d,0x8(%r13)
  40c56c:	44 8b 75 18          	mov    0x18(%rbp),%r14d
  40c570:	48 39 c3             	cmp    %rax,%rbx
  40c573:	0f 82 f7 00 00 00    	jb     40c670 <_ZN3ros13serialization16serializeMessageIN11sensor_msgs16CompressedImage_ISaIvEEEEENS_17SerializedMessageERKT_+0x270>
  40c579:	45 89 75 0c          	mov    %r14d,0xc(%r13)
  40c57d:	4d 8d 75 14          	lea    0x14(%r13),%r14
  40c581:	48 8b 45 20          	mov    0x20(%rbp),%rax
  40c585:	4c 39 f3             	cmp    %r14,%rbx
  40c588:	4c 8b 78 e8          	mov    -0x18(%rax),%r15
  40c58c:	0f 82 0e 01 00 00    	jb     40c6a0 <_ZN3ros13serialization16serializeMessageIN11sensor_msgs16CompressedImage_ISaIvEEEEENS_17SerializedMessageERKT_+0x2a0>
  40c592:	4d 85 ff             	test   %r15,%r15
  40c595:	44 89 f8             	mov    %r15d,%eax
  40c598:	45 89 7d 10          	mov    %r15d,0x10(%r13)
  40c59c:	74 29                	je     40c5c7 <_ZN3ros13serialization16serializeMessageIN11sensor_msgs16CompressedImage_ISaIvEEEEENS_17SerializedMessageERKT_+0x1c7>
  40c59e:	48 8b 55 20          	mov    0x20(%rbp),%rdx
  40c5a2:	4d 8d 2c 06          	lea    (%r14,%rax,1),%r13
  40c5a6:	4c 39 eb             	cmp    %r13,%rbx
  40c5a9:	48 89 54 24 08       	mov    %rdx,0x8(%rsp)
  40c5ae:	0f 82 3c 01 00 00    	jb     40c6f0 <_ZN3ros13serialization16serializeMessageIN11sensor_msgs16CompressedImage_ISaIvEEEEENS_17SerializedMessageERKT_+0x2f0>
  40c5b4:	48 8b 74 24 08       	mov    0x8(%rsp),%rsi
  40c5b9:	4c 89 f7             	mov    %r14,%rdi
  40c5bc:	4c 89 fa             	mov    %r15,%rdx
  40c5bf:	4d 89 ee             	mov    %r13,%r14
  40c5c2:	e8 49 d1 ff ff       	callq  409710 <memcpy@plt>
  40c5c7:	48 8b 45 38          	mov    0x38(%rbp),%rax
  40c5cb:	4d 8d 6e 04          	lea    0x4(%r14),%r13
  40c5cf:	4c 39 eb             	cmp    %r13,%rbx
  40c5d2:	4c 8b 78 e8          	mov    -0x18(%rax),%r15
  40c5d6:	0f 82 b4 00 00 00    	jb     40c690 <_ZN3ros13serialization16serializeMessageIN11sensor_msgs16CompressedImage_ISaIvEEEEENS_17SerializedMessageERKT_+0x290>
  40c5dc:	4d 85 ff             	test   %r15,%r15
  40c5df:	44 89 f8             	mov    %r15d,%eax
  40c5e2:	45 89 3e             	mov    %r15d,(%r14)
  40c5e5:	74 2a                	je     40c611 <_ZN3ros13serialization16serializeMessageIN11sensor_msgs16CompressedImage_ISaIvEEEEENS_17SerializedMessageERKT_+0x211>
  40c5e7:	48 8b 55 38          	mov    0x38(%rbp),%rdx
  40c5eb:	4d 8d 74 05 00       	lea    0x0(%r13,%rax,1),%r14
  40c5f0:	4c 39 f3             	cmp    %r14,%rbx
  40c5f3:	48 89 54 24 08       	mov    %rdx,0x8(%rsp)
  40c5f8:	0f 82 e2 00 00 00    	jb     40c6e0 <_ZN3ros13serialization16serializeMessageIN11sensor_msgs16CompressedImage_ISaIvEEEEENS_17SerializedMessageERKT_+0x2e0>
  40c5fe:	48 8b 74 24 08       	mov    0x8(%rsp),%rsi
  40c603:	4c 89 ef             	mov    %r13,%rdi
  40c606:	4c 89 fa             	mov    %r15,%rdx
  40c609:	4d 89 f5             	mov    %r14,%r13
  40c60c:	e8 ff d0 ff ff       	callq  409710 <memcpy@plt>
  40c611:	48 8b 45 40          	mov    0x40(%rbp),%rax
  40c615:	4d 8d 75 04          	lea    0x4(%r13),%r14
  40c619:	4c 8b 7d 48          	mov    0x48(%rbp),%r15
  40c61d:	4c 39 f3             	cmp    %r14,%rbx
  40c620:	48 89 44 24 08       	mov    %rax,0x8(%rsp)
  40c625:	0f 82 95 00 00 00    	jb     40c6c0 <_ZN3ros13serialization16serializeMessageIN11sensor_msgs16CompressedImage_ISaIvEEEEENS_17SerializedMessageERKT_+0x2c0>
  40c62b:	4c 2b 7c 24 08       	sub    0x8(%rsp),%r15
  40c630:	45 89 7d 00          	mov    %r15d,0x0(%r13)
  40c634:	4c 8b 6d 40          	mov    0x40(%rbp),%r13
  40c638:	4c 39 6d 48          	cmp    %r13,0x48(%rbp)
  40c63c:	74 1e                	je     40c65c <_ZN3ros13serialization16serializeMessageIN11sensor_msgs16CompressedImage_ISaIvEEEEENS_17SerializedMessageERKT_+0x25c>
  40c63e:	44 89 fd             	mov    %r15d,%ebp
  40c641:	49 8d 04 2e          	lea    (%r14,%rbp,1),%rax
  40c645:	48 39 c3             	cmp    %rax,%rbx
  40c648:	0f 82 82 00 00 00    	jb     40c6d0 <_ZN3ros13serialization16serializeMessageIN11sensor_msgs16CompressedImage_ISaIvEEEEENS_17SerializedMessageERKT_+0x2d0>
  40c64e:	48 89 ea             	mov    %rbp,%rdx
  40c651:	4c 89 ee             	mov    %r13,%rsi
  40c654:	4c 89 f7             	mov    %r14,%rdi
  40c657:	e8 b4 d0 ff ff       	callq  409710 <memcpy@plt>
  40c65c:	48 83 c4 18          	add    $0x18,%rsp
  40c660:	4c 89 e0             	mov    %r12,%rax
  40c663:	5b                   	pop    %rbx
  40c664:	5d                   	pop    %rbp
  40c665:	41 5c                	pop    %r12
  40c667:	41 5d                	pop    %r13
  40c669:	41 5e                	pop    %r14
  40c66b:	41 5f                	pop    %r15
  40c66d:	c3                   	retq   
  40c66e:	66 90                	xchg   %ax,%ax
  40c670:	e8 6b ce ff ff       	callq  4094e0 <_ZN3ros13serialization18throwStreamOverrunEv@plt>
  40c675:	e9 ff fe ff ff       	jmpq   40c579 <_ZN3ros13serialization16serializeMessageIN11sensor_msgs16CompressedImage_ISaIvEEEEENS_17SerializedMessageERKT_+0x179>
  40c67a:	66 0f 1f 44 00 00    	nopw   0x0(%rax,%rax,1)
  40c680:	e8 5b ce ff ff       	callq  4094e0 <_ZN3ros13serialization18throwStreamOverrunEv@plt>
  40c685:	e9 c5 fe ff ff       	jmpq   40c54f <_ZN3ros13serialization16serializeMessageIN11sensor_msgs16CompressedImage_ISaIvEEEEENS_17SerializedMessageERKT_+0x14f>
  40c68a:	66 0f 1f 44 00 00    	nopw   0x0(%rax,%rax,1)
  40c690:	e8 4b ce ff ff       	callq  4094e0 <_ZN3ros13serialization18throwStreamOverrunEv@plt>
  40c695:	e9 42 ff ff ff       	jmpq   40c5dc <_ZN3ros13serialization16serializeMessageIN11sensor_msgs16CompressedImage_ISaIvEEEEENS_17SerializedMessageERKT_+0x1dc>
  40c69a:	66 0f 1f 44 00 00    	nopw   0x0(%rax,%rax,1)
  40c6a0:	e8 3b ce ff ff       	callq  4094e0 <_ZN3ros13serialization18throwStreamOverrunEv@plt>
  40c6a5:	e9 e8 fe ff ff       	jmpq   40c592 <_ZN3ros13serialization16serializeMessageIN11sensor_msgs16CompressedImage_ISaIvEEEEENS_17SerializedMessageERKT_+0x192>
  40c6aa:	66 0f 1f 44 00 00    	nopw   0x0(%rax,%rax,1)
  40c6b0:	e8 2b ce ff ff       	callq  4094e0 <_ZN3ros13serialization18throwStreamOverrunEv@plt>
  40c6b5:	e9 aa fe ff ff       	jmpq   40c564 <_ZN3ros13serialization16serializeMessageIN11sensor_msgs16CompressedImage_ISaIvEEEEENS_17SerializedMessageERKT_+0x164>
  40c6ba:	66 0f 1f 44 00 00    	nopw   0x0(%rax,%rax,1)
  40c6c0:	e8 1b ce ff ff       	callq  4094e0 <_ZN3ros13serialization18throwStreamOverrunEv@plt>
  40c6c5:	e9 61 ff ff ff       	jmpq   40c62b <_ZN3ros13serialization16serializeMessageIN11sensor_msgs16CompressedImage_ISaIvEEEEENS_17SerializedMessageERKT_+0x22b>
  40c6ca:	66 0f 1f 44 00 00    	nopw   0x0(%rax,%rax,1)
  40c6d0:	e8 0b ce ff ff       	callq  4094e0 <_ZN3ros13serialization18throwStreamOverrunEv@plt>
  40c6d5:	e9 74 ff ff ff       	jmpq   40c64e <_ZN3ros13serialization16serializeMessageIN11sensor_msgs16CompressedImage_ISaIvEEEEENS_17SerializedMessageERKT_+0x24e>
  40c6da:	66 0f 1f 44 00 00    	nopw   0x0(%rax,%rax,1)
  40c6e0:	e8 fb cd ff ff       	callq  4094e0 <_ZN3ros13serialization18throwStreamOverrunEv@plt>
  40c6e5:	e9 14 ff ff ff       	jmpq   40c5fe <_ZN3ros13serialization16serializeMessageIN11sensor_msgs16CompressedImage_ISaIvEEEEENS_17SerializedMessageERKT_+0x1fe>
  40c6ea:	66 0f 1f 44 00 00    	nopw   0x0(%rax,%rax,1)
  40c6f0:	e8 eb cd ff ff       	callq  4094e0 <_ZN3ros13serialization18throwStreamOverrunEv@plt>
  40c6f5:	e9 ba fe ff ff       	jmpq   40c5b4 <_ZN3ros13serialization16serializeMessageIN11sensor_msgs16CompressedImage_ISaIvEEEEENS_17SerializedMessageERKT_+0x1b4>
  40c6fa:	66 0f 1f 44 00 00    	nopw   0x0(%rax,%rax,1)
  40c700:	48 8b 03             	mov    (%rbx),%rax
  40c703:	48 89 df             	mov    %rbx,%rdi
  40c706:	ff 50 10             	callq  *0x10(%rax)
  40c709:	b8 ff ff ff ff       	mov    $0xffffffff,%eax
  40c70e:	f0 0f c1 43 0c       	lock xadd %eax,0xc(%rbx)
  40c713:	83 f8 01             	cmp    $0x1,%eax
  40c716:	0f 85 f8 fd ff ff    	jne    40c514 <_ZN3ros13serialization16serializeMessageIN11sensor_msgs16CompressedImage_ISaIvEEEEENS_17SerializedMessageERKT_+0x114>
  40c71c:	48 8b 03             	mov    (%rbx),%rax
  40c71f:	48 89 df             	mov    %rbx,%rdi
  40c722:	ff 50 18             	callq  *0x18(%rax)
  40c725:	e9 ea fd ff ff       	jmpq   40c514 <_ZN3ros13serialization16serializeMessageIN11sensor_msgs16CompressedImage_ISaIvEEEEENS_17SerializedMessageERKT_+0x114>
  40c72a:	48 89 c7             	mov    %rax,%rdi
  40c72d:	e8 3e cc ff ff       	callq  409370 <__cxa_begin_catch@plt>
  40c732:	4d 85 ed             	test   %r13,%r13
  40c735:	74 08                	je     40c73f <_ZN3ros13serialization16serializeMessageIN11sensor_msgs16CompressedImage_ISaIvEEEEENS_17SerializedMessageERKT_+0x33f>
  40c737:	4c 89 ef             	mov    %r13,%rdi
  40c73a:	e8 91 ce ff ff       	callq  4095d0 <_ZdaPv@plt>
  40c73f:	e8 fc ce ff ff       	callq  409640 <__cxa_rethrow@plt>
  40c744:	b9 40 31 41 00       	mov    $0x413140,%ecx
  40c749:	ba 5e 00 00 00       	mov    $0x5e,%edx
  40c74e:	be a0 2a 41 00       	mov    $0x412aa0,%esi
  40c753:	bf bd 2d 41 00       	mov    $0x412dbd,%edi
  40c758:	e8 e3 cc ff ff       	callq  409440 <__assert_fail@plt>
  40c75d:	48 89 c3             	mov    %rax,%rbx
  40c760:	e8 5b cf ff ff       	callq  4096c0 <__cxa_end_catch@plt>
  40c765:	4c 89 e7             	mov    %r12,%rdi
  40c768:	e8 c3 fb ff ff       	callq  40c330 <_ZN3ros17SerializedMessageD1Ev>
  40c76d:	48 89 df             	mov    %rbx,%rdi
  40c770:	e8 ab cf ff ff       	callq  409720 <_Unwind_Resume@plt>
  40c775:	48 89 c3             	mov    %rax,%rbx
  40c778:	eb eb                	jmp    40c765 <_ZN3ros13serialization16serializeMessageIN11sensor_msgs16CompressedImage_ISaIvEEEEENS_17SerializedMessageERKT_+0x365>
  40c77a:	48 89 c7             	mov    %rax,%rdi
  40c77d:	e8 ee cb ff ff       	callq  409370 <__cxa_begin_catch@plt>
  40c782:	e8 b9 ce ff ff       	callq  409640 <__cxa_rethrow@plt>
  40c787:	48 89 c3             	mov    %rax,%rbx
  40c78a:	e8 31 cf ff ff       	callq  4096c0 <__cxa_end_catch@plt>
  40c78f:	48 89 df             	mov    %rbx,%rdi
  40c792:	e8 89 cf ff ff       	callq  409720 <_Unwind_Resume@plt>
  40c797:	90                   	nop
  40c798:	90                   	nop
  40c799:	90                   	nop
  40c79a:	90                   	nop
  40c79b:	90                   	nop
  40c79c:	90                   	nop
  40c79d:	90                   	nop
  40c79e:	90                   	nop
  40c79f:	90                   	nop

000000000040c7a0 <_ZNK3ros9Publisher7publishIN11sensor_msgs16CompressedImage_ISaIvEEEEEvRKT_>:
  40c7a0:	55                   	push   %rbp
  40c7a1:	48 89 f5             	mov    %rsi,%rbp
  40c7a4:	53                   	push   %rbx
  40c7a5:	48 89 fb             	mov    %rdi,%rbx
  40c7a8:	48 81 ec 48 01 00 00 	sub    $0x148,%rsp
  40c7af:	48 8b 3f             	mov    (%rdi),%rdi
  40c7b2:	48 85 ff             	test   %rdi,%rdi
  40c7b5:	0f 84 0d 03 00 00    	je     40cac8 <_ZNK3ros9Publisher7publishIN11sensor_msgs16CompressedImage_ISaIvEEEEEvRKT_+0x328>
  40c7bb:	e8 f0 cc ff ff       	callq  4094b0 <_ZNK3ros9Publisher4Impl7isValidEv@plt>
  40c7c0:	84 c0                	test   %al,%al
  40c7c2:	0f 85 a8 00 00 00    	jne    40c870 <_ZNK3ros9Publisher7publishIN11sensor_msgs16CompressedImage_ISaIvEEEEEvRKT_+0xd0>
  40c7c8:	80 3d 69 b0 20 00 00 	cmpb   $0x0,0x20b069(%rip)        # 617838 <_ZN3ros7console13g_initializedE>
  40c7cf:	0f 84 4c 04 00 00    	je     40cc21 <_ZNK3ros9Publisher7publishIN11sensor_msgs16CompressedImage_ISaIvEEEEEvRKT_+0x481>
  40c7d5:	80 3d a4 ae 20 00 00 	cmpb   $0x0,0x20aea4(%rip)        # 617680 <_ZZNK3ros9Publisher7publishIN11sensor_msgs16CompressedImage_ISaIvEEEEEvRKT_E3loc_2>
  40c7dc:	0f 84 b9 04 00 00    	je     40cc9b <_ZNK3ros9Publisher7publishIN11sensor_msgs16CompressedImage_ISaIvEEEEEvRKT_+0x4fb>
  40c7e2:	83 3d 9b ae 20 00 04 	cmpl   $0x4,0x20ae9b(%rip)        # 617684 <_ZZNK3ros9Publisher7publishIN11sensor_msgs16CompressedImage_ISaIvEEEEEvRKT_E3loc_2+0x4>
  40c7e9:	0f 85 14 04 00 00    	jne    40cc03 <_ZNK3ros9Publisher7publishIN11sensor_msgs16CompressedImage_ISaIvEEEEEvRKT_+0x463>
  40c7ef:	80 3d 8b ae 20 00 00 	cmpb   $0x0,0x20ae8b(%rip)        # 617681 <_ZZNK3ros9Publisher7publishIN11sensor_msgs16CompressedImage_ISaIvEEEEEvRKT_E3loc_2+0x1>
  40c7f6:	0f 85 e2 04 00 00    	jne    40ccde <_ZNK3ros9Publisher7publishIN11sensor_msgs16CompressedImage_ISaIvEEEEEvRKT_+0x53e>
  40c7fc:	80 3d 35 b0 20 00 00 	cmpb   $0x0,0x20b035(%rip)        # 617838 <_ZN3ros7console13g_initializedE>
  40c803:	0f 84 23 05 00 00    	je     40cd2c <_ZNK3ros9Publisher7publishIN11sensor_msgs16CompressedImage_ISaIvEEEEEvRKT_+0x58c>
  40c809:	80 3d 80 ae 20 00 00 	cmpb   $0x0,0x20ae80(%rip)        # 617690 <_ZZNK3ros9Publisher7publishIN11sensor_msgs16CompressedImage_ISaIvEEEEEvRKT_E3loc_3>
  40c810:	0f 84 20 05 00 00    	je     40cd36 <_ZNK3ros9Publisher7publishIN11sensor_msgs16CompressedImage_ISaIvEEEEEvRKT_+0x596>
  40c816:	83 3d 77 ae 20 00 04 	cmpl   $0x4,0x20ae77(%rip)        # 617694 <_ZZNK3ros9Publisher7publishIN11sensor_msgs16CompressedImage_ISaIvEEEEEvRKT_E3loc_3+0x4>
  40c81d:	0f 85 56 05 00 00    	jne    40cd79 <_ZNK3ros9Publisher7publishIN11sensor_msgs16CompressedImage_ISaIvEEEEEvRKT_+0x5d9>
  40c823:	80 3d 67 ae 20 00 00 	cmpb   $0x0,0x20ae67(%rip)        # 617691 <_ZZNK3ros9Publisher7publishIN11sensor_msgs16CompressedImage_ISaIvEEEEEvRKT_E3loc_3+0x1>
  40c82a:	0f 85 67 05 00 00    	jne    40cd97 <_ZNK3ros9Publisher7publishIN11sensor_msgs16CompressedImage_ISaIvEEEEEvRKT_+0x5f7>
  40c830:	80 3d 01 b0 20 00 00 	cmpb   $0x0,0x20b001(%rip)        # 617838 <_ZN3ros7console13g_initializedE>
  40c837:	0f 84 ee 03 00 00    	je     40cc2b <_ZNK3ros9Publisher7publishIN11sensor_msgs16CompressedImage_ISaIvEEEEEvRKT_+0x48b>
  40c83d:	80 3d 5c ae 20 00 00 	cmpb   $0x0,0x20ae5c(%rip)        # 6176a0 <_ZZNK3ros9Publisher7publishIN11sensor_msgs16CompressedImage_ISaIvEEEEEvRKT_E3loc_4>
  40c844:	0f 84 f0 03 00 00    	je     40cc3a <_ZNK3ros9Publisher7publishIN11sensor_msgs16CompressedImage_ISaIvEEEEEvRKT_+0x49a>
  40c84a:	83 3d 53 ae 20 00 04 	cmpl   $0x4,0x20ae53(%rip)        # 6176a4 <_ZZNK3ros9Publisher7publishIN11sensor_msgs16CompressedImage_ISaIvEEEEEvRKT_E3loc_4+0x4>
  40c851:	0f 85 26 04 00 00    	jne    40cc7d <_ZNK3ros9Publisher7publishIN11sensor_msgs16CompressedImage_ISaIvEEEEEvRKT_+0x4dd>
  40c857:	80 3d 43 ae 20 00 00 	cmpb   $0x0,0x20ae43(%rip)        # 6176a1 <_ZZNK3ros9Publisher7publishIN11sensor_msgs16CompressedImage_ISaIvEEEEEvRKT_E3loc_4+0x1>
  40c85e:	0f 85 6b 03 00 00    	jne    40cbcf <_ZNK3ros9Publisher7publishIN11sensor_msgs16CompressedImage_ISaIvEEEEEvRKT_+0x42f>
  40c864:	cc                   	int3   
  40c865:	48 81 c4 48 01 00 00 	add    $0x148,%rsp
  40c86c:	5b                   	pop    %rbx
  40c86d:	5d                   	pop    %rbp
  40c86e:	c3                   	retq   
  40c86f:	90                   	nop
  40c870:	48 8b 3b             	mov    (%rbx),%rdi
  40c873:	48 85 ff             	test   %rdi,%rdi
  40c876:	0f 84 4e 03 00 00    	je     40cbca <_ZNK3ros9Publisher7publishIN11sensor_msgs16CompressedImage_ISaIvEEEEEvRKT_+0x42a>
  40c87c:	48 83 c7 08          	add    $0x8,%rdi
  40c880:	be e2 2d 41 00       	mov    $0x412de2,%esi
  40c885:	e8 46 ca ff ff       	callq  4092d0 <_ZNKSs7compareEPKc@plt>
  40c88a:	85 c0                	test   %eax,%eax
  40c88c:	0f 85 bf 00 00 00    	jne    40c951 <_ZNK3ros9Publisher7publishIN11sensor_msgs16CompressedImage_ISaIvEEEEEvRKT_+0x1b1>
  40c892:	48 8b 3b             	mov    (%rbx),%rdi
  40c895:	48 85 ff             	test   %rdi,%rdi
  40c898:	0f 84 2c 03 00 00    	je     40cbca <_ZNK3ros9Publisher7publishIN11sensor_msgs16CompressedImage_ISaIvEEEEEvRKT_+0x42a>
  40c89e:	48 83 c7 08          	add    $0x8,%rdi
  40c8a2:	be 98 25 41 00       	mov    $0x412598,%esi
  40c8a7:	e8 24 ca ff ff       	callq  4092d0 <_ZNKSs7compareEPKc@plt>
  40c8ac:	85 c0                	test   %eax,%eax
  40c8ae:	0f 84 9d 00 00 00    	je     40c951 <_ZNK3ros9Publisher7publishIN11sensor_msgs16CompressedImage_ISaIvEEEEEvRKT_+0x1b1>
  40c8b4:	80 3d 7d af 20 00 00 	cmpb   $0x0,0x20af7d(%rip)        # 617838 <_ZN3ros7console13g_initializedE>
  40c8bb:	0f 84 03 09 00 00    	je     40d1c4 <_ZNK3ros9Publisher7publishIN11sensor_msgs16CompressedImage_ISaIvEEEEEvRKT_+0xa24>
  40c8c1:	80 3d e8 ad 20 00 00 	cmpb   $0x0,0x20ade8(%rip)        # 6176b0 <_ZZNK3ros9Publisher7publishIN11sensor_msgs16CompressedImage_ISaIvEEEEEvRKT_E3loc_5>
  40c8c8:	0f 84 b3 08 00 00    	je     40d181 <_ZNK3ros9Publisher7publishIN11sensor_msgs16CompressedImage_ISaIvEEEEEvRKT_+0x9e1>
  40c8ce:	83 3d df ad 20 00 04 	cmpl   $0x4,0x20addf(%rip)        # 6176b4 <_ZZNK3ros9Publisher7publishIN11sensor_msgs16CompressedImage_ISaIvEEEEEvRKT_E3loc_5+0x4>
  40c8d5:	0f 85 88 08 00 00    	jne    40d163 <_ZNK3ros9Publisher7publishIN11sensor_msgs16CompressedImage_ISaIvEEEEEvRKT_+0x9c3>
  40c8db:	80 3d cf ad 20 00 00 	cmpb   $0x0,0x20adcf(%rip)        # 6176b1 <_ZZNK3ros9Publisher7publishIN11sensor_msgs16CompressedImage_ISaIvEEEEEvRKT_E3loc_5+0x1>
  40c8e2:	0f 85 2d 08 00 00    	jne    40d115 <_ZNK3ros9Publisher7publishIN11sensor_msgs16CompressedImage_ISaIvEEEEEvRKT_+0x975>
  40c8e8:	80 3d 49 af 20 00 00 	cmpb   $0x0,0x20af49(%rip)        # 617838 <_ZN3ros7console13g_initializedE>
  40c8ef:	0f 84 15 08 00 00    	je     40d10a <_ZNK3ros9Publisher7publishIN11sensor_msgs16CompressedImage_ISaIvEEEEEvRKT_+0x96a>
  40c8f5:	80 3d c4 ad 20 00 00 	cmpb   $0x0,0x20adc4(%rip)        # 6176c0 <_ZZNK3ros9Publisher7publishIN11sensor_msgs16CompressedImage_ISaIvEEEEEvRKT_E3loc_6>
  40c8fc:	0f 84 c5 07 00 00    	je     40d0c7 <_ZNK3ros9Publisher7publishIN11sensor_msgs16CompressedImage_ISaIvEEEEEvRKT_+0x927>
  40c902:	83 3d bb ad 20 00 04 	cmpl   $0x4,0x20adbb(%rip)        # 6176c4 <_ZZNK3ros9Publisher7publishIN11sensor_msgs16CompressedImage_ISaIvEEEEEvRKT_E3loc_6+0x4>
  40c909:	0f 85 9a 07 00 00    	jne    40d0a9 <_ZNK3ros9Publisher7publishIN11sensor_msgs16CompressedImage_ISaIvEEEEEvRKT_+0x909>
  40c90f:	80 3d ab ad 20 00 00 	cmpb   $0x0,0x20adab(%rip)        # 6176c1 <_ZZNK3ros9Publisher7publishIN11sensor_msgs16CompressedImage_ISaIvEEEEEvRKT_E3loc_6+0x1>
  40c916:	0f 85 29 07 00 00    	jne    40d045 <_ZNK3ros9Publisher7publishIN11sensor_msgs16CompressedImage_ISaIvEEEEEvRKT_+0x8a5>
  40c91c:	80 3d 15 af 20 00 00 	cmpb   $0x0,0x20af15(%rip)        # 617838 <_ZN3ros7console13g_initializedE>
  40c923:	0f 84 f4 06 00 00    	je     40d01d <_ZNK3ros9Publisher7publishIN11sensor_msgs16CompressedImage_ISaIvEEEEEvRKT_+0x87d>
  40c929:	80 3d a0 ad 20 00 00 	cmpb   $0x0,0x20ada0(%rip)        # 6176d0 <_ZZNK3ros9Publisher7publishIN11sensor_msgs16CompressedImage_ISaIvEEEEEvRKT_E3loc_7>
  40c930:	0f 84 a4 06 00 00    	je     40cfda <_ZNK3ros9Publisher7publishIN11sensor_msgs16CompressedImage_ISaIvEEEEEvRKT_+0x83a>
  40c936:	83 3d 97 ad 20 00 04 	cmpl   $0x4,0x20ad97(%rip)        # 6176d4 <_ZZNK3ros9Publisher7publishIN11sensor_msgs16CompressedImage_ISaIvEEEEEvRKT_E3loc_7+0x4>
  40c93d:	0f 85 e4 06 00 00    	jne    40d027 <_ZNK3ros9Publisher7publishIN11sensor_msgs16CompressedImage_ISaIvEEEEEvRKT_+0x887>
  40c943:	80 3d 87 ad 20 00 00 	cmpb   $0x0,0x20ad87(%rip)        # 6176d1 <_ZZNK3ros9Publisher7publishIN11sensor_msgs16CompressedImage_ISaIvEEEEEvRKT_E3loc_7+0x1>
  40c94a:	0f 85 56 06 00 00    	jne    40cfa6 <_ZNK3ros9Publisher7publishIN11sensor_msgs16CompressedImage_ISaIvEEEEEvRKT_+0x806>
  40c950:	cc                   	int3   
  40c951:	bf 20 00 00 00       	mov    $0x20,%edi
  40c956:	48 c7 44 24 30 00 00 	movq   $0x0,0x30(%rsp)
  40c95d:	00 00 
  40c95f:	48 c7 44 24 38 00 00 	movq   $0x0,0x38(%rsp)
  40c966:	00 00 
  40c968:	e8 b3 cb ff ff       	callq  409520 <_Znwm@plt>
  40c96d:	48 8d bc 24 90 00 00 	lea    0x90(%rsp),%rdi
  40c974:	00 
  40c975:	48 c7 00 f0 37 41 00 	movq   $0x4137f0,(%rax)
  40c97c:	c7 40 08 01 00 00 00 	movl   $0x1,0x8(%rax)
  40c983:	c7 40 0c 01 00 00 00 	movl   $0x1,0xc(%rax)
  40c98a:	48 c7 40 10 00 00 00 	movq   $0x0,0x10(%rax)
  40c991:	00 
  40c992:	48 89 44 24 38       	mov    %rax,0x38(%rsp)
  40c997:	31 c0                	xor    %eax,%eax
  40c999:	48 c7 44 24 40 00 00 	movq   $0x0,0x40(%rsp)
  40c9a0:	00 00 
  40c9a2:	48 c7 44 24 48 00 00 	movq   $0x0,0x48(%rsp)
  40c9a9:	00 00 
  40c9ab:	48 c7 44 24 50 00 00 	movq   $0x0,0x50(%rsp)
  40c9b2:	00 00 
  40c9b4:	48 c7 44 24 58 00 00 	movq   $0x0,0x58(%rsp)
  40c9bb:	00 00 
  40c9bd:	48 c7 44 24 60 00 00 	movq   $0x0,0x60(%rsp)
  40c9c4:	00 00 
  40c9c6:	48 c7 44 24 70 00 00 	movq   $0x0,0x70(%rsp)
  40c9cd:	00 00 
  40c9cf:	48 c7 84 24 90 00 00 	movq   $0x40c400,0x90(%rsp)
  40c9d6:	00 00 c4 40 00 
  40c9db:	48 89 ac 24 98 00 00 	mov    %rbp,0x98(%rsp)
  40c9e2:	00 
  40c9e3:	e8 08 e6 ff ff       	callq  40aff0 <_ZN5boost6detail8function16has_empty_targetEz>
  40c9e8:	84 c0                	test   %al,%al
  40c9ea:	75 1f                	jne    40ca0b <_ZNK3ros9Publisher7publishIN11sensor_msgs16CompressedImage_ISaIvEEEEEvRKT_+0x26b>
  40c9ec:	b8 e0 76 61 00       	mov    $0x6176e0,%eax
  40c9f1:	48 c7 44 24 78 00 c4 	movq   $0x40c400,0x78(%rsp)
  40c9f8:	40 00 
  40c9fa:	48 89 ac 24 80 00 00 	mov    %rbp,0x80(%rsp)
  40ca01:	00 
  40ca02:	48 83 c8 01          	or     $0x1,%rax
  40ca06:	48 89 44 24 70       	mov    %rax,0x70(%rsp)
  40ca0b:	48 8d 54 24 30       	lea    0x30(%rsp),%rdx
  40ca10:	48 8d 74 24 70       	lea    0x70(%rsp),%rsi
  40ca15:	48 89 df             	mov    %rbx,%rdi
  40ca18:	e8 c3 cc ff ff       	callq  4096e0 <_ZNK3ros9Publisher7publishERKN5boost8functionIFNS_17SerializedMessageEvEEERS3_@plt>
  40ca1d:	48 8b 44 24 70       	mov    0x70(%rsp),%rax
  40ca22:	48 85 c0             	test   %rax,%rax
  40ca25:	74 0d                	je     40ca34 <_ZNK3ros9Publisher7publishIN11sensor_msgs16CompressedImage_ISaIvEEEEEvRKT_+0x294>
  40ca27:	a8 01                	test   $0x1,%al
  40ca29:	74 75                	je     40caa0 <_ZNK3ros9Publisher7publishIN11sensor_msgs16CompressedImage_ISaIvEEEEEvRKT_+0x300>
  40ca2b:	48 c7 44 24 70 00 00 	movq   $0x0,0x70(%rsp)
  40ca32:	00 00 
  40ca34:	48 8b 5c 24 58       	mov    0x58(%rsp),%rbx
  40ca39:	48 85 db             	test   %rbx,%rbx
  40ca3c:	74 13                	je     40ca51 <_ZNK3ros9Publisher7publishIN11sensor_msgs16CompressedImage_ISaIvEEEEEvRKT_+0x2b1>
  40ca3e:	b8 ff ff ff ff       	mov    $0xffffffff,%eax
  40ca43:	f0 0f c1 43 08       	lock xadd %eax,0x8(%rbx)
  40ca48:	83 f8 01             	cmp    $0x1,%eax
  40ca4b:	0f 84 4f 01 00 00    	je     40cba0 <_ZNK3ros9Publisher7publishIN11sensor_msgs16CompressedImage_ISaIvEEEEEvRKT_+0x400>
  40ca51:	48 8b 5c 24 38       	mov    0x38(%rsp),%rbx
  40ca56:	48 85 db             	test   %rbx,%rbx
  40ca59:	0f 84 06 fe ff ff    	je     40c865 <_ZNK3ros9Publisher7publishIN11sensor_msgs16CompressedImage_ISaIvEEEEEvRKT_+0xc5>
  40ca5f:	bd ff ff ff ff       	mov    $0xffffffff,%ebp
  40ca64:	89 e8                	mov    %ebp,%eax
  40ca66:	f0 0f c1 43 08       	lock xadd %eax,0x8(%rbx)
  40ca6b:	83 f8 01             	cmp    $0x1,%eax
  40ca6e:	0f 85 f1 fd ff ff    	jne    40c865 <_ZNK3ros9Publisher7publishIN11sensor_msgs16CompressedImage_ISaIvEEEEEvRKT_+0xc5>
  40ca74:	48 8b 03             	mov    (%rbx),%rax
  40ca77:	48 89 df             	mov    %rbx,%rdi
  40ca7a:	ff 50 10             	callq  *0x10(%rax)
  40ca7d:	f0 0f c1 6b 0c       	lock xadd %ebp,0xc(%rbx)
  40ca82:	83 fd 01             	cmp    $0x1,%ebp
  40ca85:	0f 85 da fd ff ff    	jne    40c865 <_ZNK3ros9Publisher7publishIN11sensor_msgs16CompressedImage_ISaIvEEEEEvRKT_+0xc5>
  40ca8b:	48 8b 03             	mov    (%rbx),%rax
  40ca8e:	48 89 df             	mov    %rbx,%rdi
  40ca91:	ff 50 18             	callq  *0x18(%rax)
  40ca94:	e9 cc fd ff ff       	jmpq   40c865 <_ZNK3ros9Publisher7publishIN11sensor_msgs16CompressedImage_ISaIvEEEEEvRKT_+0xc5>
  40ca99:	0f 1f 80 00 00 00 00 	nopl   0x0(%rax)
  40caa0:	48 83 e0 fe          	and    $0xfffffffffffffffe,%rax
  40caa4:	48 8b 00             	mov    (%rax),%rax
  40caa7:	48 85 c0             	test   %rax,%rax
  40caaa:	0f 84 7b ff ff ff    	je     40ca2b <_ZNK3ros9Publisher7publishIN11sensor_msgs16CompressedImage_ISaIvEEEEEvRKT_+0x28b>
  40cab0:	48 8d 7c 24 78       	lea    0x78(%rsp),%rdi
  40cab5:	ba 02 00 00 00       	mov    $0x2,%edx
  40caba:	48 89 fe             	mov    %rdi,%rsi
  40cabd:	ff d0                	callq  *%rax
  40cabf:	e9 67 ff ff ff       	jmpq   40ca2b <_ZNK3ros9Publisher7publishIN11sensor_msgs16CompressedImage_ISaIvEEEEEvRKT_+0x28b>
  40cac4:	0f 1f 40 00          	nopl   0x0(%rax)
  40cac8:	80 3d 69 ad 20 00 00 	cmpb   $0x0,0x20ad69(%rip)        # 617838 <_ZN3ros7console13g_initializedE>
  40cacf:	0f 84 62 04 00 00    	je     40cf37 <_ZNK3ros9Publisher7publishIN11sensor_msgs16CompressedImage_ISaIvEEEEEvRKT_+0x797>
  40cad5:	80 3d 74 ab 20 00 00 	cmpb   $0x0,0x20ab74(%rip)        # 617650 <_ZZNK3ros9Publisher7publishIN11sensor_msgs16CompressedImage_ISaIvEEEEEvRKT_E3loc>
  40cadc:	0f 84 81 04 00 00    	je     40cf63 <_ZNK3ros9Publisher7publishIN11sensor_msgs16CompressedImage_ISaIvEEEEEvRKT_+0x7c3>
  40cae2:	83 3d 6b ab 20 00 04 	cmpl   $0x4,0x20ab6b(%rip)        # 617654 <_ZZNK3ros9Publisher7publishIN11sensor_msgs16CompressedImage_ISaIvEEEEEvRKT_E3loc+0x4>
  40cae9:	0f 85 56 04 00 00    	jne    40cf45 <_ZNK3ros9Publisher7publishIN11sensor_msgs16CompressedImage_ISaIvEEEEEvRKT_+0x7a5>
  40caef:	80 3d 5b ab 20 00 00 	cmpb   $0x0,0x20ab5b(%rip)        # 617651 <_ZZNK3ros9Publisher7publishIN11sensor_msgs16CompressedImage_ISaIvEEEEEvRKT_E3loc+0x1>
  40caf6:	0f 85 b9 03 00 00    	jne    40ceb5 <_ZNK3ros9Publisher7publishIN11sensor_msgs16CompressedImage_ISaIvEEEEEvRKT_+0x715>
  40cafc:	80 3d 35 ad 20 00 00 	cmpb   $0x0,0x20ad35(%rip)        # 617838 <_ZN3ros7console13g_initializedE>
  40cb03:	0f 84 a2 03 00 00    	je     40ceab <_ZNK3ros9Publisher7publishIN11sensor_msgs16CompressedImage_ISaIvEEEEEvRKT_+0x70b>
  40cb09:	80 3d 50 ab 20 00 00 	cmpb   $0x0,0x20ab50(%rip)        # 617660 <_ZZNK3ros9Publisher7publishIN11sensor_msgs16CompressedImage_ISaIvEEEEEvRKT_E3loc_0>
  40cb10:	0f 84 52 03 00 00    	je     40ce68 <_ZNK3ros9Publisher7publishIN11sensor_msgs16CompressedImage_ISaIvEEEEEvRKT_+0x6c8>
  40cb16:	83 3d 47 ab 20 00 04 	cmpl   $0x4,0x20ab47(%rip)        # 617664 <_ZZNK3ros9Publisher7publishIN11sensor_msgs16CompressedImage_ISaIvEEEEEvRKT_E3loc_0+0x4>
  40cb1d:	0f 85 27 03 00 00    	jne    40ce4a <_ZNK3ros9Publisher7publishIN11sensor_msgs16CompressedImage_ISaIvEEEEEvRKT_+0x6aa>
  40cb23:	80 3d 37 ab 20 00 00 	cmpb   $0x0,0x20ab37(%rip)        # 617661 <_ZZNK3ros9Publisher7publishIN11sensor_msgs16CompressedImage_ISaIvEEEEEvRKT_E3loc_0+0x1>
  40cb2a:	0f 85 d3 03 00 00    	jne    40cf03 <_ZNK3ros9Publisher7publishIN11sensor_msgs16CompressedImage_ISaIvEEEEEvRKT_+0x763>
  40cb30:	80 3d 01 ad 20 00 00 	cmpb   $0x0,0x20ad01(%rip)        # 617838 <_ZN3ros7console13g_initializedE>
  40cb37:	0f 84 03 03 00 00    	je     40ce40 <_ZNK3ros9Publisher7publishIN11sensor_msgs16CompressedImage_ISaIvEEEEEvRKT_+0x6a0>
  40cb3d:	80 3d 2c ab 20 00 00 	cmpb   $0x0,0x20ab2c(%rip)        # 617670 <_ZZNK3ros9Publisher7publishIN11sensor_msgs16CompressedImage_ISaIvEEEEEvRKT_E3loc_1>
  40cb44:	0f 84 b3 02 00 00    	je     40cdfd <_ZNK3ros9Publisher7publishIN11sensor_msgs16CompressedImage_ISaIvEEEEEvRKT_+0x65d>
  40cb4a:	83 3d 23 ab 20 00 04 	cmpl   $0x4,0x20ab23(%rip)        # 617674 <_ZZNK3ros9Publisher7publishIN11sensor_msgs16CompressedImage_ISaIvEEEEEvRKT_E3loc_1+0x4>
  40cb51:	0f 85 88 02 00 00    	jne    40cddf <_ZNK3ros9Publisher7publishIN11sensor_msgs16CompressedImage_ISaIvEEEEEvRKT_+0x63f>
  40cb57:	80 3d 13 ab 20 00 00 	cmpb   $0x0,0x20ab13(%rip)        # 617671 <_ZZNK3ros9Publisher7publishIN11sensor_msgs16CompressedImage_ISaIvEEEEEvRKT_E3loc_1+0x1>
  40cb5e:	0f 84 00 fd ff ff    	je     40c864 <_ZNK3ros9Publisher7publishIN11sensor_msgs16CompressedImage_ISaIvEEEEEvRKT_+0xc4>
  40cb64:	8b 15 0a ab 20 00    	mov    0x20ab0a(%rip),%edx        # 617674 <_ZZNK3ros9Publisher7publishIN11sensor_msgs16CompressedImage_ISaIvEEEEEvRKT_E3loc_1+0x4>
  40cb6a:	48 8b 35 07 ab 20 00 	mov    0x20ab07(%rip),%rsi        # 617678 <_ZZNK3ros9Publisher7publishIN11sensor_msgs16CompressedImage_ISaIvEEEEEvRKT_E3loc_1+0x8>
  40cb71:	41 b9 c0 30 41 00    	mov    $0x4130c0,%r9d
  40cb77:	41 b8 66 00 00 00    	mov    $0x66,%r8d
  40cb7d:	b9 d0 2a 41 00       	mov    $0x412ad0,%ecx
  40cb82:	31 ff                	xor    %edi,%edi
  40cb84:	31 c0                	xor    %eax,%eax
  40cb86:	48 c7 04 24 e0 2d 41 	movq   $0x412de0,(%rsp)
  40cb8d:	00 
  40cb8e:	e8 8d c7 ff ff       	callq  409320 <_ZN3ros7console5printEPNS0_10FilterBaseEPN7log4cxx6LoggerENS0_6levels5LevelEPKciS9_S9_z@plt>
  40cb93:	e9 cc fc ff ff       	jmpq   40c864 <_ZNK3ros9Publisher7publishIN11sensor_msgs16CompressedImage_ISaIvEEEEEvRKT_+0xc4>
  40cb98:	0f 1f 84 00 00 00 00 	nopl   0x0(%rax,%rax,1)
  40cb9f:	00 
  40cba0:	48 8b 03             	mov    (%rbx),%rax
  40cba3:	48 89 df             	mov    %rbx,%rdi
  40cba6:	ff 50 10             	callq  *0x10(%rax)
  40cba9:	b8 ff ff ff ff       	mov    $0xffffffff,%eax
  40cbae:	f0 0f c1 43 0c       	lock xadd %eax,0xc(%rbx)
  40cbb3:	83 f8 01             	cmp    $0x1,%eax
  40cbb6:	0f 85 95 fe ff ff    	jne    40ca51 <_ZNK3ros9Publisher7publishIN11sensor_msgs16CompressedImage_ISaIvEEEEEvRKT_+0x2b1>
  40cbbc:	48 8b 03             	mov    (%rbx),%rax
  40cbbf:	48 89 df             	mov    %rbx,%rdi
  40cbc2:	ff 50 18             	callq  *0x18(%rax)
  40cbc5:	e9 87 fe ff ff       	jmpq   40ca51 <_ZNK3ros9Publisher7publishIN11sensor_msgs16CompressedImage_ISaIvEEEEEvRKT_+0x2b1>
  40cbca:	e8 d1 cb ff ff       	callq  4097a0 <_ZNK5boost10shared_ptrIN3ros9Publisher4ImplEEptEv.isra.48.part.49>
  40cbcf:	8b 15 cf aa 20 00    	mov    0x20aacf(%rip),%edx        # 6176a4 <_ZZNK3ros9Publisher7publishIN11sensor_msgs16CompressedImage_ISaIvEEEEEvRKT_E3loc_4+0x4>
  40cbd5:	48 8b 35 cc aa 20 00 	mov    0x20aacc(%rip),%rsi        # 6176a8 <_ZZNK3ros9Publisher7publishIN11sensor_msgs16CompressedImage_ISaIvEEEEEvRKT_E3loc_4+0x8>
  40cbdc:	41 b9 c0 30 41 00    	mov    $0x4130c0,%r9d
  40cbe2:	41 b8 6c 00 00 00    	mov    $0x6c,%r8d
  40cbe8:	b9 d0 2a 41 00       	mov    $0x412ad0,%ecx
  40cbed:	31 ff                	xor    %edi,%edi
  40cbef:	31 c0                	xor    %eax,%eax
  40cbf1:	48 c7 04 24 e0 2d 41 	movq   $0x412de0,(%rsp)
  40cbf8:	00 
  40cbf9:	e8 22 c7 ff ff       	callq  409320 <_ZN3ros7console5printEPNS0_10FilterBaseEPN7log4cxx6LoggerENS0_6levels5LevelEPKciS9_S9_z@plt>
  40cbfe:	e9 61 fc ff ff       	jmpq   40c864 <_ZNK3ros9Publisher7publishIN11sensor_msgs16CompressedImage_ISaIvEEEEEvRKT_+0xc4>
  40cc03:	be 04 00 00 00       	mov    $0x4,%esi
  40cc08:	bf 80 76 61 00       	mov    $0x617680,%edi
  40cc0d:	e8 0e ca ff ff       	callq  409620 <_ZN3ros7console19setLogLocationLevelEPNS0_11LogLocationENS0_6levels5LevelE@plt>
  40cc12:	bf 80 76 61 00       	mov    $0x617680,%edi
  40cc17:	e8 d4 ca ff ff       	callq  4096f0 <_ZN3ros7console23checkLogLocationEnabledEPNS0_11LogLocationE@plt>
  40cc1c:	e9 ce fb ff ff       	jmpq   40c7ef <_ZNK3ros9Publisher7publishIN11sensor_msgs16CompressedImage_ISaIvEEEEEvRKT_+0x4f>
  40cc21:	e8 ca c7 ff ff       	callq  4093f0 <_ZN3ros7console10initializeEv@plt>
  40cc26:	e9 aa fb ff ff       	jmpq   40c7d5 <_ZNK3ros9Publisher7publishIN11sensor_msgs16CompressedImage_ISaIvEEEEEvRKT_+0x35>
  40cc2b:	0f 1f 44 00 00       	nopl   0x0(%rax,%rax,1)
  40cc30:	e8 bb c7 ff ff       	callq  4093f0 <_ZN3ros7console10initializeEv@plt>
  40cc35:	e9 03 fc ff ff       	jmpq   40c83d <_ZNK3ros9Publisher7publishIN11sensor_msgs16CompressedImage_ISaIvEEEEEvRKT_+0x9d>
  40cc3a:	48 8d 94 24 3c 01 00 	lea    0x13c(%rsp),%rdx
  40cc41:	00 
  40cc42:	48 8d bc 24 f0 00 00 	lea    0xf0(%rsp),%rdi
  40cc49:	00 
  40cc4a:	be cf 2d 41 00       	mov    $0x412dcf,%esi
  40cc4f:	e8 1c c9 ff ff       	callq  409570 <_ZNSsC1EPKcRKSaIcE@plt>
  40cc54:	48 8d b4 24 f0 00 00 	lea    0xf0(%rsp),%rsi
  40cc5b:	00 
  40cc5c:	ba 04 00 00 00       	mov    $0x4,%edx
  40cc61:	bf a0 76 61 00       	mov    $0x6176a0,%edi
  40cc66:	e8 c5 c7 ff ff       	callq  409430 <_ZN3ros7console21initializeLogLocationEPNS0_11LogLocationERKSsNS0_6levels5LevelE@plt>
  40cc6b:	48 8d bc 24 f0 00 00 	lea    0xf0(%rsp),%rdi
  40cc72:	00 
  40cc73:	e8 18 ca ff ff       	callq  409690 <_ZNSsD1Ev@plt>
  40cc78:	e9 cd fb ff ff       	jmpq   40c84a <_ZNK3ros9Publisher7publishIN11sensor_msgs16CompressedImage_ISaIvEEEEEvRKT_+0xaa>
  40cc7d:	be 04 00 00 00       	mov    $0x4,%esi
  40cc82:	bf a0 76 61 00       	mov    $0x6176a0,%edi
  40cc87:	e8 94 c9 ff ff       	callq  409620 <_ZN3ros7console19setLogLocationLevelEPNS0_11LogLocationENS0_6levels5LevelE@plt>
  40cc8c:	bf a0 76 61 00       	mov    $0x6176a0,%edi
  40cc91:	e8 5a ca ff ff       	callq  4096f0 <_ZN3ros7console23checkLogLocationEnabledEPNS0_11LogLocationE@plt>
  40cc96:	e9 bc fb ff ff       	jmpq   40c857 <_ZNK3ros9Publisher7publishIN11sensor_msgs16CompressedImage_ISaIvEEEEEvRKT_+0xb7>
  40cc9b:	48 8d 94 24 3a 01 00 	lea    0x13a(%rsp),%rdx
  40cca2:	00 
  40cca3:	48 8d bc 24 d0 00 00 	lea    0xd0(%rsp),%rdi
  40ccaa:	00 
  40ccab:	be cf 2d 41 00       	mov    $0x412dcf,%esi
  40ccb0:	e8 bb c8 ff ff       	callq  409570 <_ZNSsC1EPKcRKSaIcE@plt>
  40ccb5:	48 8d b4 24 d0 00 00 	lea    0xd0(%rsp),%rsi
  40ccbc:	00 
  40ccbd:	ba 04 00 00 00       	mov    $0x4,%edx
  40ccc2:	bf 80 76 61 00       	mov    $0x617680,%edi
  40ccc7:	e8 64 c7 ff ff       	callq  409430 <_ZN3ros7console21initializeLogLocationEPNS0_11LogLocationERKSsNS0_6levels5LevelE@plt>
  40cccc:	48 8d bc 24 d0 00 00 	lea    0xd0(%rsp),%rdi
  40ccd3:	00 
  40ccd4:	e8 b7 c9 ff ff       	callq  409690 <_ZNSsD1Ev@plt>
  40ccd9:	e9 04 fb ff ff       	jmpq   40c7e2 <_ZNK3ros9Publisher7publishIN11sensor_msgs16CompressedImage_ISaIvEEEEEvRKT_+0x42>
  40ccde:	8b 15 a0 a9 20 00    	mov    0x20a9a0(%rip),%edx        # 617684 <_ZZNK3ros9Publisher7publishIN11sensor_msgs16CompressedImage_ISaIvEEEEEvRKT_E3loc_2+0x4>
  40cce4:	48 8b 35 9d a9 20 00 	mov    0x20a99d(%rip),%rsi        # 617688 <_ZZNK3ros9Publisher7publishIN11sensor_msgs16CompressedImage_ISaIvEEEEEvRKT_E3loc_2+0x8>
  40cceb:	41 b9 c0 30 41 00    	mov    $0x4130c0,%r9d
  40ccf1:	41 b8 6c 00 00 00    	mov    $0x6c,%r8d
  40ccf7:	b9 d0 2a 41 00       	mov    $0x412ad0,%ecx
  40ccfc:	31 ff                	xor    %edi,%edi
  40ccfe:	31 c0                	xor    %eax,%eax
  40cd00:	48 c7 44 24 18 da 2d 	movq   $0x412dda,0x18(%rsp)
  40cd07:	41 00 
  40cd09:	c7 44 24 10 6c 00 00 	movl   $0x6c,0x10(%rsp)
  40cd10:	00 
  40cd11:	48 c7 44 24 08 d0 2a 	movq   $0x412ad0,0x8(%rsp)
  40cd18:	41 00 
  40cd1a:	48 c7 04 24 18 2b 41 	movq   $0x412b18,(%rsp)
  40cd21:	00 
  40cd22:	e8 f9 c5 ff ff       	callq  409320 <_ZN3ros7console5printEPNS0_10FilterBaseEPN7log4cxx6LoggerENS0_6levels5LevelEPKciS9_S9_z@plt>
  40cd27:	e9 d0 fa ff ff       	jmpq   40c7fc <_ZNK3ros9Publisher7publishIN11sensor_msgs16CompressedImage_ISaIvEEEEEvRKT_+0x5c>
  40cd2c:	e8 bf c6 ff ff       	callq  4093f0 <_ZN3ros7console10initializeEv@plt>
  40cd31:	e9 d3 fa ff ff       	jmpq   40c809 <_ZNK3ros9Publisher7publishIN11sensor_msgs16CompressedImage_ISaIvEEEEEvRKT_+0x69>
  40cd36:	48 8d 94 24 3b 01 00 	lea    0x13b(%rsp),%rdx
  40cd3d:	00 
  40cd3e:	48 8d bc 24 e0 00 00 	lea    0xe0(%rsp),%rdi
  40cd45:	00 
  40cd46:	be cf 2d 41 00       	mov    $0x412dcf,%esi
  40cd4b:	e8 20 c8 ff ff       	callq  409570 <_ZNSsC1EPKcRKSaIcE@plt>
  40cd50:	48 8d b4 24 e0 00 00 	lea    0xe0(%rsp),%rsi
  40cd57:	00 
  40cd58:	ba 04 00 00 00       	mov    $0x4,%edx
  40cd5d:	bf 90 76 61 00       	mov    $0x617690,%edi
  40cd62:	e8 c9 c6 ff ff       	callq  409430 <_ZN3ros7console21initializeLogLocationEPNS0_11LogLocationERKSsNS0_6levels5LevelE@plt>
  40cd67:	48 8d bc 24 e0 00 00 	lea    0xe0(%rsp),%rdi
  40cd6e:	00 
  40cd6f:	e8 1c c9 ff ff       	callq  409690 <_ZNSsD1Ev@plt>
  40cd74:	e9 9d fa ff ff       	jmpq   40c816 <_ZNK3ros9Publisher7publishIN11sensor_msgs16CompressedImage_ISaIvEEEEEvRKT_+0x76>
  40cd79:	be 04 00 00 00       	mov    $0x4,%esi
  40cd7e:	bf 90 76 61 00       	mov    $0x617690,%edi
  40cd83:	e8 98 c8 ff ff       	callq  409620 <_ZN3ros7console19setLogLocationLevelEPNS0_11LogLocationENS0_6levels5LevelE@plt>
  40cd88:	bf 90 76 61 00       	mov    $0x617690,%edi
  40cd8d:	e8 5e c9 ff ff       	callq  4096f0 <_ZN3ros7console23checkLogLocationEnabledEPNS0_11LogLocationE@plt>
  40cd92:	e9 8c fa ff ff       	jmpq   40c823 <_ZNK3ros9Publisher7publishIN11sensor_msgs16CompressedImage_ISaIvEEEEEvRKT_+0x83>
  40cd97:	48 8b 03             	mov    (%rbx),%rax
  40cd9a:	48 85 c0             	test   %rax,%rax
  40cd9d:	0f 84 27 fe ff ff    	je     40cbca <_ZNK3ros9Publisher7publishIN11sensor_msgs16CompressedImage_ISaIvEEEEEvRKT_+0x42a>
  40cda3:	48 8b 00             	mov    (%rax),%rax
  40cda6:	8b 15 e8 a8 20 00    	mov    0x20a8e8(%rip),%edx        # 617694 <_ZZNK3ros9Publisher7publishIN11sensor_msgs16CompressedImage_ISaIvEEEEEvRKT_E3loc_3+0x4>
  40cdac:	41 b9 c0 30 41 00    	mov    $0x4130c0,%r9d
  40cdb2:	48 8b 35 df a8 20 00 	mov    0x20a8df(%rip),%rsi        # 617698 <_ZZNK3ros9Publisher7publishIN11sensor_msgs16CompressedImage_ISaIvEEEEEvRKT_E3loc_3+0x8>
  40cdb9:	41 b8 6c 00 00 00    	mov    $0x6c,%r8d
  40cdbf:	b9 d0 2a 41 00       	mov    $0x412ad0,%ecx
  40cdc4:	31 ff                	xor    %edi,%edi
  40cdc6:	48 c7 04 24 88 2b 41 	movq   $0x412b88,(%rsp)
  40cdcd:	00 
  40cdce:	48 89 44 24 08       	mov    %rax,0x8(%rsp)
  40cdd3:	31 c0                	xor    %eax,%eax
  40cdd5:	e8 46 c5 ff ff       	callq  409320 <_ZN3ros7console5printEPNS0_10FilterBaseEPN7log4cxx6LoggerENS0_6levels5LevelEPKciS9_S9_z@plt>
  40cdda:	e9 51 fa ff ff       	jmpq   40c830 <_ZNK3ros9Publisher7publishIN11sensor_msgs16CompressedImage_ISaIvEEEEEvRKT_+0x90>
  40cddf:	be 04 00 00 00       	mov    $0x4,%esi
  40cde4:	bf 70 76 61 00       	mov    $0x617670,%edi
  40cde9:	e8 32 c8 ff ff       	callq  409620 <_ZN3ros7console19setLogLocationLevelEPNS0_11LogLocationENS0_6levels5LevelE@plt>
  40cdee:	bf 70 76 61 00       	mov    $0x617670,%edi
  40cdf3:	e8 f8 c8 ff ff       	callq  4096f0 <_ZN3ros7console23checkLogLocationEnabledEPNS0_11LogLocationE@plt>
  40cdf8:	e9 5a fd ff ff       	jmpq   40cb57 <_ZNK3ros9Publisher7publishIN11sensor_msgs16CompressedImage_ISaIvEEEEEvRKT_+0x3b7>
  40cdfd:	48 8d 94 24 39 01 00 	lea    0x139(%rsp),%rdx
  40ce04:	00 
  40ce05:	48 8d bc 24 c0 00 00 	lea    0xc0(%rsp),%rdi
  40ce0c:	00 
  40ce0d:	be cf 2d 41 00       	mov    $0x412dcf,%esi
  40ce12:	e8 59 c7 ff ff       	callq  409570 <_ZNSsC1EPKcRKSaIcE@plt>
  40ce17:	48 8d b4 24 c0 00 00 	lea    0xc0(%rsp),%rsi
  40ce1e:	00 
  40ce1f:	ba 04 00 00 00       	mov    $0x4,%edx
  40ce24:	bf 70 76 61 00       	mov    $0x617670,%edi
  40ce29:	e8 02 c6 ff ff       	callq  409430 <_ZN3ros7console21initializeLogLocationEPNS0_11LogLocationERKSsNS0_6levels5LevelE@plt>
  40ce2e:	48 8d bc 24 c0 00 00 	lea    0xc0(%rsp),%rdi
  40ce35:	00 
  40ce36:	e8 55 c8 ff ff       	callq  409690 <_ZNSsD1Ev@plt>
  40ce3b:	e9 0a fd ff ff       	jmpq   40cb4a <_ZNK3ros9Publisher7publishIN11sensor_msgs16CompressedImage_ISaIvEEEEEvRKT_+0x3aa>
  40ce40:	e8 ab c5 ff ff       	callq  4093f0 <_ZN3ros7console10initializeEv@plt>
  40ce45:	e9 f3 fc ff ff       	jmpq   40cb3d <_ZNK3ros9Publisher7publishIN11sensor_msgs16CompressedImage_ISaIvEEEEEvRKT_+0x39d>
  40ce4a:	be 04 00 00 00       	mov    $0x4,%esi
  40ce4f:	bf 60 76 61 00       	mov    $0x617660,%edi
  40ce54:	e8 c7 c7 ff ff       	callq  409620 <_ZN3ros7console19setLogLocationLevelEPNS0_11LogLocationENS0_6levels5LevelE@plt>
  40ce59:	bf 60 76 61 00       	mov    $0x617660,%edi
  40ce5e:	e8 8d c8 ff ff       	callq  4096f0 <_ZN3ros7console23checkLogLocationEnabledEPNS0_11LogLocationE@plt>
  40ce63:	e9 bb fc ff ff       	jmpq   40cb23 <_ZNK3ros9Publisher7publishIN11sensor_msgs16CompressedImage_ISaIvEEEEEvRKT_+0x383>
  40ce68:	48 8d 94 24 38 01 00 	lea    0x138(%rsp),%rdx
  40ce6f:	00 
  40ce70:	48 8d bc 24 b0 00 00 	lea    0xb0(%rsp),%rdi
  40ce77:	00 
  40ce78:	be cf 2d 41 00       	mov    $0x412dcf,%esi
  40ce7d:	e8 ee c6 ff ff       	callq  409570 <_ZNSsC1EPKcRKSaIcE@plt>
  40ce82:	48 8d b4 24 b0 00 00 	lea    0xb0(%rsp),%rsi
  40ce89:	00 
  40ce8a:	ba 04 00 00 00       	mov    $0x4,%edx
  40ce8f:	bf 60 76 61 00       	mov    $0x617660,%edi
  40ce94:	e8 97 c5 ff ff       	callq  409430 <_ZN3ros7console21initializeLogLocationEPNS0_11LogLocationERKSsNS0_6levels5LevelE@plt>
  40ce99:	48 8d bc 24 b0 00 00 	lea    0xb0(%rsp),%rdi
  40cea0:	00 
  40cea1:	e8 ea c7 ff ff       	callq  409690 <_ZNSsD1Ev@plt>
  40cea6:	e9 6b fc ff ff       	jmpq   40cb16 <_ZNK3ros9Publisher7publishIN11sensor_msgs16CompressedImage_ISaIvEEEEEvRKT_+0x376>
  40ceab:	e8 40 c5 ff ff       	callq  4093f0 <_ZN3ros7console10initializeEv@plt>
  40ceb0:	e9 54 fc ff ff       	jmpq   40cb09 <_ZNK3ros9Publisher7publishIN11sensor_msgs16CompressedImage_ISaIvEEEEEvRKT_+0x369>
  40ceb5:	8b 15 99 a7 20 00    	mov    0x20a799(%rip),%edx        # 617654 <_ZZNK3ros9Publisher7publishIN11sensor_msgs16CompressedImage_ISaIvEEEEEvRKT_E3loc+0x4>
  40cebb:	48 8b 35 96 a7 20 00 	mov    0x20a796(%rip),%rsi        # 617658 <_ZZNK3ros9Publisher7publishIN11sensor_msgs16CompressedImage_ISaIvEEEEEvRKT_E3loc+0x8>
  40cec2:	41 b9 c0 30 41 00    	mov    $0x4130c0,%r9d
  40cec8:	41 b8 66 00 00 00    	mov    $0x66,%r8d
  40cece:	b9 d0 2a 41 00       	mov    $0x412ad0,%ecx
  40ced3:	31 ff                	xor    %edi,%edi
  40ced5:	31 c0                	xor    %eax,%eax
  40ced7:	48 c7 44 24 18 da 2d 	movq   $0x412dda,0x18(%rsp)
  40cede:	41 00 
  40cee0:	c7 44 24 10 66 00 00 	movl   $0x66,0x10(%rsp)
  40cee7:	00 
  40cee8:	48 c7 44 24 08 d0 2a 	movq   $0x412ad0,0x8(%rsp)
  40ceef:	41 00 
  40cef1:	48 c7 04 24 18 2b 41 	movq   $0x412b18,(%rsp)
  40cef8:	00 
  40cef9:	e8 22 c4 ff ff       	callq  409320 <_ZN3ros7console5printEPNS0_10FilterBaseEPN7log4cxx6LoggerENS0_6levels5LevelEPKciS9_S9_z@plt>
  40cefe:	e9 f9 fb ff ff       	jmpq   40cafc <_ZNK3ros9Publisher7publishIN11sensor_msgs16CompressedImage_ISaIvEEEEEvRKT_+0x35c>
  40cf03:	8b 15 5b a7 20 00    	mov    0x20a75b(%rip),%edx        # 617664 <_ZZNK3ros9Publisher7publishIN11sensor_msgs16CompressedImage_ISaIvEEEEEvRKT_E3loc_0+0x4>
  40cf09:	48 8b 35 58 a7 20 00 	mov    0x20a758(%rip),%rsi        # 617668 <_ZZNK3ros9Publisher7publishIN11sensor_msgs16CompressedImage_ISaIvEEEEEvRKT_E3loc_0+0x8>
  40cf10:	41 b9 c0 30 41 00    	mov    $0x4130c0,%r9d
  40cf16:	41 b8 66 00 00 00    	mov    $0x66,%r8d
  40cf1c:	b9 d0 2a 41 00       	mov    $0x412ad0,%ecx
  40cf21:	31 ff                	xor    %edi,%edi
  40cf23:	31 c0                	xor    %eax,%eax
  40cf25:	48 c7 04 24 58 2b 41 	movq   $0x412b58,(%rsp)
  40cf2c:	00 
  40cf2d:	e8 ee c3 ff ff       	callq  409320 <_ZN3ros7console5printEPNS0_10FilterBaseEPN7log4cxx6LoggerENS0_6levels5LevelEPKciS9_S9_z@plt>
  40cf32:	e9 f9 fb ff ff       	jmpq   40cb30 <_ZNK3ros9Publisher7publishIN11sensor_msgs16CompressedImage_ISaIvEEEEEvRKT_+0x390>
  40cf37:	e8 b4 c4 ff ff       	callq  4093f0 <_ZN3ros7console10initializeEv@plt>
  40cf3c:	0f 1f 40 00          	nopl   0x0(%rax)
  40cf40:	e9 90 fb ff ff       	jmpq   40cad5 <_ZNK3ros9Publisher7publishIN11sensor_msgs16CompressedImage_ISaIvEEEEEvRKT_+0x335>
  40cf45:	be 04 00 00 00       	mov    $0x4,%esi
  40cf4a:	bf 50 76 61 00       	mov    $0x617650,%edi
  40cf4f:	e8 cc c6 ff ff       	callq  409620 <_ZN3ros7console19setLogLocationLevelEPNS0_11LogLocationENS0_6levels5LevelE@plt>
  40cf54:	bf 50 76 61 00       	mov    $0x617650,%edi
  40cf59:	e8 92 c7 ff ff       	callq  4096f0 <_ZN3ros7console23checkLogLocationEnabledEPNS0_11LogLocationE@plt>
  40cf5e:	e9 8c fb ff ff       	jmpq   40caef <_ZNK3ros9Publisher7publishIN11sensor_msgs16CompressedImage_ISaIvEEEEEvRKT_+0x34f>
  40cf63:	48 8d 94 24 37 01 00 	lea    0x137(%rsp),%rdx
  40cf6a:	00 
  40cf6b:	48 8d bc 24 a0 00 00 	lea    0xa0(%rsp),%rdi
  40cf72:	00 
  40cf73:	be cf 2d 41 00       	mov    $0x412dcf,%esi
  40cf78:	e8 f3 c5 ff ff       	callq  409570 <_ZNSsC1EPKcRKSaIcE@plt>
  40cf7d:	48 8d b4 24 a0 00 00 	lea    0xa0(%rsp),%rsi
  40cf84:	00 
  40cf85:	ba 04 00 00 00       	mov    $0x4,%edx
  40cf8a:	bf 50 76 61 00       	mov    $0x617650,%edi
  40cf8f:	e8 9c c4 ff ff       	callq  409430 <_ZN3ros7console21initializeLogLocationEPNS0_11LogLocationERKSsNS0_6levels5LevelE@plt>
  40cf94:	48 8d bc 24 a0 00 00 	lea    0xa0(%rsp),%rdi
  40cf9b:	00 
  40cf9c:	e8 ef c6 ff ff       	callq  409690 <_ZNSsD1Ev@plt>
  40cfa1:	e9 3c fb ff ff       	jmpq   40cae2 <_ZNK3ros9Publisher7publishIN11sensor_msgs16CompressedImage_ISaIvEEEEEvRKT_+0x342>
  40cfa6:	8b 15 28 a7 20 00    	mov    0x20a728(%rip),%edx        # 6176d4 <_ZZNK3ros9Publisher7publishIN11sensor_msgs16CompressedImage_ISaIvEEEEEvRKT_E3loc_7+0x4>
  40cfac:	48 8b 35 25 a7 20 00 	mov    0x20a725(%rip),%rsi        # 6176d8 <_ZZNK3ros9Publisher7publishIN11sensor_msgs16CompressedImage_ISaIvEEEEEvRKT_E3loc_7+0x8>
  40cfb3:	41 b9 c0 30 41 00    	mov    $0x4130c0,%r9d
  40cfb9:	41 b8 73 00 00 00    	mov    $0x73,%r8d
  40cfbf:	b9 d0 2a 41 00       	mov    $0x412ad0,%ecx
  40cfc4:	31 ff                	xor    %edi,%edi
  40cfc6:	31 c0                	xor    %eax,%eax
  40cfc8:	48 c7 04 24 e0 2d 41 	movq   $0x412de0,(%rsp)
  40cfcf:	00 
  40cfd0:	e8 4b c3 ff ff       	callq  409320 <_ZN3ros7console5printEPNS0_10FilterBaseEPN7log4cxx6LoggerENS0_6levels5LevelEPKciS9_S9_z@plt>
  40cfd5:	e9 76 f9 ff ff       	jmpq   40c950 <_ZNK3ros9Publisher7publishIN11sensor_msgs16CompressedImage_ISaIvEEEEEvRKT_+0x1b0>
  40cfda:	48 8d 94 24 3f 01 00 	lea    0x13f(%rsp),%rdx
  40cfe1:	00 
  40cfe2:	48 8d bc 24 20 01 00 	lea    0x120(%rsp),%rdi
  40cfe9:	00 
  40cfea:	be cf 2d 41 00       	mov    $0x412dcf,%esi
  40cfef:	e8 7c c5 ff ff       	callq  409570 <_ZNSsC1EPKcRKSaIcE@plt>
  40cff4:	48 8d b4 24 20 01 00 	lea    0x120(%rsp),%rsi
  40cffb:	00 
  40cffc:	ba 04 00 00 00       	mov    $0x4,%edx
  40d001:	bf d0 76 61 00       	mov    $0x6176d0,%edi
  40d006:	e8 25 c4 ff ff       	callq  409430 <_ZN3ros7console21initializeLogLocationEPNS0_11LogLocationERKSsNS0_6levels5LevelE@plt>
  40d00b:	48 8d bc 24 20 01 00 	lea    0x120(%rsp),%rdi
  40d012:	00 
  40d013:	e8 78 c6 ff ff       	callq  409690 <_ZNSsD1Ev@plt>
  40d018:	e9 19 f9 ff ff       	jmpq   40c936 <_ZNK3ros9Publisher7publishIN11sensor_msgs16CompressedImage_ISaIvEEEEEvRKT_+0x196>
  40d01d:	e8 ce c3 ff ff       	callq  4093f0 <_ZN3ros7console10initializeEv@plt>
  40d022:	e9 02 f9 ff ff       	jmpq   40c929 <_ZNK3ros9Publisher7publishIN11sensor_msgs16CompressedImage_ISaIvEEEEEvRKT_+0x189>
  40d027:	be 04 00 00 00       	mov    $0x4,%esi
  40d02c:	bf d0 76 61 00       	mov    $0x6176d0,%edi
  40d031:	e8 ea c5 ff ff       	callq  409620 <_ZN3ros7console19setLogLocationLevelEPNS0_11LogLocationENS0_6levels5LevelE@plt>
  40d036:	bf d0 76 61 00       	mov    $0x6176d0,%edi
  40d03b:	e8 b0 c6 ff ff       	callq  4096f0 <_ZN3ros7console23checkLogLocationEnabledEPNS0_11LogLocationE@plt>
  40d040:	e9 fe f8 ff ff       	jmpq   40c943 <_ZNK3ros9Publisher7publishIN11sensor_msgs16CompressedImage_ISaIvEEEEEvRKT_+0x1a3>
  40d045:	48 8b 03             	mov    (%rbx),%rax
  40d048:	48 85 c0             	test   %rax,%rax
  40d04b:	0f 84 79 fb ff ff    	je     40cbca <_ZNK3ros9Publisher7publishIN11sensor_msgs16CompressedImage_ISaIvEEEEEvRKT_+0x42a>
  40d051:	48 c7 44 24 20 98 25 	movq   $0x412598,0x20(%rsp)
  40d058:	41 00 
  40d05a:	48 c7 44 24 18 a1 2d 	movq   $0x412da1,0x18(%rsp)
  40d061:	41 00 
  40d063:	41 b9 c0 30 41 00    	mov    $0x4130c0,%r9d
  40d069:	48 8b 50 08          	mov    0x8(%rax),%rdx
  40d06d:	48 8b 35 54 a6 20 00 	mov    0x20a654(%rip),%rsi        # 6176c8 <_ZZNK3ros9Publisher7publishIN11sensor_msgs16CompressedImage_ISaIvEEEEEvRKT_E3loc_6+0x8>
  40d074:	41 b8 73 00 00 00    	mov    $0x73,%r8d
  40d07a:	b9 d0 2a 41 00       	mov    $0x412ad0,%ecx
  40d07f:	31 ff                	xor    %edi,%edi
  40d081:	48 89 54 24 10       	mov    %rdx,0x10(%rsp)
  40d086:	48 8b 40 10          	mov    0x10(%rax),%rax
  40d08a:	8b 15 34 a6 20 00    	mov    0x20a634(%rip),%edx        # 6176c4 <_ZZNK3ros9Publisher7publishIN11sensor_msgs16CompressedImage_ISaIvEEEEEvRKT_E3loc_6+0x4>
  40d090:	48 c7 04 24 08 2c 41 	movq   $0x412c08,(%rsp)
  40d097:	00 
  40d098:	48 89 44 24 08       	mov    %rax,0x8(%rsp)
  40d09d:	31 c0                	xor    %eax,%eax
  40d09f:	e8 7c c2 ff ff       	callq  409320 <_ZN3ros7console5printEPNS0_10FilterBaseEPN7log4cxx6LoggerENS0_6levels5LevelEPKciS9_S9_z@plt>
  40d0a4:	e9 73 f8 ff ff       	jmpq   40c91c <_ZNK3ros9Publisher7publishIN11sensor_msgs16CompressedImage_ISaIvEEEEEvRKT_+0x17c>
  40d0a9:	be 04 00 00 00       	mov    $0x4,%esi
  40d0ae:	bf c0 76 61 00       	mov    $0x6176c0,%edi
  40d0b3:	e8 68 c5 ff ff       	callq  409620 <_ZN3ros7console19setLogLocationLevelEPNS0_11LogLocationENS0_6levels5LevelE@plt>
  40d0b8:	bf c0 76 61 00       	mov    $0x6176c0,%edi
  40d0bd:	e8 2e c6 ff ff       	callq  4096f0 <_ZN3ros7console23checkLogLocationEnabledEPNS0_11LogLocationE@plt>
  40d0c2:	e9 48 f8 ff ff       	jmpq   40c90f <_ZNK3ros9Publisher7publishIN11sensor_msgs16CompressedImage_ISaIvEEEEEvRKT_+0x16f>
  40d0c7:	48 8d 94 24 3e 01 00 	lea    0x13e(%rsp),%rdx
  40d0ce:	00 
  40d0cf:	48 8d bc 24 10 01 00 	lea    0x110(%rsp),%rdi
  40d0d6:	00 
  40d0d7:	be cf 2d 41 00       	mov    $0x412dcf,%esi
  40d0dc:	e8 8f c4 ff ff       	callq  409570 <_ZNSsC1EPKcRKSaIcE@plt>
  40d0e1:	48 8d b4 24 10 01 00 	lea    0x110(%rsp),%rsi
  40d0e8:	00 
  40d0e9:	ba 04 00 00 00       	mov    $0x4,%edx
  40d0ee:	bf c0 76 61 00       	mov    $0x6176c0,%edi
  40d0f3:	e8 38 c3 ff ff       	callq  409430 <_ZN3ros7console21initializeLogLocationEPNS0_11LogLocationERKSsNS0_6levels5LevelE@plt>
  40d0f8:	48 8d bc 24 10 01 00 	lea    0x110(%rsp),%rdi
  40d0ff:	00 
  40d100:	e8 8b c5 ff ff       	callq  409690 <_ZNSsD1Ev@plt>
  40d105:	e9 f8 f7 ff ff       	jmpq   40c902 <_ZNK3ros9Publisher7publishIN11sensor_msgs16CompressedImage_ISaIvEEEEEvRKT_+0x162>
  40d10a:	e8 e1 c2 ff ff       	callq  4093f0 <_ZN3ros7console10initializeEv@plt>
  40d10f:	90                   	nop
  40d110:	e9 e0 f7 ff ff       	jmpq   40c8f5 <_ZNK3ros9Publisher7publishIN11sensor_msgs16CompressedImage_ISaIvEEEEEvRKT_+0x155>
  40d115:	8b 15 99 a5 20 00    	mov    0x20a599(%rip),%edx        # 6176b4 <_ZZNK3ros9Publisher7publishIN11sensor_msgs16CompressedImage_ISaIvEEEEEvRKT_E3loc_5+0x4>
  40d11b:	48 8b 35 96 a5 20 00 	mov    0x20a596(%rip),%rsi        # 6176b8 <_ZZNK3ros9Publisher7publishIN11sensor_msgs16CompressedImage_ISaIvEEEEEvRKT_E3loc_5+0x8>
  40d122:	41 b9 c0 30 41 00    	mov    $0x4130c0,%r9d
  40d128:	41 b8 73 00 00 00    	mov    $0x73,%r8d
  40d12e:	b9 d0 2a 41 00       	mov    $0x412ad0,%ecx
  40d133:	31 ff                	xor    %edi,%edi
  40d135:	31 c0                	xor    %eax,%eax
  40d137:	48 c7 44 24 18 c0 2b 	movq   $0x412bc0,0x18(%rsp)
  40d13e:	41 00 
  40d140:	c7 44 24 10 73 00 00 	movl   $0x73,0x10(%rsp)
  40d147:	00 
  40d148:	48 c7 44 24 08 d0 2a 	movq   $0x412ad0,0x8(%rsp)
  40d14f:	41 00 
  40d151:	48 c7 04 24 18 2b 41 	movq   $0x412b18,(%rsp)
  40d158:	00 
  40d159:	e8 c2 c1 ff ff       	callq  409320 <_ZN3ros7console5printEPNS0_10FilterBaseEPN7log4cxx6LoggerENS0_6levels5LevelEPKciS9_S9_z@plt>
  40d15e:	e9 85 f7 ff ff       	jmpq   40c8e8 <_ZNK3ros9Publisher7publishIN11sensor_msgs16CompressedImage_ISaIvEEEEEvRKT_+0x148>
  40d163:	be 04 00 00 00       	mov    $0x4,%esi
  40d168:	bf b0 76 61 00       	mov    $0x6176b0,%edi
  40d16d:	e8 ae c4 ff ff       	callq  409620 <_ZN3ros7console19setLogLocationLevelEPNS0_11LogLocationENS0_6levels5LevelE@plt>
  40d172:	bf b0 76 61 00       	mov    $0x6176b0,%edi
  40d177:	e8 74 c5 ff ff       	callq  4096f0 <_ZN3ros7console23checkLogLocationEnabledEPNS0_11LogLocationE@plt>
  40d17c:	e9 5a f7 ff ff       	jmpq   40c8db <_ZNK3ros9Publisher7publishIN11sensor_msgs16CompressedImage_ISaIvEEEEEvRKT_+0x13b>
  40d181:	48 8d 94 24 3d 01 00 	lea    0x13d(%rsp),%rdx
  40d188:	00 
  40d189:	48 8d bc 24 00 01 00 	lea    0x100(%rsp),%rdi
  40d190:	00 
  40d191:	be cf 2d 41 00       	mov    $0x412dcf,%esi
  40d196:	e8 d5 c3 ff ff       	callq  409570 <_ZNSsC1EPKcRKSaIcE@plt>
  40d19b:	48 8d b4 24 00 01 00 	lea    0x100(%rsp),%rsi
  40d1a2:	00 
  40d1a3:	ba 04 00 00 00       	mov    $0x4,%edx
  40d1a8:	bf b0 76 61 00       	mov    $0x6176b0,%edi
  40d1ad:	e8 7e c2 ff ff       	callq  409430 <_ZN3ros7console21initializeLogLocationEPNS0_11LogLocationERKSsNS0_6levels5LevelE@plt>
  40d1b2:	48 8d bc 24 00 01 00 	lea    0x100(%rsp),%rdi
  40d1b9:	00 
  40d1ba:	e8 d1 c4 ff ff       	callq  409690 <_ZNSsD1Ev@plt>
  40d1bf:	e9 0a f7 ff ff       	jmpq   40c8ce <_ZNK3ros9Publisher7publishIN11sensor_msgs16CompressedImage_ISaIvEEEEEvRKT_+0x12e>
  40d1c4:	e8 27 c2 ff ff       	callq  4093f0 <_ZN3ros7console10initializeEv@plt>
  40d1c9:	0f 1f 80 00 00 00 00 	nopl   0x0(%rax)
  40d1d0:	e9 ec f6 ff ff       	jmpq   40c8c1 <_ZNK3ros9Publisher7publishIN11sensor_msgs16CompressedImage_ISaIvEEEEEvRKT_+0x121>
  40d1d5:	48 8d bc 24 00 01 00 	lea    0x100(%rsp),%rdi
  40d1dc:	00 
  40d1dd:	48 89 c3             	mov    %rax,%rbx
  40d1e0:	e8 ab c4 ff ff       	callq  409690 <_ZNSsD1Ev@plt>
  40d1e5:	48 89 df             	mov    %rbx,%rdi
  40d1e8:	e8 33 c5 ff ff       	callq  409720 <_Unwind_Resume@plt>
  40d1ed:	48 8d 7c 24 38       	lea    0x38(%rsp),%rdi
  40d1f2:	48 89 c3             	mov    %rax,%rbx
  40d1f5:	e8 f6 dc ff ff       	callq  40aef0 <_ZN5boost6detail12shared_countD1Ev>
  40d1fa:	48 89 df             	mov    %rbx,%rdi
  40d1fd:	e8 1e c5 ff ff       	callq  409720 <_Unwind_Resume@plt>
  40d202:	48 8d bc 24 20 01 00 	lea    0x120(%rsp),%rdi
  40d209:	00 
  40d20a:	48 89 c3             	mov    %rax,%rbx
  40d20d:	e8 7e c4 ff ff       	callq  409690 <_ZNSsD1Ev@plt>
  40d212:	48 89 df             	mov    %rbx,%rdi
  40d215:	e8 06 c5 ff ff       	callq  409720 <_Unwind_Resume@plt>
  40d21a:	48 8d bc 24 a0 00 00 	lea    0xa0(%rsp),%rdi
  40d221:	00 
  40d222:	48 89 c3             	mov    %rax,%rbx
  40d225:	e8 66 c4 ff ff       	callq  409690 <_ZNSsD1Ev@plt>
  40d22a:	48 89 df             	mov    %rbx,%rdi
  40d22d:	e8 ee c4 ff ff       	callq  409720 <_Unwind_Resume@plt>
  40d232:	48 8d bc 24 10 01 00 	lea    0x110(%rsp),%rdi
  40d239:	00 
  40d23a:	48 89 c3             	mov    %rax,%rbx
  40d23d:	e8 4e c4 ff ff       	callq  409690 <_ZNSsD1Ev@plt>
  40d242:	48 89 df             	mov    %rbx,%rdi
  40d245:	e8 d6 c4 ff ff       	callq  409720 <_Unwind_Resume@plt>
  40d24a:	48 8d bc 24 b0 00 00 	lea    0xb0(%rsp),%rdi
  40d251:	00 
  40d252:	48 89 c3             	mov    %rax,%rbx
  40d255:	e8 36 c4 ff ff       	callq  409690 <_ZNSsD1Ev@plt>
  40d25a:	48 89 df             	mov    %rbx,%rdi
  40d25d:	e8 be c4 ff ff       	callq  409720 <_Unwind_Resume@plt>
  40d262:	48 8d bc 24 c0 00 00 	lea    0xc0(%rsp),%rdi
  40d269:	00 
  40d26a:	48 89 c3             	mov    %rax,%rbx
  40d26d:	e8 1e c4 ff ff       	callq  409690 <_ZNSsD1Ev@plt>
  40d272:	48 89 df             	mov    %rbx,%rdi
  40d275:	e8 a6 c4 ff ff       	callq  409720 <_Unwind_Resume@plt>
  40d27a:	48 8d bc 24 f0 00 00 	lea    0xf0(%rsp),%rdi
  40d281:	00 
  40d282:	48 89 c3             	mov    %rax,%rbx
  40d285:	e8 06 c4 ff ff       	callq  409690 <_ZNSsD1Ev@plt>
  40d28a:	48 89 df             	mov    %rbx,%rdi
  40d28d:	e8 8e c4 ff ff       	callq  409720 <_Unwind_Resume@plt>
  40d292:	48 8d bc 24 e0 00 00 	lea    0xe0(%rsp),%rdi
  40d299:	00 
  40d29a:	48 89 c3             	mov    %rax,%rbx
  40d29d:	e8 ee c3 ff ff       	callq  409690 <_ZNSsD1Ev@plt>
  40d2a2:	48 89 df             	mov    %rbx,%rdi
  40d2a5:	e8 76 c4 ff ff       	callq  409720 <_Unwind_Resume@plt>
  40d2aa:	48 89 c3             	mov    %rax,%rbx
  40d2ad:	48 8d 7c 24 30       	lea    0x30(%rsp),%rdi
  40d2b2:	e8 79 f0 ff ff       	callq  40c330 <_ZN3ros17SerializedMessageD1Ev>
  40d2b7:	48 89 df             	mov    %rbx,%rdi
  40d2ba:	e8 61 c4 ff ff       	callq  409720 <_Unwind_Resume@plt>
  40d2bf:	48 89 c3             	mov    %rax,%rbx
  40d2c2:	48 8b 44 24 70       	mov    0x70(%rsp),%rax
  40d2c7:	48 85 c0             	test   %rax,%rax
  40d2ca:	74 e1                	je     40d2ad <_ZNK3ros9Publisher7publishIN11sensor_msgs16CompressedImage_ISaIvEEEEEvRKT_+0xb0d>
  40d2cc:	a8 01                	test   $0x1,%al
  40d2ce:	75 1b                	jne    40d2eb <_ZNK3ros9Publisher7publishIN11sensor_msgs16CompressedImage_ISaIvEEEEEvRKT_+0xb4b>
  40d2d0:	48 83 e0 fe          	and    $0xfffffffffffffffe,%rax
  40d2d4:	48 8b 08             	mov    (%rax),%rcx
  40d2d7:	48 85 c9             	test   %rcx,%rcx
  40d2da:	74 0f                	je     40d2eb <_ZNK3ros9Publisher7publishIN11sensor_msgs16CompressedImage_ISaIvEEEEEvRKT_+0xb4b>
  40d2dc:	48 8d 7c 24 78       	lea    0x78(%rsp),%rdi
  40d2e1:	ba 02 00 00 00       	mov    $0x2,%edx
  40d2e6:	48 89 fe             	mov    %rdi,%rsi
  40d2e9:	ff d1                	callq  *%rcx
  40d2eb:	48 c7 44 24 70 00 00 	movq   $0x0,0x70(%rsp)
  40d2f2:	00 00 
  40d2f4:	eb b7                	jmp    40d2ad <_ZNK3ros9Publisher7publishIN11sensor_msgs16CompressedImage_ISaIvEEEEEvRKT_+0xb0d>
  40d2f6:	48 89 c7             	mov    %rax,%rdi
  40d2f9:	e8 72 c0 ff ff       	callq  409370 <__cxa_begin_catch@plt>
  40d2fe:	e8 3d c3 ff ff       	callq  409640 <__cxa_rethrow@plt>
  40d303:	48 8d bc 24 d0 00 00 	lea    0xd0(%rsp),%rdi
  40d30a:	00 
  40d30b:	48 89 c3             	mov    %rax,%rbx
  40d30e:	e8 7d c3 ff ff       	callq  409690 <_ZNSsD1Ev@plt>
  40d313:	48 89 df             	mov    %rbx,%rdi
  40d316:	e8 05 c4 ff ff       	callq  409720 <_Unwind_Resume@plt>
  40d31b:	48 89 c3             	mov    %rax,%rbx
  40d31e:	e8 9d c3 ff ff       	callq  4096c0 <__cxa_end_catch@plt>
  40d323:	48 89 df             	mov    %rbx,%rdi
  40d326:	e8 f5 c3 ff ff       	callq  409720 <_Unwind_Resume@plt>
  40d32b:	90                   	nop
  40d32c:	90                   	nop
  40d32d:	90                   	nop
  40d32e:	90                   	nop
  40d32f:	90                   	nop

000000000040d330 <_ZNSt8_Rb_treeISsSt4pairIKSsSsESt10_Select1stIS2_ESt4lessISsESaIS2_EE8_M_eraseEPSt13_Rb_tree_nodeIS2_E>:
  40d330:	41 55                	push   %r13
  40d332:	41 bd 80 92 40 00    	mov    $0x409280,%r13d
  40d338:	41 54                	push   %r12
  40d33a:	49 89 fc             	mov    %rdi,%r12
  40d33d:	55                   	push   %rbp
  40d33e:	53                   	push   %rbx
  40d33f:	48 89 f3             	mov    %rsi,%rbx
  40d342:	48 83 ec 18          	sub    $0x18,%rsp
  40d346:	48 85 f6             	test   %rsi,%rsi
  40d349:	75 08                	jne    40d353 <_ZNSt8_Rb_treeISsSt4pairIKSsSsESt10_Select1stIS2_ESt4lessISsESaIS2_EE8_M_eraseEPSt13_Rb_tree_nodeIS2_E+0x23>
  40d34b:	eb 45                	jmp    40d392 <_ZNSt8_Rb_treeISsSt4pairIKSsSsESt10_Select1stIS2_ESt4lessISsESaIS2_EE8_M_eraseEPSt13_Rb_tree_nodeIS2_E+0x62>
  40d34d:	0f 1f 00             	nopl   (%rax)
  40d350:	48 89 eb             	mov    %rbp,%rbx
  40d353:	48 8b 73 18          	mov    0x18(%rbx),%rsi
  40d357:	4c 89 e7             	mov    %r12,%rdi
  40d35a:	e8 d1 ff ff ff       	callq  40d330 <_ZNSt8_Rb_treeISsSt4pairIKSsSsESt10_Select1stIS2_ESt4lessISsESaIS2_EE8_M_eraseEPSt13_Rb_tree_nodeIS2_E>
  40d35f:	48 8b 43 28          	mov    0x28(%rbx),%rax
  40d363:	48 8b 6b 10          	mov    0x10(%rbx),%rbp
  40d367:	48 8d 78 e8          	lea    -0x18(%rax),%rdi
  40d36b:	48 81 ff 00 77 61 00 	cmp    $0x617700,%rdi
  40d372:	75 29                	jne    40d39d <_ZNSt8_Rb_treeISsSt4pairIKSsSsESt10_Select1stIS2_ESt4lessISsESaIS2_EE8_M_eraseEPSt13_Rb_tree_nodeIS2_E+0x6d>
  40d374:	48 8b 43 20          	mov    0x20(%rbx),%rax
  40d378:	48 8d 78 e8          	lea    -0x18(%rax),%rdi
  40d37c:	48 81 ff 00 77 61 00 	cmp    $0x617700,%rdi
  40d383:	75 37                	jne    40d3bc <_ZNSt8_Rb_treeISsSt4pairIKSsSsESt10_Select1stIS2_ESt4lessISsESaIS2_EE8_M_eraseEPSt13_Rb_tree_nodeIS2_E+0x8c>
  40d385:	48 89 df             	mov    %rbx,%rdi
  40d388:	e8 63 c1 ff ff       	callq  4094f0 <_ZdlPv@plt>
  40d38d:	48 85 ed             	test   %rbp,%rbp
  40d390:	75 be                	jne    40d350 <_ZNSt8_Rb_treeISsSt4pairIKSsSsESt10_Select1stIS2_ESt4lessISsESaIS2_EE8_M_eraseEPSt13_Rb_tree_nodeIS2_E+0x20>
  40d392:	48 83 c4 18          	add    $0x18,%rsp
  40d396:	5b                   	pop    %rbx
  40d397:	5d                   	pop    %rbp
  40d398:	41 5c                	pop    %r12
  40d39a:	41 5d                	pop    %r13
  40d39c:	c3                   	retq   
  40d39d:	4d 85 ed             	test   %r13,%r13
  40d3a0:	74 39                	je     40d3db <_ZNSt8_Rb_treeISsSt4pairIKSsSsESt10_Select1stIS2_ESt4lessISsESaIS2_EE8_M_eraseEPSt13_Rb_tree_nodeIS2_E+0xab>
  40d3a2:	ba ff ff ff ff       	mov    $0xffffffff,%edx
  40d3a7:	f0 0f c1 50 f8       	lock xadd %edx,-0x8(%rax)
  40d3ac:	85 d2                	test   %edx,%edx
  40d3ae:	7f c4                	jg     40d374 <_ZNSt8_Rb_treeISsSt4pairIKSsSsESt10_Select1stIS2_ESt4lessISsESaIS2_EE8_M_eraseEPSt13_Rb_tree_nodeIS2_E+0x44>
  40d3b0:	48 8d 74 24 0e       	lea    0xe(%rsp),%rsi
  40d3b5:	e8 d6 c0 ff ff       	callq  409490 <_ZNSs4_Rep10_M_destroyERKSaIcE@plt>
  40d3ba:	eb b8                	jmp    40d374 <_ZNSt8_Rb_treeISsSt4pairIKSsSsESt10_Select1stIS2_ESt4lessISsESaIS2_EE8_M_eraseEPSt13_Rb_tree_nodeIS2_E+0x44>
  40d3bc:	4d 85 ed             	test   %r13,%r13
  40d3bf:	74 25                	je     40d3e6 <_ZNSt8_Rb_treeISsSt4pairIKSsSsESt10_Select1stIS2_ESt4lessISsESaIS2_EE8_M_eraseEPSt13_Rb_tree_nodeIS2_E+0xb6>
  40d3c1:	ba ff ff ff ff       	mov    $0xffffffff,%edx
  40d3c6:	f0 0f c1 50 f8       	lock xadd %edx,-0x8(%rax)
  40d3cb:	85 d2                	test   %edx,%edx
  40d3cd:	7f b6                	jg     40d385 <_ZNSt8_Rb_treeISsSt4pairIKSsSsESt10_Select1stIS2_ESt4lessISsESaIS2_EE8_M_eraseEPSt13_Rb_tree_nodeIS2_E+0x55>
  40d3cf:	48 8d 74 24 0f       	lea    0xf(%rsp),%rsi
  40d3d4:	e8 b7 c0 ff ff       	callq  409490 <_ZNSs4_Rep10_M_destroyERKSaIcE@plt>
  40d3d9:	eb aa                	jmp    40d385 <_ZNSt8_Rb_treeISsSt4pairIKSsSsESt10_Select1stIS2_ESt4lessISsESaIS2_EE8_M_eraseEPSt13_Rb_tree_nodeIS2_E+0x55>
  40d3db:	8b 50 f8             	mov    -0x8(%rax),%edx
  40d3de:	8d 4a ff             	lea    -0x1(%rdx),%ecx
  40d3e1:	89 48 f8             	mov    %ecx,-0x8(%rax)
  40d3e4:	eb c6                	jmp    40d3ac <_ZNSt8_Rb_treeISsSt4pairIKSsSsESt10_Select1stIS2_ESt4lessISsESaIS2_EE8_M_eraseEPSt13_Rb_tree_nodeIS2_E+0x7c>
  40d3e6:	8b 50 f8             	mov    -0x8(%rax),%edx
  40d3e9:	8d 4a ff             	lea    -0x1(%rdx),%ecx
  40d3ec:	89 48 f8             	mov    %ecx,-0x8(%rax)
  40d3ef:	eb da                	jmp    40d3cb <_ZNSt8_Rb_treeISsSt4pairIKSsSsESt10_Select1stIS2_ESt4lessISsESaIS2_EE8_M_eraseEPSt13_Rb_tree_nodeIS2_E+0x9b>
  40d3f1:	90                   	nop
  40d3f2:	90                   	nop
  40d3f3:	90                   	nop
  40d3f4:	90                   	nop
  40d3f5:	90                   	nop
  40d3f6:	90                   	nop
  40d3f7:	90                   	nop
  40d3f8:	90                   	nop
  40d3f9:	90                   	nop
  40d3fa:	90                   	nop
  40d3fb:	90                   	nop
  40d3fc:	90                   	nop
  40d3fd:	90                   	nop
  40d3fe:	90                   	nop
  40d3ff:	90                   	nop

000000000040d400 <_ZN3ros14TransportHintsD1Ev>:
  40d400:	41 54                	push   %r12
  40d402:	49 89 fc             	mov    %rdi,%r12
  40d405:	55                   	push   %rbp
  40d406:	53                   	push   %rbx
  40d407:	48 83 ec 10          	sub    $0x10,%rsp
  40d40b:	48 8b 77 28          	mov    0x28(%rdi),%rsi
  40d40f:	48 8d 7f 18          	lea    0x18(%rdi),%rdi
  40d413:	e8 18 ff ff ff       	callq  40d330 <_ZNSt8_Rb_treeISsSt4pairIKSsSsESt10_Select1stIS2_ESt4lessISsESaIS2_EE8_M_eraseEPSt13_Rb_tree_nodeIS2_E>
  40d418:	49 8b 6c 24 08       	mov    0x8(%r12),%rbp
  40d41d:	49 8b 1c 24          	mov    (%r12),%rbx
  40d421:	48 39 dd             	cmp    %rbx,%rbp
  40d424:	74 27                	je     40d44d <_ZN3ros14TransportHintsD1Ev+0x4d>
  40d426:	66 2e 0f 1f 84 00 00 	nopw   %cs:0x0(%rax,%rax,1)
  40d42d:	00 00 00 
  40d430:	48 8b 03             	mov    (%rbx),%rax
  40d433:	48 8d 78 e8          	lea    -0x18(%rax),%rdi
  40d437:	48 81 ff 00 77 61 00 	cmp    $0x617700,%rdi
  40d43e:	75 23                	jne    40d463 <_ZN3ros14TransportHintsD1Ev+0x63>
  40d440:	48 83 c3 08          	add    $0x8,%rbx
  40d444:	48 39 dd             	cmp    %rbx,%rbp
  40d447:	75 e7                	jne    40d430 <_ZN3ros14TransportHintsD1Ev+0x30>
  40d449:	49 8b 1c 24          	mov    (%r12),%rbx
  40d44d:	48 85 db             	test   %rbx,%rbx
  40d450:	74 08                	je     40d45a <_ZN3ros14TransportHintsD1Ev+0x5a>
  40d452:	48 89 df             	mov    %rbx,%rdi
  40d455:	e8 96 c0 ff ff       	callq  4094f0 <_ZdlPv@plt>
  40d45a:	48 83 c4 10          	add    $0x10,%rsp
  40d45e:	5b                   	pop    %rbx
  40d45f:	5d                   	pop    %rbp
  40d460:	41 5c                	pop    %r12
  40d462:	c3                   	retq   
  40d463:	ba 80 92 40 00       	mov    $0x409280,%edx
  40d468:	48 85 d2             	test   %rdx,%rdx
  40d46b:	74 1a                	je     40d487 <_ZN3ros14TransportHintsD1Ev+0x87>
  40d46d:	ba ff ff ff ff       	mov    $0xffffffff,%edx
  40d472:	f0 0f c1 50 f8       	lock xadd %edx,-0x8(%rax)
  40d477:	85 d2                	test   %edx,%edx
  40d479:	7f c5                	jg     40d440 <_ZN3ros14TransportHintsD1Ev+0x40>
  40d47b:	48 8d 74 24 0f       	lea    0xf(%rsp),%rsi
  40d480:	e8 0b c0 ff ff       	callq  409490 <_ZNSs4_Rep10_M_destroyERKSaIcE@plt>
  40d485:	eb b9                	jmp    40d440 <_ZN3ros14TransportHintsD1Ev+0x40>
  40d487:	8b 50 f8             	mov    -0x8(%rax),%edx
  40d48a:	8d 4a ff             	lea    -0x1(%rdx),%ecx
  40d48d:	89 48 f8             	mov    %ecx,-0x8(%rax)
  40d490:	eb e5                	jmp    40d477 <_ZN3ros14TransportHintsD1Ev+0x77>
  40d492:	90                   	nop
  40d493:	90                   	nop
  40d494:	90                   	nop
  40d495:	90                   	nop
  40d496:	90                   	nop
  40d497:	90                   	nop
  40d498:	90                   	nop
  40d499:	90                   	nop
  40d49a:	90                   	nop
  40d49b:	90                   	nop
  40d49c:	90                   	nop
  40d49d:	90                   	nop
  40d49e:	90                   	nop
  40d49f:	90                   	nop

000000000040d4a0 <_ZN3ros16SubscribeOptionsD1Ev>:
  40d4a0:	41 54                	push   %r12
  40d4a2:	55                   	push   %rbp
  40d4a3:	53                   	push   %rbx
  40d4a4:	48 89 fb             	mov    %rdi,%rbx
  40d4a7:	48 83 ec 10          	sub    $0x10,%rsp
  40d4ab:	48 8b 77 78          	mov    0x78(%rdi),%rsi
  40d4af:	48 8d 7f 68          	lea    0x68(%rdi),%rdi
  40d4b3:	e8 78 fe ff ff       	callq  40d330 <_ZNSt8_Rb_treeISsSt4pairIKSsSsESt10_Select1stIS2_ESt4lessISsESaIS2_EE8_M_eraseEPSt13_Rb_tree_nodeIS2_E>
  40d4b8:	4c 8b 63 58          	mov    0x58(%rbx),%r12
  40d4bc:	48 8b 6b 50          	mov    0x50(%rbx),%rbp
  40d4c0:	49 39 ec             	cmp    %rbp,%r12
  40d4c3:	74 25                	je     40d4ea <_ZN3ros16SubscribeOptionsD1Ev+0x4a>
  40d4c5:	0f 1f 00             	nopl   (%rax)
  40d4c8:	48 8b 45 00          	mov    0x0(%rbp),%rax
  40d4cc:	48 8d 78 e8          	lea    -0x18(%rax),%rdi
  40d4d0:	48 81 ff 00 77 61 00 	cmp    $0x617700,%rdi
  40d4d7:	0f 85 ef 00 00 00    	jne    40d5cc <_ZN3ros16SubscribeOptionsD1Ev+0x12c>
  40d4dd:	48 83 c5 08          	add    $0x8,%rbp
  40d4e1:	49 39 ec             	cmp    %rbp,%r12
  40d4e4:	75 e2                	jne    40d4c8 <_ZN3ros16SubscribeOptionsD1Ev+0x28>
  40d4e6:	48 8b 6b 50          	mov    0x50(%rbx),%rbp
  40d4ea:	48 85 ed             	test   %rbp,%rbp
  40d4ed:	74 08                	je     40d4f7 <_ZN3ros16SubscribeOptionsD1Ev+0x57>
  40d4ef:	48 89 ef             	mov    %rbp,%rdi
  40d4f2:	e8 f9 bf ff ff       	callq  4094f0 <_ZdlPv@plt>
  40d4f7:	48 8b 6b 48          	mov    0x48(%rbx),%rbp
  40d4fb:	48 85 ed             	test   %rbp,%rbp
  40d4fe:	74 0f                	je     40d50f <_ZN3ros16SubscribeOptionsD1Ev+0x6f>
  40d500:	b8 ff ff ff ff       	mov    $0xffffffff,%eax
  40d505:	f0 0f c1 45 08       	lock xadd %eax,0x8(%rbp)
  40d50a:	83 f8 01             	cmp    $0x1,%eax
  40d50d:	74 61                	je     40d570 <_ZN3ros16SubscribeOptionsD1Ev+0xd0>
  40d50f:	48 8b 6b 28          	mov    0x28(%rbx),%rbp
  40d513:	48 85 ed             	test   %rbp,%rbp
  40d516:	74 0f                	je     40d527 <_ZN3ros16SubscribeOptionsD1Ev+0x87>
  40d518:	b8 ff ff ff ff       	mov    $0xffffffff,%eax
  40d51d:	f0 0f c1 45 08       	lock xadd %eax,0x8(%rbp)
  40d522:	83 f8 01             	cmp    $0x1,%eax
  40d525:	74 79                	je     40d5a0 <_ZN3ros16SubscribeOptionsD1Ev+0x100>
  40d527:	48 8b 43 18          	mov    0x18(%rbx),%rax
  40d52b:	48 8d 78 e8          	lea    -0x18(%rax),%rdi
  40d52f:	48 81 ff 00 77 61 00 	cmp    $0x617700,%rdi
  40d536:	0f 85 2f 01 00 00    	jne    40d66b <_ZN3ros16SubscribeOptionsD1Ev+0x1cb>
  40d53c:	48 8b 43 10          	mov    0x10(%rbx),%rax
  40d540:	48 8d 78 e8          	lea    -0x18(%rax),%rdi
  40d544:	48 81 ff 00 77 61 00 	cmp    $0x617700,%rdi
  40d54b:	0f 85 a6 00 00 00    	jne    40d5f7 <_ZN3ros16SubscribeOptionsD1Ev+0x157>
  40d551:	48 8b 03             	mov    (%rbx),%rax
  40d554:	48 8d 78 e8          	lea    -0x18(%rax),%rdi
  40d558:	48 81 ff 00 77 61 00 	cmp    $0x617700,%rdi
  40d55f:	0f 85 31 01 00 00    	jne    40d696 <_ZN3ros16SubscribeOptionsD1Ev+0x1f6>
  40d565:	48 83 c4 10          	add    $0x10,%rsp
  40d569:	5b                   	pop    %rbx
  40d56a:	5d                   	pop    %rbp
  40d56b:	41 5c                	pop    %r12
  40d56d:	c3                   	retq   
  40d56e:	66 90                	xchg   %ax,%ax
  40d570:	48 8b 45 00          	mov    0x0(%rbp),%rax
  40d574:	48 89 ef             	mov    %rbp,%rdi
  40d577:	ff 50 10             	callq  *0x10(%rax)
  40d57a:	b8 ff ff ff ff       	mov    $0xffffffff,%eax
  40d57f:	f0 0f c1 45 0c       	lock xadd %eax,0xc(%rbp)
  40d584:	83 f8 01             	cmp    $0x1,%eax
  40d587:	75 86                	jne    40d50f <_ZN3ros16SubscribeOptionsD1Ev+0x6f>
  40d589:	48 8b 45 00          	mov    0x0(%rbp),%rax
  40d58d:	48 89 ef             	mov    %rbp,%rdi
  40d590:	ff 50 18             	callq  *0x18(%rax)
  40d593:	e9 77 ff ff ff       	jmpq   40d50f <_ZN3ros16SubscribeOptionsD1Ev+0x6f>
  40d598:	0f 1f 84 00 00 00 00 	nopl   0x0(%rax,%rax,1)
  40d59f:	00 
  40d5a0:	48 8b 45 00          	mov    0x0(%rbp),%rax
  40d5a4:	48 89 ef             	mov    %rbp,%rdi
  40d5a7:	ff 50 10             	callq  *0x10(%rax)
  40d5aa:	b8 ff ff ff ff       	mov    $0xffffffff,%eax
  40d5af:	f0 0f c1 45 0c       	lock xadd %eax,0xc(%rbp)
  40d5b4:	83 f8 01             	cmp    $0x1,%eax
  40d5b7:	0f 85 6a ff ff ff    	jne    40d527 <_ZN3ros16SubscribeOptionsD1Ev+0x87>
  40d5bd:	48 8b 45 00          	mov    0x0(%rbp),%rax
  40d5c1:	48 89 ef             	mov    %rbp,%rdi
  40d5c4:	ff 50 18             	callq  *0x18(%rax)
  40d5c7:	e9 5b ff ff ff       	jmpq   40d527 <_ZN3ros16SubscribeOptionsD1Ev+0x87>
  40d5cc:	ba 80 92 40 00       	mov    $0x409280,%edx
  40d5d1:	48 85 d2             	test   %rdx,%rdx
  40d5d4:	74 4c                	je     40d622 <_ZN3ros16SubscribeOptionsD1Ev+0x182>
  40d5d6:	ba ff ff ff ff       	mov    $0xffffffff,%edx
  40d5db:	f0 0f c1 50 f8       	lock xadd %edx,-0x8(%rax)
  40d5e0:	85 d2                	test   %edx,%edx
  40d5e2:	0f 8f f5 fe ff ff    	jg     40d4dd <_ZN3ros16SubscribeOptionsD1Ev+0x3d>
  40d5e8:	48 8d 74 24 0c       	lea    0xc(%rsp),%rsi
  40d5ed:	e8 9e be ff ff       	callq  409490 <_ZNSs4_Rep10_M_destroyERKSaIcE@plt>
  40d5f2:	e9 e6 fe ff ff       	jmpq   40d4dd <_ZN3ros16SubscribeOptionsD1Ev+0x3d>
  40d5f7:	ba 80 92 40 00       	mov    $0x409280,%edx
  40d5fc:	48 85 d2             	test   %rdx,%rdx
  40d5ff:	74 2c                	je     40d62d <_ZN3ros16SubscribeOptionsD1Ev+0x18d>
  40d601:	ba ff ff ff ff       	mov    $0xffffffff,%edx
  40d606:	f0 0f c1 50 f8       	lock xadd %edx,-0x8(%rax)
  40d60b:	85 d2                	test   %edx,%edx
  40d60d:	0f 8f 3e ff ff ff    	jg     40d551 <_ZN3ros16SubscribeOptionsD1Ev+0xb1>
  40d613:	48 8d 74 24 0e       	lea    0xe(%rsp),%rsi
  40d618:	e8 73 be ff ff       	callq  409490 <_ZNSs4_Rep10_M_destroyERKSaIcE@plt>
  40d61d:	e9 2f ff ff ff       	jmpq   40d551 <_ZN3ros16SubscribeOptionsD1Ev+0xb1>
  40d622:	8b 50 f8             	mov    -0x8(%rax),%edx
  40d625:	8d 4a ff             	lea    -0x1(%rdx),%ecx
  40d628:	89 48 f8             	mov    %ecx,-0x8(%rax)
  40d62b:	eb b3                	jmp    40d5e0 <_ZN3ros16SubscribeOptionsD1Ev+0x140>
  40d62d:	8b 50 f8             	mov    -0x8(%rax),%edx
  40d630:	8d 4a ff             	lea    -0x1(%rdx),%ecx
  40d633:	89 48 f8             	mov    %ecx,-0x8(%rax)
  40d636:	eb d3                	jmp    40d60b <_ZN3ros16SubscribeOptionsD1Ev+0x16b>
  40d638:	48 89 c5             	mov    %rax,%rbp
  40d63b:	48 8d 7b 18          	lea    0x18(%rbx),%rdi
  40d63f:	e8 4c c0 ff ff       	callq  409690 <_ZNSsD1Ev@plt>
  40d644:	48 8d 7b 10          	lea    0x10(%rbx),%rdi
  40d648:	e8 43 c0 ff ff       	callq  409690 <_ZNSsD1Ev@plt>
  40d64d:	48 89 df             	mov    %rbx,%rdi
  40d650:	e8 3b c0 ff ff       	callq  409690 <_ZNSsD1Ev@plt>
  40d655:	48 89 ef             	mov    %rbp,%rdi
  40d658:	e8 c3 c0 ff ff       	callq  409720 <_Unwind_Resume@plt>
  40d65d:	48 8d 7b 28          	lea    0x28(%rbx),%rdi
  40d661:	48 89 c5             	mov    %rax,%rbp
  40d664:	e8 87 d8 ff ff       	callq  40aef0 <_ZN5boost6detail12shared_countD1Ev>
  40d669:	eb d0                	jmp    40d63b <_ZN3ros16SubscribeOptionsD1Ev+0x19b>
  40d66b:	ba 80 92 40 00       	mov    $0x409280,%edx
  40d670:	48 85 d2             	test   %rdx,%rdx
  40d673:	74 4c                	je     40d6c1 <_ZN3ros16SubscribeOptionsD1Ev+0x221>
  40d675:	ba ff ff ff ff       	mov    $0xffffffff,%edx
  40d67a:	f0 0f c1 50 f8       	lock xadd %edx,-0x8(%rax)
  40d67f:	85 d2                	test   %edx,%edx
  40d681:	0f 8f b5 fe ff ff    	jg     40d53c <_ZN3ros16SubscribeOptionsD1Ev+0x9c>
  40d687:	48 8d 74 24 0d       	lea    0xd(%rsp),%rsi
  40d68c:	e8 ff bd ff ff       	callq  409490 <_ZNSs4_Rep10_M_destroyERKSaIcE@plt>
  40d691:	e9 a6 fe ff ff       	jmpq   40d53c <_ZN3ros16SubscribeOptionsD1Ev+0x9c>
  40d696:	ba 80 92 40 00       	mov    $0x409280,%edx
  40d69b:	48 85 d2             	test   %rdx,%rdx
  40d69e:	74 2c                	je     40d6cc <_ZN3ros16SubscribeOptionsD1Ev+0x22c>
  40d6a0:	ba ff ff ff ff       	mov    $0xffffffff,%edx
  40d6a5:	f0 0f c1 50 f8       	lock xadd %edx,-0x8(%rax)
  40d6aa:	85 d2                	test   %edx,%edx
  40d6ac:	0f 8f b3 fe ff ff    	jg     40d565 <_ZN3ros16SubscribeOptionsD1Ev+0xc5>
  40d6b2:	48 8d 74 24 0f       	lea    0xf(%rsp),%rsi
  40d6b7:	e8 d4 bd ff ff       	callq  409490 <_ZNSs4_Rep10_M_destroyERKSaIcE@plt>
  40d6bc:	e9 a4 fe ff ff       	jmpq   40d565 <_ZN3ros16SubscribeOptionsD1Ev+0xc5>
  40d6c1:	8b 50 f8             	mov    -0x8(%rax),%edx
  40d6c4:	8d 4a ff             	lea    -0x1(%rdx),%ecx
  40d6c7:	89 48 f8             	mov    %ecx,-0x8(%rax)
  40d6ca:	eb b3                	jmp    40d67f <_ZN3ros16SubscribeOptionsD1Ev+0x1df>
  40d6cc:	8b 50 f8             	mov    -0x8(%rax),%edx
  40d6cf:	8d 4a ff             	lea    -0x1(%rdx),%ecx
  40d6d2:	89 48 f8             	mov    %ecx,-0x8(%rax)
  40d6d5:	eb d3                	jmp    40d6aa <_ZN3ros16SubscribeOptionsD1Ev+0x20a>
  40d6d7:	90                   	nop
  40d6d8:	90                   	nop
  40d6d9:	90                   	nop
  40d6da:	90                   	nop
  40d6db:	90                   	nop
  40d6dc:	90                   	nop
  40d6dd:	90                   	nop
  40d6de:	90                   	nop
  40d6df:	90                   	nop

000000000040d6e0 <_ZN5boost9function0INS_10shared_ptrIN6SpyKee7Motion_ISaIvEEEEEED1Ev>:
  40d6e0:	53                   	push   %rbx
  40d6e1:	48 8b 07             	mov    (%rdi),%rax
  40d6e4:	48 89 fb             	mov    %rdi,%rbx
  40d6e7:	48 85 c0             	test   %rax,%rax
  40d6ea:	74 25                	je     40d711 <_ZN5boost9function0INS_10shared_ptrIN6SpyKee7Motion_ISaIvEEEEEED1Ev+0x31>
  40d6ec:	a8 01                	test   $0x1,%al
  40d6ee:	75 1a                	jne    40d70a <_ZN5boost9function0INS_10shared_ptrIN6SpyKee7Motion_ISaIvEEEEEED1Ev+0x2a>
  40d6f0:	48 83 e0 fe          	and    $0xfffffffffffffffe,%rax
  40d6f4:	48 8b 00             	mov    (%rax),%rax
  40d6f7:	48 85 c0             	test   %rax,%rax
  40d6fa:	74 0e                	je     40d70a <_ZN5boost9function0INS_10shared_ptrIN6SpyKee7Motion_ISaIvEEEEEED1Ev+0x2a>
  40d6fc:	48 8d 7f 08          	lea    0x8(%rdi),%rdi
  40d700:	ba 02 00 00 00       	mov    $0x2,%edx
  40d705:	48 89 fe             	mov    %rdi,%rsi
  40d708:	ff d0                	callq  *%rax
  40d70a:	48 c7 03 00 00 00 00 	movq   $0x0,(%rbx)
  40d711:	5b                   	pop    %rbx
  40d712:	c3                   	retq   
  40d713:	90                   	nop
  40d714:	90                   	nop
  40d715:	90                   	nop
  40d716:	90                   	nop
  40d717:	90                   	nop
  40d718:	90                   	nop
  40d719:	90                   	nop
  40d71a:	90                   	nop
  40d71b:	90                   	nop
  40d71c:	90                   	nop
  40d71d:	90                   	nop
  40d71e:	90                   	nop
  40d71f:	90                   	nop

000000000040d720 <_ZN5boost8functionIFvNS_10shared_ptrIKN6SpyKee7Motion_ISaIvEEEEEEED1Ev>:
  40d720:	53                   	push   %rbx
  40d721:	48 8b 07             	mov    (%rdi),%rax
  40d724:	48 89 fb             	mov    %rdi,%rbx
  40d727:	48 85 c0             	test   %rax,%rax
  40d72a:	74 25                	je     40d751 <_ZN5boost8functionIFvNS_10shared_ptrIKN6SpyKee7Motion_ISaIvEEEEEEED1Ev+0x31>
  40d72c:	a8 01                	test   $0x1,%al
  40d72e:	75 1a                	jne    40d74a <_ZN5boost8functionIFvNS_10shared_ptrIKN6SpyKee7Motion_ISaIvEEEEEEED1Ev+0x2a>
  40d730:	48 83 e0 fe          	and    $0xfffffffffffffffe,%rax
  40d734:	48 8b 00             	mov    (%rax),%rax
  40d737:	48 85 c0             	test   %rax,%rax
  40d73a:	74 0e                	je     40d74a <_ZN5boost8functionIFvNS_10shared_ptrIKN6SpyKee7Motion_ISaIvEEEEEEED1Ev+0x2a>
  40d73c:	48 8d 7f 08          	lea    0x8(%rdi),%rdi
  40d740:	ba 02 00 00 00       	mov    $0x2,%edx
  40d745:	48 89 fe             	mov    %rdi,%rsi
  40d748:	ff d0                	callq  *%rax
  40d74a:	48 c7 03 00 00 00 00 	movq   $0x0,(%rbx)
  40d751:	5b                   	pop    %rbx
  40d752:	c3                   	retq   
  40d753:	90                   	nop
  40d754:	90                   	nop
  40d755:	90                   	nop
  40d756:	90                   	nop
  40d757:	90                   	nop
  40d758:	90                   	nop
  40d759:	90                   	nop
  40d75a:	90                   	nop
  40d75b:	90                   	nop
  40d75c:	90                   	nop
  40d75d:	90                   	nop
  40d75e:	90                   	nop
  40d75f:	90                   	nop

000000000040d760 <_ZN3ros27SubscriptionCallbackHelperTIRKN5boost10shared_ptrIKN6SpyKee7Motion_ISaIvEEEEEvED1Ev>:
  40d760:	53                   	push   %rbx
  40d761:	48 89 fb             	mov    %rdi,%rbx
  40d764:	48 83 ec 10          	sub    $0x10,%rsp
  40d768:	48 8b 47 28          	mov    0x28(%rdi),%rax
  40d76c:	48 c7 07 70 34 41 00 	movq   $0x413470,(%rdi)
  40d773:	48 85 c0             	test   %rax,%rax
  40d776:	74 0c                	je     40d784 <_ZN3ros27SubscriptionCallbackHelperTIRKN5boost10shared_ptrIKN6SpyKee7Motion_ISaIvEEEEEvED1Ev+0x24>
  40d778:	a8 01                	test   $0x1,%al
  40d77a:	74 44                	je     40d7c0 <_ZN3ros27SubscriptionCallbackHelperTIRKN5boost10shared_ptrIKN6SpyKee7Motion_ISaIvEEEEEvED1Ev+0x60>
  40d77c:	48 c7 43 28 00 00 00 	movq   $0x0,0x28(%rbx)
  40d783:	00 
  40d784:	48 8b 43 08          	mov    0x8(%rbx),%rax
  40d788:	48 85 c0             	test   %rax,%rax
  40d78b:	74 26                	je     40d7b3 <_ZN3ros27SubscriptionCallbackHelperTIRKN5boost10shared_ptrIKN6SpyKee7Motion_ISaIvEEEEEvED1Ev+0x53>
  40d78d:	a8 01                	test   $0x1,%al
  40d78f:	75 1a                	jne    40d7ab <_ZN3ros27SubscriptionCallbackHelperTIRKN5boost10shared_ptrIKN6SpyKee7Motion_ISaIvEEEEEvED1Ev+0x4b>
  40d791:	48 83 e0 fe          	and    $0xfffffffffffffffe,%rax
  40d795:	48 8b 00             	mov    (%rax),%rax
  40d798:	48 85 c0             	test   %rax,%rax
  40d79b:	74 0e                	je     40d7ab <_ZN3ros27SubscriptionCallbackHelperTIRKN5boost10shared_ptrIKN6SpyKee7Motion_ISaIvEEEEEvED1Ev+0x4b>
  40d79d:	48 8d 7b 10          	lea    0x10(%rbx),%rdi
  40d7a1:	ba 02 00 00 00       	mov    $0x2,%edx
  40d7a6:	48 89 fe             	mov    %rdi,%rsi
  40d7a9:	ff d0                	callq  *%rax
  40d7ab:	48 c7 43 08 00 00 00 	movq   $0x0,0x8(%rbx)
  40d7b2:	00 
  40d7b3:	48 c7 03 30 34 41 00 	movq   $0x413430,(%rbx)
  40d7ba:	48 83 c4 10          	add    $0x10,%rsp
  40d7be:	5b                   	pop    %rbx
  40d7bf:	c3                   	retq   
  40d7c0:	48 83 e0 fe          	and    $0xfffffffffffffffe,%rax
  40d7c4:	48 8b 00             	mov    (%rax),%rax
  40d7c7:	48 85 c0             	test   %rax,%rax
  40d7ca:	74 b0                	je     40d77c <_ZN3ros27SubscriptionCallbackHelperTIRKN5boost10shared_ptrIKN6SpyKee7Motion_ISaIvEEEEEvED1Ev+0x1c>
  40d7cc:	48 8d 7f 30          	lea    0x30(%rdi),%rdi
  40d7d0:	ba 02 00 00 00       	mov    $0x2,%edx
  40d7d5:	48 89 fe             	mov    %rdi,%rsi
  40d7d8:	ff d0                	callq  *%rax
  40d7da:	eb a0                	jmp    40d77c <_ZN3ros27SubscriptionCallbackHelperTIRKN5boost10shared_ptrIKN6SpyKee7Motion_ISaIvEEEEEvED1Ev+0x1c>
  40d7dc:	48 c7 03 30 34 41 00 	movq   $0x413430,(%rbx)
  40d7e3:	48 89 c7             	mov    %rax,%rdi
  40d7e6:	e8 35 bf ff ff       	callq  409720 <_Unwind_Resume@plt>
  40d7eb:	48 8d 7b 08          	lea    0x8(%rbx),%rdi
  40d7ef:	48 89 44 24 08       	mov    %rax,0x8(%rsp)
  40d7f4:	e8 27 ff ff ff       	callq  40d720 <_ZN5boost8functionIFvNS_10shared_ptrIKN6SpyKee7Motion_ISaIvEEEEEEED1Ev>
  40d7f9:	48 8b 44 24 08       	mov    0x8(%rsp),%rax
  40d7fe:	eb dc                	jmp    40d7dc <_ZN3ros27SubscriptionCallbackHelperTIRKN5boost10shared_ptrIKN6SpyKee7Motion_ISaIvEEEEEvED1Ev+0x7c>

000000000040d800 <_ZN3ros27SubscriptionCallbackHelperTIRKN5boost10shared_ptrIKN6SpyKee7Motion_ISaIvEEEEEvED0Ev>:
  40d800:	53                   	push   %rbx
  40d801:	48 89 fb             	mov    %rdi,%rbx
  40d804:	48 83 ec 10          	sub    $0x10,%rsp
  40d808:	48 8b 47 28          	mov    0x28(%rdi),%rax
  40d80c:	48 c7 07 70 34 41 00 	movq   $0x413470,(%rdi)
  40d813:	48 85 c0             	test   %rax,%rax
  40d816:	74 0c                	je     40d824 <_ZN3ros27SubscriptionCallbackHelperTIRKN5boost10shared_ptrIKN6SpyKee7Motion_ISaIvEEEEEvED0Ev+0x24>
  40d818:	a8 01                	test   $0x1,%al
  40d81a:	74 54                	je     40d870 <_ZN3ros27SubscriptionCallbackHelperTIRKN5boost10shared_ptrIKN6SpyKee7Motion_ISaIvEEEEEvED0Ev+0x70>
  40d81c:	48 c7 43 28 00 00 00 	movq   $0x0,0x28(%rbx)
  40d823:	00 
  40d824:	48 8b 43 08          	mov    0x8(%rbx),%rax
  40d828:	48 85 c0             	test   %rax,%rax
  40d82b:	74 26                	je     40d853 <_ZN3ros27SubscriptionCallbackHelperTIRKN5boost10shared_ptrIKN6SpyKee7Motion_ISaIvEEEEEvED0Ev+0x53>
  40d82d:	a8 01                	test   $0x1,%al
  40d82f:	75 1a                	jne    40d84b <_ZN3ros27SubscriptionCallbackHelperTIRKN5boost10shared_ptrIKN6SpyKee7Motion_ISaIvEEEEEvED0Ev+0x4b>
  40d831:	48 83 e0 fe          	and    $0xfffffffffffffffe,%rax
  40d835:	48 8b 00             	mov    (%rax),%rax
  40d838:	48 85 c0             	test   %rax,%rax
  40d83b:	74 0e                	je     40d84b <_ZN3ros27SubscriptionCallbackHelperTIRKN5boost10shared_ptrIKN6SpyKee7Motion_ISaIvEEEEEvED0Ev+0x4b>
  40d83d:	48 8d 7b 10          	lea    0x10(%rbx),%rdi
  40d841:	ba 02 00 00 00       	mov    $0x2,%edx
  40d846:	48 89 fe             	mov    %rdi,%rsi
  40d849:	ff d0                	callq  *%rax
  40d84b:	48 c7 43 08 00 00 00 	movq   $0x0,0x8(%rbx)
  40d852:	00 
  40d853:	48 c7 03 30 34 41 00 	movq   $0x413430,(%rbx)
  40d85a:	48 83 c4 10          	add    $0x10,%rsp
  40d85e:	48 89 df             	mov    %rbx,%rdi
  40d861:	5b                   	pop    %rbx
  40d862:	e9 89 bc ff ff       	jmpq   4094f0 <_ZdlPv@plt>
  40d867:	66 0f 1f 84 00 00 00 	nopw   0x0(%rax,%rax,1)
  40d86e:	00 00 
  40d870:	48 83 e0 fe          	and    $0xfffffffffffffffe,%rax
  40d874:	48 8b 00             	mov    (%rax),%rax
  40d877:	48 85 c0             	test   %rax,%rax
  40d87a:	74 a0                	je     40d81c <_ZN3ros27SubscriptionCallbackHelperTIRKN5boost10shared_ptrIKN6SpyKee7Motion_ISaIvEEEEEvED0Ev+0x1c>
  40d87c:	48 8d 7f 30          	lea    0x30(%rdi),%rdi
  40d880:	ba 02 00 00 00       	mov    $0x2,%edx
  40d885:	48 89 fe             	mov    %rdi,%rsi
  40d888:	ff d0                	callq  *%rax
  40d88a:	eb 90                	jmp    40d81c <_ZN3ros27SubscriptionCallbackHelperTIRKN5boost10shared_ptrIKN6SpyKee7Motion_ISaIvEEEEEvED0Ev+0x1c>
  40d88c:	48 c7 03 30 34 41 00 	movq   $0x413430,(%rbx)
  40d893:	48 89 c7             	mov    %rax,%rdi
  40d896:	e8 85 be ff ff       	callq  409720 <_Unwind_Resume@plt>
  40d89b:	48 8d 7b 08          	lea    0x8(%rbx),%rdi
  40d89f:	48 89 44 24 08       	mov    %rax,0x8(%rsp)
  40d8a4:	e8 77 fe ff ff       	callq  40d720 <_ZN5boost8functionIFvNS_10shared_ptrIKN6SpyKee7Motion_ISaIvEEEEEEED1Ev>
  40d8a9:	48 8b 44 24 08       	mov    0x8(%rsp),%rax
  40d8ae:	eb dc                	jmp    40d88c <_ZN3ros27SubscriptionCallbackHelperTIRKN5boost10shared_ptrIKN6SpyKee7Motion_ISaIvEEEEEvED0Ev+0x8c>

000000000040d8b0 <_ZN3ros16SubscribeOptions4initIN6SpyKee7Motion_ISaIvEEEEEvRKSsjRKN5boost8functionIFvRKNS8_10shared_ptrIKT_EEEEERKNS9_IFNSA_ISB_EEvEEE>:
  40d8b0:	41 55                	push   %r13
  40d8b2:	41 89 d5             	mov    %edx,%r13d
  40d8b5:	41 54                	push   %r12
  40d8b7:	4d 89 c4             	mov    %r8,%r12
  40d8ba:	55                   	push   %rbp
  40d8bb:	48 89 fd             	mov    %rdi,%rbp
  40d8be:	53                   	push   %rbx
  40d8bf:	48 89 cb             	mov    %rcx,%rbx
  40d8c2:	48 81 ec f8 00 00 00 	sub    $0xf8,%rsp
  40d8c9:	e8 12 bd ff ff       	callq  4095e0 <_ZNSs6assignERKSs@plt>
  40d8ce:	48 8d 7d 10          	lea    0x10(%rbp),%rdi
  40d8d2:	ba 20 00 00 00       	mov    $0x20,%edx
  40d8d7:	be 58 2c 41 00       	mov    $0x412c58,%esi
  40d8dc:	44 89 6d 08          	mov    %r13d,0x8(%rbp)
  40d8e0:	e8 ab bc ff ff       	callq  409590 <_ZNSs6assignEPKcm@plt>
  40d8e5:	48 8d 7d 18          	lea    0x18(%rbp),%rdi
  40d8e9:	ba 0d 00 00 00       	mov    $0xd,%edx
  40d8ee:	be e4 2d 41 00       	mov    $0x412de4,%esi
  40d8f3:	e8 98 bc ff ff       	callq  409590 <_ZNSs6assignEPKcm@plt>
  40d8f8:	48 8b 03             	mov    (%rbx),%rax
  40d8fb:	48 c7 04 24 00 00 00 	movq   $0x0,(%rsp)
  40d902:	00 
  40d903:	48 85 c0             	test   %rax,%rax
  40d906:	0f 84 b4 06 00 00    	je     40dfc0 <_ZN3ros16SubscribeOptions4initIN6SpyKee7Motion_ISaIvEEEEEvRKSsjRKN5boost8functionIFvRKNS8_10shared_ptrIKT_EEEEERKNS9_IFNSA_ISB_EEvEEE+0x710>
  40d90c:	a8 01                	test   $0x1,%al
  40d90e:	48 89 04 24          	mov    %rax,(%rsp)
  40d912:	0f 84 48 05 00 00    	je     40de60 <_ZN3ros16SubscribeOptions4initIN6SpyKee7Motion_ISaIvEEEEEvRKSsjRKN5boost8functionIFvRKNS8_10shared_ptrIKT_EEEEERKNS9_IFNSA_ISB_EEvEEE+0x5b0>
  40d918:	48 8b 53 08          	mov    0x8(%rbx),%rdx
  40d91c:	48 89 54 24 08       	mov    %rdx,0x8(%rsp)
  40d921:	48 8b 53 10          	mov    0x10(%rbx),%rdx
  40d925:	48 89 54 24 10       	mov    %rdx,0x10(%rsp)
  40d92a:	48 8b 53 18          	mov    0x18(%rbx),%rdx
  40d92e:	48 89 54 24 18       	mov    %rdx,0x18(%rsp)
  40d933:	a8 01                	test   $0x1,%al
  40d935:	48 89 44 24 40       	mov    %rax,0x40(%rsp)
  40d93a:	0f 84 60 04 00 00    	je     40dda0 <_ZN3ros16SubscribeOptions4initIN6SpyKee7Motion_ISaIvEEEEEvRKSsjRKN5boost8functionIFvRKNS8_10shared_ptrIKT_EEEEERKNS9_IFNSA_ISB_EEvEEE+0x4f0>
  40d940:	48 8b 54 24 08       	mov    0x8(%rsp),%rdx
  40d945:	a8 01                	test   $0x1,%al
  40d947:	48 c7 44 24 20 00 00 	movq   $0x0,0x20(%rsp)
  40d94e:	00 00 
  40d950:	48 89 44 24 60       	mov    %rax,0x60(%rsp)
  40d955:	48 89 54 24 48       	mov    %rdx,0x48(%rsp)
  40d95a:	48 8b 54 24 10       	mov    0x10(%rsp),%rdx
  40d95f:	48 89 54 24 50       	mov    %rdx,0x50(%rsp)
  40d964:	48 8b 54 24 18       	mov    0x18(%rsp),%rdx
  40d969:	48 89 54 24 58       	mov    %rdx,0x58(%rsp)
  40d96e:	0f 84 6b 04 00 00    	je     40dddf <_ZN3ros16SubscribeOptions4initIN6SpyKee7Motion_ISaIvEEEEEvRKSsjRKN5boost8functionIFvRKNS8_10shared_ptrIKT_EEEEERKNS9_IFNSA_ISB_EEvEEE+0x52f>
  40d974:	48 8b 54 24 48       	mov    0x48(%rsp),%rdx
  40d979:	a8 01                	test   $0x1,%al
  40d97b:	48 89 84 24 c0 00 00 	mov    %rax,0xc0(%rsp)
  40d982:	00 
  40d983:	48 89 54 24 68       	mov    %rdx,0x68(%rsp)
  40d988:	48 8b 54 24 50       	mov    0x50(%rsp),%rdx
  40d98d:	48 89 54 24 70       	mov    %rdx,0x70(%rsp)
  40d992:	48 8b 54 24 58       	mov    0x58(%rsp),%rdx
  40d997:	48 89 54 24 78       	mov    %rdx,0x78(%rsp)
  40d99c:	0f 84 7d 04 00 00    	je     40de1f <_ZN3ros16SubscribeOptions4initIN6SpyKee7Motion_ISaIvEEEEEvRKSsjRKN5boost8functionIFvRKNS8_10shared_ptrIKT_EEEEERKNS9_IFNSA_ISB_EEvEEE+0x56f>
  40d9a2:	48 8b 54 24 68       	mov    0x68(%rsp),%rdx
  40d9a7:	48 89 94 24 c8 00 00 	mov    %rdx,0xc8(%rsp)
  40d9ae:	00 
  40d9af:	48 8b 54 24 70       	mov    0x70(%rsp),%rdx
  40d9b4:	48 89 94 24 d0 00 00 	mov    %rdx,0xd0(%rsp)
  40d9bb:	00 
  40d9bc:	48 8b 54 24 78       	mov    0x78(%rsp),%rdx
  40d9c1:	48 89 94 24 d8 00 00 	mov    %rdx,0xd8(%rsp)
  40d9c8:	00 
  40d9c9:	a8 01                	test   $0x1,%al
  40d9cb:	48 89 84 24 a0 00 00 	mov    %rax,0xa0(%rsp)
  40d9d2:	00 
  40d9d3:	0f 84 07 05 00 00    	je     40dee0 <_ZN3ros16SubscribeOptions4initIN6SpyKee7Motion_ISaIvEEEEEvRKSsjRKN5boost8functionIFvRKNS8_10shared_ptrIKT_EEEEERKNS9_IFNSA_ISB_EEvEEE+0x630>
  40d9d9:	48 8b 94 24 c8 00 00 	mov    0xc8(%rsp),%rdx
  40d9e0:	00 
  40d9e1:	a8 01                	test   $0x1,%al
  40d9e3:	48 89 84 24 80 00 00 	mov    %rax,0x80(%rsp)
  40d9ea:	00 
  40d9eb:	48 89 94 24 a8 00 00 	mov    %rdx,0xa8(%rsp)
  40d9f2:	00 
  40d9f3:	48 8b 94 24 d0 00 00 	mov    0xd0(%rsp),%rdx
  40d9fa:	00 
  40d9fb:	48 89 94 24 b0 00 00 	mov    %rdx,0xb0(%rsp)
  40da02:	00 
  40da03:	48 8b 94 24 d8 00 00 	mov    0xd8(%rsp),%rdx
  40da0a:	00 
  40da0b:	48 89 94 24 b8 00 00 	mov    %rdx,0xb8(%rsp)
  40da12:	00 
  40da13:	0f 84 04 05 00 00    	je     40df1d <_ZN3ros16SubscribeOptions4initIN6SpyKee7Motion_ISaIvEEEEEvRKSsjRKN5boost8functionIFvRKNS8_10shared_ptrIKT_EEEEERKNS9_IFNSA_ISB_EEvEEE+0x66d>
  40da19:	48 8b 84 24 a8 00 00 	mov    0xa8(%rsp),%rax
  40da20:	00 
  40da21:	4c 8d ac 24 80 00 00 	lea    0x80(%rsp),%r13
  40da28:	00 
  40da29:	48 89 84 24 88 00 00 	mov    %rax,0x88(%rsp)
  40da30:	00 
  40da31:	48 8b 84 24 b0 00 00 	mov    0xb0(%rsp),%rax
  40da38:	00 
  40da39:	48 89 84 24 90 00 00 	mov    %rax,0x90(%rsp)
  40da40:	00 
  40da41:	48 8b 84 24 b8 00 00 	mov    0xb8(%rsp),%rax
  40da48:	00 
  40da49:	48 89 84 24 98 00 00 	mov    %rax,0x98(%rsp)
  40da50:	00 
  40da51:	bf 20 00 00 00       	mov    $0x20,%edi
  40da56:	e8 c5 ba ff ff       	callq  409520 <_Znwm@plt>
  40da5b:	48 89 c3             	mov    %rax,%rbx
  40da5e:	48 c7 00 00 00 00 00 	movq   $0x0,(%rax)
  40da65:	48 8b 84 24 80 00 00 	mov    0x80(%rsp),%rax
  40da6c:	00 
  40da6d:	48 85 c0             	test   %rax,%rax
  40da70:	0f 84 5a 05 00 00    	je     40dfd0 <_ZN3ros16SubscribeOptions4initIN6SpyKee7Motion_ISaIvEEEEEvRKSsjRKN5boost8functionIFvRKNS8_10shared_ptrIKT_EEEEERKNS9_IFNSA_ISB_EEvEEE+0x720>
  40da76:	a8 01                	test   $0x1,%al
  40da78:	48 89 03             	mov    %rax,(%rbx)
  40da7b:	0f 84 ff 02 00 00    	je     40dd80 <_ZN3ros16SubscribeOptions4initIN6SpyKee7Motion_ISaIvEEEEEvRKSsjRKN5boost8functionIFvRKNS8_10shared_ptrIKT_EEEEERKNS9_IFNSA_ISB_EEvEEE+0x4d0>
  40da81:	48 8b 84 24 88 00 00 	mov    0x88(%rsp),%rax
  40da88:	00 
  40da89:	48 89 43 08          	mov    %rax,0x8(%rbx)
  40da8d:	48 8b 84 24 90 00 00 	mov    0x90(%rsp),%rax
  40da94:	00 
  40da95:	48 89 43 10          	mov    %rax,0x10(%rbx)
  40da99:	48 8b 84 24 98 00 00 	mov    0x98(%rsp),%rax
  40daa0:	00 
  40daa1:	48 89 43 18          	mov    %rax,0x18(%rbx)
  40daa5:	48 8b 84 24 80 00 00 	mov    0x80(%rsp),%rax
  40daac:	00 
  40daad:	48 85 c0             	test   %rax,%rax
  40dab0:	48 89 5c 24 28       	mov    %rbx,0x28(%rsp)
  40dab5:	74 32                	je     40dae9 <_ZN3ros16SubscribeOptions4initIN6SpyKee7Motion_ISaIvEEEEEvRKSsjRKN5boost8functionIFvRKNS8_10shared_ptrIKT_EEEEERKNS9_IFNSA_ISB_EEvEEE+0x239>
  40dab7:	a8 01                	test   $0x1,%al
  40dab9:	75 22                	jne    40dadd <_ZN3ros16SubscribeOptions4initIN6SpyKee7Motion_ISaIvEEEEEvRKSsjRKN5boost8functionIFvRKNS8_10shared_ptrIKT_EEEEERKNS9_IFNSA_ISB_EEvEEE+0x22d>
  40dabb:	48 83 e0 fe          	and    $0xfffffffffffffffe,%rax
  40dabf:	48 8b 00             	mov    (%rax),%rax
  40dac2:	48 85 c0             	test   %rax,%rax
  40dac5:	74 16                	je     40dadd <_ZN3ros16SubscribeOptions4initIN6SpyKee7Motion_ISaIvEEEEEvRKSsjRKN5boost8functionIFvRKNS8_10shared_ptrIKT_EEEEERKNS9_IFNSA_ISB_EEvEEE+0x22d>
  40dac7:	49 8d 7d 08          	lea    0x8(%r13),%rdi
  40dacb:	48 8d 9c 24 a0 00 00 	lea    0xa0(%rsp),%rbx
  40dad2:	00 
  40dad3:	ba 02 00 00 00       	mov    $0x2,%edx
  40dad8:	48 89 fe             	mov    %rdi,%rsi
  40dadb:	ff d0                	callq  *%rax
  40dadd:	48 c7 84 24 80 00 00 	movq   $0x0,0x80(%rsp)
  40dae4:	00 00 00 00 00 
  40dae9:	48 8b 84 24 a0 00 00 	mov    0xa0(%rsp),%rax
  40daf0:	00 
  40daf1:	48 85 c0             	test   %rax,%rax
  40daf4:	0f 84 d8 05 00 00    	je     40e0d2 <_ZN3ros16SubscribeOptions4initIN6SpyKee7Motion_ISaIvEEEEEvRKSsjRKN5boost8functionIFvRKNS8_10shared_ptrIKT_EEEEERKNS9_IFNSA_ISB_EEvEEE+0x822>
  40dafa:	a8 01                	test   $0x1,%al
  40dafc:	75 26                	jne    40db24 <_ZN3ros16SubscribeOptions4initIN6SpyKee7Motion_ISaIvEEEEEvRKSsjRKN5boost8functionIFvRKNS8_10shared_ptrIKT_EEEEERKNS9_IFNSA_ISB_EEvEEE+0x274>
  40dafe:	48 83 e0 fe          	and    $0xfffffffffffffffe,%rax
  40db02:	48 8b 00             	mov    (%rax),%rax
  40db05:	48 85 c0             	test   %rax,%rax
  40db08:	74 1a                	je     40db24 <_ZN3ros16SubscribeOptions4initIN6SpyKee7Motion_ISaIvEEEEEvRKSsjRKN5boost8functionIFvRKNS8_10shared_ptrIKT_EEEEERKNS9_IFNSA_ISB_EEvEEE+0x274>
  40db0a:	48 8d b4 24 a8 00 00 	lea    0xa8(%rsp),%rsi
  40db11:	00 
  40db12:	48 8d 9c 24 c0 00 00 	lea    0xc0(%rsp),%rbx
  40db19:	00 
  40db1a:	ba 02 00 00 00       	mov    $0x2,%edx
  40db1f:	48 89 f7             	mov    %rsi,%rdi
  40db22:	ff d0                	callq  *%rax
  40db24:	48 c7 84 24 a0 00 00 	movq   $0x0,0xa0(%rsp)
  40db2b:	00 00 00 00 00 
  40db30:	41 bd 01 00 00 00    	mov    $0x1,%r13d
  40db36:	48 8b 84 24 c0 00 00 	mov    0xc0(%rsp),%rax
  40db3d:	00 
  40db3e:	48 85 c0             	test   %rax,%rax
  40db41:	74 33                	je     40db76 <_ZN3ros16SubscribeOptions4initIN6SpyKee7Motion_ISaIvEEEEEvRKSsjRKN5boost8functionIFvRKNS8_10shared_ptrIKT_EEEEERKNS9_IFNSA_ISB_EEvEEE+0x2c6>
  40db43:	a8 01                	test   $0x1,%al
  40db45:	75 23                	jne    40db6a <_ZN3ros16SubscribeOptions4initIN6SpyKee7Motion_ISaIvEEEEEvRKSsjRKN5boost8functionIFvRKNS8_10shared_ptrIKT_EEEEERKNS9_IFNSA_ISB_EEvEEE+0x2ba>
  40db47:	48 83 e0 fe          	and    $0xfffffffffffffffe,%rax
  40db4b:	48 8b 00             	mov    (%rax),%rax
  40db4e:	48 85 c0             	test   %rax,%rax
  40db51:	74 17                	je     40db6a <_ZN3ros16SubscribeOptions4initIN6SpyKee7Motion_ISaIvEEEEEvRKSsjRKN5boost8functionIFvRKNS8_10shared_ptrIKT_EEEEERKNS9_IFNSA_ISB_EEvEEE+0x2ba>
  40db53:	48 8d b4 24 c8 00 00 	lea    0xc8(%rsp),%rsi
  40db5a:	00 
  40db5b:	48 8d 5c 24 60       	lea    0x60(%rsp),%rbx
  40db60:	ba 02 00 00 00       	mov    $0x2,%edx
  40db65:	48 89 f7             	mov    %rsi,%rdi
  40db68:	ff d0                	callq  *%rax
  40db6a:	48 c7 84 24 c0 00 00 	movq   $0x0,0xc0(%rsp)
  40db71:	00 00 00 00 00 
  40db76:	31 c0                	xor    %eax,%eax
  40db78:	ba 40 76 61 00       	mov    $0x617640,%edx
  40db7d:	45 84 ed             	test   %r13b,%r13b
  40db80:	48 0f 45 c2          	cmovne %rdx,%rax
  40db84:	48 89 44 24 20       	mov    %rax,0x20(%rsp)
  40db89:	48 8b 44 24 60       	mov    0x60(%rsp),%rax
  40db8e:	48 85 c0             	test   %rax,%rax
  40db91:	74 2d                	je     40dbc0 <_ZN3ros16SubscribeOptions4initIN6SpyKee7Motion_ISaIvEEEEEvRKSsjRKN5boost8functionIFvRKNS8_10shared_ptrIKT_EEEEERKNS9_IFNSA_ISB_EEvEEE+0x310>
  40db93:	a8 01                	test   $0x1,%al
  40db95:	75 20                	jne    40dbb7 <_ZN3ros16SubscribeOptions4initIN6SpyKee7Motion_ISaIvEEEEEvRKSsjRKN5boost8functionIFvRKNS8_10shared_ptrIKT_EEEEERKNS9_IFNSA_ISB_EEvEEE+0x307>
  40db97:	48 83 e0 fe          	and    $0xfffffffffffffffe,%rax
  40db9b:	48 8b 00             	mov    (%rax),%rax
  40db9e:	48 85 c0             	test   %rax,%rax
  40dba1:	74 14                	je     40dbb7 <_ZN3ros16SubscribeOptions4initIN6SpyKee7Motion_ISaIvEEEEEvRKSsjRKN5boost8functionIFvRKNS8_10shared_ptrIKT_EEEEERKNS9_IFNSA_ISB_EEvEEE+0x307>
  40dba3:	48 8d 74 24 68       	lea    0x68(%rsp),%rsi
  40dba8:	48 8d 5c 24 40       	lea    0x40(%rsp),%rbx
  40dbad:	ba 02 00 00 00       	mov    $0x2,%edx
  40dbb2:	48 89 f7             	mov    %rsi,%rdi
  40dbb5:	ff d0                	callq  *%rax
  40dbb7:	48 c7 44 24 60 00 00 	movq   $0x0,0x60(%rsp)
  40dbbe:	00 00 
  40dbc0:	48 8b 44 24 40       	mov    0x40(%rsp),%rax
  40dbc5:	48 85 c0             	test   %rax,%rax
  40dbc8:	74 28                	je     40dbf2 <_ZN3ros16SubscribeOptions4initIN6SpyKee7Motion_ISaIvEEEEEvRKSsjRKN5boost8functionIFvRKNS8_10shared_ptrIKT_EEEEERKNS9_IFNSA_ISB_EEvEEE+0x342>
  40dbca:	a8 01                	test   $0x1,%al
  40dbcc:	75 1b                	jne    40dbe9 <_ZN3ros16SubscribeOptions4initIN6SpyKee7Motion_ISaIvEEEEEvRKSsjRKN5boost8functionIFvRKNS8_10shared_ptrIKT_EEEEERKNS9_IFNSA_ISB_EEvEEE+0x339>
  40dbce:	48 83 e0 fe          	and    $0xfffffffffffffffe,%rax
  40dbd2:	48 8b 00             	mov    (%rax),%rax
  40dbd5:	48 85 c0             	test   %rax,%rax
  40dbd8:	74 0f                	je     40dbe9 <_ZN3ros16SubscribeOptions4initIN6SpyKee7Motion_ISaIvEEEEEvRKSsjRKN5boost8functionIFvRKNS8_10shared_ptrIKT_EEEEERKNS9_IFNSA_ISB_EEvEEE+0x339>
  40dbda:	48 8d 74 24 48       	lea    0x48(%rsp),%rsi
  40dbdf:	ba 02 00 00 00       	mov    $0x2,%edx
  40dbe4:	48 89 f7             	mov    %rsi,%rdi
  40dbe7:	ff d0                	callq  *%rax
  40dbe9:	48 c7 44 24 40 00 00 	movq   $0x0,0x40(%rsp)
  40dbf0:	00 00 
  40dbf2:	bf 48 00 00 00       	mov    $0x48,%edi
  40dbf7:	4c 8d 6c 24 20       	lea    0x20(%rsp),%r13
  40dbfc:	e8 1f b9 ff ff       	callq  409520 <_Znwm@plt>
  40dc01:	48 89 c3             	mov    %rax,%rbx
  40dc04:	48 c7 00 70 34 41 00 	movq   $0x413470,(%rax)
  40dc0b:	48 c7 40 08 00 00 00 	movq   $0x0,0x8(%rax)
  40dc12:	00 
  40dc13:	48 8b 44 24 20       	mov    0x20(%rsp),%rax
  40dc18:	4c 8d 6c 24 20       	lea    0x20(%rsp),%r13
  40dc1d:	48 85 c0             	test   %rax,%rax
  40dc20:	74 27                	je     40dc49 <_ZN3ros16SubscribeOptions4initIN6SpyKee7Motion_ISaIvEEEEEvRKSsjRKN5boost8functionIFvRKNS8_10shared_ptrIKT_EEEEERKNS9_IFNSA_ISB_EEvEEE+0x399>
  40dc22:	a8 01                	test   $0x1,%al
  40dc24:	48 89 43 08          	mov    %rax,0x8(%rbx)
  40dc28:	0f 84 1a 03 00 00    	je     40df48 <_ZN3ros16SubscribeOptions4initIN6SpyKee7Motion_ISaIvEEEEEvRKSsjRKN5boost8functionIFvRKNS8_10shared_ptrIKT_EEEEERKNS9_IFNSA_ISB_EEvEEE+0x698>
  40dc2e:	48 8b 44 24 28       	mov    0x28(%rsp),%rax
  40dc33:	48 89 43 10          	mov    %rax,0x10(%rbx)
  40dc37:	48 8b 44 24 30       	mov    0x30(%rsp),%rax
  40dc3c:	48 89 43 18          	mov    %rax,0x18(%rbx)
  40dc40:	48 8b 44 24 38       	mov    0x38(%rsp),%rax
  40dc45:	48 89 43 20          	mov    %rax,0x20(%rbx)
  40dc49:	48 c7 43 28 00 00 00 	movq   $0x0,0x28(%rbx)
  40dc50:	00 
  40dc51:	49 8b 04 24          	mov    (%r12),%rax
  40dc55:	48 85 c0             	test   %rax,%rax
  40dc58:	74 27                	je     40dc81 <_ZN3ros16SubscribeOptions4initIN6SpyKee7Motion_ISaIvEEEEEvRKSsjRKN5boost8functionIFvRKNS8_10shared_ptrIKT_EEEEERKNS9_IFNSA_ISB_EEvEEE+0x3d1>
  40dc5a:	a8 01                	test   $0x1,%al
  40dc5c:	48 89 43 28          	mov    %rax,0x28(%rbx)
  40dc60:	0f 84 62 02 00 00    	je     40dec8 <_ZN3ros16SubscribeOptions4initIN6SpyKee7Motion_ISaIvEEEEEvRKSsjRKN5boost8functionIFvRKNS8_10shared_ptrIKT_EEEEERKNS9_IFNSA_ISB_EEvEEE+0x618>
  40dc66:	49 8b 44 24 08       	mov    0x8(%r12),%rax
  40dc6b:	48 89 43 30          	mov    %rax,0x30(%rbx)
  40dc6f:	49 8b 44 24 10       	mov    0x10(%r12),%rax
  40dc74:	48 89 43 38          	mov    %rax,0x38(%rbx)
  40dc78:	49 8b 44 24 18       	mov    0x18(%r12),%rax
  40dc7d:	48 89 43 40          	mov    %rax,0x40(%rbx)
  40dc81:	bf 18 00 00 00       	mov    $0x18,%edi
  40dc86:	48 89 9c 24 e0 00 00 	mov    %rbx,0xe0(%rsp)
  40dc8d:	00 
  40dc8e:	48 c7 84 24 e8 00 00 	movq   $0x0,0xe8(%rsp)
  40dc95:	00 00 00 00 00 
  40dc9a:	e8 81 b8 ff ff       	callq  409520 <_Znwm@plt>
  40dc9f:	c7 40 08 01 00 00 00 	movl   $0x1,0x8(%rax)
  40dca6:	48 c7 00 b0 34 41 00 	movq   $0x4134b0,(%rax)
  40dcad:	c7 40 0c 01 00 00 00 	movl   $0x1,0xc(%rax)
  40dcb4:	48 89 58 10          	mov    %rbx,0x10(%rax)
  40dcb8:	48 8b 94 24 e0 00 00 	mov    0xe0(%rsp),%rdx
  40dcbf:	00 
  40dcc0:	48 89 84 24 e8 00 00 	mov    %rax,0xe8(%rsp)
  40dcc7:	00 
  40dcc8:	f0 ff 40 08          	lock incl 0x8(%rax)
  40dccc:	48 8b 5d 28          	mov    0x28(%rbp),%rbx
  40dcd0:	48 89 45 28          	mov    %rax,0x28(%rbp)
  40dcd4:	48 89 55 20          	mov    %rdx,0x20(%rbp)
  40dcd8:	48 85 db             	test   %rbx,%rbx
  40dcdb:	74 13                	je     40dcf0 <_ZN3ros16SubscribeOptions4initIN6SpyKee7Motion_ISaIvEEEEEvRKSsjRKN5boost8functionIFvRKNS8_10shared_ptrIKT_EEEEERKNS9_IFNSA_ISB_EEvEEE+0x440>
  40dcdd:	b8 ff ff ff ff       	mov    $0xffffffff,%eax
  40dce2:	f0 0f c1 43 08       	lock xadd %eax,0x8(%rbx)
  40dce7:	83 f8 01             	cmp    $0x1,%eax
  40dcea:	0f 84 a0 02 00 00    	je     40df90 <_ZN3ros16SubscribeOptions4initIN6SpyKee7Motion_ISaIvEEEEEvRKSsjRKN5boost8functionIFvRKNS8_10shared_ptrIKT_EEEEERKNS9_IFNSA_ISB_EEvEEE+0x6e0>
  40dcf0:	48 8b 9c 24 e8 00 00 	mov    0xe8(%rsp),%rbx
  40dcf7:	00 
  40dcf8:	48 85 db             	test   %rbx,%rbx
  40dcfb:	74 13                	je     40dd10 <_ZN3ros16SubscribeOptions4initIN6SpyKee7Motion_ISaIvEEEEEvRKSsjRKN5boost8functionIFvRKNS8_10shared_ptrIKT_EEEEERKNS9_IFNSA_ISB_EEvEEE+0x460>
  40dcfd:	b8 ff ff ff ff       	mov    $0xffffffff,%eax
  40dd02:	f0 0f c1 43 08       	lock xadd %eax,0x8(%rbx)
  40dd07:	83 f8 01             	cmp    $0x1,%eax
  40dd0a:	0f 84 50 02 00 00    	je     40df60 <_ZN3ros16SubscribeOptions4initIN6SpyKee7Motion_ISaIvEEEEEvRKSsjRKN5boost8functionIFvRKNS8_10shared_ptrIKT_EEEEERKNS9_IFNSA_ISB_EEvEEE+0x6b0>
  40dd10:	48 8b 44 24 20       	mov    0x20(%rsp),%rax
  40dd15:	48 85 c0             	test   %rax,%rax
  40dd18:	74 27                	je     40dd41 <_ZN3ros16SubscribeOptions4initIN6SpyKee7Motion_ISaIvEEEEEvRKSsjRKN5boost8functionIFvRKNS8_10shared_ptrIKT_EEEEERKNS9_IFNSA_ISB_EEvEEE+0x491>
  40dd1a:	a8 01                	test   $0x1,%al
  40dd1c:	75 1a                	jne    40dd38 <_ZN3ros16SubscribeOptions4initIN6SpyKee7Motion_ISaIvEEEEEvRKSsjRKN5boost8functionIFvRKNS8_10shared_ptrIKT_EEEEERKNS9_IFNSA_ISB_EEvEEE+0x488>
  40dd1e:	48 83 e0 fe          	and    $0xfffffffffffffffe,%rax
  40dd22:	48 8b 00             	mov    (%rax),%rax
  40dd25:	48 85 c0             	test   %rax,%rax
  40dd28:	74 0e                	je     40dd38 <_ZN3ros16SubscribeOptions4initIN6SpyKee7Motion_ISaIvEEEEEvRKSsjRKN5boost8functionIFvRKNS8_10shared_ptrIKT_EEEEERKNS9_IFNSA_ISB_EEvEEE+0x488>
  40dd2a:	49 8d 7d 08          	lea    0x8(%r13),%rdi
  40dd2e:	ba 02 00 00 00       	mov    $0x2,%edx
  40dd33:	48 89 fe             	mov    %rdi,%rsi
  40dd36:	ff d0                	callq  *%rax
  40dd38:	48 c7 44 24 20 00 00 	movq   $0x0,0x20(%rsp)
  40dd3f:	00 00 
  40dd41:	48 8b 04 24          	mov    (%rsp),%rax
  40dd45:	48 85 c0             	test   %rax,%rax
  40dd48:	74 1f                	je     40dd69 <_ZN3ros16SubscribeOptions4initIN6SpyKee7Motion_ISaIvEEEEEvRKSsjRKN5boost8functionIFvRKNS8_10shared_ptrIKT_EEEEERKNS9_IFNSA_ISB_EEvEEE+0x4b9>
  40dd4a:	a8 01                	test   $0x1,%al
  40dd4c:	75 1b                	jne    40dd69 <_ZN3ros16SubscribeOptions4initIN6SpyKee7Motion_ISaIvEEEEEvRKSsjRKN5boost8functionIFvRKNS8_10shared_ptrIKT_EEEEERKNS9_IFNSA_ISB_EEvEEE+0x4b9>
  40dd4e:	48 83 e0 fe          	and    $0xfffffffffffffffe,%rax
  40dd52:	48 8b 00             	mov    (%rax),%rax
  40dd55:	48 85 c0             	test   %rax,%rax
  40dd58:	74 0f                	je     40dd69 <_ZN3ros16SubscribeOptions4initIN6SpyKee7Motion_ISaIvEEEEEvRKSsjRKN5boost8functionIFvRKNS8_10shared_ptrIKT_EEEEERKNS9_IFNSA_ISB_EEvEEE+0x4b9>
  40dd5a:	48 8d 74 24 08       	lea    0x8(%rsp),%rsi
  40dd5f:	ba 02 00 00 00       	mov    $0x2,%edx
  40dd64:	48 89 f7             	mov    %rsi,%rdi
  40dd67:	ff d0                	callq  *%rax
  40dd69:	48 81 c4 f8 00 00 00 	add    $0xf8,%rsp
  40dd70:	5b                   	pop    %rbx
  40dd71:	5d                   	pop    %rbp
  40dd72:	41 5c                	pop    %r12
  40dd74:	41 5d                	pop    %r13
  40dd76:	c3                   	retq   
  40dd77:	66 0f 1f 84 00 00 00 	nopw   0x0(%rax,%rax,1)
  40dd7e:	00 00 
  40dd80:	48 83 e0 fe          	and    $0xfffffffffffffffe,%rax
  40dd84:	48 8d 73 08          	lea    0x8(%rbx),%rsi
  40dd88:	49 8d 7d 08          	lea    0x8(%r13),%rdi
  40dd8c:	31 d2                	xor    %edx,%edx
  40dd8e:	ff 10                	callq  *(%rax)
  40dd90:	48 8b 84 24 80 00 00 	mov    0x80(%rsp),%rax
  40dd97:	00 
  40dd98:	e9 10 fd ff ff       	jmpq   40daad <_ZN3ros16SubscribeOptions4initIN6SpyKee7Motion_ISaIvEEEEEvRKSsjRKN5boost8functionIFvRKNS8_10shared_ptrIKT_EEEEERKNS9_IFNSA_ISB_EEvEEE+0x1fd>
  40dd9d:	0f 1f 00             	nopl   (%rax)
  40dda0:	48 83 e0 fe          	and    $0xfffffffffffffffe,%rax
  40dda4:	48 8d 7c 24 08       	lea    0x8(%rsp),%rdi
  40dda9:	31 d2                	xor    %edx,%edx
  40ddab:	48 8d 74 24 48       	lea    0x48(%rsp),%rsi
  40ddb0:	ff 10                	callq  *(%rax)
  40ddb2:	48 8b 44 24 40       	mov    0x40(%rsp),%rax
  40ddb7:	48 c7 44 24 20 00 00 	movq   $0x0,0x20(%rsp)
  40ddbe:	00 00 
  40ddc0:	48 c7 44 24 60 00 00 	movq   $0x0,0x60(%rsp)
  40ddc7:	00 00 
  40ddc9:	48 85 c0             	test   %rax,%rax
  40ddcc:	0f 84 d0 00 00 00    	je     40dea2 <_ZN3ros16SubscribeOptions4initIN6SpyKee7Motion_ISaIvEEEEEvRKSsjRKN5boost8functionIFvRKNS8_10shared_ptrIKT_EEEEERKNS9_IFNSA_ISB_EEvEEE+0x5f2>
  40ddd2:	a8 01                	test   $0x1,%al
  40ddd4:	48 89 44 24 60       	mov    %rax,0x60(%rsp)
  40ddd9:	0f 85 95 fb ff ff    	jne    40d974 <_ZN3ros16SubscribeOptions4initIN6SpyKee7Motion_ISaIvEEEEEvRKSsjRKN5boost8functionIFvRKNS8_10shared_ptrIKT_EEEEERKNS9_IFNSA_ISB_EEvEEE+0xc4>
  40dddf:	48 8d 5c 24 40       	lea    0x40(%rsp),%rbx
  40dde4:	48 83 e0 fe          	and    $0xfffffffffffffffe,%rax
  40dde8:	31 d2                	xor    %edx,%edx
  40ddea:	48 8d 74 24 68       	lea    0x68(%rsp),%rsi
  40ddef:	48 8d 7b 08          	lea    0x8(%rbx),%rdi
  40ddf3:	ff 10                	callq  *(%rax)
  40ddf5:	48 8b 44 24 60       	mov    0x60(%rsp),%rax
  40ddfa:	48 c7 84 24 c0 00 00 	movq   $0x0,0xc0(%rsp)
  40de01:	00 00 00 00 00 
  40de06:	48 85 c0             	test   %rax,%rax
  40de09:	0f 84 9f 00 00 00    	je     40deae <_ZN3ros16SubscribeOptions4initIN6SpyKee7Motion_ISaIvEEEEEvRKSsjRKN5boost8functionIFvRKNS8_10shared_ptrIKT_EEEEERKNS9_IFNSA_ISB_EEvEEE+0x5fe>
  40de0f:	a8 01                	test   $0x1,%al
  40de11:	48 89 84 24 c0 00 00 	mov    %rax,0xc0(%rsp)
  40de18:	00 
  40de19:	0f 85 83 fb ff ff    	jne    40d9a2 <_ZN3ros16SubscribeOptions4initIN6SpyKee7Motion_ISaIvEEEEEvRKSsjRKN5boost8functionIFvRKNS8_10shared_ptrIKT_EEEEERKNS9_IFNSA_ISB_EEvEEE+0xf2>
  40de1f:	48 8d 5c 24 60       	lea    0x60(%rsp),%rbx
  40de24:	48 83 e0 fe          	and    $0xfffffffffffffffe,%rax
  40de28:	31 d2                	xor    %edx,%edx
  40de2a:	48 8d b4 24 c8 00 00 	lea    0xc8(%rsp),%rsi
  40de31:	00 
  40de32:	48 8d 7b 08          	lea    0x8(%rbx),%rdi
  40de36:	ff 10                	callq  *(%rax)
  40de38:	48 8b 84 24 c0 00 00 	mov    0xc0(%rsp),%rax
  40de3f:	00 
  40de40:	48 c7 84 24 a0 00 00 	movq   $0x0,0xa0(%rsp)
  40de47:	00 00 00 00 00 
  40de4c:	48 85 c0             	test   %rax,%rax
  40de4f:	0f 85 74 fb ff ff    	jne    40d9c9 <_ZN3ros16SubscribeOptions4initIN6SpyKee7Motion_ISaIvEEEEEvRKSsjRKN5boost8functionIFvRKNS8_10shared_ptrIKT_EEEEERKNS9_IFNSA_ISB_EEvEEE+0x119>
  40de55:	0f 1f 00             	nopl   (%rax)
  40de58:	45 31 ed             	xor    %r13d,%r13d
  40de5b:	e9 d6 fc ff ff       	jmpq   40db36 <_ZN3ros16SubscribeOptions4initIN6SpyKee7Motion_ISaIvEEEEEvRKSsjRKN5boost8functionIFvRKNS8_10shared_ptrIKT_EEEEERKNS9_IFNSA_ISB_EEvEEE+0x286>
  40de60:	48 83 e0 fe          	and    $0xfffffffffffffffe,%rax
  40de64:	31 d2                	xor    %edx,%edx
  40de66:	48 8d 7b 08          	lea    0x8(%rbx),%rdi
  40de6a:	48 8d 74 24 08       	lea    0x8(%rsp),%rsi
  40de6f:	ff 10                	callq  *(%rax)
  40de71:	48 8b 04 24          	mov    (%rsp),%rax
  40de75:	48 c7 44 24 40 00 00 	movq   $0x0,0x40(%rsp)
  40de7c:	00 00 
  40de7e:	48 85 c0             	test   %rax,%rax
  40de81:	0f 85 ac fa ff ff    	jne    40d933 <_ZN3ros16SubscribeOptions4initIN6SpyKee7Motion_ISaIvEEEEEvRKSsjRKN5boost8functionIFvRKNS8_10shared_ptrIKT_EEEEERKNS9_IFNSA_ISB_EEvEEE+0x83>
  40de87:	66 0f 1f 84 00 00 00 	nopw   0x0(%rax,%rax,1)
  40de8e:	00 00 
  40de90:	48 c7 44 24 20 00 00 	movq   $0x0,0x20(%rsp)
  40de97:	00 00 
  40de99:	48 c7 44 24 60 00 00 	movq   $0x0,0x60(%rsp)
  40dea0:	00 00 
  40dea2:	48 c7 84 24 c0 00 00 	movq   $0x0,0xc0(%rsp)
  40dea9:	00 00 00 00 00 
  40deae:	48 c7 84 24 a0 00 00 	movq   $0x0,0xa0(%rsp)
  40deb5:	00 00 00 00 00 
  40deba:	45 31 ed             	xor    %r13d,%r13d
  40debd:	e9 74 fc ff ff       	jmpq   40db36 <_ZN3ros16SubscribeOptions4initIN6SpyKee7Motion_ISaIvEEEEEvRKSsjRKN5boost8functionIFvRKNS8_10shared_ptrIKT_EEEEERKNS9_IFNSA_ISB_EEvEEE+0x286>
  40dec2:	66 0f 1f 44 00 00    	nopw   0x0(%rax,%rax,1)
  40dec8:	48 83 e0 fe          	and    $0xfffffffffffffffe,%rax
  40decc:	48 8d 73 30          	lea    0x30(%rbx),%rsi
  40ded0:	49 8d 7c 24 08       	lea    0x8(%r12),%rdi
  40ded5:	31 d2                	xor    %edx,%edx
  40ded7:	ff 10                	callq  *(%rax)
  40ded9:	e9 a3 fd ff ff       	jmpq   40dc81 <_ZN3ros16SubscribeOptions4initIN6SpyKee7Motion_ISaIvEEEEEvRKSsjRKN5boost8functionIFvRKNS8_10shared_ptrIKT_EEEEERKNS9_IFNSA_ISB_EEvEEE+0x3d1>
  40dede:	66 90                	xchg   %ax,%ax
  40dee0:	48 8d 9c 24 c0 00 00 	lea    0xc0(%rsp),%rbx
  40dee7:	00 
  40dee8:	48 83 e0 fe          	and    $0xfffffffffffffffe,%rax
  40deec:	31 d2                	xor    %edx,%edx
  40deee:	48 8d b4 24 a8 00 00 	lea    0xa8(%rsp),%rsi
  40def5:	00 
  40def6:	48 8d 7b 08          	lea    0x8(%rbx),%rdi
  40defa:	ff 10                	callq  *(%rax)
  40defc:	48 8b 84 24 a0 00 00 	mov    0xa0(%rsp),%rax
  40df03:	00 
  40df04:	48 85 c0             	test   %rax,%rax
  40df07:	0f 84 4b ff ff ff    	je     40de58 <_ZN3ros16SubscribeOptions4initIN6SpyKee7Motion_ISaIvEEEEEvRKSsjRKN5boost8functionIFvRKNS8_10shared_ptrIKT_EEEEERKNS9_IFNSA_ISB_EEvEEE+0x5a8>
  40df0d:	a8 01                	test   $0x1,%al
  40df0f:	48 89 84 24 80 00 00 	mov    %rax,0x80(%rsp)
  40df16:	00 
  40df17:	0f 85 fc fa ff ff    	jne    40da19 <_ZN3ros16SubscribeOptions4initIN6SpyKee7Motion_ISaIvEEEEEvRKSsjRKN5boost8functionIFvRKNS8_10shared_ptrIKT_EEEEERKNS9_IFNSA_ISB_EEvEEE+0x169>
  40df1d:	4c 8d ac 24 80 00 00 	lea    0x80(%rsp),%r13
  40df24:	00 
  40df25:	48 8d 9c 24 a0 00 00 	lea    0xa0(%rsp),%rbx
  40df2c:	00 
  40df2d:	48 83 e0 fe          	and    $0xfffffffffffffffe,%rax
  40df31:	31 d2                	xor    %edx,%edx
  40df33:	49 8d 75 08          	lea    0x8(%r13),%rsi
  40df37:	48 8d 7b 08          	lea    0x8(%rbx),%rdi
  40df3b:	ff 10                	callq  *(%rax)
  40df3d:	e9 0f fb ff ff       	jmpq   40da51 <_ZN3ros16SubscribeOptions4initIN6SpyKee7Motion_ISaIvEEEEEvRKSsjRKN5boost8functionIFvRKNS8_10shared_ptrIKT_EEEEERKNS9_IFNSA_ISB_EEvEEE+0x1a1>
  40df42:	66 0f 1f 44 00 00    	nopw   0x0(%rax,%rax,1)
  40df48:	48 83 e0 fe          	and    $0xfffffffffffffffe,%rax
  40df4c:	48 8d 73 10          	lea    0x10(%rbx),%rsi
  40df50:	49 8d 7d 08          	lea    0x8(%r13),%rdi
  40df54:	31 d2                	xor    %edx,%edx
  40df56:	ff 10                	callq  *(%rax)
  40df58:	e9 ec fc ff ff       	jmpq   40dc49 <_ZN3ros16SubscribeOptions4initIN6SpyKee7Motion_ISaIvEEEEEvRKSsjRKN5boost8functionIFvRKNS8_10shared_ptrIKT_EEEEERKNS9_IFNSA_ISB_EEvEEE+0x399>
  40df5d:	0f 1f 00             	nopl   (%rax)
  40df60:	48 8b 03             	mov    (%rbx),%rax
  40df63:	48 89 df             	mov    %rbx,%rdi
  40df66:	ff 50 10             	callq  *0x10(%rax)
  40df69:	b8 ff ff ff ff       	mov    $0xffffffff,%eax
  40df6e:	f0 0f c1 43 0c       	lock xadd %eax,0xc(%rbx)
  40df73:	83 f8 01             	cmp    $0x1,%eax
  40df76:	0f 85 94 fd ff ff    	jne    40dd10 <_ZN3ros16SubscribeOptions4initIN6SpyKee7Motion_ISaIvEEEEEvRKSsjRKN5boost8functionIFvRKNS8_10shared_ptrIKT_EEEEERKNS9_IFNSA_ISB_EEvEEE+0x460>
  40df7c:	48 8b 03             	mov    (%rbx),%rax
  40df7f:	48 89 df             	mov    %rbx,%rdi
  40df82:	ff 50 18             	callq  *0x18(%rax)
  40df85:	e9 86 fd ff ff       	jmpq   40dd10 <_ZN3ros16SubscribeOptions4initIN6SpyKee7Motion_ISaIvEEEEEvRKSsjRKN5boost8functionIFvRKNS8_10shared_ptrIKT_EEEEERKNS9_IFNSA_ISB_EEvEEE+0x460>
  40df8a:	66 0f 1f 44 00 00    	nopw   0x0(%rax,%rax,1)
  40df90:	48 8b 03             	mov    (%rbx),%rax
  40df93:	48 89 df             	mov    %rbx,%rdi
  40df96:	ff 50 10             	callq  *0x10(%rax)
  40df99:	b8 ff ff ff ff       	mov    $0xffffffff,%eax
  40df9e:	f0 0f c1 43 0c       	lock xadd %eax,0xc(%rbx)
  40dfa3:	83 f8 01             	cmp    $0x1,%eax
  40dfa6:	0f 85 44 fd ff ff    	jne    40dcf0 <_ZN3ros16SubscribeOptions4initIN6SpyKee7Motion_ISaIvEEEEEvRKSsjRKN5boost8functionIFvRKNS8_10shared_ptrIKT_EEEEERKNS9_IFNSA_ISB_EEvEEE+0x440>
  40dfac:	48 8b 03             	mov    (%rbx),%rax
  40dfaf:	48 89 df             	mov    %rbx,%rdi
  40dfb2:	ff 50 18             	callq  *0x18(%rax)
  40dfb5:	e9 36 fd ff ff       	jmpq   40dcf0 <_ZN3ros16SubscribeOptions4initIN6SpyKee7Motion_ISaIvEEEEEvRKSsjRKN5boost8functionIFvRKNS8_10shared_ptrIKT_EEEEERKNS9_IFNSA_ISB_EEvEEE+0x440>
  40dfba:	66 0f 1f 44 00 00    	nopw   0x0(%rax,%rax,1)
  40dfc0:	48 c7 44 24 40 00 00 	movq   $0x0,0x40(%rsp)
  40dfc7:	00 00 
  40dfc9:	e9 c2 fe ff ff       	jmpq   40de90 <_ZN3ros16SubscribeOptions4initIN6SpyKee7Motion_ISaIvEEEEEvRKSsjRKN5boost8functionIFvRKNS8_10shared_ptrIKT_EEEEERKNS9_IFNSA_ISB_EEvEEE+0x5e0>
  40dfce:	66 90                	xchg   %ax,%ax
  40dfd0:	48 89 5c 24 28       	mov    %rbx,0x28(%rsp)
  40dfd5:	e9 0f fb ff ff       	jmpq   40dae9 <_ZN3ros16SubscribeOptions4initIN6SpyKee7Motion_ISaIvEEEEEvRKSsjRKN5boost8functionIFvRKNS8_10shared_ptrIKT_EEEEERKNS9_IFNSA_ISB_EEvEEE+0x239>
  40dfda:	48 8d bc 24 e8 00 00 	lea    0xe8(%rsp),%rdi
  40dfe1:	00 
  40dfe2:	48 89 c3             	mov    %rax,%rbx
  40dfe5:	e8 06 cf ff ff       	callq  40aef0 <_ZN5boost6detail12shared_countD1Ev>
  40dfea:	4c 89 ef             	mov    %r13,%rdi
  40dfed:	48 89 dd             	mov    %rbx,%rbp
  40dff0:	e8 2b f7 ff ff       	callq  40d720 <_ZN5boost8functionIFvNS_10shared_ptrIKN6SpyKee7Motion_ISaIvEEEEEEED1Ev>
  40dff5:	48 89 e7             	mov    %rsp,%rdi
  40dff8:	e8 f3 d2 ff ff       	callq  40b2f0 <_ZN5boost8functionIFvRKNS_10shared_ptrIKN6SpyKee7Motion_ISaIvEEEEEEED1Ev>
  40dffd:	48 89 ef             	mov    %rbp,%rdi
  40e000:	e8 1b b7 ff ff       	callq  409720 <_Unwind_Resume@plt>
  40e005:	48 89 c5             	mov    %rax,%rbp
  40e008:	48 c7 03 30 34 41 00 	movq   $0x413430,(%rbx)
  40e00f:	48 89 df             	mov    %rbx,%rdi
  40e012:	48 89 eb             	mov    %rbp,%rbx
  40e015:	e8 d6 b4 ff ff       	callq  4094f0 <_ZdlPv@plt>
  40e01a:	eb ce                	jmp    40dfea <_ZN3ros16SubscribeOptions4initIN6SpyKee7Motion_ISaIvEEEEEvRKSsjRKN5boost8functionIFvRKNS8_10shared_ptrIKT_EEEEERKNS9_IFNSA_ISB_EEvEEE+0x73a>
  40e01c:	48 89 c7             	mov    %rax,%rdi
  40e01f:	e8 4c b3 ff ff       	callq  409370 <__cxa_begin_catch@plt>
  40e024:	48 8b 03             	mov    (%rbx),%rax
  40e027:	48 89 df             	mov    %rbx,%rdi
  40e02a:	ff 50 08             	callq  *0x8(%rax)
  40e02d:	e8 0e b6 ff ff       	callq  409640 <__cxa_rethrow@plt>
  40e032:	48 89 df             	mov    %rbx,%rdi
  40e035:	48 89 c5             	mov    %rax,%rbp
  40e038:	e8 b3 b4 ff ff       	callq  4094f0 <_ZdlPv@plt>
  40e03d:	48 8d 9c 24 a0 00 00 	lea    0xa0(%rsp),%rbx
  40e044:	00 
  40e045:	4c 89 ef             	mov    %r13,%rdi
  40e048:	e8 a3 d2 ff ff       	callq  40b2f0 <_ZN5boost8functionIFvRKNS_10shared_ptrIKN6SpyKee7Motion_ISaIvEEEEEEED1Ev>
  40e04d:	48 89 df             	mov    %rbx,%rdi
  40e050:	48 8d 9c 24 c0 00 00 	lea    0xc0(%rsp),%rbx
  40e057:	00 
  40e058:	e8 93 d2 ff ff       	callq  40b2f0 <_ZN5boost8functionIFvRKNS_10shared_ptrIKN6SpyKee7Motion_ISaIvEEEEEEED1Ev>
  40e05d:	48 89 df             	mov    %rbx,%rdi
  40e060:	48 8d 5c 24 60       	lea    0x60(%rsp),%rbx
  40e065:	e8 86 d2 ff ff       	callq  40b2f0 <_ZN5boost8functionIFvRKNS_10shared_ptrIKN6SpyKee7Motion_ISaIvEEEEEEED1Ev>
  40e06a:	48 89 df             	mov    %rbx,%rdi
  40e06d:	48 8d 5c 24 40       	lea    0x40(%rsp),%rbx
  40e072:	e8 79 d2 ff ff       	callq  40b2f0 <_ZN5boost8functionIFvRKNS_10shared_ptrIKN6SpyKee7Motion_ISaIvEEEEEEED1Ev>
  40e077:	48 89 df             	mov    %rbx,%rdi
  40e07a:	e8 71 d2 ff ff       	callq  40b2f0 <_ZN5boost8functionIFvRKNS_10shared_ptrIKN6SpyKee7Motion_ISaIvEEEEEEED1Ev>
  40e07f:	e9 71 ff ff ff       	jmpq   40dff5 <_ZN3ros16SubscribeOptions4initIN6SpyKee7Motion_ISaIvEEEEEvRKSsjRKN5boost8functionIFvRKNS8_10shared_ptrIKT_EEEEERKNS9_IFNSA_ISB_EEvEEE+0x745>
  40e084:	48 8d 7b 08          	lea    0x8(%rbx),%rdi
  40e088:	48 89 c5             	mov    %rax,%rbp
  40e08b:	e8 90 f6 ff ff       	callq  40d720 <_ZN5boost8functionIFvNS_10shared_ptrIKN6SpyKee7Motion_ISaIvEEEEEEED1Ev>
  40e090:	e9 73 ff ff ff       	jmpq   40e008 <_ZN3ros16SubscribeOptions4initIN6SpyKee7Motion_ISaIvEEEEEvRKSsjRKN5boost8functionIFvRKNS8_10shared_ptrIKT_EEEEERKNS9_IFNSA_ISB_EEvEEE+0x758>
  40e095:	48 89 c3             	mov    %rax,%rbx
  40e098:	e8 23 b6 ff ff       	callq  4096c0 <__cxa_end_catch@plt>
  40e09d:	0f 1f 00             	nopl   (%rax)
  40e0a0:	e9 45 ff ff ff       	jmpq   40dfea <_ZN3ros16SubscribeOptions4initIN6SpyKee7Motion_ISaIvEEEEEvRKSsjRKN5boost8functionIFvRKNS8_10shared_ptrIKT_EEEEERKNS9_IFNSA_ISB_EEvEEE+0x73a>
  40e0a5:	48 89 c5             	mov    %rax,%rbp
  40e0a8:	eb c0                	jmp    40e06a <_ZN3ros16SubscribeOptions4initIN6SpyKee7Motion_ISaIvEEEEEvRKSsjRKN5boost8functionIFvRKNS8_10shared_ptrIKT_EEEEERKNS9_IFNSA_ISB_EEvEEE+0x7ba>
  40e0aa:	48 89 c5             	mov    %rax,%rbp
  40e0ad:	0f 1f 00             	nopl   (%rax)
  40e0b0:	eb c5                	jmp    40e077 <_ZN3ros16SubscribeOptions4initIN6SpyKee7Motion_ISaIvEEEEEvRKSsjRKN5boost8functionIFvRKNS8_10shared_ptrIKT_EEEEERKNS9_IFNSA_ISB_EEvEEE+0x7c7>
  40e0b2:	48 89 c5             	mov    %rax,%rbp
  40e0b5:	e9 3b ff ff ff       	jmpq   40dff5 <_ZN3ros16SubscribeOptions4initIN6SpyKee7Motion_ISaIvEEEEEvRKSsjRKN5boost8functionIFvRKNS8_10shared_ptrIKT_EEEEERKNS9_IFNSA_ISB_EEvEEE+0x745>
  40e0ba:	48 89 c3             	mov    %rax,%rbx
  40e0bd:	e9 28 ff ff ff       	jmpq   40dfea <_ZN3ros16SubscribeOptions4initIN6SpyKee7Motion_ISaIvEEEEEvRKSsjRKN5boost8functionIFvRKNS8_10shared_ptrIKT_EEEEERKNS9_IFNSA_ISB_EEvEEE+0x73a>
  40e0c2:	48 89 c5             	mov    %rax,%rbp
  40e0c5:	e9 73 ff ff ff       	jmpq   40e03d <_ZN3ros16SubscribeOptions4initIN6SpyKee7Motion_ISaIvEEEEEvRKSsjRKN5boost8functionIFvRKNS8_10shared_ptrIKT_EEEEERKNS9_IFNSA_ISB_EEvEEE+0x78d>
  40e0ca:	48 89 c5             	mov    %rax,%rbp
  40e0cd:	e9 7b ff ff ff       	jmpq   40e04d <_ZN3ros16SubscribeOptions4initIN6SpyKee7Motion_ISaIvEEEEEvRKSsjRKN5boost8functionIFvRKNS8_10shared_ptrIKT_EEEEERKNS9_IFNSA_ISB_EEvEEE+0x79d>
  40e0d2:	41 bd 01 00 00 00    	mov    $0x1,%r13d
  40e0d8:	e9 59 fa ff ff       	jmpq   40db36 <_ZN3ros16SubscribeOptions4initIN6SpyKee7Motion_ISaIvEEEEEvRKSsjRKN5boost8functionIFvRKNS8_10shared_ptrIKT_EEEEERKNS9_IFNSA_ISB_EEvEEE+0x286>
  40e0dd:	48 89 c5             	mov    %rax,%rbp
  40e0e0:	e9 78 ff ff ff       	jmpq   40e05d <_ZN3ros16SubscribeOptions4initIN6SpyKee7Motion_ISaIvEEEEEvRKSsjRKN5boost8functionIFvRKNS8_10shared_ptrIKT_EEEEERKNS9_IFNSA_ISB_EEvEEE+0x7ad>
  40e0e5:	90                   	nop
  40e0e6:	90                   	nop
  40e0e7:	90                   	nop
  40e0e8:	90                   	nop
  40e0e9:	90                   	nop
  40e0ea:	90                   	nop
  40e0eb:	90                   	nop
  40e0ec:	90                   	nop
  40e0ed:	90                   	nop
  40e0ee:	90                   	nop
  40e0ef:	90                   	nop

000000000040e0f0 <_ZNSt6vectorISsSaISsEEaSERKS1_>:
  40e0f0:	41 57                	push   %r15
  40e0f2:	41 56                	push   %r14
  40e0f4:	41 55                	push   %r13
  40e0f6:	49 89 fd             	mov    %rdi,%r13
  40e0f9:	41 54                	push   %r12
  40e0fb:	55                   	push   %rbp
  40e0fc:	53                   	push   %rbx
  40e0fd:	48 83 ec 38          	sub    $0x38,%rsp
  40e101:	48 39 fe             	cmp    %rdi,%rsi
  40e104:	48 89 74 24 18       	mov    %rsi,0x18(%rsp)
  40e109:	0f 84 a2 00 00 00    	je     40e1b1 <_ZNSt6vectorISsSaISsEEaSERKS1_+0xc1>
  40e10f:	4c 8b 66 08          	mov    0x8(%rsi),%r12
  40e113:	48 8b 1e             	mov    (%rsi),%rbx
  40e116:	48 8b 17             	mov    (%rdi),%rdx
  40e119:	48 8b 47 10          	mov    0x10(%rdi),%rax
  40e11d:	4d 89 e6             	mov    %r12,%r14
  40e120:	49 29 de             	sub    %rbx,%r14
  40e123:	48 29 d0             	sub    %rdx,%rax
  40e126:	49 c1 fe 03          	sar    $0x3,%r14
  40e12a:	48 c1 f8 03          	sar    $0x3,%rax
  40e12e:	49 39 c6             	cmp    %rax,%r14
  40e131:	4c 89 f5             	mov    %r14,%rbp
  40e134:	0f 87 1e 01 00 00    	ja     40e258 <_ZNSt6vectorISsSaISsEEaSERKS1_+0x168>
  40e13a:	4c 8b 7f 08          	mov    0x8(%rdi),%r15
  40e13e:	4c 89 f8             	mov    %r15,%rax
  40e141:	48 29 d0             	sub    %rdx,%rax
  40e144:	48 c1 f8 03          	sar    $0x3,%rax
  40e148:	49 39 c6             	cmp    %rax,%r14
  40e14b:	77 7b                	ja     40e1c8 <_ZNSt6vectorISsSaISsEEaSERKS1_+0xd8>
  40e14d:	4d 85 f6             	test   %r14,%r14
  40e150:	7e 2d                	jle    40e17f <_ZNSt6vectorISsSaISsEEaSERKS1_+0x8f>
  40e152:	49 89 d4             	mov    %rdx,%r12
  40e155:	0f 1f 00             	nopl   (%rax)
  40e158:	48 89 de             	mov    %rbx,%rsi
  40e15b:	4c 89 e7             	mov    %r12,%rdi
  40e15e:	48 89 54 24 08       	mov    %rdx,0x8(%rsp)
  40e163:	48 83 c3 08          	add    $0x8,%rbx
  40e167:	49 83 c4 08          	add    $0x8,%r12
  40e16b:	e8 70 b4 ff ff       	callq  4095e0 <_ZNSs6assignERKSs@plt>
  40e170:	48 83 ed 01          	sub    $0x1,%rbp
  40e174:	48 8b 54 24 08       	mov    0x8(%rsp),%rdx
  40e179:	75 dd                	jne    40e158 <_ZNSt6vectorISsSaISsEEaSERKS1_+0x68>
  40e17b:	4a 8d 14 f2          	lea    (%rdx,%r14,8),%rdx
  40e17f:	4c 39 fa             	cmp    %r15,%rdx
  40e182:	74 21                	je     40e1a5 <_ZNSt6vectorISsSaISsEEaSERKS1_+0xb5>
  40e184:	0f 1f 40 00          	nopl   0x0(%rax)
  40e188:	48 8b 02             	mov    (%rdx),%rax
  40e18b:	48 8d 78 e8          	lea    -0x18(%rax),%rdi
  40e18f:	48 81 ff 00 77 61 00 	cmp    $0x617700,%rdi
  40e196:	0f 85 6d 01 00 00    	jne    40e309 <_ZNSt6vectorISsSaISsEEaSERKS1_+0x219>
  40e19c:	48 83 c2 08          	add    $0x8,%rdx
  40e1a0:	49 39 d7             	cmp    %rdx,%r15
  40e1a3:	75 e3                	jne    40e188 <_ZNSt6vectorISsSaISsEEaSERKS1_+0x98>
  40e1a5:	49 8b 4d 00          	mov    0x0(%r13),%rcx
  40e1a9:	4e 8d 34 f1          	lea    (%rcx,%r14,8),%r14
  40e1ad:	4d 89 75 08          	mov    %r14,0x8(%r13)
  40e1b1:	48 83 c4 38          	add    $0x38,%rsp
  40e1b5:	4c 89 e8             	mov    %r13,%rax
  40e1b8:	5b                   	pop    %rbx
  40e1b9:	5d                   	pop    %rbp
  40e1ba:	41 5c                	pop    %r12
  40e1bc:	41 5d                	pop    %r13
  40e1be:	41 5e                	pop    %r14
  40e1c0:	41 5f                	pop    %r15
  40e1c2:	c3                   	retq   
  40e1c3:	0f 1f 44 00 00       	nopl   0x0(%rax,%rax,1)
  40e1c8:	48 85 c0             	test   %rax,%rax
  40e1cb:	48 8d 2c c3          	lea    (%rbx,%rax,8),%rbp
  40e1cf:	48 89 44 24 10       	mov    %rax,0x10(%rsp)
  40e1d4:	7e 4d                	jle    40e223 <_ZNSt6vectorISsSaISsEEaSERKS1_+0x133>
  40e1d6:	66 2e 0f 1f 84 00 00 	nopw   %cs:0x0(%rax,%rax,1)
  40e1dd:	00 00 00 
  40e1e0:	48 89 de             	mov    %rbx,%rsi
  40e1e3:	48 89 d7             	mov    %rdx,%rdi
  40e1e6:	48 89 54 24 08       	mov    %rdx,0x8(%rsp)
  40e1eb:	e8 f0 b3 ff ff       	callq  4095e0 <_ZNSs6assignERKSs@plt>
  40e1f0:	48 8b 54 24 08       	mov    0x8(%rsp),%rdx
  40e1f5:	48 83 c3 08          	add    $0x8,%rbx
  40e1f9:	48 83 c2 08          	add    $0x8,%rdx
  40e1fd:	48 83 6c 24 10 01    	subq   $0x1,0x10(%rsp)
  40e203:	75 db                	jne    40e1e0 <_ZNSt6vectorISsSaISsEEaSERKS1_+0xf0>
  40e205:	4d 8b 7d 08          	mov    0x8(%r13),%r15
  40e209:	49 8b 55 00          	mov    0x0(%r13),%rdx
  40e20d:	48 8b 44 24 18       	mov    0x18(%rsp),%rax
  40e212:	4c 89 fd             	mov    %r15,%rbp
  40e215:	48 29 d5             	sub    %rdx,%rbp
  40e218:	4c 8b 60 08          	mov    0x8(%rax),%r12
  40e21c:	48 83 e5 f8          	and    $0xfffffffffffffff8,%rbp
  40e220:	48 03 28             	add    (%rax),%rbp
  40e223:	49 39 ec             	cmp    %rbp,%r12
  40e226:	4c 89 fb             	mov    %r15,%rbx
  40e229:	0f 84 d1 00 00 00    	je     40e300 <_ZNSt6vectorISsSaISsEEaSERKS1_+0x210>
  40e22f:	90                   	nop
  40e230:	48 85 db             	test   %rbx,%rbx
  40e233:	74 0b                	je     40e240 <_ZNSt6vectorISsSaISsEEaSERKS1_+0x150>
  40e235:	48 89 ee             	mov    %rbp,%rsi
  40e238:	48 89 df             	mov    %rbx,%rdi
  40e23b:	e8 d0 b1 ff ff       	callq  409410 <_ZNSsC1ERKSs@plt>
  40e240:	48 83 c5 08          	add    $0x8,%rbp
  40e244:	48 83 c3 08          	add    $0x8,%rbx
  40e248:	49 39 ec             	cmp    %rbp,%r12
  40e24b:	75 e3                	jne    40e230 <_ZNSt6vectorISsSaISsEEaSERKS1_+0x140>
  40e24d:	e9 53 ff ff ff       	jmpq   40e1a5 <_ZNSt6vectorISsSaISsEEaSERKS1_+0xb5>
  40e252:	66 0f 1f 44 00 00    	nopw   0x0(%rax,%rax,1)
  40e258:	4d 85 f6             	test   %r14,%r14
  40e25b:	0f 84 9a 00 00 00    	je     40e2fb <_ZNSt6vectorISsSaISsEEaSERKS1_+0x20b>
  40e261:	48 b8 ff ff ff ff ff 	movabs $0x1fffffffffffffff,%rax
  40e268:	ff ff 1f 
  40e26b:	49 39 c6             	cmp    %rax,%r14
  40e26e:	0f 87 f7 00 00 00    	ja     40e36b <_ZNSt6vectorISsSaISsEEaSERKS1_+0x27b>
  40e274:	4a 8d 3c f5 00 00 00 	lea    0x0(,%r14,8),%rdi
  40e27b:	00 
  40e27c:	e8 9f b2 ff ff       	callq  409520 <_Znwm@plt>
  40e281:	49 89 c7             	mov    %rax,%r15
  40e284:	4c 39 e3             	cmp    %r12,%rbx
  40e287:	74 24                	je     40e2ad <_ZNSt6vectorISsSaISsEEaSERKS1_+0x1bd>
  40e289:	4c 89 fd             	mov    %r15,%rbp
  40e28c:	0f 1f 40 00          	nopl   0x0(%rax)
  40e290:	48 85 ed             	test   %rbp,%rbp
  40e293:	74 0b                	je     40e2a0 <_ZNSt6vectorISsSaISsEEaSERKS1_+0x1b0>
  40e295:	48 89 de             	mov    %rbx,%rsi
  40e298:	48 89 ef             	mov    %rbp,%rdi
  40e29b:	e8 70 b1 ff ff       	callq  409410 <_ZNSsC1ERKSs@plt>
  40e2a0:	48 83 c3 08          	add    $0x8,%rbx
  40e2a4:	48 83 c5 08          	add    $0x8,%rbp
  40e2a8:	49 39 dc             	cmp    %rbx,%r12
  40e2ab:	75 e3                	jne    40e290 <_ZNSt6vectorISsSaISsEEaSERKS1_+0x1a0>
  40e2ad:	49 8b 6d 08          	mov    0x8(%r13),%rbp
  40e2b1:	49 8b 5d 00          	mov    0x0(%r13),%rbx
  40e2b5:	48 39 dd             	cmp    %rbx,%rbp
  40e2b8:	74 23                	je     40e2dd <_ZNSt6vectorISsSaISsEEaSERKS1_+0x1ed>
  40e2ba:	66 0f 1f 44 00 00    	nopw   0x0(%rax,%rax,1)
  40e2c0:	48 8b 03             	mov    (%rbx),%rax
  40e2c3:	48 8d 78 e8          	lea    -0x18(%rax),%rdi
  40e2c7:	48 81 ff 00 77 61 00 	cmp    $0x617700,%rdi
  40e2ce:	75 70                	jne    40e340 <_ZNSt6vectorISsSaISsEEaSERKS1_+0x250>
  40e2d0:	48 83 c3 08          	add    $0x8,%rbx
  40e2d4:	48 39 dd             	cmp    %rbx,%rbp
  40e2d7:	75 e7                	jne    40e2c0 <_ZNSt6vectorISsSaISsEEaSERKS1_+0x1d0>
  40e2d9:	49 8b 5d 00          	mov    0x0(%r13),%rbx
  40e2dd:	48 85 db             	test   %rbx,%rbx
  40e2e0:	74 08                	je     40e2ea <_ZNSt6vectorISsSaISsEEaSERKS1_+0x1fa>
  40e2e2:	48 89 df             	mov    %rbx,%rdi
  40e2e5:	e8 06 b2 ff ff       	callq  4094f0 <_ZdlPv@plt>
  40e2ea:	4f 8d 34 f7          	lea    (%r15,%r14,8),%r14
  40e2ee:	4d 89 7d 00          	mov    %r15,0x0(%r13)
  40e2f2:	4d 89 75 10          	mov    %r14,0x10(%r13)
  40e2f6:	e9 b2 fe ff ff       	jmpq   40e1ad <_ZNSt6vectorISsSaISsEEaSERKS1_+0xbd>
  40e2fb:	45 31 ff             	xor    %r15d,%r15d
  40e2fe:	eb 84                	jmp    40e284 <_ZNSt6vectorISsSaISsEEaSERKS1_+0x194>
  40e300:	4e 8d 34 f2          	lea    (%rdx,%r14,8),%r14
  40e304:	e9 a4 fe ff ff       	jmpq   40e1ad <_ZNSt6vectorISsSaISsEEaSERKS1_+0xbd>
  40e309:	b9 80 92 40 00       	mov    $0x409280,%ecx
  40e30e:	48 85 c9             	test   %rcx,%rcx
  40e311:	74 78                	je     40e38b <_ZNSt6vectorISsSaISsEEaSERKS1_+0x29b>
  40e313:	b9 ff ff ff ff       	mov    $0xffffffff,%ecx
  40e318:	f0 0f c1 48 f8       	lock xadd %ecx,-0x8(%rax)
  40e31d:	85 c9                	test   %ecx,%ecx
  40e31f:	0f 8f 77 fe ff ff    	jg     40e19c <_ZNSt6vectorISsSaISsEEaSERKS1_+0xac>
  40e325:	48 8d 74 24 2f       	lea    0x2f(%rsp),%rsi
  40e32a:	48 89 54 24 08       	mov    %rdx,0x8(%rsp)
  40e32f:	e8 5c b1 ff ff       	callq  409490 <_ZNSs4_Rep10_M_destroyERKSaIcE@plt>
  40e334:	48 8b 54 24 08       	mov    0x8(%rsp),%rdx
  40e339:	e9 5e fe ff ff       	jmpq   40e19c <_ZNSt6vectorISsSaISsEEaSERKS1_+0xac>
  40e33e:	66 90                	xchg   %ax,%ax
  40e340:	ba 80 92 40 00       	mov    $0x409280,%edx
  40e345:	48 85 d2             	test   %rdx,%rdx
  40e348:	74 6f                	je     40e3b9 <_ZNSt6vectorISsSaISsEEaSERKS1_+0x2c9>
  40e34a:	ba ff ff ff ff       	mov    $0xffffffff,%edx
  40e34f:	f0 0f c1 50 f8       	lock xadd %edx,-0x8(%rax)
  40e354:	85 d2                	test   %edx,%edx
  40e356:	0f 8f 74 ff ff ff    	jg     40e2d0 <_ZNSt6vectorISsSaISsEEaSERKS1_+0x1e0>
  40e35c:	48 8d 74 24 2e       	lea    0x2e(%rsp),%rsi
  40e361:	e8 2a b1 ff ff       	callq  409490 <_ZNSs4_Rep10_M_destroyERKSaIcE@plt>
  40e366:	e9 65 ff ff ff       	jmpq   40e2d0 <_ZNSt6vectorISsSaISsEEaSERKS1_+0x1e0>
  40e36b:	e8 f0 af ff ff       	callq  409360 <_ZSt17__throw_bad_allocv@plt>
  40e370:	48 89 c7             	mov    %rax,%rdi
  40e373:	e8 f8 af ff ff       	callq  409370 <__cxa_begin_catch@plt>
  40e378:	49 39 df             	cmp    %rbx,%r15
  40e37b:	74 19                	je     40e396 <_ZNSt6vectorISsSaISsEEaSERKS1_+0x2a6>
  40e37d:	4c 89 ff             	mov    %r15,%rdi
  40e380:	49 83 c7 08          	add    $0x8,%r15
  40e384:	e8 07 b3 ff ff       	callq  409690 <_ZNSsD1Ev@plt>
  40e389:	eb ed                	jmp    40e378 <_ZNSt6vectorISsSaISsEEaSERKS1_+0x288>
  40e38b:	8b 48 f8             	mov    -0x8(%rax),%ecx
  40e38e:	8d 71 ff             	lea    -0x1(%rcx),%esi
  40e391:	89 70 f8             	mov    %esi,-0x8(%rax)
  40e394:	eb 87                	jmp    40e31d <_ZNSt6vectorISsSaISsEEaSERKS1_+0x22d>
  40e396:	e8 a5 b2 ff ff       	callq  409640 <__cxa_rethrow@plt>
  40e39b:	48 89 c7             	mov    %rax,%rdi
  40e39e:	4c 89 fb             	mov    %r15,%rbx
  40e3a1:	e8 ca af ff ff       	callq  409370 <__cxa_begin_catch@plt>
  40e3a6:	48 39 eb             	cmp    %rbp,%rbx
  40e3a9:	74 29                	je     40e3d4 <_ZNSt6vectorISsSaISsEEaSERKS1_+0x2e4>
  40e3ab:	48 89 df             	mov    %rbx,%rdi
  40e3ae:	48 83 c3 08          	add    $0x8,%rbx
  40e3b2:	e8 d9 b2 ff ff       	callq  409690 <_ZNSsD1Ev@plt>
  40e3b7:	eb ed                	jmp    40e3a6 <_ZNSt6vectorISsSaISsEEaSERKS1_+0x2b6>
  40e3b9:	8b 50 f8             	mov    -0x8(%rax),%edx
  40e3bc:	8d 4a ff             	lea    -0x1(%rdx),%ecx
  40e3bf:	89 48 f8             	mov    %ecx,-0x8(%rax)
  40e3c2:	eb 90                	jmp    40e354 <_ZNSt6vectorISsSaISsEEaSERKS1_+0x264>
  40e3c4:	48 89 c3             	mov    %rax,%rbx
  40e3c7:	e8 f4 b2 ff ff       	callq  4096c0 <__cxa_end_catch@plt>
  40e3cc:	48 89 df             	mov    %rbx,%rdi
  40e3cf:	e8 4c b3 ff ff       	callq  409720 <_Unwind_Resume@plt>
  40e3d4:	e8 67 b2 ff ff       	callq  409640 <__cxa_rethrow@plt>
  40e3d9:	48 89 c3             	mov    %rax,%rbx
  40e3dc:	e8 df b2 ff ff       	callq  4096c0 <__cxa_end_catch@plt>
  40e3e1:	48 89 df             	mov    %rbx,%rdi
  40e3e4:	e8 87 af ff ff       	callq  409370 <__cxa_begin_catch@plt>
  40e3e9:	4d 85 ff             	test   %r15,%r15
  40e3ec:	74 08                	je     40e3f6 <_ZNSt6vectorISsSaISsEEaSERKS1_+0x306>
  40e3ee:	4c 89 ff             	mov    %r15,%rdi
  40e3f1:	e8 fa b0 ff ff       	callq  4094f0 <_ZdlPv@plt>
  40e3f6:	e8 45 b2 ff ff       	callq  409640 <__cxa_rethrow@plt>
  40e3fb:	48 89 c3             	mov    %rax,%rbx
  40e3fe:	e8 bd b2 ff ff       	callq  4096c0 <__cxa_end_catch@plt>
  40e403:	48 89 df             	mov    %rbx,%rdi
  40e406:	e8 15 b3 ff ff       	callq  409720 <_Unwind_Resume@plt>
  40e40b:	90                   	nop
  40e40c:	90                   	nop
  40e40d:	90                   	nop
  40e40e:	90                   	nop
  40e40f:	90                   	nop

000000000040e410 <_ZNSt8_Rb_treeISsSt4pairIKSsSsESt10_Select1stIS2_ESt4lessISsESaIS2_EE7_M_copyEPKSt13_Rb_tree_nodeIS2_EPSA_>:
  40e410:	41 57                	push   %r15
  40e412:	41 56                	push   %r14
  40e414:	49 89 fe             	mov    %rdi,%r14
  40e417:	bf 30 00 00 00       	mov    $0x30,%edi
  40e41c:	41 55                	push   %r13
  40e41e:	41 54                	push   %r12
  40e420:	55                   	push   %rbp
  40e421:	48 89 d5             	mov    %rdx,%rbp
  40e424:	53                   	push   %rbx
  40e425:	48 89 f3             	mov    %rsi,%rbx
  40e428:	48 83 ec 08          	sub    $0x8,%rsp
  40e42c:	e8 ef b0 ff ff       	callq  409520 <_Znwm@plt>
  40e431:	49 89 c4             	mov    %rax,%r12
  40e434:	49 89 c7             	mov    %rax,%r15
  40e437:	49 83 c4 20          	add    $0x20,%r12
  40e43b:	74 19                	je     40e456 <_ZNSt8_Rb_treeISsSt4pairIKSsSsESt10_Select1stIS2_ESt4lessISsESaIS2_EE7_M_copyEPKSt13_Rb_tree_nodeIS2_EPSA_+0x46>
  40e43d:	48 8d 73 20          	lea    0x20(%rbx),%rsi
  40e441:	4c 89 e7             	mov    %r12,%rdi
  40e444:	e8 c7 af ff ff       	callq  409410 <_ZNSsC1ERKSs@plt>
  40e449:	48 8d 73 28          	lea    0x28(%rbx),%rsi
  40e44d:	49 8d 7f 28          	lea    0x28(%r15),%rdi
  40e451:	e8 ba af ff ff       	callq  409410 <_ZNSsC1ERKSs@plt>
  40e456:	8b 03                	mov    (%rbx),%eax
  40e458:	49 c7 47 10 00 00 00 	movq   $0x0,0x10(%r15)
  40e45f:	00 
  40e460:	49 c7 47 18 00 00 00 	movq   $0x0,0x18(%r15)
  40e467:	00 
  40e468:	49 89 6f 08          	mov    %rbp,0x8(%r15)
  40e46c:	41 89 07             	mov    %eax,(%r15)
  40e46f:	48 8b 73 18          	mov    0x18(%rbx),%rsi
  40e473:	48 85 f6             	test   %rsi,%rsi
  40e476:	74 0f                	je     40e487 <_ZNSt8_Rb_treeISsSt4pairIKSsSsESt10_Select1stIS2_ESt4lessISsESaIS2_EE7_M_copyEPKSt13_Rb_tree_nodeIS2_EPSA_+0x77>
  40e478:	4c 89 fa             	mov    %r15,%rdx
  40e47b:	4c 89 f7             	mov    %r14,%rdi
  40e47e:	e8 8d ff ff ff       	callq  40e410 <_ZNSt8_Rb_treeISsSt4pairIKSsSsESt10_Select1stIS2_ESt4lessISsESaIS2_EE7_M_copyEPKSt13_Rb_tree_nodeIS2_EPSA_>
  40e483:	49 89 47 18          	mov    %rax,0x18(%r15)
  40e487:	48 8b 6b 10          	mov    0x10(%rbx),%rbp
  40e48b:	4d 89 fc             	mov    %r15,%r12
  40e48e:	48 85 ed             	test   %rbp,%rbp
  40e491:	75 08                	jne    40e49b <_ZNSt8_Rb_treeISsSt4pairIKSsSsESt10_Select1stIS2_ESt4lessISsESaIS2_EE7_M_copyEPKSt13_Rb_tree_nodeIS2_EPSA_+0x8b>
  40e493:	eb 74                	jmp    40e509 <_ZNSt8_Rb_treeISsSt4pairIKSsSsESt10_Select1stIS2_ESt4lessISsESaIS2_EE7_M_copyEPKSt13_Rb_tree_nodeIS2_EPSA_+0xf9>
  40e495:	0f 1f 00             	nopl   (%rax)
  40e498:	49 89 dc             	mov    %rbx,%r12
  40e49b:	bf 30 00 00 00       	mov    $0x30,%edi
  40e4a0:	e8 7b b0 ff ff       	callq  409520 <_Znwm@plt>
  40e4a5:	49 89 c5             	mov    %rax,%r13
  40e4a8:	48 89 c3             	mov    %rax,%rbx
  40e4ab:	49 83 c5 20          	add    $0x20,%r13
  40e4af:	74 19                	je     40e4ca <_ZNSt8_Rb_treeISsSt4pairIKSsSsESt10_Select1stIS2_ESt4lessISsESaIS2_EE7_M_copyEPKSt13_Rb_tree_nodeIS2_EPSA_+0xba>
  40e4b1:	48 8d 75 20          	lea    0x20(%rbp),%rsi
  40e4b5:	4c 89 ef             	mov    %r13,%rdi
  40e4b8:	e8 53 af ff ff       	callq  409410 <_ZNSsC1ERKSs@plt>
  40e4bd:	48 8d 75 28          	lea    0x28(%rbp),%rsi
  40e4c1:	48 8d 7b 28          	lea    0x28(%rbx),%rdi
  40e4c5:	e8 46 af ff ff       	callq  409410 <_ZNSsC1ERKSs@plt>
  40e4ca:	8b 45 00             	mov    0x0(%rbp),%eax
  40e4cd:	48 c7 43 10 00 00 00 	movq   $0x0,0x10(%rbx)
  40e4d4:	00 
  40e4d5:	48 c7 43 18 00 00 00 	movq   $0x0,0x18(%rbx)
  40e4dc:	00 
  40e4dd:	89 03                	mov    %eax,(%rbx)
  40e4df:	49 89 5c 24 10       	mov    %rbx,0x10(%r12)
  40e4e4:	4c 89 63 08          	mov    %r12,0x8(%rbx)
  40e4e8:	48 8b 75 18          	mov    0x18(%rbp),%rsi
  40e4ec:	48 85 f6             	test   %rsi,%rsi
  40e4ef:	74 0f                	je     40e500 <_ZNSt8_Rb_treeISsSt4pairIKSsSsESt10_Select1stIS2_ESt4lessISsESaIS2_EE7_M_copyEPKSt13_Rb_tree_nodeIS2_EPSA_+0xf0>
  40e4f1:	48 89 da             	mov    %rbx,%rdx
  40e4f4:	4c 89 f7             	mov    %r14,%rdi
  40e4f7:	e8 14 ff ff ff       	callq  40e410 <_ZNSt8_Rb_treeISsSt4pairIKSsSsESt10_Select1stIS2_ESt4lessISsESaIS2_EE7_M_copyEPKSt13_Rb_tree_nodeIS2_EPSA_>
  40e4fc:	48 89 43 18          	mov    %rax,0x18(%rbx)
  40e500:	48 8b 6d 10          	mov    0x10(%rbp),%rbp
  40e504:	48 85 ed             	test   %rbp,%rbp
  40e507:	75 8f                	jne    40e498 <_ZNSt8_Rb_treeISsSt4pairIKSsSsESt10_Select1stIS2_ESt4lessISsESaIS2_EE7_M_copyEPKSt13_Rb_tree_nodeIS2_EPSA_+0x88>
  40e509:	48 83 c4 08          	add    $0x8,%rsp
  40e50d:	4c 89 f8             	mov    %r15,%rax
  40e510:	5b                   	pop    %rbx
  40e511:	5d                   	pop    %rbp
  40e512:	41 5c                	pop    %r12
  40e514:	41 5d                	pop    %r13
  40e516:	41 5e                	pop    %r14
  40e518:	41 5f                	pop    %r15
  40e51a:	c3                   	retq   
  40e51b:	48 89 c7             	mov    %rax,%rdi
  40e51e:	e8 4d ae ff ff       	callq  409370 <__cxa_begin_catch@plt>
  40e523:	4c 89 ff             	mov    %r15,%rdi
  40e526:	e8 c5 af ff ff       	callq  4094f0 <_ZdlPv@plt>
  40e52b:	e8 10 b1 ff ff       	callq  409640 <__cxa_rethrow@plt>
  40e530:	48 89 c5             	mov    %rax,%rbp
  40e533:	4c 89 ef             	mov    %r13,%rdi
  40e536:	e8 55 b1 ff ff       	callq  409690 <_ZNSsD1Ev@plt>
  40e53b:	48 89 e8             	mov    %rbp,%rax
  40e53e:	48 89 c7             	mov    %rax,%rdi
  40e541:	e8 2a ae ff ff       	callq  409370 <__cxa_begin_catch@plt>
  40e546:	48 89 df             	mov    %rbx,%rdi
  40e549:	e8 a2 af ff ff       	callq  4094f0 <_ZdlPv@plt>
  40e54e:	e8 ed b0 ff ff       	callq  409640 <__cxa_rethrow@plt>
  40e553:	48 89 c7             	mov    %rax,%rdi
  40e556:	e8 15 ae ff ff       	callq  409370 <__cxa_begin_catch@plt>
  40e55b:	4c 89 fe             	mov    %r15,%rsi
  40e55e:	4c 89 f7             	mov    %r14,%rdi
  40e561:	e8 ca ed ff ff       	callq  40d330 <_ZNSt8_Rb_treeISsSt4pairIKSsSsESt10_Select1stIS2_ESt4lessISsESaIS2_EE8_M_eraseEPSt13_Rb_tree_nodeIS2_E>
  40e566:	e8 d5 b0 ff ff       	callq  409640 <__cxa_rethrow@plt>
  40e56b:	eb d1                	jmp    40e53e <_ZNSt8_Rb_treeISsSt4pairIKSsSsESt10_Select1stIS2_ESt4lessISsESaIS2_EE7_M_copyEPKSt13_Rb_tree_nodeIS2_EPSA_+0x12e>
  40e56d:	48 89 c3             	mov    %rax,%rbx
  40e570:	4c 89 e7             	mov    %r12,%rdi
  40e573:	e8 18 b1 ff ff       	callq  409690 <_ZNSsD1Ev@plt>
  40e578:	48 89 d8             	mov    %rbx,%rax
  40e57b:	eb 9e                	jmp    40e51b <_ZNSt8_Rb_treeISsSt4pairIKSsSsESt10_Select1stIS2_ESt4lessISsESaIS2_EE7_M_copyEPKSt13_Rb_tree_nodeIS2_EPSA_+0x10b>
  40e57d:	48 89 c3             	mov    %rax,%rbx
  40e580:	e8 3b b1 ff ff       	callq  4096c0 <__cxa_end_catch@plt>
  40e585:	48 89 d8             	mov    %rbx,%rax
  40e588:	eb c9                	jmp    40e553 <_ZNSt8_Rb_treeISsSt4pairIKSsSsESt10_Select1stIS2_ESt4lessISsESaIS2_EE7_M_copyEPKSt13_Rb_tree_nodeIS2_EPSA_+0x143>
  40e58a:	48 89 c3             	mov    %rax,%rbx
  40e58d:	e8 2e b1 ff ff       	callq  4096c0 <__cxa_end_catch@plt>
  40e592:	48 89 df             	mov    %rbx,%rdi
  40e595:	e8 86 b1 ff ff       	callq  409720 <_Unwind_Resume@plt>
  40e59a:	48 89 c3             	mov    %rax,%rbx
  40e59d:	e8 1e b1 ff ff       	callq  4096c0 <__cxa_end_catch@plt>
  40e5a2:	48 89 df             	mov    %rbx,%rdi
  40e5a5:	e8 76 b1 ff ff       	callq  409720 <_Unwind_Resume@plt>
  40e5aa:	90                   	nop
  40e5ab:	90                   	nop
  40e5ac:	90                   	nop
  40e5ad:	90                   	nop
  40e5ae:	90                   	nop
  40e5af:	90                   	nop

000000000040e5b0 <_ZNSt8_Rb_treeISsSt4pairIKSsSsESt10_Select1stIS2_ESt4lessISsESaIS2_EEaSERKS8_>:
  40e5b0:	55                   	push   %rbp
  40e5b1:	48 89 f5             	mov    %rsi,%rbp
  40e5b4:	53                   	push   %rbx
  40e5b5:	48 89 fb             	mov    %rdi,%rbx
  40e5b8:	48 83 ec 08          	sub    $0x8,%rsp
  40e5bc:	48 39 f7             	cmp    %rsi,%rdi
  40e5bf:	74 6f                	je     40e630 <_ZNSt8_Rb_treeISsSt4pairIKSsSsESt10_Select1stIS2_ESt4lessISsESaIS2_EEaSERKS8_+0x80>
  40e5c1:	48 8b 77 10          	mov    0x10(%rdi),%rsi
  40e5c5:	e8 66 ed ff ff       	callq  40d330 <_ZNSt8_Rb_treeISsSt4pairIKSsSsESt10_Select1stIS2_ESt4lessISsESaIS2_EE8_M_eraseEPSt13_Rb_tree_nodeIS2_E>
  40e5ca:	48 8d 53 08          	lea    0x8(%rbx),%rdx
  40e5ce:	48 c7 43 10 00 00 00 	movq   $0x0,0x10(%rbx)
  40e5d5:	00 
  40e5d6:	48 c7 43 28 00 00 00 	movq   $0x0,0x28(%rbx)
  40e5dd:	00 
  40e5de:	48 89 53 18          	mov    %rdx,0x18(%rbx)
  40e5e2:	48 89 53 20          	mov    %rdx,0x20(%rbx)
  40e5e6:	48 8b 75 10          	mov    0x10(%rbp),%rsi
  40e5ea:	48 85 f6             	test   %rsi,%rsi
  40e5ed:	74 41                	je     40e630 <_ZNSt8_Rb_treeISsSt4pairIKSsSsESt10_Select1stIS2_ESt4lessISsESaIS2_EEaSERKS8_+0x80>
  40e5ef:	48 89 df             	mov    %rbx,%rdi
  40e5f2:	e8 19 fe ff ff       	callq  40e410 <_ZNSt8_Rb_treeISsSt4pairIKSsSsESt10_Select1stIS2_ESt4lessISsESaIS2_EE7_M_copyEPKSt13_Rb_tree_nodeIS2_EPSA_>
  40e5f7:	48 89 43 10          	mov    %rax,0x10(%rbx)
  40e5fb:	48 89 c1             	mov    %rax,%rcx
  40e5fe:	eb 03                	jmp    40e603 <_ZNSt8_Rb_treeISsSt4pairIKSsSsESt10_Select1stIS2_ESt4lessISsESaIS2_EEaSERKS8_+0x53>
  40e600:	48 89 d1             	mov    %rdx,%rcx
  40e603:	48 8b 51 10          	mov    0x10(%rcx),%rdx
  40e607:	48 85 d2             	test   %rdx,%rdx
  40e60a:	75 f4                	jne    40e600 <_ZNSt8_Rb_treeISsSt4pairIKSsSsESt10_Select1stIS2_ESt4lessISsESaIS2_EEaSERKS8_+0x50>
  40e60c:	48 89 4b 18          	mov    %rcx,0x18(%rbx)
  40e610:	eb 09                	jmp    40e61b <_ZNSt8_Rb_treeISsSt4pairIKSsSsESt10_Select1stIS2_ESt4lessISsESaIS2_EEaSERKS8_+0x6b>
  40e612:	66 0f 1f 44 00 00    	nopw   0x0(%rax,%rax,1)
  40e618:	48 89 d0             	mov    %rdx,%rax
  40e61b:	48 8b 50 18          	mov    0x18(%rax),%rdx
  40e61f:	48 85 d2             	test   %rdx,%rdx
  40e622:	75 f4                	jne    40e618 <_ZNSt8_Rb_treeISsSt4pairIKSsSsESt10_Select1stIS2_ESt4lessISsESaIS2_EEaSERKS8_+0x68>
  40e624:	48 89 43 20          	mov    %rax,0x20(%rbx)
  40e628:	48 8b 45 28          	mov    0x28(%rbp),%rax
  40e62c:	48 89 43 28          	mov    %rax,0x28(%rbx)
  40e630:	48 83 c4 08          	add    $0x8,%rsp
  40e634:	48 89 d8             	mov    %rbx,%rax
  40e637:	5b                   	pop    %rbx
  40e638:	5d                   	pop    %rbp
  40e639:	c3                   	retq   
  40e63a:	90                   	nop
  40e63b:	90                   	nop
  40e63c:	90                   	nop
  40e63d:	90                   	nop
  40e63e:	90                   	nop
  40e63f:	90                   	nop

000000000040e640 <_ZN3ros10NodeHandle9subscribeIN6SpyKee7Motion_ISaIvEEEEENS_10SubscriberERKSsjPFvRKN5boost10shared_ptrIKT_EEERKNS_14TransportHintsE>:
  40e640:	41 57                	push   %r15
  40e642:	41 89 cf             	mov    %ecx,%r15d
  40e645:	41 56                	push   %r14
  40e647:	4d 89 ce             	mov    %r9,%r14
  40e64a:	41 55                	push   %r13
  40e64c:	41 54                	push   %r12
  40e64e:	55                   	push   %rbp
  40e64f:	48 89 fd             	mov    %rdi,%rbp
  40e652:	53                   	push   %rbx
  40e653:	4c 89 c3             	mov    %r8,%rbx
  40e656:	48 81 ec 08 01 00 00 	sub    $0x108,%rsp
  40e65d:	48 8d 84 24 80 00 00 	lea    0x80(%rsp),%rax
  40e664:	00 
  40e665:	48 8d bc 24 fb 00 00 	lea    0xfb(%rsp),%rdi
  40e66c:	00 
  40e66d:	48 89 34 24          	mov    %rsi,(%rsp)
  40e671:	48 89 54 24 08       	mov    %rdx,0x8(%rsp)
  40e676:	48 c7 44 24 10 18 77 	movq   $0x617718,0x10(%rsp)
  40e67d:	61 00 
  40e67f:	48 89 84 24 90 00 00 	mov    %rax,0x90(%rsp)
  40e686:	00 
  40e687:	48 89 84 24 98 00 00 	mov    %rax,0x98(%rsp)
  40e68e:	00 
  40e68f:	31 c0                	xor    %eax,%eax
  40e691:	c7 44 24 18 01 00 00 	movl   $0x1,0x18(%rsp)
  40e698:	00 
  40e699:	48 c7 44 24 20 18 77 	movq   $0x617718,0x20(%rsp)
  40e6a0:	61 00 
  40e6a2:	48 c7 44 24 28 18 77 	movq   $0x617718,0x28(%rsp)
  40e6a9:	61 00 
  40e6ab:	48 c7 44 24 30 00 00 	movq   $0x0,0x30(%rsp)
  40e6b2:	00 00 
  40e6b4:	48 c7 44 24 38 00 00 	movq   $0x0,0x38(%rsp)
  40e6bb:	00 00 
  40e6bd:	48 c7 44 24 40 00 00 	movq   $0x0,0x40(%rsp)
  40e6c4:	00 00 
  40e6c6:	c6 44 24 48 00       	movb   $0x0,0x48(%rsp)
  40e6cb:	48 c7 44 24 50 00 00 	movq   $0x0,0x50(%rsp)
  40e6d2:	00 00 
  40e6d4:	48 c7 44 24 58 00 00 	movq   $0x0,0x58(%rsp)
  40e6db:	00 00 
  40e6dd:	48 c7 44 24 60 00 00 	movq   $0x0,0x60(%rsp)
  40e6e4:	00 00 
  40e6e6:	48 c7 44 24 68 00 00 	movq   $0x0,0x68(%rsp)
  40e6ed:	00 00 
  40e6ef:	48 c7 44 24 70 00 00 	movq   $0x0,0x70(%rsp)
  40e6f6:	00 00 
  40e6f8:	c7 84 24 80 00 00 00 	movl   $0x0,0x80(%rsp)
  40e6ff:	00 00 00 00 
  40e703:	48 c7 84 24 88 00 00 	movq   $0x0,0x88(%rsp)
  40e70a:	00 00 00 00 00 
  40e70f:	48 c7 84 24 a0 00 00 	movq   $0x0,0xa0(%rsp)
  40e716:	00 00 00 00 00 
  40e71b:	48 c7 84 24 d0 00 00 	movq   $0x0,0xd0(%rsp)
  40e722:	00 00 00 00 00 
  40e727:	e8 c4 c8 ff ff       	callq  40aff0 <_ZN5boost6detail8function16has_empty_targetEz>
  40e72c:	84 c0                	test   %al,%al
  40e72e:	75 11                	jne    40e741 <_ZN3ros10NodeHandle9subscribeIN6SpyKee7Motion_ISaIvEEEEENS_10SubscriberERKSsjPFvRKN5boost10shared_ptrIKT_EEERKNS_14TransportHintsE+0x101>
  40e730:	b8 10 76 61 00       	mov    $0x617610,%eax
  40e735:	48 83 c8 01          	or     $0x1,%rax
  40e739:	48 89 84 24 d0 00 00 	mov    %rax,0xd0(%rsp)
  40e740:	00 
  40e741:	48 8b 05 d8 8e 20 00 	mov    0x208ed8(%rip),%rax        # 617620 <_ZZN5boost9function1IvRKNS_10shared_ptrIKN6SpyKee7Motion_ISaIvEEEEEE9assign_toIPFvS9_EEEvT_E13stored_vtable>
  40e748:	48 c7 84 24 b0 00 00 	movq   $0x0,0xb0(%rsp)
  40e74f:	00 00 00 00 00 
  40e754:	4c 8d ac 24 b0 00 00 	lea    0xb0(%rsp),%r13
  40e75b:	00 
  40e75c:	48 85 c0             	test   %rax,%rax
  40e75f:	74 16                	je     40e777 <_ZN3ros10NodeHandle9subscribeIN6SpyKee7Motion_ISaIvEEEEENS_10SubscriberERKSsjPFvRKN5boost10shared_ptrIKT_EEERKNS_14TransportHintsE+0x137>
  40e761:	49 8d 7d 08          	lea    0x8(%r13),%rdi
  40e765:	4c 8d a4 24 d0 00 00 	lea    0xd0(%rsp),%r12
  40e76c:	00 
  40e76d:	ba 02 00 00 00       	mov    $0x2,%edx
  40e772:	48 89 fe             	mov    %rdi,%rsi
  40e775:	ff d0                	callq  *%rax
  40e777:	48 85 db             	test   %rbx,%rbx
  40e77a:	0f 84 40 02 00 00    	je     40e9c0 <_ZN3ros10NodeHandle9subscribeIN6SpyKee7Motion_ISaIvEEEEENS_10SubscriberERKSsjPFvRKN5boost10shared_ptrIKT_EEERKNS_14TransportHintsE+0x380>
  40e780:	b8 20 76 61 00       	mov    $0x617620,%eax
  40e785:	48 89 9c 24 b8 00 00 	mov    %rbx,0xb8(%rsp)
  40e78c:	00 
  40e78d:	48 83 c8 01          	or     $0x1,%rax
  40e791:	48 89 84 24 b0 00 00 	mov    %rax,0xb0(%rsp)
  40e798:	00 
  40e799:	4c 8d a4 24 d0 00 00 	lea    0xd0(%rsp),%r12
  40e7a0:	00 
  40e7a1:	48 8b 74 24 08       	mov    0x8(%rsp),%rsi
  40e7a6:	48 8d 7c 24 10       	lea    0x10(%rsp),%rdi
  40e7ab:	4c 89 e9             	mov    %r13,%rcx
  40e7ae:	44 89 fa             	mov    %r15d,%edx
  40e7b1:	4d 89 e0             	mov    %r12,%r8
  40e7b4:	e8 f7 f0 ff ff       	callq  40d8b0 <_ZN3ros16SubscribeOptions4initIN6SpyKee7Motion_ISaIvEEEEEvRKSsjRKN5boost8functionIFvRKNS8_10shared_ptrIKT_EEEEERKNS9_IFNSA_ISB_EEvEEE>
  40e7b9:	48 8b 84 24 b0 00 00 	mov    0xb0(%rsp),%rax
  40e7c0:	00 
  40e7c1:	48 85 c0             	test   %rax,%rax
  40e7c4:	74 14                	je     40e7da <_ZN3ros10NodeHandle9subscribeIN6SpyKee7Motion_ISaIvEEEEENS_10SubscriberERKSsjPFvRKN5boost10shared_ptrIKT_EEERKNS_14TransportHintsE+0x19a>
  40e7c6:	a8 01                	test   $0x1,%al
  40e7c8:	0f 84 6a 01 00 00    	je     40e938 <_ZN3ros10NodeHandle9subscribeIN6SpyKee7Motion_ISaIvEEEEENS_10SubscriberERKSsjPFvRKN5boost10shared_ptrIKT_EEERKNS_14TransportHintsE+0x2f8>
  40e7ce:	48 c7 84 24 b0 00 00 	movq   $0x0,0xb0(%rsp)
  40e7d5:	00 00 00 00 00 
  40e7da:	48 8b 84 24 d0 00 00 	mov    0xd0(%rsp),%rax
  40e7e1:	00 
  40e7e2:	48 85 c0             	test   %rax,%rax
  40e7e5:	74 14                	je     40e7fb <_ZN3ros10NodeHandle9subscribeIN6SpyKee7Motion_ISaIvEEEEENS_10SubscriberERKSsjPFvRKN5boost10shared_ptrIKT_EEERKNS_14TransportHintsE+0x1bb>
  40e7e7:	a8 01                	test   $0x1,%al
  40e7e9:	0f 84 21 01 00 00    	je     40e910 <_ZN3ros10NodeHandle9subscribeIN6SpyKee7Motion_ISaIvEEEEENS_10SubscriberERKSsjPFvRKN5boost10shared_ptrIKT_EEERKNS_14TransportHintsE+0x2d0>
  40e7ef:	48 c7 84 24 d0 00 00 	movq   $0x0,0xd0(%rsp)
  40e7f6:	00 00 00 00 00 
  40e7fb:	48 8d 7c 24 60       	lea    0x60(%rsp),%rdi
  40e800:	4c 89 f6             	mov    %r14,%rsi
  40e803:	e8 e8 f8 ff ff       	callq  40e0f0 <_ZNSt6vectorISsSaISsEEaSERKS1_>
  40e808:	49 8d 76 18          	lea    0x18(%r14),%rsi
  40e80c:	48 8d 7c 24 78       	lea    0x78(%rsp),%rdi
  40e811:	e8 9a fd ff ff       	callq  40e5b0 <_ZNSt8_Rb_treeISsSt4pairIKSsSsESt10_Select1stIS2_ESt4lessISsESaIS2_EEaSERKS8_>
  40e816:	48 8b 34 24          	mov    (%rsp),%rsi
  40e81a:	48 8d 54 24 10       	lea    0x10(%rsp),%rdx
  40e81f:	48 89 ef             	mov    %rbp,%rdi
  40e822:	e8 e9 aa ff ff       	callq  409310 <_ZN3ros10NodeHandle9subscribeERNS_16SubscribeOptionsE@plt>
  40e827:	48 8b b4 24 88 00 00 	mov    0x88(%rsp),%rsi
  40e82e:	00 
  40e82f:	48 8d 7c 24 78       	lea    0x78(%rsp),%rdi
  40e834:	e8 f7 ea ff ff       	callq  40d330 <_ZNSt8_Rb_treeISsSt4pairIKSsSsESt10_Select1stIS2_ESt4lessISsESaIS2_EE8_M_eraseEPSt13_Rb_tree_nodeIS2_E>
  40e839:	4c 8b 64 24 68       	mov    0x68(%rsp),%r12
  40e83e:	48 8b 5c 24 60       	mov    0x60(%rsp),%rbx
  40e843:	49 39 dc             	cmp    %rbx,%r12
  40e846:	74 2a                	je     40e872 <_ZN3ros10NodeHandle9subscribeIN6SpyKee7Motion_ISaIvEEEEENS_10SubscriberERKSsjPFvRKN5boost10shared_ptrIKT_EEERKNS_14TransportHintsE+0x232>
  40e848:	0f 1f 84 00 00 00 00 	nopl   0x0(%rax,%rax,1)
  40e84f:	00 
  40e850:	48 8b 03             	mov    (%rbx),%rax
  40e853:	48 8d 78 e8          	lea    -0x18(%rax),%rdi
  40e857:	48 81 ff 00 77 61 00 	cmp    $0x617700,%rdi
  40e85e:	0f 85 6d 01 00 00    	jne    40e9d1 <_ZN3ros10NodeHandle9subscribeIN6SpyKee7Motion_ISaIvEEEEENS_10SubscriberERKSsjPFvRKN5boost10shared_ptrIKT_EEERKNS_14TransportHintsE+0x391>
  40e864:	48 83 c3 08          	add    $0x8,%rbx
  40e868:	49 39 dc             	cmp    %rbx,%r12
  40e86b:	75 e3                	jne    40e850 <_ZN3ros10NodeHandle9subscribeIN6SpyKee7Motion_ISaIvEEEEENS_10SubscriberERKSsjPFvRKN5boost10shared_ptrIKT_EEERKNS_14TransportHintsE+0x210>
  40e86d:	48 8b 5c 24 60       	mov    0x60(%rsp),%rbx
  40e872:	48 85 db             	test   %rbx,%rbx
  40e875:	74 08                	je     40e87f <_ZN3ros10NodeHandle9subscribeIN6SpyKee7Motion_ISaIvEEEEENS_10SubscriberERKSsjPFvRKN5boost10shared_ptrIKT_EEERKNS_14TransportHintsE+0x23f>
  40e877:	48 89 df             	mov    %rbx,%rdi
  40e87a:	e8 71 ac ff ff       	callq  4094f0 <_ZdlPv@plt>
  40e87f:	48 8b 5c 24 58       	mov    0x58(%rsp),%rbx
  40e884:	48 85 db             	test   %rbx,%rbx
  40e887:	74 13                	je     40e89c <_ZN3ros10NodeHandle9subscribeIN6SpyKee7Motion_ISaIvEEEEENS_10SubscriberERKSsjPFvRKN5boost10shared_ptrIKT_EEERKNS_14TransportHintsE+0x25c>
  40e889:	b8 ff ff ff ff       	mov    $0xffffffff,%eax
  40e88e:	f0 0f c1 43 08       	lock xadd %eax,0x8(%rbx)
  40e893:	83 f8 01             	cmp    $0x1,%eax
  40e896:	0f 84 f4 00 00 00    	je     40e990 <_ZN3ros10NodeHandle9subscribeIN6SpyKee7Motion_ISaIvEEEEENS_10SubscriberERKSsjPFvRKN5boost10shared_ptrIKT_EEERKNS_14TransportHintsE+0x350>
  40e89c:	48 8b 5c 24 38       	mov    0x38(%rsp),%rbx
  40e8a1:	48 85 db             	test   %rbx,%rbx
  40e8a4:	74 13                	je     40e8b9 <_ZN3ros10NodeHandle9subscribeIN6SpyKee7Motion_ISaIvEEEEENS_10SubscriberERKSsjPFvRKN5boost10shared_ptrIKT_EEERKNS_14TransportHintsE+0x279>
  40e8a6:	b8 ff ff ff ff       	mov    $0xffffffff,%eax
  40e8ab:	f0 0f c1 43 08       	lock xadd %eax,0x8(%rbx)
  40e8b0:	83 f8 01             	cmp    $0x1,%eax
  40e8b3:	0f 84 a7 00 00 00    	je     40e960 <_ZN3ros10NodeHandle9subscribeIN6SpyKee7Motion_ISaIvEEEEENS_10SubscriberERKSsjPFvRKN5boost10shared_ptrIKT_EEERKNS_14TransportHintsE+0x320>
  40e8b9:	48 8b 44 24 28       	mov    0x28(%rsp),%rax
  40e8be:	48 8d 78 e8          	lea    -0x18(%rax),%rdi
  40e8c2:	48 81 ff 00 77 61 00 	cmp    $0x617700,%rdi
  40e8c9:	0f 85 ee 01 00 00    	jne    40eabd <_ZN3ros10NodeHandle9subscribeIN6SpyKee7Motion_ISaIvEEEEENS_10SubscriberERKSsjPFvRKN5boost10shared_ptrIKT_EEERKNS_14TransportHintsE+0x47d>
  40e8cf:	48 8b 44 24 20       	mov    0x20(%rsp),%rax
  40e8d4:	48 8d 78 e8          	lea    -0x18(%rax),%rdi
  40e8d8:	48 81 ff 00 77 61 00 	cmp    $0x617700,%rdi
  40e8df:	0f 85 aa 01 00 00    	jne    40ea8f <_ZN3ros10NodeHandle9subscribeIN6SpyKee7Motion_ISaIvEEEEENS_10SubscriberERKSsjPFvRKN5boost10shared_ptrIKT_EEERKNS_14TransportHintsE+0x44f>
  40e8e5:	48 8b 44 24 10       	mov    0x10(%rsp),%rax
  40e8ea:	48 8d 78 e8          	lea    -0x18(%rax),%rdi
  40e8ee:	48 81 ff 00 77 61 00 	cmp    $0x617700,%rdi
  40e8f5:	0f 85 62 01 00 00    	jne    40ea5d <_ZN3ros10NodeHandle9subscribeIN6SpyKee7Motion_ISaIvEEEEENS_10SubscriberERKSsjPFvRKN5boost10shared_ptrIKT_EEERKNS_14TransportHintsE+0x41d>
  40e8fb:	48 81 c4 08 01 00 00 	add    $0x108,%rsp
  40e902:	48 89 e8             	mov    %rbp,%rax
  40e905:	5b                   	pop    %rbx
  40e906:	5d                   	pop    %rbp
  40e907:	41 5c                	pop    %r12
  40e909:	41 5d                	pop    %r13
  40e90b:	41 5e                	pop    %r14
  40e90d:	41 5f                	pop    %r15
  40e90f:	c3                   	retq   
  40e910:	48 83 e0 fe          	and    $0xfffffffffffffffe,%rax
  40e914:	48 8b 00             	mov    (%rax),%rax
  40e917:	48 85 c0             	test   %rax,%rax
  40e91a:	0f 84 cf fe ff ff    	je     40e7ef <_ZN3ros10NodeHandle9subscribeIN6SpyKee7Motion_ISaIvEEEEENS_10SubscriberERKSsjPFvRKN5boost10shared_ptrIKT_EEERKNS_14TransportHintsE+0x1af>
  40e920:	49 8d 7c 24 08       	lea    0x8(%r12),%rdi
  40e925:	ba 02 00 00 00       	mov    $0x2,%edx
  40e92a:	48 89 fe             	mov    %rdi,%rsi
  40e92d:	ff d0                	callq  *%rax
  40e92f:	e9 bb fe ff ff       	jmpq   40e7ef <_ZN3ros10NodeHandle9subscribeIN6SpyKee7Motion_ISaIvEEEEENS_10SubscriberERKSsjPFvRKN5boost10shared_ptrIKT_EEERKNS_14TransportHintsE+0x1af>
  40e934:	0f 1f 40 00          	nopl   0x0(%rax)
  40e938:	48 83 e0 fe          	and    $0xfffffffffffffffe,%rax
  40e93c:	48 8b 00             	mov    (%rax),%rax
  40e93f:	48 85 c0             	test   %rax,%rax
  40e942:	0f 84 86 fe ff ff    	je     40e7ce <_ZN3ros10NodeHandle9subscribeIN6SpyKee7Motion_ISaIvEEEEENS_10SubscriberERKSsjPFvRKN5boost10shared_ptrIKT_EEERKNS_14TransportHintsE+0x18e>
  40e948:	49 8d 7d 08          	lea    0x8(%r13),%rdi
  40e94c:	ba 02 00 00 00       	mov    $0x2,%edx
  40e951:	48 89 fe             	mov    %rdi,%rsi
  40e954:	ff d0                	callq  *%rax
  40e956:	e9 73 fe ff ff       	jmpq   40e7ce <_ZN3ros10NodeHandle9subscribeIN6SpyKee7Motion_ISaIvEEEEENS_10SubscriberERKSsjPFvRKN5boost10shared_ptrIKT_EEERKNS_14TransportHintsE+0x18e>
  40e95b:	0f 1f 44 00 00       	nopl   0x0(%rax,%rax,1)
  40e960:	48 8b 03             	mov    (%rbx),%rax
  40e963:	48 89 df             	mov    %rbx,%rdi
  40e966:	ff 50 10             	callq  *0x10(%rax)
  40e969:	b8 ff ff ff ff       	mov    $0xffffffff,%eax
  40e96e:	f0 0f c1 43 0c       	lock xadd %eax,0xc(%rbx)
  40e973:	83 f8 01             	cmp    $0x1,%eax
  40e976:	0f 85 3d ff ff ff    	jne    40e8b9 <_ZN3ros10NodeHandle9subscribeIN6SpyKee7Motion_ISaIvEEEEENS_10SubscriberERKSsjPFvRKN5boost10shared_ptrIKT_EEERKNS_14TransportHintsE+0x279>
  40e97c:	48 8b 03             	mov    (%rbx),%rax
  40e97f:	48 89 df             	mov    %rbx,%rdi
  40e982:	ff 50 18             	callq  *0x18(%rax)
  40e985:	e9 2f ff ff ff       	jmpq   40e8b9 <_ZN3ros10NodeHandle9subscribeIN6SpyKee7Motion_ISaIvEEEEENS_10SubscriberERKSsjPFvRKN5boost10shared_ptrIKT_EEERKNS_14TransportHintsE+0x279>
  40e98a:	66 0f 1f 44 00 00    	nopw   0x0(%rax,%rax,1)
  40e990:	48 8b 03             	mov    (%rbx),%rax
  40e993:	48 89 df             	mov    %rbx,%rdi
  40e996:	ff 50 10             	callq  *0x10(%rax)
  40e999:	b8 ff ff ff ff       	mov    $0xffffffff,%eax
  40e99e:	f0 0f c1 43 0c       	lock xadd %eax,0xc(%rbx)
  40e9a3:	83 f8 01             	cmp    $0x1,%eax
  40e9a6:	0f 85 f0 fe ff ff    	jne    40e89c <_ZN3ros10NodeHandle9subscribeIN6SpyKee7Motion_ISaIvEEEEENS_10SubscriberERKSsjPFvRKN5boost10shared_ptrIKT_EEERKNS_14TransportHintsE+0x25c>
  40e9ac:	48 8b 03             	mov    (%rbx),%rax
  40e9af:	48 89 df             	mov    %rbx,%rdi
  40e9b2:	ff 50 18             	callq  *0x18(%rax)
  40e9b5:	e9 e2 fe ff ff       	jmpq   40e89c <_ZN3ros10NodeHandle9subscribeIN6SpyKee7Motion_ISaIvEEEEENS_10SubscriberERKSsjPFvRKN5boost10shared_ptrIKT_EEERKNS_14TransportHintsE+0x25c>
  40e9ba:	66 0f 1f 44 00 00    	nopw   0x0(%rax,%rax,1)
  40e9c0:	48 c7 84 24 b0 00 00 	movq   $0x0,0xb0(%rsp)
  40e9c7:	00 00 00 00 00 
  40e9cc:	e9 c8 fd ff ff       	jmpq   40e799 <_ZN3ros10NodeHandle9subscribeIN6SpyKee7Motion_ISaIvEEEEENS_10SubscriberERKSsjPFvRKN5boost10shared_ptrIKT_EEERKNS_14TransportHintsE+0x159>
  40e9d1:	ba 80 92 40 00       	mov    $0x409280,%edx
  40e9d6:	48 85 d2             	test   %rdx,%rdx
  40e9d9:	0f 84 1c 01 00 00    	je     40eafb <_ZN3ros10NodeHandle9subscribeIN6SpyKee7Motion_ISaIvEEEEENS_10SubscriberERKSsjPFvRKN5boost10shared_ptrIKT_EEERKNS_14TransportHintsE+0x4bb>
  40e9df:	ba ff ff ff ff       	mov    $0xffffffff,%edx
  40e9e4:	f0 0f c1 50 f8       	lock xadd %edx,-0x8(%rax)
  40e9e9:	85 d2                	test   %edx,%edx
  40e9eb:	0f 8f 73 fe ff ff    	jg     40e864 <_ZN3ros10NodeHandle9subscribeIN6SpyKee7Motion_ISaIvEEEEENS_10SubscriberERKSsjPFvRKN5boost10shared_ptrIKT_EEERKNS_14TransportHintsE+0x224>
  40e9f1:	48 8d b4 24 fc 00 00 	lea    0xfc(%rsp),%rsi
  40e9f8:	00 
  40e9f9:	e8 92 aa ff ff       	callq  409490 <_ZNSs4_Rep10_M_destroyERKSaIcE@plt>
  40e9fe:	e9 61 fe ff ff       	jmpq   40e864 <_ZN3ros10NodeHandle9subscribeIN6SpyKee7Motion_ISaIvEEEEENS_10SubscriberERKSsjPFvRKN5boost10shared_ptrIKT_EEERKNS_14TransportHintsE+0x224>
  40ea03:	48 8d 7c 24 38       	lea    0x38(%rsp),%rdi
  40ea08:	48 89 c3             	mov    %rax,%rbx
  40ea0b:	e8 e0 c4 ff ff       	callq  40aef0 <_ZN5boost6detail12shared_countD1Ev>
  40ea10:	48 8d 7c 24 28       	lea    0x28(%rsp),%rdi
  40ea15:	e8 76 ac ff ff       	callq  409690 <_ZNSsD1Ev@plt>
  40ea1a:	48 8d 7c 24 20       	lea    0x20(%rsp),%rdi
  40ea1f:	e8 6c ac ff ff       	callq  409690 <_ZNSsD1Ev@plt>
  40ea24:	48 8d 7c 24 10       	lea    0x10(%rsp),%rdi
  40ea29:	e8 62 ac ff ff       	callq  409690 <_ZNSsD1Ev@plt>
  40ea2e:	48 89 df             	mov    %rbx,%rdi
  40ea31:	e8 ea ac ff ff       	callq  409720 <_Unwind_Resume@plt>
  40ea36:	48 89 c3             	mov    %rax,%rbx
  40ea39:	eb d5                	jmp    40ea10 <_ZN3ros10NodeHandle9subscribeIN6SpyKee7Motion_ISaIvEEEEENS_10SubscriberERKSsjPFvRKN5boost10shared_ptrIKT_EEERKNS_14TransportHintsE+0x3d0>
  40ea3b:	48 89 c3             	mov    %rax,%rbx
  40ea3e:	48 8d 7c 24 10       	lea    0x10(%rsp),%rdi
  40ea43:	e8 58 ea ff ff       	callq  40d4a0 <_ZN3ros16SubscribeOptionsD1Ev>
  40ea48:	48 89 df             	mov    %rbx,%rdi
  40ea4b:	e8 d0 ac ff ff       	callq  409720 <_Unwind_Resume@plt>
  40ea50:	48 89 c3             	mov    %rax,%rbx
  40ea53:	4c 89 e7             	mov    %r12,%rdi
  40ea56:	e8 85 ec ff ff       	callq  40d6e0 <_ZN5boost9function0INS_10shared_ptrIN6SpyKee7Motion_ISaIvEEEEEED1Ev>
  40ea5b:	eb e1                	jmp    40ea3e <_ZN3ros10NodeHandle9subscribeIN6SpyKee7Motion_ISaIvEEEEENS_10SubscriberERKSsjPFvRKN5boost10shared_ptrIKT_EEERKNS_14TransportHintsE+0x3fe>
  40ea5d:	ba 80 92 40 00       	mov    $0x409280,%edx
  40ea62:	48 85 d2             	test   %rdx,%rdx
  40ea65:	0f 84 a9 00 00 00    	je     40eb14 <_ZN3ros10NodeHandle9subscribeIN6SpyKee7Motion_ISaIvEEEEENS_10SubscriberERKSsjPFvRKN5boost10shared_ptrIKT_EEERKNS_14TransportHintsE+0x4d4>
  40ea6b:	ba ff ff ff ff       	mov    $0xffffffff,%edx
  40ea70:	f0 0f c1 50 f8       	lock xadd %edx,-0x8(%rax)
  40ea75:	85 d2                	test   %edx,%edx
  40ea77:	0f 8f 7e fe ff ff    	jg     40e8fb <_ZN3ros10NodeHandle9subscribeIN6SpyKee7Motion_ISaIvEEEEENS_10SubscriberERKSsjPFvRKN5boost10shared_ptrIKT_EEERKNS_14TransportHintsE+0x2bb>
  40ea7d:	48 8d b4 24 ff 00 00 	lea    0xff(%rsp),%rsi
  40ea84:	00 
  40ea85:	e8 06 aa ff ff       	callq  409490 <_ZNSs4_Rep10_M_destroyERKSaIcE@plt>
  40ea8a:	e9 6c fe ff ff       	jmpq   40e8fb <_ZN3ros10NodeHandle9subscribeIN6SpyKee7Motion_ISaIvEEEEENS_10SubscriberERKSsjPFvRKN5boost10shared_ptrIKT_EEERKNS_14TransportHintsE+0x2bb>
  40ea8f:	ba 80 92 40 00       	mov    $0x409280,%edx
  40ea94:	48 85 d2             	test   %rdx,%rdx
  40ea97:	74 70                	je     40eb09 <_ZN3ros10NodeHandle9subscribeIN6SpyKee7Motion_ISaIvEEEEENS_10SubscriberERKSsjPFvRKN5boost10shared_ptrIKT_EEERKNS_14TransportHintsE+0x4c9>
  40ea99:	ba ff ff ff ff       	mov    $0xffffffff,%edx
  40ea9e:	f0 0f c1 50 f8       	lock xadd %edx,-0x8(%rax)
  40eaa3:	85 d2                	test   %edx,%edx
  40eaa5:	0f 8f 3a fe ff ff    	jg     40e8e5 <_ZN3ros10NodeHandle9subscribeIN6SpyKee7Motion_ISaIvEEEEENS_10SubscriberERKSsjPFvRKN5boost10shared_ptrIKT_EEERKNS_14TransportHintsE+0x2a5>
  40eaab:	48 8d b4 24 fe 00 00 	lea    0xfe(%rsp),%rsi
  40eab2:	00 
  40eab3:	e8 d8 a9 ff ff       	callq  409490 <_ZNSs4_Rep10_M_destroyERKSaIcE@plt>
  40eab8:	e9 28 fe ff ff       	jmpq   40e8e5 <_ZN3ros10NodeHandle9subscribeIN6SpyKee7Motion_ISaIvEEEEENS_10SubscriberERKSsjPFvRKN5boost10shared_ptrIKT_EEERKNS_14TransportHintsE+0x2a5>
  40eabd:	ba 80 92 40 00       	mov    $0x409280,%edx
  40eac2:	48 85 d2             	test   %rdx,%rdx
  40eac5:	74 5b                	je     40eb22 <_ZN3ros10NodeHandle9subscribeIN6SpyKee7Motion_ISaIvEEEEENS_10SubscriberERKSsjPFvRKN5boost10shared_ptrIKT_EEERKNS_14TransportHintsE+0x4e2>
  40eac7:	ba ff ff ff ff       	mov    $0xffffffff,%edx
  40eacc:	f0 0f c1 50 f8       	lock xadd %edx,-0x8(%rax)
  40ead1:	85 d2                	test   %edx,%edx
  40ead3:	0f 8f f6 fd ff ff    	jg     40e8cf <_ZN3ros10NodeHandle9subscribeIN6SpyKee7Motion_ISaIvEEEEENS_10SubscriberERKSsjPFvRKN5boost10shared_ptrIKT_EEERKNS_14TransportHintsE+0x28f>
  40ead9:	48 8d b4 24 fd 00 00 	lea    0xfd(%rsp),%rsi
  40eae0:	00 
  40eae1:	e8 aa a9 ff ff       	callq  409490 <_ZNSs4_Rep10_M_destroyERKSaIcE@plt>
  40eae6:	e9 e4 fd ff ff       	jmpq   40e8cf <_ZN3ros10NodeHandle9subscribeIN6SpyKee7Motion_ISaIvEEEEENS_10SubscriberERKSsjPFvRKN5boost10shared_ptrIKT_EEERKNS_14TransportHintsE+0x28f>
  40eaeb:	4c 89 ef             	mov    %r13,%rdi
  40eaee:	48 89 c3             	mov    %rax,%rbx
  40eaf1:	e8 fa c7 ff ff       	callq  40b2f0 <_ZN5boost8functionIFvRKNS_10shared_ptrIKN6SpyKee7Motion_ISaIvEEEEEEED1Ev>
  40eaf6:	e9 58 ff ff ff       	jmpq   40ea53 <_ZN3ros10NodeHandle9subscribeIN6SpyKee7Motion_ISaIvEEEEENS_10SubscriberERKSsjPFvRKN5boost10shared_ptrIKT_EEERKNS_14TransportHintsE+0x413>
  40eafb:	8b 50 f8             	mov    -0x8(%rax),%edx
  40eafe:	8d 4a ff             	lea    -0x1(%rdx),%ecx
  40eb01:	89 48 f8             	mov    %ecx,-0x8(%rax)
  40eb04:	e9 e0 fe ff ff       	jmpq   40e9e9 <_ZN3ros10NodeHandle9subscribeIN6SpyKee7Motion_ISaIvEEEEENS_10SubscriberERKSsjPFvRKN5boost10shared_ptrIKT_EEERKNS_14TransportHintsE+0x3a9>
  40eb09:	8b 50 f8             	mov    -0x8(%rax),%edx
  40eb0c:	8d 4a ff             	lea    -0x1(%rdx),%ecx
  40eb0f:	89 48 f8             	mov    %ecx,-0x8(%rax)
  40eb12:	eb 8f                	jmp    40eaa3 <_ZN3ros10NodeHandle9subscribeIN6SpyKee7Motion_ISaIvEEEEENS_10SubscriberERKSsjPFvRKN5boost10shared_ptrIKT_EEERKNS_14TransportHintsE+0x463>
  40eb14:	8b 50 f8             	mov    -0x8(%rax),%edx
  40eb17:	8d 4a ff             	lea    -0x1(%rdx),%ecx
  40eb1a:	89 48 f8             	mov    %ecx,-0x8(%rax)
  40eb1d:	e9 53 ff ff ff       	jmpq   40ea75 <_ZN3ros10NodeHandle9subscribeIN6SpyKee7Motion_ISaIvEEEEENS_10SubscriberERKSsjPFvRKN5boost10shared_ptrIKT_EEERKNS_14TransportHintsE+0x435>
  40eb22:	8b 50 f8             	mov    -0x8(%rax),%edx
  40eb25:	8d 4a ff             	lea    -0x1(%rdx),%ecx
  40eb28:	89 48 f8             	mov    %ecx,-0x8(%rax)
  40eb2b:	eb a4                	jmp    40ead1 <_ZN3ros10NodeHandle9subscribeIN6SpyKee7Motion_ISaIvEEEEENS_10SubscriberERKSsjPFvRKN5boost10shared_ptrIKT_EEERKNS_14TransportHintsE+0x491>
  40eb2d:	90                   	nop
  40eb2e:	90                   	nop
  40eb2f:	90                   	nop

000000000040eb30 <_ZN5boost6detail13sp_ms_deleterIN6SpyKee7Motion_ISaIvEEEED1Ev>:
  40eb30:	48 89 5c 24 e8       	mov    %rbx,-0x18(%rsp)
  40eb35:	48 89 6c 24 f0       	mov    %rbp,-0x10(%rsp)
  40eb3a:	48 89 fb             	mov    %rdi,%rbx
  40eb3d:	4c 89 64 24 f8       	mov    %r12,-0x8(%rsp)
  40eb42:	48 83 ec 18          	sub    $0x18,%rsp
  40eb46:	80 3f 00             	cmpb   $0x0,(%rdi)
  40eb49:	75 15                	jne    40eb60 <_ZN5boost6detail13sp_ms_deleterIN6SpyKee7Motion_ISaIvEEEED1Ev+0x30>
  40eb4b:	48 8b 1c 24          	mov    (%rsp),%rbx
  40eb4f:	48 8b 6c 24 08       	mov    0x8(%rsp),%rbp
  40eb54:	4c 8b 64 24 10       	mov    0x10(%rsp),%r12
  40eb59:	48 83 c4 18          	add    $0x18,%rsp
  40eb5d:	c3                   	retq   
  40eb5e:	66 90                	xchg   %ax,%ax
  40eb60:	48 8b 6f 20          	mov    0x20(%rdi),%rbp
  40eb64:	48 c7 47 08 70 32 41 	movq   $0x413270,0x8(%rdi)
  40eb6b:	00 
  40eb6c:	48 85 ed             	test   %rbp,%rbp
  40eb6f:	74 13                	je     40eb84 <_ZN5boost6detail13sp_ms_deleterIN6SpyKee7Motion_ISaIvEEEED1Ev+0x54>
  40eb71:	41 bc ff ff ff ff    	mov    $0xffffffff,%r12d
  40eb77:	44 89 e0             	mov    %r12d,%eax
  40eb7a:	f0 0f c1 45 08       	lock xadd %eax,0x8(%rbp)
  40eb7f:	83 f8 01             	cmp    $0x1,%eax
  40eb82:	74 0c                	je     40eb90 <_ZN5boost6detail13sp_ms_deleterIN6SpyKee7Motion_ISaIvEEEED1Ev+0x60>
  40eb84:	c6 03 00             	movb   $0x0,(%rbx)
  40eb87:	eb c2                	jmp    40eb4b <_ZN5boost6detail13sp_ms_deleterIN6SpyKee7Motion_ISaIvEEEED1Ev+0x1b>
  40eb89:	0f 1f 80 00 00 00 00 	nopl   0x0(%rax)
  40eb90:	48 8b 45 00          	mov    0x0(%rbp),%rax
  40eb94:	48 89 ef             	mov    %rbp,%rdi
  40eb97:	ff 50 10             	callq  *0x10(%rax)
  40eb9a:	f0 44 0f c1 65 0c    	lock xadd %r12d,0xc(%rbp)
  40eba0:	41 83 fc 01          	cmp    $0x1,%r12d
  40eba4:	75 de                	jne    40eb84 <_ZN5boost6detail13sp_ms_deleterIN6SpyKee7Motion_ISaIvEEEED1Ev+0x54>
  40eba6:	48 8b 45 00          	mov    0x0(%rbp),%rax
  40ebaa:	48 89 ef             	mov    %rbp,%rdi
  40ebad:	ff 50 18             	callq  *0x18(%rax)
  40ebb0:	eb d2                	jmp    40eb84 <_ZN5boost6detail13sp_ms_deleterIN6SpyKee7Motion_ISaIvEEEED1Ev+0x54>
  40ebb2:	90                   	nop
  40ebb3:	90                   	nop
  40ebb4:	90                   	nop
  40ebb5:	90                   	nop
  40ebb6:	90                   	nop
  40ebb7:	90                   	nop
  40ebb8:	90                   	nop
  40ebb9:	90                   	nop
  40ebba:	90                   	nop
  40ebbb:	90                   	nop
  40ebbc:	90                   	nop
  40ebbd:	90                   	nop
  40ebbe:	90                   	nop
  40ebbf:	90                   	nop

000000000040ebc0 <_ZN5boost11make_sharedIN6SpyKee7Motion_ISaIvEEEEENS_10shared_ptrIT_EEv>:
  40ebc0:	41 54                	push   %r12
  40ebc2:	55                   	push   %rbp
  40ebc3:	53                   	push   %rbx
  40ebc4:	48 89 fb             	mov    %rdi,%rbx
  40ebc7:	bf 40 00 00 00       	mov    $0x40,%edi
  40ebcc:	48 81 ec a0 00 00 00 	sub    $0xa0,%rsp
  40ebd3:	c6 04 24 00          	movb   $0x0,(%rsp)
  40ebd7:	48 c7 84 24 90 00 00 	movq   $0x0,0x90(%rsp)
  40ebde:	00 00 00 00 00 
  40ebe3:	c6 44 24 60 00       	movb   $0x0,0x60(%rsp)
  40ebe8:	48 c7 84 24 98 00 00 	movq   $0x0,0x98(%rsp)
  40ebef:	00 00 00 00 00 
  40ebf4:	c6 44 24 30 00       	movb   $0x0,0x30(%rsp)
  40ebf9:	e8 22 a9 ff ff       	callq  409520 <_Znwm@plt>
  40ebfe:	48 c7 00 30 33 41 00 	movq   $0x413330,(%rax)
  40ec05:	80 7c 24 30 00       	cmpb   $0x0,0x30(%rsp)
  40ec0a:	c7 40 08 01 00 00 00 	movl   $0x1,0x8(%rax)
  40ec11:	c7 40 0c 01 00 00 00 	movl   $0x1,0xc(%rax)
  40ec18:	48 c7 40 10 00 00 00 	movq   $0x0,0x10(%rax)
  40ec1f:	00 
  40ec20:	c6 40 18 00          	movb   $0x0,0x18(%rax)
  40ec24:	48 89 84 24 98 00 00 	mov    %rax,0x98(%rsp)
  40ec2b:	00 
  40ec2c:	0f 85 ae 00 00 00    	jne    40ece0 <_ZN5boost11make_sharedIN6SpyKee7Motion_ISaIvEEEEENS_10shared_ptrIT_EEv+0x120>
  40ec32:	80 7c 24 60 00       	cmpb   $0x0,0x60(%rsp)
  40ec37:	0f 85 d9 00 00 00    	jne    40ed16 <_ZN5boost11make_sharedIN6SpyKee7Motion_ISaIvEEEEENS_10shared_ptrIT_EEv+0x156>
  40ec3d:	80 3c 24 00          	cmpb   $0x0,(%rsp)
  40ec41:	0f 85 07 01 00 00    	jne    40ed4e <_ZN5boost11make_sharedIN6SpyKee7Motion_ISaIvEEEEENS_10shared_ptrIT_EEv+0x18e>
  40ec47:	48 8b bc 24 98 00 00 	mov    0x98(%rsp),%rdi
  40ec4e:	00 
  40ec4f:	48 85 ff             	test   %rdi,%rdi
  40ec52:	0f 84 31 01 00 00    	je     40ed89 <_ZN5boost11make_sharedIN6SpyKee7Motion_ISaIvEEEEENS_10shared_ptrIT_EEv+0x1c9>
  40ec58:	48 8b 07             	mov    (%rdi),%rax
  40ec5b:	be 50 32 41 00       	mov    $0x413250,%esi
  40ec60:	ff 50 20             	callq  *0x20(%rax)
  40ec63:	48 89 c2             	mov    %rax,%rdx
  40ec66:	48 83 c2 08          	add    $0x8,%rdx
  40ec6a:	74 20                	je     40ec8c <_ZN5boost11make_sharedIN6SpyKee7Motion_ISaIvEEEEENS_10shared_ptrIT_EEv+0xcc>
  40ec6c:	48 c7 40 08 70 32 41 	movq   $0x413270,0x8(%rax)
  40ec73:	00 
  40ec74:	c6 40 10 00          	movb   $0x0,0x10(%rax)
  40ec78:	c6 40 11 00          	movb   $0x0,0x11(%rax)
  40ec7c:	48 c7 40 18 00 00 00 	movq   $0x0,0x18(%rax)
  40ec83:	00 
  40ec84:	48 c7 40 20 00 00 00 	movq   $0x0,0x20(%rax)
  40ec8b:	00 
  40ec8c:	c6 00 01             	movb   $0x1,(%rax)
  40ec8f:	48 8b 84 24 98 00 00 	mov    0x98(%rsp),%rax
  40ec96:	00 
  40ec97:	48 89 13             	mov    %rdx,(%rbx)
  40ec9a:	48 85 c0             	test   %rax,%rax
  40ec9d:	48 89 43 08          	mov    %rax,0x8(%rbx)
  40eca1:	74 28                	je     40eccb <_ZN5boost11make_sharedIN6SpyKee7Motion_ISaIvEEEEENS_10shared_ptrIT_EEv+0x10b>
  40eca3:	f0 ff 40 08          	lock incl 0x8(%rax)
  40eca7:	48 8b ac 24 98 00 00 	mov    0x98(%rsp),%rbp
  40ecae:	00 
  40ecaf:	48 85 ed             	test   %rbp,%rbp
  40ecb2:	74 17                	je     40eccb <_ZN5boost11make_sharedIN6SpyKee7Motion_ISaIvEEEEENS_10shared_ptrIT_EEv+0x10b>
  40ecb4:	41 bc ff ff ff ff    	mov    $0xffffffff,%r12d
  40ecba:	44 89 e0             	mov    %r12d,%eax
  40ecbd:	f0 0f c1 45 08       	lock xadd %eax,0x8(%rbp)
  40ecc2:	83 f8 01             	cmp    $0x1,%eax
  40ecc5:	0f 84 c5 00 00 00    	je     40ed90 <_ZN5boost11make_sharedIN6SpyKee7Motion_ISaIvEEEEENS_10shared_ptrIT_EEv+0x1d0>
  40eccb:	48 81 c4 a0 00 00 00 	add    $0xa0,%rsp
  40ecd2:	48 89 d8             	mov    %rbx,%rax
  40ecd5:	5b                   	pop    %rbx
  40ecd6:	5d                   	pop    %rbp
  40ecd7:	41 5c                	pop    %r12
  40ecd9:	c3                   	retq   
  40ecda:	66 0f 1f 44 00 00    	nopw   0x0(%rax,%rax,1)
  40ece0:	48 8b 6c 24 50       	mov    0x50(%rsp),%rbp
  40ece5:	48 c7 44 24 38 70 32 	movq   $0x413270,0x38(%rsp)
  40ecec:	41 00 
  40ecee:	48 85 ed             	test   %rbp,%rbp
  40ecf1:	74 13                	je     40ed06 <_ZN5boost11make_sharedIN6SpyKee7Motion_ISaIvEEEEENS_10shared_ptrIT_EEv+0x146>
  40ecf3:	b8 ff ff ff ff       	mov    $0xffffffff,%eax
  40ecf8:	f0 0f c1 45 08       	lock xadd %eax,0x8(%rbp)
  40ecfd:	83 f8 01             	cmp    $0x1,%eax
  40ed00:	0f 84 1a 01 00 00    	je     40ee20 <_ZN5boost11make_sharedIN6SpyKee7Motion_ISaIvEEEEENS_10shared_ptrIT_EEv+0x260>
  40ed06:	80 7c 24 60 00       	cmpb   $0x0,0x60(%rsp)
  40ed0b:	c6 44 24 30 00       	movb   $0x0,0x30(%rsp)
  40ed10:	0f 84 27 ff ff ff    	je     40ec3d <_ZN5boost11make_sharedIN6SpyKee7Motion_ISaIvEEEEENS_10shared_ptrIT_EEv+0x7d>
  40ed16:	48 8b ac 24 80 00 00 	mov    0x80(%rsp),%rbp
  40ed1d:	00 
  40ed1e:	48 c7 44 24 68 70 32 	movq   $0x413270,0x68(%rsp)
  40ed25:	41 00 
  40ed27:	48 85 ed             	test   %rbp,%rbp
  40ed2a:	74 13                	je     40ed3f <_ZN5boost11make_sharedIN6SpyKee7Motion_ISaIvEEEEENS_10shared_ptrIT_EEv+0x17f>
  40ed2c:	b8 ff ff ff ff       	mov    $0xffffffff,%eax
  40ed31:	f0 0f c1 45 08       	lock xadd %eax,0x8(%rbp)
  40ed36:	83 f8 01             	cmp    $0x1,%eax
  40ed39:	0f 84 81 00 00 00    	je     40edc0 <_ZN5boost11make_sharedIN6SpyKee7Motion_ISaIvEEEEENS_10shared_ptrIT_EEv+0x200>
  40ed3f:	80 3c 24 00          	cmpb   $0x0,(%rsp)
  40ed43:	c6 44 24 60 00       	movb   $0x0,0x60(%rsp)
  40ed48:	0f 84 f9 fe ff ff    	je     40ec47 <_ZN5boost11make_sharedIN6SpyKee7Motion_ISaIvEEEEENS_10shared_ptrIT_EEv+0x87>
  40ed4e:	48 8b 6c 24 20       	mov    0x20(%rsp),%rbp
  40ed53:	48 c7 44 24 08 70 32 	movq   $0x413270,0x8(%rsp)
  40ed5a:	41 00 
  40ed5c:	48 85 ed             	test   %rbp,%rbp
  40ed5f:	74 13                	je     40ed74 <_ZN5boost11make_sharedIN6SpyKee7Motion_ISaIvEEEEENS_10shared_ptrIT_EEv+0x1b4>
  40ed61:	b8 ff ff ff ff       	mov    $0xffffffff,%eax
  40ed66:	f0 0f c1 45 08       	lock xadd %eax,0x8(%rbp)
  40ed6b:	83 f8 01             	cmp    $0x1,%eax
  40ed6e:	0f 84 7c 00 00 00    	je     40edf0 <_ZN5boost11make_sharedIN6SpyKee7Motion_ISaIvEEEEENS_10shared_ptrIT_EEv+0x230>
  40ed74:	48 8b bc 24 98 00 00 	mov    0x98(%rsp),%rdi
  40ed7b:	00 
  40ed7c:	c6 04 24 00          	movb   $0x0,(%rsp)
  40ed80:	48 85 ff             	test   %rdi,%rdi
  40ed83:	0f 85 cf fe ff ff    	jne    40ec58 <_ZN5boost11make_sharedIN6SpyKee7Motion_ISaIvEEEEENS_10shared_ptrIT_EEv+0x98>
  40ed89:	31 c0                	xor    %eax,%eax
  40ed8b:	e9 d3 fe ff ff       	jmpq   40ec63 <_ZN5boost11make_sharedIN6SpyKee7Motion_ISaIvEEEEENS_10shared_ptrIT_EEv+0xa3>
  40ed90:	48 8b 45 00          	mov    0x0(%rbp),%rax
  40ed94:	48 89 ef             	mov    %rbp,%rdi
  40ed97:	ff 50 10             	callq  *0x10(%rax)
  40ed9a:	f0 44 0f c1 65 0c    	lock xadd %r12d,0xc(%rbp)
  40eda0:	41 83 fc 01          	cmp    $0x1,%r12d
  40eda4:	0f 85 21 ff ff ff    	jne    40eccb <_ZN5boost11make_sharedIN6SpyKee7Motion_ISaIvEEEEENS_10shared_ptrIT_EEv+0x10b>
  40edaa:	48 8b 45 00          	mov    0x0(%rbp),%rax
  40edae:	48 89 ef             	mov    %rbp,%rdi
  40edb1:	ff 50 18             	callq  *0x18(%rax)
  40edb4:	e9 12 ff ff ff       	jmpq   40eccb <_ZN5boost11make_sharedIN6SpyKee7Motion_ISaIvEEEEENS_10shared_ptrIT_EEv+0x10b>
  40edb9:	0f 1f 80 00 00 00 00 	nopl   0x0(%rax)
  40edc0:	48 8b 45 00          	mov    0x0(%rbp),%rax
  40edc4:	48 89 ef             	mov    %rbp,%rdi
  40edc7:	ff 50 10             	callq  *0x10(%rax)
  40edca:	b8 ff ff ff ff       	mov    $0xffffffff,%eax
  40edcf:	f0 0f c1 45 0c       	lock xadd %eax,0xc(%rbp)
  40edd4:	83 f8 01             	cmp    $0x1,%eax
  40edd7:	0f 85 62 ff ff ff    	jne    40ed3f <_ZN5boost11make_sharedIN6SpyKee7Motion_ISaIvEEEEENS_10shared_ptrIT_EEv+0x17f>
  40eddd:	48 8b 45 00          	mov    0x0(%rbp),%rax
  40ede1:	48 89 ef             	mov    %rbp,%rdi
  40ede4:	ff 50 18             	callq  *0x18(%rax)
  40ede7:	e9 53 ff ff ff       	jmpq   40ed3f <_ZN5boost11make_sharedIN6SpyKee7Motion_ISaIvEEEEENS_10shared_ptrIT_EEv+0x17f>
  40edec:	0f 1f 40 00          	nopl   0x0(%rax)
  40edf0:	48 8b 45 00          	mov    0x0(%rbp),%rax
  40edf4:	48 89 ef             	mov    %rbp,%rdi
  40edf7:	ff 50 10             	callq  *0x10(%rax)
  40edfa:	b8 ff ff ff ff       	mov    $0xffffffff,%eax
  40edff:	f0 0f c1 45 0c       	lock xadd %eax,0xc(%rbp)
  40ee04:	83 f8 01             	cmp    $0x1,%eax
  40ee07:	0f 85 67 ff ff ff    	jne    40ed74 <_ZN5boost11make_sharedIN6SpyKee7Motion_ISaIvEEEEENS_10shared_ptrIT_EEv+0x1b4>
  40ee0d:	48 8b 45 00          	mov    0x0(%rbp),%rax
  40ee11:	48 89 ef             	mov    %rbp,%rdi
  40ee14:	ff 50 18             	callq  *0x18(%rax)
  40ee17:	e9 58 ff ff ff       	jmpq   40ed74 <_ZN5boost11make_sharedIN6SpyKee7Motion_ISaIvEEEEENS_10shared_ptrIT_EEv+0x1b4>
  40ee1c:	0f 1f 40 00          	nopl   0x0(%rax)
  40ee20:	48 8b 45 00          	mov    0x0(%rbp),%rax
  40ee24:	48 89 ef             	mov    %rbp,%rdi
  40ee27:	ff 50 10             	callq  *0x10(%rax)
  40ee2a:	b8 ff ff ff ff       	mov    $0xffffffff,%eax
  40ee2f:	f0 0f c1 45 0c       	lock xadd %eax,0xc(%rbp)
  40ee34:	83 f8 01             	cmp    $0x1,%eax
  40ee37:	0f 85 c9 fe ff ff    	jne    40ed06 <_ZN5boost11make_sharedIN6SpyKee7Motion_ISaIvEEEEENS_10shared_ptrIT_EEv+0x146>
  40ee3d:	48 8b 45 00          	mov    0x0(%rbp),%rax
  40ee41:	48 89 ef             	mov    %rbp,%rdi
  40ee44:	ff 50 18             	callq  *0x18(%rax)
  40ee47:	e9 ba fe ff ff       	jmpq   40ed06 <_ZN5boost11make_sharedIN6SpyKee7Motion_ISaIvEEEEENS_10shared_ptrIT_EEv+0x146>
  40ee4c:	48 89 c7             	mov    %rax,%rdi
  40ee4f:	e8 1c a5 ff ff       	callq  409370 <__cxa_begin_catch@plt>
  40ee54:	80 7c 24 60 00       	cmpb   $0x0,0x60(%rsp)
  40ee59:	74 1b                	je     40ee76 <_ZN5boost11make_sharedIN6SpyKee7Motion_ISaIvEEEEENS_10shared_ptrIT_EEv+0x2b6>
  40ee5b:	48 8d bc 24 80 00 00 	lea    0x80(%rsp),%rdi
  40ee62:	00 
  40ee63:	48 c7 44 24 68 70 32 	movq   $0x413270,0x68(%rsp)
  40ee6a:	41 00 
  40ee6c:	e8 7f c0 ff ff       	callq  40aef0 <_ZN5boost6detail12shared_countD1Ev>
  40ee71:	c6 44 24 60 00       	movb   $0x0,0x60(%rsp)
  40ee76:	e8 c5 a7 ff ff       	callq  409640 <__cxa_rethrow@plt>
  40ee7b:	48 8d bc 24 98 00 00 	lea    0x98(%rsp),%rdi
  40ee82:	00 
  40ee83:	48 89 c3             	mov    %rax,%rbx
  40ee86:	e8 65 c0 ff ff       	callq  40aef0 <_ZN5boost6detail12shared_countD1Ev>
  40ee8b:	48 89 df             	mov    %rbx,%rdi
  40ee8e:	e8 8d a8 ff ff       	callq  409720 <_Unwind_Resume@plt>
  40ee93:	48 8d 7c 24 30       	lea    0x30(%rsp),%rdi
  40ee98:	48 89 c3             	mov    %rax,%rbx
  40ee9b:	e8 90 fc ff ff       	callq  40eb30 <_ZN5boost6detail13sp_ms_deleterIN6SpyKee7Motion_ISaIvEEEED1Ev>
  40eea0:	48 89 d8             	mov    %rbx,%rax
  40eea3:	eb a7                	jmp    40ee4c <_ZN5boost11make_sharedIN6SpyKee7Motion_ISaIvEEEEENS_10shared_ptrIT_EEv+0x28c>
  40eea5:	48 89 c3             	mov    %rax,%rbx
  40eea8:	48 89 e7             	mov    %rsp,%rdi
  40eeab:	e8 80 fc ff ff       	callq  40eb30 <_ZN5boost6detail13sp_ms_deleterIN6SpyKee7Motion_ISaIvEEEED1Ev>
  40eeb0:	48 89 df             	mov    %rbx,%rdi
  40eeb3:	e8 68 a8 ff ff       	callq  409720 <_Unwind_Resume@plt>
  40eeb8:	48 89 c3             	mov    %rax,%rbx
  40eebb:	e8 00 a8 ff ff       	callq  4096c0 <__cxa_end_catch@plt>
  40eec0:	48 8d 7c 24 60       	lea    0x60(%rsp),%rdi
  40eec5:	e8 66 fc ff ff       	callq  40eb30 <_ZN5boost6detail13sp_ms_deleterIN6SpyKee7Motion_ISaIvEEEED1Ev>
  40eeca:	eb dc                	jmp    40eea8 <_ZN5boost11make_sharedIN6SpyKee7Motion_ISaIvEEEEENS_10shared_ptrIT_EEv+0x2e8>
  40eecc:	90                   	nop
  40eecd:	90                   	nop
  40eece:	90                   	nop
  40eecf:	90                   	nop

000000000040eed0 <_ZN5boost6detail8function21function_obj_invoker0IN3ros21DefaultMessageCreatorIN6SpyKee7Motion_ISaIvEEEEENS_10shared_ptrIS8_EEE6invokeERNS1_15function_bufferE>:
  40eed0:	53                   	push   %rbx
  40eed1:	48 89 fb             	mov    %rdi,%rbx
  40eed4:	e8 e7 fc ff ff       	callq  40ebc0 <_ZN5boost11make_sharedIN6SpyKee7Motion_ISaIvEEEEENS_10shared_ptrIT_EEv>
  40eed9:	48 89 d8             	mov    %rbx,%rax
  40eedc:	5b                   	pop    %rbx
  40eedd:	c3                   	retq   
  40eede:	90                   	nop
  40eedf:	90                   	nop

000000000040eee0 <_ZN5boost16exception_detail19error_info_injectorINS_17bad_function_callEEC1ERKS3_>:
  40eee0:	55                   	push   %rbp
  40eee1:	48 89 f5             	mov    %rsi,%rbp
  40eee4:	48 8d 76 08          	lea    0x8(%rsi),%rsi
  40eee8:	53                   	push   %rbx
  40eee9:	48 89 fb             	mov    %rdi,%rbx
  40eeec:	48 83 ec 08          	sub    $0x8,%rsp
  40eef0:	48 c7 07 90 78 61 00 	movq   $0x617890,(%rdi)
  40eef7:	48 8d 7f 08          	lea    0x8(%rdi),%rdi
  40eefb:	e8 10 a5 ff ff       	callq  409410 <_ZNSsC1ERKSs@plt>
  40ef00:	48 c7 03 f0 34 41 00 	movq   $0x4134f0,(%rbx)
  40ef07:	48 c7 43 10 30 35 41 	movq   $0x413530,0x10(%rbx)
  40ef0e:	00 
  40ef0f:	48 8b 7d 18          	mov    0x18(%rbp),%rdi
  40ef13:	48 85 ff             	test   %rdi,%rdi
  40ef16:	48 89 7b 18          	mov    %rdi,0x18(%rbx)
  40ef1a:	74 06                	je     40ef22 <_ZN5boost16exception_detail19error_info_injectorINS_17bad_function_callEEC1ERKS3_+0x42>
  40ef1c:	48 8b 07             	mov    (%rdi),%rax
  40ef1f:	ff 50 18             	callq  *0x18(%rax)
  40ef22:	48 8b 45 20          	mov    0x20(%rbp),%rax
  40ef26:	48 89 43 20          	mov    %rax,0x20(%rbx)
  40ef2a:	48 8b 45 28          	mov    0x28(%rbp),%rax
  40ef2e:	48 89 43 28          	mov    %rax,0x28(%rbx)
  40ef32:	8b 45 30             	mov    0x30(%rbp),%eax
  40ef35:	48 c7 03 50 35 41 00 	movq   $0x413550,(%rbx)
  40ef3c:	48 c7 43 10 78 35 41 	movq   $0x413578,0x10(%rbx)
  40ef43:	00 
  40ef44:	89 43 30             	mov    %eax,0x30(%rbx)
  40ef47:	48 83 c4 08          	add    $0x8,%rsp
  40ef4b:	5b                   	pop    %rbx
  40ef4c:	5d                   	pop    %rbp
  40ef4d:	c3                   	retq   
  40ef4e:	48 89 c5             	mov    %rax,%rbp
  40ef51:	48 89 df             	mov    %rbx,%rdi
  40ef54:	e8 f7 a7 ff ff       	callq  409750 <_ZNSt9exceptionD2Ev@plt>
  40ef59:	48 89 ef             	mov    %rbp,%rdi
  40ef5c:	e8 bf a7 ff ff       	callq  409720 <_Unwind_Resume@plt>
  40ef61:	48 89 c5             	mov    %rax,%rbp
  40ef64:	48 89 df             	mov    %rbx,%rdi
  40ef67:	e8 74 b2 ff ff       	callq  40a1e0 <_ZN5boost17bad_function_callD1Ev>
  40ef6c:	48 89 ef             	mov    %rbp,%rdi
  40ef6f:	e8 ac a7 ff ff       	callq  409720 <_Unwind_Resume@plt>
  40ef74:	90                   	nop
  40ef75:	90                   	nop
  40ef76:	90                   	nop
  40ef77:	90                   	nop
  40ef78:	90                   	nop
  40ef79:	90                   	nop
  40ef7a:	90                   	nop
  40ef7b:	90                   	nop
  40ef7c:	90                   	nop
  40ef7d:	90                   	nop
  40ef7e:	90                   	nop
  40ef7f:	90                   	nop

000000000040ef80 <_ZThn56_NK5boost16exception_detail10clone_implINS0_19error_info_injectorINS_17bad_function_callEEEE7rethrowEv>:
  40ef80:	48 83 ef 38          	sub    $0x38,%rdi
  40ef84:	eb 0a                	jmp    40ef90 <_ZNK5boost16exception_detail10clone_implINS0_19error_info_injectorINS_17bad_function_callEEEE7rethrowEv>
  40ef86:	66 2e 0f 1f 84 00 00 	nopw   %cs:0x0(%rax,%rax,1)
  40ef8d:	00 00 00 

000000000040ef90 <_ZNK5boost16exception_detail10clone_implINS0_19error_info_injectorINS_17bad_function_callEEEE7rethrowEv>:
  40ef90:	55                   	push   %rbp
  40ef91:	48 89 fd             	mov    %rdi,%rbp
  40ef94:	bf 40 00 00 00       	mov    $0x40,%edi
  40ef99:	53                   	push   %rbx
  40ef9a:	48 83 ec 08          	sub    $0x8,%rsp
  40ef9e:	e8 0d a4 ff ff       	callq  4093b0 <__cxa_allocate_exception@plt>
  40efa3:	48 89 ee             	mov    %rbp,%rsi
  40efa6:	48 89 c7             	mov    %rax,%rdi
  40efa9:	48 89 c3             	mov    %rax,%rbx
  40efac:	e8 2f ff ff ff       	callq  40eee0 <_ZN5boost16exception_detail19error_info_injectorINS_17bad_function_callEEC1ERKS3_>
  40efb1:	48 c7 03 f0 35 41 00 	movq   $0x4135f0,(%rbx)
  40efb8:	48 c7 43 10 28 36 41 	movq   $0x413628,0x10(%rbx)
  40efbf:	00 
  40efc0:	ba 60 aa 40 00       	mov    $0x40aa60,%edx
  40efc5:	48 c7 43 38 48 36 41 	movq   $0x413648,0x38(%rbx)
  40efcc:	00 
  40efcd:	be 80 36 41 00       	mov    $0x413680,%esi
  40efd2:	48 89 df             	mov    %rbx,%rdi
  40efd5:	e8 26 a7 ff ff       	callq  409700 <__cxa_throw@plt>
  40efda:	48 89 c5             	mov    %rax,%rbp
  40efdd:	48 89 df             	mov    %rbx,%rdi
  40efe0:	e8 6b a4 ff ff       	callq  409450 <__cxa_free_exception@plt>
  40efe5:	48 89 ef             	mov    %rbp,%rdi
  40efe8:	e8 33 a7 ff ff       	callq  409720 <_Unwind_Resume@plt>
  40efed:	90                   	nop
  40efee:	90                   	nop
  40efef:	90                   	nop

000000000040eff0 <_ZN5boost15throw_exceptionINS_17bad_function_callEEEvRKT_>:
  40eff0:	55                   	push   %rbp
  40eff1:	48 89 fd             	mov    %rdi,%rbp
  40eff4:	bf 40 00 00 00       	mov    $0x40,%edi
  40eff9:	53                   	push   %rbx
  40effa:	48 83 ec 78          	sub    $0x78,%rsp
  40effe:	e8 ad a3 ff ff       	callq  4093b0 <__cxa_allocate_exception@plt>
  40f003:	48 8d 75 08          	lea    0x8(%rbp),%rsi
  40f007:	48 8d 7c 24 18       	lea    0x18(%rsp),%rdi
  40f00c:	48 89 c3             	mov    %rax,%rbx
  40f00f:	48 c7 44 24 10 90 78 	movq   $0x617890,0x10(%rsp)
  40f016:	61 00 
  40f018:	e8 f3 a3 ff ff       	callq  409410 <_ZNSsC1ERKSs@plt>
  40f01d:	48 8d 74 24 10       	lea    0x10(%rsp),%rsi
  40f022:	48 89 df             	mov    %rbx,%rdi
  40f025:	48 c7 44 24 28 00 00 	movq   $0x0,0x28(%rsp)
  40f02c:	00 00 
  40f02e:	48 c7 44 24 30 00 00 	movq   $0x0,0x30(%rsp)
  40f035:	00 00 
  40f037:	48 c7 44 24 38 00 00 	movq   $0x0,0x38(%rsp)
  40f03e:	00 00 
  40f040:	c7 44 24 40 ff ff ff 	movl   $0xffffffff,0x40(%rsp)
  40f047:	ff 
  40f048:	48 c7 44 24 10 50 35 	movq   $0x413550,0x10(%rsp)
  40f04f:	41 00 
  40f051:	48 c7 44 24 20 78 35 	movq   $0x413578,0x20(%rsp)
  40f058:	41 00 
  40f05a:	e8 81 fe ff ff       	callq  40eee0 <_ZN5boost16exception_detail19error_info_injectorINS_17bad_function_callEEC1ERKS3_>
  40f05f:	48 c7 03 f0 35 41 00 	movq   $0x4135f0,(%rbx)
  40f066:	48 c7 43 10 28 36 41 	movq   $0x413628,0x10(%rbx)
  40f06d:	00 
  40f06e:	48 8d 6c 24 50       	lea    0x50(%rsp),%rbp
  40f073:	48 8b 74 24 28       	mov    0x28(%rsp),%rsi
  40f078:	48 c7 43 38 48 36 41 	movq   $0x413648,0x38(%rbx)
  40f07f:	00 
  40f080:	48 c7 44 24 50 00 00 	movq   $0x0,0x50(%rsp)
  40f087:	00 00 
  40f089:	48 85 f6             	test   %rsi,%rsi
  40f08c:	74 2c                	je     40f0ba <_ZN5boost15throw_exceptionINS_17bad_function_callEEEvRKT_+0xca>
  40f08e:	48 8b 06             	mov    (%rsi),%rax
  40f091:	48 8d 6c 24 50       	lea    0x50(%rsp),%rbp
  40f096:	48 8d 7c 24 60       	lea    0x60(%rsp),%rdi
  40f09b:	ff 50 28             	callq  *0x28(%rax)
  40f09e:	48 8d 6c 24 50       	lea    0x50(%rsp),%rbp
  40f0a3:	48 8d 74 24 60       	lea    0x60(%rsp),%rsi
  40f0a8:	48 89 ef             	mov    %rbp,%rdi
  40f0ab:	e8 b0 c1 ff ff       	callq  40b260 <_ZN5boost16exception_detail12refcount_ptrINS0_20error_info_containerEEaSERKS3_>
  40f0b0:	48 8d 7c 24 60       	lea    0x60(%rsp),%rdi
  40f0b5:	e8 86 c1 ff ff       	callq  40b240 <_ZN5boost16exception_detail12refcount_ptrINS0_20error_info_containerEED1Ev>
  40f0ba:	48 8b 44 24 38       	mov    0x38(%rsp),%rax
  40f0bf:	48 8d 7b 18          	lea    0x18(%rbx),%rdi
  40f0c3:	48 89 ee             	mov    %rbp,%rsi
  40f0c6:	48 89 43 28          	mov    %rax,0x28(%rbx)
  40f0ca:	8b 44 24 40          	mov    0x40(%rsp),%eax
  40f0ce:	89 43 30             	mov    %eax,0x30(%rbx)
  40f0d1:	48 8b 44 24 30       	mov    0x30(%rsp),%rax
  40f0d6:	48 89 43 20          	mov    %rax,0x20(%rbx)
  40f0da:	e8 81 c1 ff ff       	callq  40b260 <_ZN5boost16exception_detail12refcount_ptrINS0_20error_info_containerEEaSERKS3_>
  40f0df:	48 89 ef             	mov    %rbp,%rdi
  40f0e2:	e8 59 c1 ff ff       	callq  40b240 <_ZN5boost16exception_detail12refcount_ptrINS0_20error_info_containerEED1Ev>
  40f0e7:	48 8d 7c 24 10       	lea    0x10(%rsp),%rdi
  40f0ec:	e8 ef b8 ff ff       	callq  40a9e0 <_ZN5boost16exception_detail19error_info_injectorINS_17bad_function_callEED1Ev>
  40f0f1:	ba 60 aa 40 00       	mov    $0x40aa60,%edx
  40f0f6:	be 80 36 41 00       	mov    $0x413680,%esi
  40f0fb:	48 89 df             	mov    %rbx,%rdi
  40f0fe:	e8 fd a5 ff ff       	callq  409700 <__cxa_throw@plt>
  40f103:	48 8d 7c 24 10       	lea    0x10(%rsp),%rdi
  40f108:	48 89 c5             	mov    %rax,%rbp
  40f10b:	e8 40 a6 ff ff       	callq  409750 <_ZNSt9exceptionD2Ev@plt>
  40f110:	48 89 df             	mov    %rbx,%rdi
  40f113:	e8 38 a3 ff ff       	callq  409450 <__cxa_free_exception@plt>
  40f118:	48 89 ef             	mov    %rbp,%rdi
  40f11b:	e8 00 a6 ff ff       	callq  409720 <_Unwind_Resume@plt>
  40f120:	48 89 c5             	mov    %rax,%rbp
  40f123:	48 c7 43 38 b0 35 41 	movq   $0x4135b0,0x38(%rbx)
  40f12a:	00 
  40f12b:	48 89 df             	mov    %rbx,%rdi
  40f12e:	e8 ad b8 ff ff       	callq  40a9e0 <_ZN5boost16exception_detail19error_info_injectorINS_17bad_function_callEED1Ev>
  40f133:	48 8d 7c 24 10       	lea    0x10(%rsp),%rdi
  40f138:	e8 a3 b8 ff ff       	callq  40a9e0 <_ZN5boost16exception_detail19error_info_injectorINS_17bad_function_callEED1Ev>
  40f13d:	eb d1                	jmp    40f110 <_ZN5boost15throw_exceptionINS_17bad_function_callEEEvRKT_+0x120>
  40f13f:	48 8d 7c 24 60       	lea    0x60(%rsp),%rdi
  40f144:	48 89 44 24 08       	mov    %rax,0x8(%rsp)
  40f149:	e8 f2 c0 ff ff       	callq  40b240 <_ZN5boost16exception_detail12refcount_ptrINS0_20error_info_containerEED1Ev>
  40f14e:	48 8b 44 24 08       	mov    0x8(%rsp),%rax
  40f153:	48 89 ef             	mov    %rbp,%rdi
  40f156:	48 89 44 24 08       	mov    %rax,0x8(%rsp)
  40f15b:	e8 e0 c0 ff ff       	callq  40b240 <_ZN5boost16exception_detail12refcount_ptrINS0_20error_info_containerEED1Ev>
  40f160:	48 8b 44 24 08       	mov    0x8(%rsp),%rax
  40f165:	48 89 c5             	mov    %rax,%rbp
  40f168:	eb b9                	jmp    40f123 <_ZN5boost15throw_exceptionINS_17bad_function_callEEEvRKT_+0x133>
  40f16a:	eb e7                	jmp    40f153 <_ZN5boost15throw_exceptionINS_17bad_function_callEEEvRKT_+0x163>
  40f16c:	48 89 c5             	mov    %rax,%rbp
  40f16f:	eb c2                	jmp    40f133 <_ZN5boost15throw_exceptionINS_17bad_function_callEEEvRKT_+0x143>
  40f171:	90                   	nop
  40f172:	90                   	nop
  40f173:	90                   	nop
  40f174:	90                   	nop
  40f175:	90                   	nop
  40f176:	90                   	nop
  40f177:	90                   	nop
  40f178:	90                   	nop
  40f179:	90                   	nop
  40f17a:	90                   	nop
  40f17b:	90                   	nop
  40f17c:	90                   	nop
  40f17d:	90                   	nop
  40f17e:	90                   	nop
  40f17f:	90                   	nop

000000000040f180 <_ZN5boost6detail8function26void_function_obj_invoker1INS_8functionIFvRKNS_10shared_ptrIKN6SpyKee7Motion_ISaIvEEEEEEEEvSA_E6invokeERNS1_15function_bufferESA_>:
  40f180:	48 83 ec 28          	sub    $0x28,%rsp
  40f184:	48 8b 3f             	mov    (%rdi),%rdi
  40f187:	48 8b 07             	mov    (%rdi),%rax
  40f18a:	48 85 c0             	test   %rax,%rax
  40f18d:	74 10                	je     40f19f <_ZN5boost6detail8function26void_function_obj_invoker1INS_8functionIFvRKNS_10shared_ptrIKN6SpyKee7Motion_ISaIvEEEEEEEEvSA_E6invokeERNS1_15function_bufferESA_+0x1f>
  40f18f:	48 83 e0 fe          	and    $0xfffffffffffffffe,%rax
  40f193:	48 83 c7 08          	add    $0x8,%rdi
  40f197:	ff 50 08             	callq  *0x8(%rax)
  40f19a:	48 83 c4 28          	add    $0x28,%rsp
  40f19e:	c3                   	retq   
  40f19f:	48 8d 7c 24 10       	lea    0x10(%rsp),%rdi
  40f1a4:	e8 b7 bd ff ff       	callq  40af60 <_ZN5boost17bad_function_callC1Ev>
  40f1a9:	48 8d 7c 24 10       	lea    0x10(%rsp),%rdi
  40f1ae:	e8 3d fe ff ff       	callq  40eff0 <_ZN5boost15throw_exceptionINS_17bad_function_callEEEvRKT_>
  40f1b3:	48 8d 7c 24 10       	lea    0x10(%rsp),%rdi
  40f1b8:	48 89 44 24 08       	mov    %rax,0x8(%rsp)
  40f1bd:	e8 1e b0 ff ff       	callq  40a1e0 <_ZN5boost17bad_function_callD1Ev>
  40f1c2:	48 8b 44 24 08       	mov    0x8(%rsp),%rax
  40f1c7:	48 89 c7             	mov    %rax,%rdi
  40f1ca:	e8 51 a5 ff ff       	callq  409720 <_Unwind_Resume@plt>
  40f1cf:	90                   	nop

000000000040f1d0 <_ZN3ros27SubscriptionCallbackHelperTIRKN5boost10shared_ptrIKN6SpyKee7Motion_ISaIvEEEEEvE11deserializeERKNS_43SubscriptionCallbackHelperDeserializeParamsE>:
  40f1d0:	41 55                	push   %r13
  40f1d2:	41 54                	push   %r12
  40f1d4:	49 89 fc             	mov    %rdi,%r12
  40f1d7:	55                   	push   %rbp
  40f1d8:	48 89 f5             	mov    %rsi,%rbp
  40f1db:	53                   	push   %rbx
  40f1dc:	48 89 d3             	mov    %rdx,%rbx
  40f1df:	48 83 ec 68          	sub    $0x68,%rsp
  40f1e3:	48 8b 46 28          	mov    0x28(%rsi),%rax
  40f1e7:	48 85 c0             	test   %rax,%rax
  40f1ea:	0f 84 42 03 00 00    	je     40f532 <_ZN3ros27SubscriptionCallbackHelperTIRKN5boost10shared_ptrIKN6SpyKee7Motion_ISaIvEEEEEvE11deserializeERKNS_43SubscriptionCallbackHelperDeserializeParamsE+0x362>
  40f1f0:	48 83 e0 fe          	and    $0xfffffffffffffffe,%rax
  40f1f4:	48 8d 76 30          	lea    0x30(%rsi),%rsi
  40f1f8:	48 8d 7c 24 30       	lea    0x30(%rsp),%rdi
  40f1fd:	ff 50 08             	callq  *0x8(%rax)
  40f200:	48 8b 44 24 30       	mov    0x30(%rsp),%rax
  40f205:	48 85 c0             	test   %rax,%rax
  40f208:	0f 84 c2 01 00 00    	je     40f3d0 <_ZN3ros27SubscriptionCallbackHelperTIRKN5boost10shared_ptrIKN6SpyKee7Motion_ISaIvEEEEEvE11deserializeERKNS_43SubscriptionCallbackHelperDeserializeParamsE+0x200>
  40f20e:	48 8b 53 18          	mov    0x18(%rbx),%rdx
  40f212:	48 8b 4b 10          	mov    0x10(%rbx),%rcx
  40f216:	48 85 d2             	test   %rdx,%rdx
  40f219:	74 04                	je     40f21f <_ZN3ros27SubscriptionCallbackHelperTIRKN5boost10shared_ptrIKN6SpyKee7Motion_ISaIvEEEEEvE11deserializeERKNS_43SubscriptionCallbackHelperDeserializeParamsE+0x4f>
  40f21b:	f0 ff 42 08          	lock incl 0x8(%rdx)
  40f21f:	48 8b 68 18          	mov    0x18(%rax),%rbp
  40f223:	48 89 48 10          	mov    %rcx,0x10(%rax)
  40f227:	48 89 50 18          	mov    %rdx,0x18(%rax)
  40f22b:	48 85 ed             	test   %rbp,%rbp
  40f22e:	74 13                	je     40f243 <_ZN3ros27SubscriptionCallbackHelperTIRKN5boost10shared_ptrIKN6SpyKee7Motion_ISaIvEEEEEvE11deserializeERKNS_43SubscriptionCallbackHelperDeserializeParamsE+0x73>
  40f230:	b8 ff ff ff ff       	mov    $0xffffffff,%eax
  40f235:	f0 0f c1 45 08       	lock xadd %eax,0x8(%rbp)
  40f23a:	83 f8 01             	cmp    $0x1,%eax
  40f23d:	0f 84 65 02 00 00    	je     40f4a8 <_ZN3ros27SubscriptionCallbackHelperTIRKN5boost10shared_ptrIKN6SpyKee7Motion_ISaIvEEEEEvE11deserializeERKNS_43SubscriptionCallbackHelperDeserializeParamsE+0x2d8>
  40f243:	48 8b 44 24 38       	mov    0x38(%rsp),%rax
  40f248:	48 c7 44 24 10 00 00 	movq   $0x0,0x10(%rsp)
  40f24f:	00 00 
  40f251:	48 c7 44 24 18 00 00 	movq   $0x0,0x18(%rsp)
  40f258:	00 00 
  40f25a:	48 c7 44 24 20 00 00 	movq   $0x0,0x20(%rsp)
  40f261:	00 00 
  40f263:	48 c7 44 24 28 00 00 	movq   $0x0,0x28(%rsp)
  40f26a:	00 00 
  40f26c:	48 8b 54 24 30       	mov    0x30(%rsp),%rdx
  40f271:	48 85 c0             	test   %rax,%rax
  40f274:	74 04                	je     40f27a <_ZN3ros27SubscriptionCallbackHelperTIRKN5boost10shared_ptrIKN6SpyKee7Motion_ISaIvEEEEEvE11deserializeERKNS_43SubscriptionCallbackHelperDeserializeParamsE+0xaa>
  40f276:	f0 ff 40 08          	lock incl 0x8(%rax)
  40f27a:	48 8b 6c 24 18       	mov    0x18(%rsp),%rbp
  40f27f:	48 89 54 24 10       	mov    %rdx,0x10(%rsp)
  40f284:	48 89 44 24 18       	mov    %rax,0x18(%rsp)
  40f289:	48 85 ed             	test   %rbp,%rbp
  40f28c:	74 13                	je     40f2a1 <_ZN3ros27SubscriptionCallbackHelperTIRKN5boost10shared_ptrIKN6SpyKee7Motion_ISaIvEEEEEvE11deserializeERKNS_43SubscriptionCallbackHelperDeserializeParamsE+0xd1>
  40f28e:	b8 ff ff ff ff       	mov    $0xffffffff,%eax
  40f293:	f0 0f c1 45 08       	lock xadd %eax,0x8(%rbp)
  40f298:	83 f8 01             	cmp    $0x1,%eax
  40f29b:	0f 84 a7 01 00 00    	je     40f448 <_ZN3ros27SubscriptionCallbackHelperTIRKN5boost10shared_ptrIKN6SpyKee7Motion_ISaIvEEEEEvE11deserializeERKNS_43SubscriptionCallbackHelperDeserializeParamsE+0x278>
  40f2a1:	48 8b 43 18          	mov    0x18(%rbx),%rax
  40f2a5:	48 8b 53 10          	mov    0x10(%rbx),%rdx
  40f2a9:	48 85 c0             	test   %rax,%rax
  40f2ac:	74 04                	je     40f2b2 <_ZN3ros27SubscriptionCallbackHelperTIRKN5boost10shared_ptrIKN6SpyKee7Motion_ISaIvEEEEEvE11deserializeERKNS_43SubscriptionCallbackHelperDeserializeParamsE+0xe2>
  40f2ae:	f0 ff 40 08          	lock incl 0x8(%rax)
  40f2b2:	48 8b 6c 24 28       	mov    0x28(%rsp),%rbp
  40f2b7:	48 89 54 24 20       	mov    %rdx,0x20(%rsp)
  40f2bc:	48 89 44 24 28       	mov    %rax,0x28(%rsp)
  40f2c1:	48 85 ed             	test   %rbp,%rbp
  40f2c4:	74 13                	je     40f2d9 <_ZN3ros27SubscriptionCallbackHelperTIRKN5boost10shared_ptrIKN6SpyKee7Motion_ISaIvEEEEEvE11deserializeERKNS_43SubscriptionCallbackHelperDeserializeParamsE+0x109>
  40f2c6:	b8 ff ff ff ff       	mov    $0xffffffff,%eax
  40f2cb:	f0 0f c1 45 08       	lock xadd %eax,0x8(%rbp)
  40f2d0:	83 f8 01             	cmp    $0x1,%eax
  40f2d3:	0f 84 9f 01 00 00    	je     40f478 <_ZN3ros27SubscriptionCallbackHelperTIRKN5boost10shared_ptrIKN6SpyKee7Motion_ISaIvEEEEEvE11deserializeERKNS_43SubscriptionCallbackHelperDeserializeParamsE+0x2a8>
  40f2d9:	48 8b 6c 24 30       	mov    0x30(%rsp),%rbp
  40f2de:	44 8b 6b 08          	mov    0x8(%rbx),%r13d
  40f2e2:	48 8b 1b             	mov    (%rbx),%rbx
  40f2e5:	48 85 ed             	test   %rbp,%rbp
  40f2e8:	0f 84 6d 02 00 00    	je     40f55b <_ZN3ros27SubscriptionCallbackHelperTIRKN5boost10shared_ptrIKN6SpyKee7Motion_ISaIvEEEEEvE11deserializeERKNS_43SubscriptionCallbackHelperDeserializeParamsE+0x38b>
  40f2ee:	48 8d 43 01          	lea    0x1(%rbx),%rax
  40f2f2:	49 01 dd             	add    %rbx,%r13
  40f2f5:	49 39 c5             	cmp    %rax,%r13
  40f2f8:	0f 82 b2 00 00 00    	jb     40f3b0 <_ZN3ros27SubscriptionCallbackHelperTIRKN5boost10shared_ptrIKN6SpyKee7Motion_ISaIvEEEEEvE11deserializeERKNS_43SubscriptionCallbackHelperDeserializeParamsE+0x1e0>
  40f2fe:	0f b6 03             	movzbl (%rbx),%eax
  40f301:	88 45 08             	mov    %al,0x8(%rbp)
  40f304:	48 8d 43 02          	lea    0x2(%rbx),%rax
  40f308:	49 39 c5             	cmp    %rax,%r13
  40f30b:	0f 82 8f 00 00 00    	jb     40f3a0 <_ZN3ros27SubscriptionCallbackHelperTIRKN5boost10shared_ptrIKN6SpyKee7Motion_ISaIvEEEEEvE11deserializeERKNS_43SubscriptionCallbackHelperDeserializeParamsE+0x1d0>
  40f311:	0f b6 43 01          	movzbl 0x1(%rbx),%eax
  40f315:	88 45 09             	mov    %al,0x9(%rbp)
  40f318:	48 8b 44 24 30       	mov    0x30(%rsp),%rax
  40f31d:	49 89 04 24          	mov    %rax,(%r12)
  40f321:	48 8b 44 24 38       	mov    0x38(%rsp),%rax
  40f326:	48 85 c0             	test   %rax,%rax
  40f329:	49 89 44 24 08       	mov    %rax,0x8(%r12)
  40f32e:	74 04                	je     40f334 <_ZN3ros27SubscriptionCallbackHelperTIRKN5boost10shared_ptrIKN6SpyKee7Motion_ISaIvEEEEEvE11deserializeERKNS_43SubscriptionCallbackHelperDeserializeParamsE+0x164>
  40f330:	f0 ff 40 08          	lock incl 0x8(%rax)
  40f334:	48 8b 5c 24 28       	mov    0x28(%rsp),%rbx
  40f339:	48 85 db             	test   %rbx,%rbx
  40f33c:	74 13                	je     40f351 <_ZN3ros27SubscriptionCallbackHelperTIRKN5boost10shared_ptrIKN6SpyKee7Motion_ISaIvEEEEEvE11deserializeERKNS_43SubscriptionCallbackHelperDeserializeParamsE+0x181>
  40f33e:	b8 ff ff ff ff       	mov    $0xffffffff,%eax
  40f343:	f0 0f c1 43 08       	lock xadd %eax,0x8(%rbx)
  40f348:	83 f8 01             	cmp    $0x1,%eax
  40f34b:	0f 84 87 01 00 00    	je     40f4d8 <_ZN3ros27SubscriptionCallbackHelperTIRKN5boost10shared_ptrIKN6SpyKee7Motion_ISaIvEEEEEvE11deserializeERKNS_43SubscriptionCallbackHelperDeserializeParamsE+0x308>
  40f351:	48 8b 5c 24 18       	mov    0x18(%rsp),%rbx
  40f356:	48 85 db             	test   %rbx,%rbx
  40f359:	74 13                	je     40f36e <_ZN3ros27SubscriptionCallbackHelperTIRKN5boost10shared_ptrIKN6SpyKee7Motion_ISaIvEEEEEvE11deserializeERKNS_43SubscriptionCallbackHelperDeserializeParamsE+0x19e>
  40f35b:	b8 ff ff ff ff       	mov    $0xffffffff,%eax
  40f360:	f0 0f c1 43 08       	lock xadd %eax,0x8(%rbx)
  40f365:	83 f8 01             	cmp    $0x1,%eax
  40f368:	0f 84 9a 01 00 00    	je     40f508 <_ZN3ros27SubscriptionCallbackHelperTIRKN5boost10shared_ptrIKN6SpyKee7Motion_ISaIvEEEEEvE11deserializeERKNS_43SubscriptionCallbackHelperDeserializeParamsE+0x338>
  40f36e:	48 8b 5c 24 38       	mov    0x38(%rsp),%rbx
  40f373:	48 85 db             	test   %rbx,%rbx
  40f376:	74 15                	je     40f38d <_ZN3ros27SubscriptionCallbackHelperTIRKN5boost10shared_ptrIKN6SpyKee7Motion_ISaIvEEEEEvE11deserializeERKNS_43SubscriptionCallbackHelperDeserializeParamsE+0x1bd>
  40f378:	bd ff ff ff ff       	mov    $0xffffffff,%ebp
  40f37d:	89 e8                	mov    %ebp,%eax
  40f37f:	f0 0f c1 43 08       	lock xadd %eax,0x8(%rbx)
  40f384:	83 f8 01             	cmp    $0x1,%eax
  40f387:	0f 84 93 00 00 00    	je     40f420 <_ZN3ros27SubscriptionCallbackHelperTIRKN5boost10shared_ptrIKN6SpyKee7Motion_ISaIvEEEEEvE11deserializeERKNS_43SubscriptionCallbackHelperDeserializeParamsE+0x250>
  40f38d:	48 83 c4 68          	add    $0x68,%rsp
  40f391:	4c 89 e0             	mov    %r12,%rax
  40f394:	5b                   	pop    %rbx
  40f395:	5d                   	pop    %rbp
  40f396:	41 5c                	pop    %r12
  40f398:	41 5d                	pop    %r13
  40f39a:	c3                   	retq   
  40f39b:	0f 1f 44 00 00       	nopl   0x0(%rax,%rax,1)
  40f3a0:	e8 3b a1 ff ff       	callq  4094e0 <_ZN3ros13serialization18throwStreamOverrunEv@plt>
  40f3a5:	e9 67 ff ff ff       	jmpq   40f311 <_ZN3ros27SubscriptionCallbackHelperTIRKN5boost10shared_ptrIKN6SpyKee7Motion_ISaIvEEEEEvE11deserializeERKNS_43SubscriptionCallbackHelperDeserializeParamsE+0x141>
  40f3aa:	66 0f 1f 44 00 00    	nopw   0x0(%rax,%rax,1)
  40f3b0:	e8 2b a1 ff ff       	callq  4094e0 <_ZN3ros13serialization18throwStreamOverrunEv@plt>
  40f3b5:	0f b6 03             	movzbl (%rbx),%eax
  40f3b8:	88 45 08             	mov    %al,0x8(%rbp)
  40f3bb:	48 8d 43 02          	lea    0x2(%rbx),%rax
  40f3bf:	49 39 c5             	cmp    %rax,%r13
  40f3c2:	0f 83 49 ff ff ff    	jae    40f311 <_ZN3ros27SubscriptionCallbackHelperTIRKN5boost10shared_ptrIKN6SpyKee7Motion_ISaIvEEEEEvE11deserializeERKNS_43SubscriptionCallbackHelperDeserializeParamsE+0x141>
  40f3c8:	eb d6                	jmp    40f3a0 <_ZN3ros27SubscriptionCallbackHelperTIRKN5boost10shared_ptrIKN6SpyKee7Motion_ISaIvEEEEEvE11deserializeERKNS_43SubscriptionCallbackHelperDeserializeParamsE+0x1d0>
  40f3ca:	66 0f 1f 44 00 00    	nopw   0x0(%rax,%rax,1)
  40f3d0:	80 3d 61 84 20 00 00 	cmpb   $0x0,0x208461(%rip)        # 617838 <_ZN3ros7console13g_initializedE>
  40f3d7:	0f 84 38 02 00 00    	je     40f615 <_ZN3ros27SubscriptionCallbackHelperTIRKN5boost10shared_ptrIKN6SpyKee7Motion_ISaIvEEEEEvE11deserializeERKNS_43SubscriptionCallbackHelperDeserializeParamsE+0x445>
  40f3dd:	80 3d 4c 82 20 00 00 	cmpb   $0x0,0x20824c(%rip)        # 617630 <_ZZN3ros27SubscriptionCallbackHelperTIRKN5boost10shared_ptrIKN6SpyKee7Motion_ISaIvEEEEEvE11deserializeERKNS_43SubscriptionCallbackHelperDeserializeParamsEE3loc>
  40f3e4:	0f 84 dc 01 00 00    	je     40f5c6 <_ZN3ros27SubscriptionCallbackHelperTIRKN5boost10shared_ptrIKN6SpyKee7Motion_ISaIvEEEEEvE11deserializeERKNS_43SubscriptionCallbackHelperDeserializeParamsE+0x3f6>
  40f3ea:	8b 35 44 82 20 00    	mov    0x208244(%rip),%esi        # 617634 <_ZZN3ros27SubscriptionCallbackHelperTIRKN5boost10shared_ptrIKN6SpyKee7Motion_ISaIvEEEEEvE11deserializeERKNS_43SubscriptionCallbackHelperDeserializeParamsEE3loc+0x4>
  40f3f0:	85 f6                	test   %esi,%esi
  40f3f2:	0f 85 02 02 00 00    	jne    40f5fa <_ZN3ros27SubscriptionCallbackHelperTIRKN5boost10shared_ptrIKN6SpyKee7Motion_ISaIvEEEEEvE11deserializeERKNS_43SubscriptionCallbackHelperDeserializeParamsE+0x42a>
  40f3f8:	80 3d 32 82 20 00 00 	cmpb   $0x0,0x208232(%rip)        # 617631 <_ZZN3ros27SubscriptionCallbackHelperTIRKN5boost10shared_ptrIKN6SpyKee7Motion_ISaIvEEEEEvE11deserializeERKNS_43SubscriptionCallbackHelperDeserializeParamsEE3loc+0x1>
  40f3ff:	0f 85 6f 01 00 00    	jne    40f574 <_ZN3ros27SubscriptionCallbackHelperTIRKN5boost10shared_ptrIKN6SpyKee7Motion_ISaIvEEEEEvE11deserializeERKNS_43SubscriptionCallbackHelperDeserializeParamsE+0x3a4>
  40f405:	49 c7 04 24 00 00 00 	movq   $0x0,(%r12)
  40f40c:	00 
  40f40d:	49 c7 44 24 08 00 00 	movq   $0x0,0x8(%r12)
  40f414:	00 00 
  40f416:	e9 53 ff ff ff       	jmpq   40f36e <_ZN3ros27SubscriptionCallbackHelperTIRKN5boost10shared_ptrIKN6SpyKee7Motion_ISaIvEEEEEvE11deserializeERKNS_43SubscriptionCallbackHelperDeserializeParamsE+0x19e>
  40f41b:	0f 1f 44 00 00       	nopl   0x0(%rax,%rax,1)
  40f420:	48 8b 03             	mov    (%rbx),%rax
  40f423:	48 89 df             	mov    %rbx,%rdi
  40f426:	ff 50 10             	callq  *0x10(%rax)
  40f429:	f0 0f c1 6b 0c       	lock xadd %ebp,0xc(%rbx)
  40f42e:	83 fd 01             	cmp    $0x1,%ebp
  40f431:	0f 85 56 ff ff ff    	jne    40f38d <_ZN3ros27SubscriptionCallbackHelperTIRKN5boost10shared_ptrIKN6SpyKee7Motion_ISaIvEEEEEvE11deserializeERKNS_43SubscriptionCallbackHelperDeserializeParamsE+0x1bd>
  40f437:	48 8b 03             	mov    (%rbx),%rax
  40f43a:	48 89 df             	mov    %rbx,%rdi
  40f43d:	ff 50 18             	callq  *0x18(%rax)
  40f440:	e9 48 ff ff ff       	jmpq   40f38d <_ZN3ros27SubscriptionCallbackHelperTIRKN5boost10shared_ptrIKN6SpyKee7Motion_ISaIvEEEEEvE11deserializeERKNS_43SubscriptionCallbackHelperDeserializeParamsE+0x1bd>
  40f445:	0f 1f 00             	nopl   (%rax)
  40f448:	48 8b 45 00          	mov    0x0(%rbp),%rax
  40f44c:	48 89 ef             	mov    %rbp,%rdi
  40f44f:	ff 50 10             	callq  *0x10(%rax)
  40f452:	b8 ff ff ff ff       	mov    $0xffffffff,%eax
  40f457:	f0 0f c1 45 0c       	lock xadd %eax,0xc(%rbp)
  40f45c:	83 f8 01             	cmp    $0x1,%eax
  40f45f:	0f 85 3c fe ff ff    	jne    40f2a1 <_ZN3ros27SubscriptionCallbackHelperTIRKN5boost10shared_ptrIKN6SpyKee7Motion_ISaIvEEEEEvE11deserializeERKNS_43SubscriptionCallbackHelperDeserializeParamsE+0xd1>
  40f465:	48 8b 45 00          	mov    0x0(%rbp),%rax
  40f469:	48 89 ef             	mov    %rbp,%rdi
  40f46c:	ff 50 18             	callq  *0x18(%rax)
  40f46f:	e9 2d fe ff ff       	jmpq   40f2a1 <_ZN3ros27SubscriptionCallbackHelperTIRKN5boost10shared_ptrIKN6SpyKee7Motion_ISaIvEEEEEvE11deserializeERKNS_43SubscriptionCallbackHelperDeserializeParamsE+0xd1>
  40f474:	0f 1f 40 00          	nopl   0x0(%rax)
  40f478:	48 8b 45 00          	mov    0x0(%rbp),%rax
  40f47c:	48 89 ef             	mov    %rbp,%rdi
  40f47f:	ff 50 10             	callq  *0x10(%rax)
  40f482:	b8 ff ff ff ff       	mov    $0xffffffff,%eax
  40f487:	f0 0f c1 45 0c       	lock xadd %eax,0xc(%rbp)
  40f48c:	83 f8 01             	cmp    $0x1,%eax
  40f48f:	0f 85 44 fe ff ff    	jne    40f2d9 <_ZN3ros27SubscriptionCallbackHelperTIRKN5boost10shared_ptrIKN6SpyKee7Motion_ISaIvEEEEEvE11deserializeERKNS_43SubscriptionCallbackHelperDeserializeParamsE+0x109>
  40f495:	48 8b 45 00          	mov    0x0(%rbp),%rax
  40f499:	48 89 ef             	mov    %rbp,%rdi
  40f49c:	ff 50 18             	callq  *0x18(%rax)
  40f49f:	e9 35 fe ff ff       	jmpq   40f2d9 <_ZN3ros27SubscriptionCallbackHelperTIRKN5boost10shared_ptrIKN6SpyKee7Motion_ISaIvEEEEEvE11deserializeERKNS_43SubscriptionCallbackHelperDeserializeParamsE+0x109>
  40f4a4:	0f 1f 40 00          	nopl   0x0(%rax)
  40f4a8:	48 8b 45 00          	mov    0x0(%rbp),%rax
  40f4ac:	48 89 ef             	mov    %rbp,%rdi
  40f4af:	ff 50 10             	callq  *0x10(%rax)
  40f4b2:	b8 ff ff ff ff       	mov    $0xffffffff,%eax
  40f4b7:	f0 0f c1 45 0c       	lock xadd %eax,0xc(%rbp)
  40f4bc:	83 f8 01             	cmp    $0x1,%eax
  40f4bf:	0f 85 7e fd ff ff    	jne    40f243 <_ZN3ros27SubscriptionCallbackHelperTIRKN5boost10shared_ptrIKN6SpyKee7Motion_ISaIvEEEEEvE11deserializeERKNS_43SubscriptionCallbackHelperDeserializeParamsE+0x73>
  40f4c5:	48 8b 45 00          	mov    0x0(%rbp),%rax
  40f4c9:	48 89 ef             	mov    %rbp,%rdi
  40f4cc:	ff 50 18             	callq  *0x18(%rax)
  40f4cf:	e9 6f fd ff ff       	jmpq   40f243 <_ZN3ros27SubscriptionCallbackHelperTIRKN5boost10shared_ptrIKN6SpyKee7Motion_ISaIvEEEEEvE11deserializeERKNS_43SubscriptionCallbackHelperDeserializeParamsE+0x73>
  40f4d4:	0f 1f 40 00          	nopl   0x0(%rax)
  40f4d8:	48 8b 03             	mov    (%rbx),%rax
  40f4db:	48 89 df             	mov    %rbx,%rdi
  40f4de:	ff 50 10             	callq  *0x10(%rax)
  40f4e1:	b8 ff ff ff ff       	mov    $0xffffffff,%eax
  40f4e6:	f0 0f c1 43 0c       	lock xadd %eax,0xc(%rbx)
  40f4eb:	83 f8 01             	cmp    $0x1,%eax
  40f4ee:	0f 85 5d fe ff ff    	jne    40f351 <_ZN3ros27SubscriptionCallbackHelperTIRKN5boost10shared_ptrIKN6SpyKee7Motion_ISaIvEEEEEvE11deserializeERKNS_43SubscriptionCallbackHelperDeserializeParamsE+0x181>
  40f4f4:	48 8b 03             	mov    (%rbx),%rax
  40f4f7:	48 89 df             	mov    %rbx,%rdi
  40f4fa:	ff 50 18             	callq  *0x18(%rax)
  40f4fd:	e9 4f fe ff ff       	jmpq   40f351 <_ZN3ros27SubscriptionCallbackHelperTIRKN5boost10shared_ptrIKN6SpyKee7Motion_ISaIvEEEEEvE11deserializeERKNS_43SubscriptionCallbackHelperDeserializeParamsE+0x181>
  40f502:	66 0f 1f 44 00 00    	nopw   0x0(%rax,%rax,1)
  40f508:	48 8b 03             	mov    (%rbx),%rax
  40f50b:	48 89 df             	mov    %rbx,%rdi
  40f50e:	ff 50 10             	callq  *0x10(%rax)
  40f511:	b8 ff ff ff ff       	mov    $0xffffffff,%eax
  40f516:	f0 0f c1 43 0c       	lock xadd %eax,0xc(%rbx)
  40f51b:	83 f8 01             	cmp    $0x1,%eax
  40f51e:	0f 85 4a fe ff ff    	jne    40f36e <_ZN3ros27SubscriptionCallbackHelperTIRKN5boost10shared_ptrIKN6SpyKee7Motion_ISaIvEEEEEvE11deserializeERKNS_43SubscriptionCallbackHelperDeserializeParamsE+0x19e>
  40f524:	48 8b 03             	mov    (%rbx),%rax
  40f527:	48 89 df             	mov    %rbx,%rdi
  40f52a:	ff 50 18             	callq  *0x18(%rax)
  40f52d:	e9 3c fe ff ff       	jmpq   40f36e <_ZN3ros27SubscriptionCallbackHelperTIRKN5boost10shared_ptrIKN6SpyKee7Motion_ISaIvEEEEEvE11deserializeERKNS_43SubscriptionCallbackHelperDeserializeParamsE+0x19e>
  40f532:	48 8d 7c 24 40       	lea    0x40(%rsp),%rdi
  40f537:	e8 24 ba ff ff       	callq  40af60 <_ZN5boost17bad_function_callC1Ev>
  40f53c:	48 8d 7c 24 40       	lea    0x40(%rsp),%rdi
  40f541:	e8 aa fa ff ff       	callq  40eff0 <_ZN5boost15throw_exceptionINS_17bad_function_callEEEvRKT_>
  40f546:	48 8d 7c 24 40       	lea    0x40(%rsp),%rdi
  40f54b:	48 89 c3             	mov    %rax,%rbx
  40f54e:	e8 8d ac ff ff       	callq  40a1e0 <_ZN5boost17bad_function_callD1Ev>
  40f553:	48 89 df             	mov    %rbx,%rdi
  40f556:	e8 c5 a1 ff ff       	callq  409720 <_Unwind_Resume@plt>
  40f55b:	b9 e0 2f 41 00       	mov    $0x412fe0,%ecx
  40f560:	ba a6 01 00 00       	mov    $0x1a6,%edx
  40f565:	be 68 25 41 00       	mov    $0x412568,%esi
  40f56a:	bf 7b 2d 41 00       	mov    $0x412d7b,%edi
  40f56f:	e8 cc 9e ff ff       	callq  409440 <__assert_fail@plt>
  40f574:	48 8b 45 00          	mov    0x0(%rbp),%rax
  40f578:	48 89 ef             	mov    %rbp,%rdi
  40f57b:	ff 50 20             	callq  *0x20(%rax)
  40f57e:	48 8b 40 08          	mov    0x8(%rax),%rax
  40f582:	31 d2                	xor    %edx,%edx
  40f584:	48 8b 35 ad 80 20 00 	mov    0x2080ad(%rip),%rsi        # 617638 <_ZZN3ros27SubscriptionCallbackHelperTIRKN5boost10shared_ptrIKN6SpyKee7Motion_ISaIvEEEEEvE11deserializeERKNS_43SubscriptionCallbackHelperDeserializeParamsEE3loc+0x8>
  40f58b:	41 b9 c0 2e 41 00    	mov    $0x412ec0,%r9d
  40f591:	41 b8 a0 00 00 00    	mov    $0xa0,%r8d
  40f597:	b9 f0 2c 41 00       	mov    $0x412cf0,%ecx
  40f59c:	80 38 2a             	cmpb   $0x2a,(%rax)
  40f59f:	48 c7 04 24 50 2d 41 	movq   $0x412d50,(%rsp)
  40f5a6:	00 
  40f5a7:	0f 94 c2             	sete   %dl
  40f5aa:	31 ff                	xor    %edi,%edi
  40f5ac:	48 01 d0             	add    %rdx,%rax
  40f5af:	8b 15 7f 80 20 00    	mov    0x20807f(%rip),%edx        # 617634 <_ZZN3ros27SubscriptionCallbackHelperTIRKN5boost10shared_ptrIKN6SpyKee7Motion_ISaIvEEEEEvE11deserializeERKNS_43SubscriptionCallbackHelperDeserializeParamsEE3loc+0x4>
  40f5b5:	48 89 44 24 08       	mov    %rax,0x8(%rsp)
  40f5ba:	31 c0                	xor    %eax,%eax
  40f5bc:	e8 5f 9d ff ff       	callq  409320 <_ZN3ros7console5printEPNS0_10FilterBaseEPN7log4cxx6LoggerENS0_6levels5LevelEPKciS9_S9_z@plt>
  40f5c1:	e9 3f fe ff ff       	jmpq   40f405 <_ZN3ros27SubscriptionCallbackHelperTIRKN5boost10shared_ptrIKN6SpyKee7Motion_ISaIvEEEEEvE11deserializeERKNS_43SubscriptionCallbackHelperDeserializeParamsE+0x235>
  40f5c6:	48 8d 54 24 5f       	lea    0x5f(%rsp),%rdx
  40f5cb:	48 8d 7c 24 50       	lea    0x50(%rsp),%rdi
  40f5d0:	be cf 2d 41 00       	mov    $0x412dcf,%esi
  40f5d5:	e8 96 9f ff ff       	callq  409570 <_ZNSsC1EPKcRKSaIcE@plt>
  40f5da:	48 8d 74 24 50       	lea    0x50(%rsp),%rsi
  40f5df:	31 d2                	xor    %edx,%edx
  40f5e1:	bf 30 76 61 00       	mov    $0x617630,%edi
  40f5e6:	e8 45 9e ff ff       	callq  409430 <_ZN3ros7console21initializeLogLocationEPNS0_11LogLocationERKSsNS0_6levels5LevelE@plt>
  40f5eb:	48 8d 7c 24 50       	lea    0x50(%rsp),%rdi
  40f5f0:	e8 9b a0 ff ff       	callq  409690 <_ZNSsD1Ev@plt>
  40f5f5:	e9 f0 fd ff ff       	jmpq   40f3ea <_ZN3ros27SubscriptionCallbackHelperTIRKN5boost10shared_ptrIKN6SpyKee7Motion_ISaIvEEEEEvE11deserializeERKNS_43SubscriptionCallbackHelperDeserializeParamsE+0x21a>
  40f5fa:	31 f6                	xor    %esi,%esi
  40f5fc:	bf 30 76 61 00       	mov    $0x617630,%edi
  40f601:	e8 1a a0 ff ff       	callq  409620 <_ZN3ros7console19setLogLocationLevelEPNS0_11LogLocationENS0_6levels5LevelE@plt>
  40f606:	bf 30 76 61 00       	mov    $0x617630,%edi
  40f60b:	e8 e0 a0 ff ff       	callq  4096f0 <_ZN3ros7console23checkLogLocationEnabledEPNS0_11LogLocationE@plt>
  40f610:	e9 e3 fd ff ff       	jmpq   40f3f8 <_ZN3ros27SubscriptionCallbackHelperTIRKN5boost10shared_ptrIKN6SpyKee7Motion_ISaIvEEEEEvE11deserializeERKNS_43SubscriptionCallbackHelperDeserializeParamsE+0x228>
  40f615:	e8 d6 9d ff ff       	callq  4093f0 <_ZN3ros7console10initializeEv@plt>
  40f61a:	66 0f 1f 44 00 00    	nopw   0x0(%rax,%rax,1)
  40f620:	e9 b8 fd ff ff       	jmpq   40f3dd <_ZN3ros27SubscriptionCallbackHelperTIRKN5boost10shared_ptrIKN6SpyKee7Motion_ISaIvEEEEEvE11deserializeERKNS_43SubscriptionCallbackHelperDeserializeParamsE+0x20d>
  40f625:	48 8d 7c 24 28       	lea    0x28(%rsp),%rdi
  40f62a:	48 89 c3             	mov    %rax,%rbx
  40f62d:	e8 be b8 ff ff       	callq  40aef0 <_ZN5boost6detail12shared_countD1Ev>
  40f632:	48 8d 7c 24 18       	lea    0x18(%rsp),%rdi
  40f637:	e8 b4 b8 ff ff       	callq  40aef0 <_ZN5boost6detail12shared_countD1Ev>
  40f63c:	48 8d 7c 24 38       	lea    0x38(%rsp),%rdi
  40f641:	e8 aa b8 ff ff       	callq  40aef0 <_ZN5boost6detail12shared_countD1Ev>
  40f646:	48 89 df             	mov    %rbx,%rdi
  40f649:	e8 d2 a0 ff ff       	callq  409720 <_Unwind_Resume@plt>
  40f64e:	48 8d 7c 24 50       	lea    0x50(%rsp),%rdi
  40f653:	48 89 c3             	mov    %rax,%rbx
  40f656:	e8 35 a0 ff ff       	callq  409690 <_ZNSsD1Ev@plt>
  40f65b:	eb df                	jmp    40f63c <_ZN3ros27SubscriptionCallbackHelperTIRKN5boost10shared_ptrIKN6SpyKee7Motion_ISaIvEEEEEvE11deserializeERKNS_43SubscriptionCallbackHelperDeserializeParamsE+0x46c>
  40f65d:	48 89 c3             	mov    %rax,%rbx
  40f660:	eb da                	jmp    40f63c <_ZN3ros27SubscriptionCallbackHelperTIRKN5boost10shared_ptrIKN6SpyKee7Motion_ISaIvEEEEEvE11deserializeERKNS_43SubscriptionCallbackHelperDeserializeParamsE+0x46c>
  40f662:	48 8d 7c 24 18       	lea    0x18(%rsp),%rdi
  40f667:	48 89 c3             	mov    %rax,%rbx
  40f66a:	e8 81 b8 ff ff       	callq  40aef0 <_ZN5boost6detail12shared_countD1Ev>
  40f66f:	eb cb                	jmp    40f63c <_ZN3ros27SubscriptionCallbackHelperTIRKN5boost10shared_ptrIKN6SpyKee7Motion_ISaIvEEEEEvE11deserializeERKNS_43SubscriptionCallbackHelperDeserializeParamsE+0x46c>
  40f671:	eb ea                	jmp    40f65d <_ZN3ros27SubscriptionCallbackHelperTIRKN5boost10shared_ptrIKN6SpyKee7Motion_ISaIvEEEEEvE11deserializeERKNS_43SubscriptionCallbackHelperDeserializeParamsE+0x48d>
  40f673:	48 8d 7c 24 18       	lea    0x18(%rsp),%rdi
  40f678:	e8 73 b8 ff ff       	callq  40aef0 <_ZN5boost6detail12shared_countD1Ev>
  40f67d:	e8 7e 9c ff ff       	callq  409300 <_ZSt9terminatev@plt>
  40f682:	90                   	nop
  40f683:	90                   	nop
  40f684:	90                   	nop
  40f685:	90                   	nop
  40f686:	90                   	nop
  40f687:	90                   	nop
  40f688:	90                   	nop
  40f689:	90                   	nop
  40f68a:	90                   	nop
  40f68b:	90                   	nop
  40f68c:	90                   	nop
  40f68d:	90                   	nop
  40f68e:	90                   	nop
  40f68f:	90                   	nop

000000000040f690 <_ZN3ros12MessageEventIKN6SpyKee7Motion_ISaIvEEEED1Ev>:
  40f690:	55                   	push   %rbp
  40f691:	53                   	push   %rbx
  40f692:	48 89 fb             	mov    %rdi,%rbx
  40f695:	48 83 ec 08          	sub    $0x8,%rsp
  40f699:	48 8b 47 40          	mov    0x40(%rdi),%rax
  40f69d:	48 85 c0             	test   %rax,%rax
  40f6a0:	74 0c                	je     40f6ae <_ZN3ros12MessageEventIKN6SpyKee7Motion_ISaIvEEEED1Ev+0x1e>
  40f6a2:	a8 01                	test   $0x1,%al
  40f6a4:	74 6a                	je     40f710 <_ZN3ros12MessageEventIKN6SpyKee7Motion_ISaIvEEEED1Ev+0x80>
  40f6a6:	48 c7 43 40 00 00 00 	movq   $0x0,0x40(%rbx)
  40f6ad:	00 
  40f6ae:	48 8b 6b 28          	mov    0x28(%rbx),%rbp
  40f6b2:	48 85 ed             	test   %rbp,%rbp
  40f6b5:	74 13                	je     40f6ca <_ZN3ros12MessageEventIKN6SpyKee7Motion_ISaIvEEEED1Ev+0x3a>
  40f6b7:	b8 ff ff ff ff       	mov    $0xffffffff,%eax
  40f6bc:	f0 0f c1 45 08       	lock xadd %eax,0x8(%rbp)
  40f6c1:	83 f8 01             	cmp    $0x1,%eax
  40f6c4:	0f 84 8e 00 00 00    	je     40f758 <_ZN3ros12MessageEventIKN6SpyKee7Motion_ISaIvEEEED1Ev+0xc8>
  40f6ca:	48 8b 6b 18          	mov    0x18(%rbx),%rbp
  40f6ce:	48 85 ed             	test   %rbp,%rbp
  40f6d1:	74 13                	je     40f6e6 <_ZN3ros12MessageEventIKN6SpyKee7Motion_ISaIvEEEED1Ev+0x56>
  40f6d3:	b8 ff ff ff ff       	mov    $0xffffffff,%eax
  40f6d8:	f0 0f c1 45 08       	lock xadd %eax,0x8(%rbp)
  40f6dd:	83 f8 01             	cmp    $0x1,%eax
  40f6e0:	0f 84 a2 00 00 00    	je     40f788 <_ZN3ros12MessageEventIKN6SpyKee7Motion_ISaIvEEEED1Ev+0xf8>
  40f6e6:	48 8b 5b 08          	mov    0x8(%rbx),%rbx
  40f6ea:	48 85 db             	test   %rbx,%rbx
  40f6ed:	74 11                	je     40f700 <_ZN3ros12MessageEventIKN6SpyKee7Motion_ISaIvEEEED1Ev+0x70>
  40f6ef:	bd ff ff ff ff       	mov    $0xffffffff,%ebp
  40f6f4:	89 e8                	mov    %ebp,%eax
  40f6f6:	f0 0f c1 43 08       	lock xadd %eax,0x8(%rbx)
  40f6fb:	83 f8 01             	cmp    $0x1,%eax
  40f6fe:	74 30                	je     40f730 <_ZN3ros12MessageEventIKN6SpyKee7Motion_ISaIvEEEED1Ev+0xa0>
  40f700:	48 83 c4 08          	add    $0x8,%rsp
  40f704:	5b                   	pop    %rbx
  40f705:	5d                   	pop    %rbp
  40f706:	c3                   	retq   
  40f707:	66 0f 1f 84 00 00 00 	nopw   0x0(%rax,%rax,1)
  40f70e:	00 00 
  40f710:	48 83 e0 fe          	and    $0xfffffffffffffffe,%rax
  40f714:	48 8b 00             	mov    (%rax),%rax
  40f717:	48 85 c0             	test   %rax,%rax
  40f71a:	74 8a                	je     40f6a6 <_ZN3ros12MessageEventIKN6SpyKee7Motion_ISaIvEEEED1Ev+0x16>
  40f71c:	48 8d 7f 48          	lea    0x48(%rdi),%rdi
  40f720:	ba 02 00 00 00       	mov    $0x2,%edx
  40f725:	48 89 fe             	mov    %rdi,%rsi
  40f728:	ff d0                	callq  *%rax
  40f72a:	e9 77 ff ff ff       	jmpq   40f6a6 <_ZN3ros12MessageEventIKN6SpyKee7Motion_ISaIvEEEED1Ev+0x16>
  40f72f:	90                   	nop
  40f730:	48 8b 03             	mov    (%rbx),%rax
  40f733:	48 89 df             	mov    %rbx,%rdi
  40f736:	ff 50 10             	callq  *0x10(%rax)
  40f739:	f0 0f c1 6b 0c       	lock xadd %ebp,0xc(%rbx)
  40f73e:	83 fd 01             	cmp    $0x1,%ebp
  40f741:	75 bd                	jne    40f700 <_ZN3ros12MessageEventIKN6SpyKee7Motion_ISaIvEEEED1Ev+0x70>
  40f743:	48 8b 03             	mov    (%rbx),%rax
  40f746:	48 89 df             	mov    %rbx,%rdi
  40f749:	48 8b 40 18          	mov    0x18(%rax),%rax
  40f74d:	48 83 c4 08          	add    $0x8,%rsp
  40f751:	5b                   	pop    %rbx
  40f752:	5d                   	pop    %rbp
  40f753:	ff e0                	jmpq   *%rax
  40f755:	0f 1f 00             	nopl   (%rax)
  40f758:	48 8b 45 00          	mov    0x0(%rbp),%rax
  40f75c:	48 89 ef             	mov    %rbp,%rdi
  40f75f:	ff 50 10             	callq  *0x10(%rax)
  40f762:	b8 ff ff ff ff       	mov    $0xffffffff,%eax
  40f767:	f0 0f c1 45 0c       	lock xadd %eax,0xc(%rbp)
  40f76c:	83 f8 01             	cmp    $0x1,%eax
  40f76f:	0f 85 55 ff ff ff    	jne    40f6ca <_ZN3ros12MessageEventIKN6SpyKee7Motion_ISaIvEEEED1Ev+0x3a>
  40f775:	48 8b 45 00          	mov    0x0(%rbp),%rax
  40f779:	48 89 ef             	mov    %rbp,%rdi
  40f77c:	ff 50 18             	callq  *0x18(%rax)
  40f77f:	e9 46 ff ff ff       	jmpq   40f6ca <_ZN3ros12MessageEventIKN6SpyKee7Motion_ISaIvEEEED1Ev+0x3a>
  40f784:	0f 1f 40 00          	nopl   0x0(%rax)
  40f788:	48 8b 45 00          	mov    0x0(%rbp),%rax
  40f78c:	48 89 ef             	mov    %rbp,%rdi
  40f78f:	ff 50 10             	callq  *0x10(%rax)
  40f792:	b8 ff ff ff ff       	mov    $0xffffffff,%eax
  40f797:	f0 0f c1 45 0c       	lock xadd %eax,0xc(%rbp)
  40f79c:	83 f8 01             	cmp    $0x1,%eax
  40f79f:	0f 85 41 ff ff ff    	jne    40f6e6 <_ZN3ros12MessageEventIKN6SpyKee7Motion_ISaIvEEEED1Ev+0x56>
  40f7a5:	48 8b 45 00          	mov    0x0(%rbp),%rax
  40f7a9:	48 89 ef             	mov    %rbp,%rdi
  40f7ac:	ff 50 18             	callq  *0x18(%rax)
  40f7af:	e9 32 ff ff ff       	jmpq   40f6e6 <_ZN3ros12MessageEventIKN6SpyKee7Motion_ISaIvEEEED1Ev+0x56>
  40f7b4:	48 8d 7b 28          	lea    0x28(%rbx),%rdi
  40f7b8:	48 89 c5             	mov    %rax,%rbp
  40f7bb:	e8 30 b7 ff ff       	callq  40aef0 <_ZN5boost6detail12shared_countD1Ev>
  40f7c0:	48 8d 7b 18          	lea    0x18(%rbx),%rdi
  40f7c4:	e8 27 b7 ff ff       	callq  40aef0 <_ZN5boost6detail12shared_countD1Ev>
  40f7c9:	48 8d 7b 08          	lea    0x8(%rbx),%rdi
  40f7cd:	e8 1e b7 ff ff       	callq  40aef0 <_ZN5boost6detail12shared_countD1Ev>
  40f7d2:	48 89 ef             	mov    %rbp,%rdi
  40f7d5:	e8 46 9f ff ff       	callq  409720 <_Unwind_Resume@plt>
  40f7da:	48 89 c5             	mov    %rax,%rbp
  40f7dd:	eb ea                	jmp    40f7c9 <_ZN3ros12MessageEventIKN6SpyKee7Motion_ISaIvEEEED1Ev+0x139>
  40f7df:	48 89 c5             	mov    %rax,%rbp
  40f7e2:	eb dc                	jmp    40f7c0 <_ZN3ros12MessageEventIKN6SpyKee7Motion_ISaIvEEEED1Ev+0x130>
  40f7e4:	90                   	nop
  40f7e5:	90                   	nop
  40f7e6:	90                   	nop
  40f7e7:	90                   	nop
  40f7e8:	90                   	nop
  40f7e9:	90                   	nop
  40f7ea:	90                   	nop
  40f7eb:	90                   	nop
  40f7ec:	90                   	nop
  40f7ed:	90                   	nop
  40f7ee:	90                   	nop
  40f7ef:	90                   	nop

000000000040f7f0 <_ZN3ros12MessageEventIKN6SpyKee7Motion_ISaIvEEEEC1ERKNS0_IKvEERKN5boost8functionIFNSB_10shared_ptrIS4_EEvEEE>:
  40f7f0:	41 57                	push   %r15
  40f7f2:	41 56                	push   %r14
  40f7f4:	41 55                	push   %r13
  40f7f6:	49 89 d5             	mov    %rdx,%r13
  40f7f9:	41 54                	push   %r12
  40f7fb:	49 89 f4             	mov    %rsi,%r12
  40f7fe:	55                   	push   %rbp
  40f7ff:	53                   	push   %rbx
  40f800:	48 89 fb             	mov    %rdi,%rbx
  40f803:	48 81 ec 98 00 00 00 	sub    $0x98,%rsp
  40f80a:	48 c7 07 00 00 00 00 	movq   $0x0,(%rdi)
  40f811:	48 c7 47 08 00 00 00 	movq   $0x0,0x8(%rdi)
  40f818:	00 
  40f819:	48 c7 47 10 00 00 00 	movq   $0x0,0x10(%rdi)
  40f820:	00 
  40f821:	48 c7 47 18 00 00 00 	movq   $0x0,0x18(%rdi)
  40f828:	00 
  40f829:	48 c7 47 20 00 00 00 	movq   $0x0,0x20(%rdi)
  40f830:	00 
  40f831:	48 c7 47 28 00 00 00 	movq   $0x0,0x28(%rdi)
  40f838:	00 
  40f839:	c7 47 30 00 00 00 00 	movl   $0x0,0x30(%rdi)
  40f840:	c7 47 34 00 00 00 00 	movl   $0x0,0x34(%rdi)
  40f847:	48 c7 47 40 00 00 00 	movq   $0x0,0x40(%rdi)
  40f84e:	00 
  40f84f:	0f b6 46 38          	movzbl 0x38(%rsi),%eax
  40f853:	48 8b 6e 08          	mov    0x8(%rsi),%rbp
  40f857:	44 8b 7e 30          	mov    0x30(%rsi),%r15d
  40f85b:	88 44 24 0b          	mov    %al,0xb(%rsp)
  40f85f:	8b 46 34             	mov    0x34(%rsi),%eax
  40f862:	48 85 ed             	test   %rbp,%rbp
  40f865:	89 44 24 0c          	mov    %eax,0xc(%rsp)
  40f869:	48 8b 06             	mov    (%rsi),%rax
  40f86c:	0f 84 ee 04 00 00    	je     40fd60 <_ZN3ros12MessageEventIKN6SpyKee7Motion_ISaIvEEEEC1ERKNS0_IKvEERKN5boost8functionIFNSB_10shared_ptrIS4_EEvEEE+0x570>
  40f872:	f0 ff 45 08          	lock incl 0x8(%rbp)
  40f876:	48 89 84 24 80 00 00 	mov    %rax,0x80(%rsp)
  40f87d:	00 
  40f87e:	48 89 ac 24 88 00 00 	mov    %rbp,0x88(%rsp)
  40f885:	00 
  40f886:	b8 ff ff ff ff       	mov    $0xffffffff,%eax
  40f88b:	f0 ff 45 08          	lock incl 0x8(%rbp)
  40f88f:	f0 0f c1 45 08       	lock xadd %eax,0x8(%rbp)
  40f894:	83 f8 01             	cmp    $0x1,%eax
  40f897:	0f 84 23 04 00 00    	je     40fcc0 <_ZN3ros12MessageEventIKN6SpyKee7Motion_ISaIvEEEEC1ERKNS0_IKvEERKN5boost8functionIFNSB_10shared_ptrIS4_EEvEEE+0x4d0>
  40f89d:	48 8b 94 24 88 00 00 	mov    0x88(%rsp),%rdx
  40f8a4:	00 
  40f8a5:	48 8b 84 24 80 00 00 	mov    0x80(%rsp),%rax
  40f8ac:	00 
  40f8ad:	48 85 d2             	test   %rdx,%rdx
  40f8b0:	48 89 44 24 70       	mov    %rax,0x70(%rsp)
  40f8b5:	48 89 54 24 78       	mov    %rdx,0x78(%rsp)
  40f8ba:	0f 84 c2 04 00 00    	je     40fd82 <_ZN3ros12MessageEventIKN6SpyKee7Motion_ISaIvEEEEC1ERKNS0_IKvEERKN5boost8functionIFNSB_10shared_ptrIS4_EEvEEE+0x592>
  40f8c0:	f0 ff 42 08          	lock incl 0x8(%rdx)
  40f8c4:	48 8b 54 24 78       	mov    0x78(%rsp),%rdx
  40f8c9:	48 8b 44 24 70       	mov    0x70(%rsp),%rax
  40f8ce:	48 85 d2             	test   %rdx,%rdx
  40f8d1:	48 89 44 24 60       	mov    %rax,0x60(%rsp)
  40f8d6:	48 89 54 24 68       	mov    %rdx,0x68(%rsp)
  40f8db:	0f 84 af 04 00 00    	je     40fd90 <_ZN3ros12MessageEventIKN6SpyKee7Motion_ISaIvEEEEC1ERKNS0_IKvEERKN5boost8functionIFNSB_10shared_ptrIS4_EEvEEE+0x5a0>
  40f8e1:	f0 ff 42 08          	lock incl 0x8(%rdx)
  40f8e5:	48 8b 54 24 68       	mov    0x68(%rsp),%rdx
  40f8ea:	48 8b 44 24 60       	mov    0x60(%rsp),%rax
  40f8ef:	48 85 d2             	test   %rdx,%rdx
  40f8f2:	48 89 44 24 50       	mov    %rax,0x50(%rsp)
  40f8f7:	48 89 54 24 58       	mov    %rdx,0x58(%rsp)
  40f8fc:	0f 84 9c 04 00 00    	je     40fd9e <_ZN3ros12MessageEventIKN6SpyKee7Motion_ISaIvEEEEC1ERKNS0_IKvEERKN5boost8functionIFNSB_10shared_ptrIS4_EEvEEE+0x5ae>
  40f902:	f0 ff 42 08          	lock incl 0x8(%rdx)
  40f906:	48 8b 54 24 58       	mov    0x58(%rsp),%rdx
  40f90b:	48 8b 44 24 50       	mov    0x50(%rsp),%rax
  40f910:	48 85 d2             	test   %rdx,%rdx
  40f913:	74 04                	je     40f919 <_ZN3ros12MessageEventIKN6SpyKee7Motion_ISaIvEEEEC1ERKNS0_IKvEERKN5boost8functionIFNSB_10shared_ptrIS4_EEvEEE+0x129>
  40f915:	f0 ff 42 08          	lock incl 0x8(%rdx)
  40f919:	48 8b 6b 08          	mov    0x8(%rbx),%rbp
  40f91d:	48 89 03             	mov    %rax,(%rbx)
  40f920:	48 89 53 08          	mov    %rdx,0x8(%rbx)
  40f924:	48 85 ed             	test   %rbp,%rbp
  40f927:	74 13                	je     40f93c <_ZN3ros12MessageEventIKN6SpyKee7Motion_ISaIvEEEEC1ERKNS0_IKvEERKN5boost8functionIFNSB_10shared_ptrIS4_EEvEEE+0x14c>
  40f929:	b8 ff ff ff ff       	mov    $0xffffffff,%eax
  40f92e:	f0 0f c1 45 08       	lock xadd %eax,0x8(%rbp)
  40f933:	83 f8 01             	cmp    $0x1,%eax
  40f936:	0f 84 bc 03 00 00    	je     40fcf8 <_ZN3ros12MessageEventIKN6SpyKee7Motion_ISaIvEEEEC1ERKNS0_IKvEERKN5boost8functionIFNSB_10shared_ptrIS4_EEvEEE+0x508>
  40f93c:	49 8b 44 24 28       	mov    0x28(%r12),%rax
  40f941:	49 8b 54 24 20       	mov    0x20(%r12),%rdx
  40f946:	48 85 c0             	test   %rax,%rax
  40f949:	74 04                	je     40f94f <_ZN3ros12MessageEventIKN6SpyKee7Motion_ISaIvEEEEC1ERKNS0_IKvEERKN5boost8functionIFNSB_10shared_ptrIS4_EEvEEE+0x15f>
  40f94b:	f0 ff 40 08          	lock incl 0x8(%rax)
  40f94f:	48 8b 6b 28          	mov    0x28(%rbx),%rbp
  40f953:	48 89 53 20          	mov    %rdx,0x20(%rbx)
  40f957:	48 89 43 28          	mov    %rax,0x28(%rbx)
  40f95b:	48 85 ed             	test   %rbp,%rbp
  40f95e:	74 13                	je     40f973 <_ZN3ros12MessageEventIKN6SpyKee7Motion_ISaIvEEEEC1ERKNS0_IKvEERKN5boost8functionIFNSB_10shared_ptrIS4_EEvEEE+0x183>
  40f960:	b8 ff ff ff ff       	mov    $0xffffffff,%eax
  40f965:	f0 0f c1 45 08       	lock xadd %eax,0x8(%rbp)
  40f96a:	83 f8 01             	cmp    $0x1,%eax
  40f96d:	0f 84 bd 03 00 00    	je     40fd30 <_ZN3ros12MessageEventIKN6SpyKee7Motion_ISaIvEEEEC1ERKNS0_IKvEERKN5boost8functionIFNSB_10shared_ptrIS4_EEvEEE+0x540>
  40f973:	8b 44 24 0c          	mov    0xc(%rsp),%eax
  40f977:	44 89 7b 30          	mov    %r15d,0x30(%rbx)
  40f97b:	48 c7 44 24 30 00 00 	movq   $0x0,0x30(%rsp)
  40f982:	00 00 
  40f984:	89 43 34             	mov    %eax,0x34(%rbx)
  40f987:	0f b6 44 24 0b       	movzbl 0xb(%rsp),%eax
  40f98c:	88 43 38             	mov    %al,0x38(%rbx)
  40f98f:	49 8b 45 00          	mov    0x0(%r13),%rax
  40f993:	48 85 c0             	test   %rax,%rax
  40f996:	0f 84 d4 04 00 00    	je     40fe70 <_ZN3ros12MessageEventIKN6SpyKee7Motion_ISaIvEEEEC1ERKNS0_IKvEERKN5boost8functionIFNSB_10shared_ptrIS4_EEvEEE+0x680>
  40f99c:	a8 01                	test   $0x1,%al
  40f99e:	48 89 44 24 30       	mov    %rax,0x30(%rsp)
  40f9a3:	0f 84 b7 01 00 00    	je     40fb60 <_ZN3ros12MessageEventIKN6SpyKee7Motion_ISaIvEEEEC1ERKNS0_IKvEERKN5boost8functionIFNSB_10shared_ptrIS4_EEvEEE+0x370>
  40f9a9:	49 8b 55 08          	mov    0x8(%r13),%rdx
  40f9ad:	48 8d 6c 24 30       	lea    0x30(%rsp),%rbp
  40f9b2:	48 89 54 24 38       	mov    %rdx,0x38(%rsp)
  40f9b7:	49 8b 55 10          	mov    0x10(%r13),%rdx
  40f9bb:	48 89 54 24 40       	mov    %rdx,0x40(%rsp)
  40f9c0:	49 8b 55 18          	mov    0x18(%r13),%rdx
  40f9c4:	48 89 54 24 48       	mov    %rdx,0x48(%rsp)
  40f9c9:	a8 01                	test   $0x1,%al
  40f9cb:	48 89 44 24 10       	mov    %rax,0x10(%rsp)
  40f9d0:	0f 84 ca 01 00 00    	je     40fba0 <_ZN3ros12MessageEventIKN6SpyKee7Motion_ISaIvEEEEC1ERKNS0_IKvEERKN5boost8functionIFNSB_10shared_ptrIS4_EEvEEE+0x3b0>
  40f9d6:	48 8b 44 24 38       	mov    0x38(%rsp),%rax
  40f9db:	4c 8d 64 24 10       	lea    0x10(%rsp),%r12
  40f9e0:	48 89 44 24 18       	mov    %rax,0x18(%rsp)
  40f9e5:	48 8b 44 24 40       	mov    0x40(%rsp),%rax
  40f9ea:	48 89 44 24 20       	mov    %rax,0x20(%rsp)
  40f9ef:	48 8b 44 24 48       	mov    0x48(%rsp),%rax
  40f9f4:	48 89 44 24 28       	mov    %rax,0x28(%rsp)
  40f9f9:	48 c7 44 24 30 00 00 	movq   $0x0,0x30(%rsp)
  40fa00:	00 00 
  40fa02:	4c 8d 73 40          	lea    0x40(%rbx),%r14
  40fa06:	49 39 ee             	cmp    %rbp,%r14
  40fa09:	74 46                	je     40fa51 <_ZN3ros12MessageEventIKN6SpyKee7Motion_ISaIvEEEEC1ERKNS0_IKvEERKN5boost8functionIFNSB_10shared_ptrIS4_EEvEEE+0x261>
  40fa0b:	48 8b 43 40          	mov    0x40(%rbx),%rax
  40fa0f:	48 85 c0             	test   %rax,%rax
  40fa12:	0f 84 90 03 00 00    	je     40fda8 <_ZN3ros12MessageEventIKN6SpyKee7Motion_ISaIvEEEEC1ERKNS0_IKvEERKN5boost8functionIFNSB_10shared_ptrIS4_EEvEEE+0x5b8>
  40fa18:	a8 01                	test   $0x1,%al
  40fa1a:	48 89 44 24 30       	mov    %rax,0x30(%rsp)
  40fa1f:	0f 84 bb 01 00 00    	je     40fbe0 <_ZN3ros12MessageEventIKN6SpyKee7Motion_ISaIvEEEEC1ERKNS0_IKvEERKN5boost8functionIFNSB_10shared_ptrIS4_EEvEEE+0x3f0>
  40fa25:	48 8b 43 48          	mov    0x48(%rbx),%rax
  40fa29:	48 89 44 24 38       	mov    %rax,0x38(%rsp)
  40fa2e:	48 8b 43 50          	mov    0x50(%rbx),%rax
  40fa32:	48 89 44 24 40       	mov    %rax,0x40(%rsp)
  40fa37:	48 8b 43 58          	mov    0x58(%rbx),%rax
  40fa3b:	48 89 44 24 48       	mov    %rax,0x48(%rsp)
  40fa40:	48 c7 43 40 00 00 00 	movq   $0x0,0x40(%rbx)
  40fa47:	00 
  40fa48:	4d 39 e6             	cmp    %r12,%r14
  40fa4b:	0f 84 9f 03 00 00    	je     40fdf0 <_ZN3ros12MessageEventIKN6SpyKee7Motion_ISaIvEEEEC1ERKNS0_IKvEERKN5boost8functionIFNSB_10shared_ptrIS4_EEvEEE+0x600>
  40fa51:	48 8b 44 24 10       	mov    0x10(%rsp),%rax
  40fa56:	48 85 c0             	test   %rax,%rax
  40fa59:	0f 84 a1 03 00 00    	je     40fe00 <_ZN3ros12MessageEventIKN6SpyKee7Motion_ISaIvEEEEC1ERKNS0_IKvEERKN5boost8functionIFNSB_10shared_ptrIS4_EEvEEE+0x610>
  40fa5f:	a8 01                	test   $0x1,%al
  40fa61:	48 89 43 40          	mov    %rax,0x40(%rbx)
  40fa65:	0f 84 55 01 00 00    	je     40fbc0 <_ZN3ros12MessageEventIKN6SpyKee7Motion_ISaIvEEEEC1ERKNS0_IKvEERKN5boost8functionIFNSB_10shared_ptrIS4_EEvEEE+0x3d0>
  40fa6b:	48 8b 44 24 18       	mov    0x18(%rsp),%rax
  40fa70:	48 89 43 48          	mov    %rax,0x48(%rbx)
  40fa74:	48 8b 44 24 20       	mov    0x20(%rsp),%rax
  40fa79:	48 89 43 50          	mov    %rax,0x50(%rbx)
  40fa7d:	48 8b 44 24 28       	mov    0x28(%rsp),%rax
  40fa82:	48 89 43 58          	mov    %rax,0x58(%rbx)
  40fa86:	48 c7 44 24 10 00 00 	movq   $0x0,0x10(%rsp)
  40fa8d:	00 00 
  40fa8f:	48 8b 44 24 30       	mov    0x30(%rsp),%rax
  40fa94:	48 85 c0             	test   %rax,%rax
  40fa97:	74 11                	je     40faaa <_ZN3ros12MessageEventIKN6SpyKee7Motion_ISaIvEEEEC1ERKNS0_IKvEERKN5boost8functionIFNSB_10shared_ptrIS4_EEvEEE+0x2ba>
  40fa99:	a8 01                	test   $0x1,%al
  40fa9b:	0f 84 97 00 00 00    	je     40fb38 <_ZN3ros12MessageEventIKN6SpyKee7Motion_ISaIvEEEEC1ERKNS0_IKvEERKN5boost8functionIFNSB_10shared_ptrIS4_EEvEEE+0x348>
  40faa1:	48 c7 44 24 30 00 00 	movq   $0x0,0x30(%rsp)
  40faa8:	00 00 
  40faaa:	48 8b 6c 24 58       	mov    0x58(%rsp),%rbp
  40faaf:	48 85 ed             	test   %rbp,%rbp
  40fab2:	74 13                	je     40fac7 <_ZN3ros12MessageEventIKN6SpyKee7Motion_ISaIvEEEEC1ERKNS0_IKvEERKN5boost8functionIFNSB_10shared_ptrIS4_EEvEEE+0x2d7>
  40fab4:	b8 ff ff ff ff       	mov    $0xffffffff,%eax
  40fab9:	f0 0f c1 45 08       	lock xadd %eax,0x8(%rbp)
  40fabe:	83 f8 01             	cmp    $0x1,%eax
  40fac1:	0f 84 39 01 00 00    	je     40fc00 <_ZN3ros12MessageEventIKN6SpyKee7Motion_ISaIvEEEEC1ERKNS0_IKvEERKN5boost8functionIFNSB_10shared_ptrIS4_EEvEEE+0x410>
  40fac7:	48 8b 6c 24 68       	mov    0x68(%rsp),%rbp
  40facc:	48 85 ed             	test   %rbp,%rbp
  40facf:	74 13                	je     40fae4 <_ZN3ros12MessageEventIKN6SpyKee7Motion_ISaIvEEEEC1ERKNS0_IKvEERKN5boost8functionIFNSB_10shared_ptrIS4_EEvEEE+0x2f4>
  40fad1:	b8 ff ff ff ff       	mov    $0xffffffff,%eax
  40fad6:	f0 0f c1 45 08       	lock xadd %eax,0x8(%rbp)
  40fadb:	83 f8 01             	cmp    $0x1,%eax
  40fade:	0f 84 4c 01 00 00    	je     40fc30 <_ZN3ros12MessageEventIKN6SpyKee7Motion_ISaIvEEEEC1ERKNS0_IKvEERKN5boost8functionIFNSB_10shared_ptrIS4_EEvEEE+0x440>
  40fae4:	48 8b 6c 24 78       	mov    0x78(%rsp),%rbp
  40fae9:	48 85 ed             	test   %rbp,%rbp
  40faec:	74 13                	je     40fb01 <_ZN3ros12MessageEventIKN6SpyKee7Motion_ISaIvEEEEC1ERKNS0_IKvEERKN5boost8functionIFNSB_10shared_ptrIS4_EEvEEE+0x311>
  40faee:	b8 ff ff ff ff       	mov    $0xffffffff,%eax
  40faf3:	f0 0f c1 45 08       	lock xadd %eax,0x8(%rbp)
  40faf8:	83 f8 01             	cmp    $0x1,%eax
  40fafb:	0f 84 5f 01 00 00    	je     40fc60 <_ZN3ros12MessageEventIKN6SpyKee7Motion_ISaIvEEEEC1ERKNS0_IKvEERKN5boost8functionIFNSB_10shared_ptrIS4_EEvEEE+0x470>
  40fb01:	48 8b ac 24 88 00 00 	mov    0x88(%rsp),%rbp
  40fb08:	00 
  40fb09:	48 85 ed             	test   %rbp,%rbp
  40fb0c:	74 13                	je     40fb21 <_ZN3ros12MessageEventIKN6SpyKee7Motion_ISaIvEEEEC1ERKNS0_IKvEERKN5boost8functionIFNSB_10shared_ptrIS4_EEvEEE+0x331>
  40fb0e:	b8 ff ff ff ff       	mov    $0xffffffff,%eax
  40fb13:	f0 0f c1 45 08       	lock xadd %eax,0x8(%rbp)
  40fb18:	83 f8 01             	cmp    $0x1,%eax
  40fb1b:	0f 84 6f 01 00 00    	je     40fc90 <_ZN3ros12MessageEventIKN6SpyKee7Motion_ISaIvEEEEC1ERKNS0_IKvEERKN5boost8functionIFNSB_10shared_ptrIS4_EEvEEE+0x4a0>
  40fb21:	48 81 c4 98 00 00 00 	add    $0x98,%rsp
  40fb28:	5b                   	pop    %rbx
  40fb29:	5d                   	pop    %rbp
  40fb2a:	41 5c                	pop    %r12
  40fb2c:	41 5d                	pop    %r13
  40fb2e:	41 5e                	pop    %r14
  40fb30:	41 5f                	pop    %r15
  40fb32:	c3                   	retq   
  40fb33:	0f 1f 44 00 00       	nopl   0x0(%rax,%rax,1)
  40fb38:	48 83 e0 fe          	and    $0xfffffffffffffffe,%rax
  40fb3c:	48 8b 00             	mov    (%rax),%rax
  40fb3f:	48 85 c0             	test   %rax,%rax
  40fb42:	0f 84 59 ff ff ff    	je     40faa1 <_ZN3ros12MessageEventIKN6SpyKee7Motion_ISaIvEEEEC1ERKNS0_IKvEERKN5boost8functionIFNSB_10shared_ptrIS4_EEvEEE+0x2b1>
  40fb48:	48 8d 7d 08          	lea    0x8(%rbp),%rdi
  40fb4c:	ba 02 00 00 00       	mov    $0x2,%edx
  40fb51:	48 89 fe             	mov    %rdi,%rsi
  40fb54:	ff d0                	callq  *%rax
  40fb56:	e9 46 ff ff ff       	jmpq   40faa1 <_ZN3ros12MessageEventIKN6SpyKee7Motion_ISaIvEEEEC1ERKNS0_IKvEERKN5boost8functionIFNSB_10shared_ptrIS4_EEvEEE+0x2b1>
  40fb5b:	0f 1f 44 00 00       	nopl   0x0(%rax,%rax,1)
  40fb60:	48 8d 6c 24 30       	lea    0x30(%rsp),%rbp
  40fb65:	48 83 e0 fe          	and    $0xfffffffffffffffe,%rax
  40fb69:	49 8d 7d 08          	lea    0x8(%r13),%rdi
  40fb6d:	4c 8d 73 40          	lea    0x40(%rbx),%r14
  40fb71:	31 d2                	xor    %edx,%edx
  40fb73:	48 8d 75 08          	lea    0x8(%rbp),%rsi
  40fb77:	ff 10                	callq  *(%rax)
  40fb79:	48 8b 44 24 30       	mov    0x30(%rsp),%rax
  40fb7e:	48 c7 44 24 10 00 00 	movq   $0x0,0x10(%rsp)
  40fb85:	00 00 
  40fb87:	48 85 c0             	test   %rax,%rax
  40fb8a:	0f 85 39 fe ff ff    	jne    40f9c9 <_ZN3ros12MessageEventIKN6SpyKee7Motion_ISaIvEEEEC1ERKNS0_IKvEERKN5boost8functionIFNSB_10shared_ptrIS4_EEvEEE+0x1d9>
  40fb90:	4c 8d 64 24 10       	lea    0x10(%rsp),%r12
  40fb95:	e9 68 fe ff ff       	jmpq   40fa02 <_ZN3ros12MessageEventIKN6SpyKee7Motion_ISaIvEEEEC1ERKNS0_IKvEERKN5boost8functionIFNSB_10shared_ptrIS4_EEvEEE+0x212>
  40fb9a:	66 0f 1f 44 00 00    	nopw   0x0(%rax,%rax,1)
  40fba0:	4c 8d 64 24 10       	lea    0x10(%rsp),%r12
  40fba5:	48 83 e0 fe          	and    $0xfffffffffffffffe,%rax
  40fba9:	48 8d 7d 08          	lea    0x8(%rbp),%rdi
  40fbad:	ba 01 00 00 00       	mov    $0x1,%edx
  40fbb2:	49 8d 74 24 08       	lea    0x8(%r12),%rsi
  40fbb7:	ff 10                	callq  *(%rax)
  40fbb9:	e9 3b fe ff ff       	jmpq   40f9f9 <_ZN3ros12MessageEventIKN6SpyKee7Motion_ISaIvEEEEC1ERKNS0_IKvEERKN5boost8functionIFNSB_10shared_ptrIS4_EEvEEE+0x209>
  40fbbe:	66 90                	xchg   %ax,%ax
  40fbc0:	48 83 e0 fe          	and    $0xfffffffffffffffe,%rax
  40fbc4:	48 8d 73 48          	lea    0x48(%rbx),%rsi
  40fbc8:	49 8d 7c 24 08       	lea    0x8(%r12),%rdi
  40fbcd:	ba 01 00 00 00       	mov    $0x1,%edx
  40fbd2:	ff 10                	callq  *(%rax)
  40fbd4:	e9 ad fe ff ff       	jmpq   40fa86 <_ZN3ros12MessageEventIKN6SpyKee7Motion_ISaIvEEEEC1ERKNS0_IKvEERKN5boost8functionIFNSB_10shared_ptrIS4_EEvEEE+0x296>
  40fbd9:	0f 1f 80 00 00 00 00 	nopl   0x0(%rax)
  40fbe0:	48 83 e0 fe          	and    $0xfffffffffffffffe,%rax
  40fbe4:	48 8d 75 08          	lea    0x8(%rbp),%rsi
  40fbe8:	48 8d 7b 48          	lea    0x48(%rbx),%rdi
  40fbec:	ba 01 00 00 00       	mov    $0x1,%edx
  40fbf1:	ff 10                	callq  *(%rax)
  40fbf3:	e9 48 fe ff ff       	jmpq   40fa40 <_ZN3ros12MessageEventIKN6SpyKee7Motion_ISaIvEEEEC1ERKNS0_IKvEERKN5boost8functionIFNSB_10shared_ptrIS4_EEvEEE+0x250>
  40fbf8:	0f 1f 84 00 00 00 00 	nopl   0x0(%rax,%rax,1)
  40fbff:	00 
  40fc00:	48 8b 45 00          	mov    0x0(%rbp),%rax
  40fc04:	48 89 ef             	mov    %rbp,%rdi
  40fc07:	ff 50 10             	callq  *0x10(%rax)
  40fc0a:	b8 ff ff ff ff       	mov    $0xffffffff,%eax
  40fc0f:	f0 0f c1 45 0c       	lock xadd %eax,0xc(%rbp)
  40fc14:	83 f8 01             	cmp    $0x1,%eax
  40fc17:	0f 85 aa fe ff ff    	jne    40fac7 <_ZN3ros12MessageEventIKN6SpyKee7Motion_ISaIvEEEEC1ERKNS0_IKvEERKN5boost8functionIFNSB_10shared_ptrIS4_EEvEEE+0x2d7>
  40fc1d:	48 8b 45 00          	mov    0x0(%rbp),%rax
  40fc21:	48 89 ef             	mov    %rbp,%rdi
  40fc24:	ff 50 18             	callq  *0x18(%rax)
  40fc27:	e9 9b fe ff ff       	jmpq   40fac7 <_ZN3ros12MessageEventIKN6SpyKee7Motion_ISaIvEEEEC1ERKNS0_IKvEERKN5boost8functionIFNSB_10shared_ptrIS4_EEvEEE+0x2d7>
  40fc2c:	0f 1f 40 00          	nopl   0x0(%rax)
  40fc30:	48 8b 45 00          	mov    0x0(%rbp),%rax
  40fc34:	48 89 ef             	mov    %rbp,%rdi
  40fc37:	ff 50 10             	callq  *0x10(%rax)
  40fc3a:	b8 ff ff ff ff       	mov    $0xffffffff,%eax
  40fc3f:	f0 0f c1 45 0c       	lock xadd %eax,0xc(%rbp)
  40fc44:	83 f8 01             	cmp    $0x1,%eax
  40fc47:	0f 85 97 fe ff ff    	jne    40fae4 <_ZN3ros12MessageEventIKN6SpyKee7Motion_ISaIvEEEEC1ERKNS0_IKvEERKN5boost8functionIFNSB_10shared_ptrIS4_EEvEEE+0x2f4>
  40fc4d:	48 8b 45 00          	mov    0x0(%rbp),%rax
  40fc51:	48 89 ef             	mov    %rbp,%rdi
  40fc54:	ff 50 18             	callq  *0x18(%rax)
  40fc57:	e9 88 fe ff ff       	jmpq   40fae4 <_ZN3ros12MessageEventIKN6SpyKee7Motion_ISaIvEEEEC1ERKNS0_IKvEERKN5boost8functionIFNSB_10shared_ptrIS4_EEvEEE+0x2f4>
  40fc5c:	0f 1f 40 00          	nopl   0x0(%rax)
  40fc60:	48 8b 45 00          	mov    0x0(%rbp),%rax
  40fc64:	48 89 ef             	mov    %rbp,%rdi
  40fc67:	ff 50 10             	callq  *0x10(%rax)
  40fc6a:	b8 ff ff ff ff       	mov    $0xffffffff,%eax
  40fc6f:	f0 0f c1 45 0c       	lock xadd %eax,0xc(%rbp)
  40fc74:	83 f8 01             	cmp    $0x1,%eax
  40fc77:	0f 85 84 fe ff ff    	jne    40fb01 <_ZN3ros12MessageEventIKN6SpyKee7Motion_ISaIvEEEEC1ERKNS0_IKvEERKN5boost8functionIFNSB_10shared_ptrIS4_EEvEEE+0x311>
  40fc7d:	48 8b 45 00          	mov    0x0(%rbp),%rax
  40fc81:	48 89 ef             	mov    %rbp,%rdi
  40fc84:	ff 50 18             	callq  *0x18(%rax)
  40fc87:	e9 75 fe ff ff       	jmpq   40fb01 <_ZN3ros12MessageEventIKN6SpyKee7Motion_ISaIvEEEEC1ERKNS0_IKvEERKN5boost8functionIFNSB_10shared_ptrIS4_EEvEEE+0x311>
  40fc8c:	0f 1f 40 00          	nopl   0x0(%rax)
  40fc90:	48 8b 45 00          	mov    0x0(%rbp),%rax
  40fc94:	48 89 ef             	mov    %rbp,%rdi
  40fc97:	ff 50 10             	callq  *0x10(%rax)
  40fc9a:	b8 ff ff ff ff       	mov    $0xffffffff,%eax
  40fc9f:	f0 0f c1 45 0c       	lock xadd %eax,0xc(%rbp)
  40fca4:	83 f8 01             	cmp    $0x1,%eax
  40fca7:	0f 85 74 fe ff ff    	jne    40fb21 <_ZN3ros12MessageEventIKN6SpyKee7Motion_ISaIvEEEEC1ERKNS0_IKvEERKN5boost8functionIFNSB_10shared_ptrIS4_EEvEEE+0x331>
  40fcad:	48 8b 45 00          	mov    0x0(%rbp),%rax
  40fcb1:	48 89 ef             	mov    %rbp,%rdi
  40fcb4:	ff 50 18             	callq  *0x18(%rax)
  40fcb7:	e9 65 fe ff ff       	jmpq   40fb21 <_ZN3ros12MessageEventIKN6SpyKee7Motion_ISaIvEEEEC1ERKNS0_IKvEERKN5boost8functionIFNSB_10shared_ptrIS4_EEvEEE+0x331>
  40fcbc:	0f 1f 40 00          	nopl   0x0(%rax)
  40fcc0:	48 8b 45 00          	mov    0x0(%rbp),%rax
  40fcc4:	4c 8d 77 40          	lea    0x40(%rdi),%r14
  40fcc8:	48 89 ef             	mov    %rbp,%rdi
  40fccb:	ff 50 10             	callq  *0x10(%rax)
  40fcce:	b8 ff ff ff ff       	mov    $0xffffffff,%eax
  40fcd3:	f0 0f c1 45 0c       	lock xadd %eax,0xc(%rbp)
  40fcd8:	83 f8 01             	cmp    $0x1,%eax
  40fcdb:	0f 85 bc fb ff ff    	jne    40f89d <_ZN3ros12MessageEventIKN6SpyKee7Motion_ISaIvEEEEC1ERKNS0_IKvEERKN5boost8functionIFNSB_10shared_ptrIS4_EEvEEE+0xad>
  40fce1:	48 8b 45 00          	mov    0x0(%rbp),%rax
  40fce5:	4c 8d 73 40          	lea    0x40(%rbx),%r14
  40fce9:	48 89 ef             	mov    %rbp,%rdi
  40fcec:	ff 50 18             	callq  *0x18(%rax)
  40fcef:	e9 a9 fb ff ff       	jmpq   40f89d <_ZN3ros12MessageEventIKN6SpyKee7Motion_ISaIvEEEEC1ERKNS0_IKvEERKN5boost8functionIFNSB_10shared_ptrIS4_EEvEEE+0xad>
  40fcf4:	0f 1f 40 00          	nopl   0x0(%rax)
  40fcf8:	48 8b 45 00          	mov    0x0(%rbp),%rax
  40fcfc:	4c 8d 73 40          	lea    0x40(%rbx),%r14
  40fd00:	48 89 ef             	mov    %rbp,%rdi
  40fd03:	ff 50 10             	callq  *0x10(%rax)
  40fd06:	b8 ff ff ff ff       	mov    $0xffffffff,%eax
  40fd0b:	f0 0f c1 45 0c       	lock xadd %eax,0xc(%rbp)
  40fd10:	83 f8 01             	cmp    $0x1,%eax
  40fd13:	0f 85 23 fc ff ff    	jne    40f93c <_ZN3ros12MessageEventIKN6SpyKee7Motion_ISaIvEEEEC1ERKNS0_IKvEERKN5boost8functionIFNSB_10shared_ptrIS4_EEvEEE+0x14c>
  40fd19:	48 8b 45 00          	mov    0x0(%rbp),%rax
  40fd1d:	48 89 ef             	mov    %rbp,%rdi
  40fd20:	ff 50 18             	callq  *0x18(%rax)
  40fd23:	e9 14 fc ff ff       	jmpq   40f93c <_ZN3ros12MessageEventIKN6SpyKee7Motion_ISaIvEEEEC1ERKNS0_IKvEERKN5boost8functionIFNSB_10shared_ptrIS4_EEvEEE+0x14c>
  40fd28:	0f 1f 84 00 00 00 00 	nopl   0x0(%rax,%rax,1)
  40fd2f:	00 
  40fd30:	48 8b 45 00          	mov    0x0(%rbp),%rax
  40fd34:	4c 8d 73 40          	lea    0x40(%rbx),%r14
  40fd38:	48 89 ef             	mov    %rbp,%rdi
  40fd3b:	ff 50 10             	callq  *0x10(%rax)
  40fd3e:	b8 ff ff ff ff       	mov    $0xffffffff,%eax
  40fd43:	f0 0f c1 45 0c       	lock xadd %eax,0xc(%rbp)
  40fd48:	83 f8 01             	cmp    $0x1,%eax
  40fd4b:	0f 85 22 fc ff ff    	jne    40f973 <_ZN3ros12MessageEventIKN6SpyKee7Motion_ISaIvEEEEC1ERKNS0_IKvEERKN5boost8functionIFNSB_10shared_ptrIS4_EEvEEE+0x183>
  40fd51:	48 8b 45 00          	mov    0x0(%rbp),%rax
  40fd55:	48 89 ef             	mov    %rbp,%rdi
  40fd58:	ff 50 18             	callq  *0x18(%rax)
  40fd5b:	e9 13 fc ff ff       	jmpq   40f973 <_ZN3ros12MessageEventIKN6SpyKee7Motion_ISaIvEEEEC1ERKNS0_IKvEERKN5boost8functionIFNSB_10shared_ptrIS4_EEvEEE+0x183>
  40fd60:	48 89 84 24 80 00 00 	mov    %rax,0x80(%rsp)
  40fd67:	00 
  40fd68:	48 c7 84 24 88 00 00 	movq   $0x0,0x88(%rsp)
  40fd6f:	00 00 00 00 00 
  40fd74:	48 89 44 24 70       	mov    %rax,0x70(%rsp)
  40fd79:	48 c7 44 24 78 00 00 	movq   $0x0,0x78(%rsp)
  40fd80:	00 00 
  40fd82:	48 89 44 24 60       	mov    %rax,0x60(%rsp)
  40fd87:	48 c7 44 24 68 00 00 	movq   $0x0,0x68(%rsp)
  40fd8e:	00 00 
  40fd90:	48 89 44 24 50       	mov    %rax,0x50(%rsp)
  40fd95:	48 c7 44 24 58 00 00 	movq   $0x0,0x58(%rsp)
  40fd9c:	00 00 
  40fd9e:	31 d2                	xor    %edx,%edx
  40fda0:	e9 74 fb ff ff       	jmpq   40f919 <_ZN3ros12MessageEventIKN6SpyKee7Motion_ISaIvEEEEC1ERKNS0_IKvEERKN5boost8functionIFNSB_10shared_ptrIS4_EEvEEE+0x129>
  40fda5:	0f 1f 00             	nopl   (%rax)
  40fda8:	48 8b 44 24 30       	mov    0x30(%rsp),%rax
  40fdad:	48 85 c0             	test   %rax,%rax
  40fdb0:	0f 84 92 fc ff ff    	je     40fa48 <_ZN3ros12MessageEventIKN6SpyKee7Motion_ISaIvEEEEC1ERKNS0_IKvEERKN5boost8functionIFNSB_10shared_ptrIS4_EEvEEE+0x258>
  40fdb6:	a8 01                	test   $0x1,%al
  40fdb8:	75 1a                	jne    40fdd4 <_ZN3ros12MessageEventIKN6SpyKee7Motion_ISaIvEEEEC1ERKNS0_IKvEERKN5boost8functionIFNSB_10shared_ptrIS4_EEvEEE+0x5e4>
  40fdba:	48 83 e0 fe          	and    $0xfffffffffffffffe,%rax
  40fdbe:	48 8b 00             	mov    (%rax),%rax
  40fdc1:	48 85 c0             	test   %rax,%rax
  40fdc4:	74 0e                	je     40fdd4 <_ZN3ros12MessageEventIKN6SpyKee7Motion_ISaIvEEEEC1ERKNS0_IKvEERKN5boost8functionIFNSB_10shared_ptrIS4_EEvEEE+0x5e4>
  40fdc6:	48 8d 7d 08          	lea    0x8(%rbp),%rdi
  40fdca:	ba 02 00 00 00       	mov    $0x2,%edx
  40fdcf:	48 89 fe             	mov    %rdi,%rsi
  40fdd2:	ff d0                	callq  *%rax
  40fdd4:	4d 39 e6             	cmp    %r12,%r14
  40fdd7:	48 c7 44 24 30 00 00 	movq   $0x0,0x30(%rsp)
  40fdde:	00 00 
  40fde0:	0f 85 6b fc ff ff    	jne    40fa51 <_ZN3ros12MessageEventIKN6SpyKee7Motion_ISaIvEEEEC1ERKNS0_IKvEERKN5boost8functionIFNSB_10shared_ptrIS4_EEvEEE+0x261>
  40fde6:	66 2e 0f 1f 84 00 00 	nopw   %cs:0x0(%rax,%rax,1)
  40fded:	00 00 00 
  40fdf0:	48 8b 53 40          	mov    0x40(%rbx),%rdx
  40fdf4:	eb 41                	jmp    40fe37 <_ZN3ros12MessageEventIKN6SpyKee7Motion_ISaIvEEEEC1ERKNS0_IKvEERKN5boost8functionIFNSB_10shared_ptrIS4_EEvEEE+0x647>
  40fdf6:	66 2e 0f 1f 84 00 00 	nopw   %cs:0x0(%rax,%rax,1)
  40fdfd:	00 00 00 
  40fe00:	48 8b 43 40          	mov    0x40(%rbx),%rax
  40fe04:	48 85 c0             	test   %rax,%rax
  40fe07:	0f 84 82 fc ff ff    	je     40fa8f <_ZN3ros12MessageEventIKN6SpyKee7Motion_ISaIvEEEEC1ERKNS0_IKvEERKN5boost8functionIFNSB_10shared_ptrIS4_EEvEEE+0x29f>
  40fe0d:	31 d2                	xor    %edx,%edx
  40fe0f:	a8 01                	test   $0x1,%al
  40fe11:	75 1c                	jne    40fe2f <_ZN3ros12MessageEventIKN6SpyKee7Motion_ISaIvEEEEC1ERKNS0_IKvEERKN5boost8functionIFNSB_10shared_ptrIS4_EEvEEE+0x63f>
  40fe13:	48 83 e0 fe          	and    $0xfffffffffffffffe,%rax
  40fe17:	48 8b 00             	mov    (%rax),%rax
  40fe1a:	48 85 c0             	test   %rax,%rax
  40fe1d:	74 10                	je     40fe2f <_ZN3ros12MessageEventIKN6SpyKee7Motion_ISaIvEEEEC1ERKNS0_IKvEERKN5boost8functionIFNSB_10shared_ptrIS4_EEvEEE+0x63f>
  40fe1f:	48 8d 7b 48          	lea    0x48(%rbx),%rdi
  40fe23:	b2 02                	mov    $0x2,%dl
  40fe25:	48 89 fe             	mov    %rdi,%rsi
  40fe28:	ff d0                	callq  *%rax
  40fe2a:	48 8b 54 24 10       	mov    0x10(%rsp),%rdx
  40fe2f:	48 c7 43 40 00 00 00 	movq   $0x0,0x40(%rbx)
  40fe36:	00 
  40fe37:	48 85 d2             	test   %rdx,%rdx
  40fe3a:	0f 84 4f fc ff ff    	je     40fa8f <_ZN3ros12MessageEventIKN6SpyKee7Motion_ISaIvEEEEC1ERKNS0_IKvEERKN5boost8functionIFNSB_10shared_ptrIS4_EEvEEE+0x29f>
  40fe40:	f6 c2 01             	test   $0x1,%dl
  40fe43:	0f 85 3d fc ff ff    	jne    40fa86 <_ZN3ros12MessageEventIKN6SpyKee7Motion_ISaIvEEEEC1ERKNS0_IKvEERKN5boost8functionIFNSB_10shared_ptrIS4_EEvEEE+0x296>
  40fe49:	48 83 e2 fe          	and    $0xfffffffffffffffe,%rdx
  40fe4d:	48 8b 02             	mov    (%rdx),%rax
  40fe50:	48 85 c0             	test   %rax,%rax
  40fe53:	0f 84 2d fc ff ff    	je     40fa86 <_ZN3ros12MessageEventIKN6SpyKee7Motion_ISaIvEEEEC1ERKNS0_IKvEERKN5boost8functionIFNSB_10shared_ptrIS4_EEvEEE+0x296>
  40fe59:	49 8d 7c 24 08       	lea    0x8(%r12),%rdi
  40fe5e:	ba 02 00 00 00       	mov    $0x2,%edx
  40fe63:	48 89 fe             	mov    %rdi,%rsi
  40fe66:	ff d0                	callq  *%rax
  40fe68:	e9 19 fc ff ff       	jmpq   40fa86 <_ZN3ros12MessageEventIKN6SpyKee7Motion_ISaIvEEEEC1ERKNS0_IKvEERKN5boost8functionIFNSB_10shared_ptrIS4_EEvEEE+0x296>
  40fe6d:	0f 1f 00             	nopl   (%rax)
  40fe70:	48 c7 44 24 10 00 00 	movq   $0x0,0x10(%rsp)
  40fe77:	00 00 
  40fe79:	48 8d 6c 24 30       	lea    0x30(%rsp),%rbp
  40fe7e:	4c 8d 64 24 10       	lea    0x10(%rsp),%r12
  40fe83:	e9 7a fb ff ff       	jmpq   40fa02 <_ZN3ros12MessageEventIKN6SpyKee7Motion_ISaIvEEEEC1ERKNS0_IKvEERKN5boost8functionIFNSB_10shared_ptrIS4_EEvEEE+0x212>
  40fe88:	48 89 c5             	mov    %rax,%rbp
  40fe8b:	48 8d 7c 24 78       	lea    0x78(%rsp),%rdi
  40fe90:	e8 5b b0 ff ff       	callq  40aef0 <_ZN5boost6detail12shared_countD1Ev>
  40fe95:	48 8d bc 24 88 00 00 	lea    0x88(%rsp),%rdi
  40fe9c:	00 
  40fe9d:	e8 4e b0 ff ff       	callq  40aef0 <_ZN5boost6detail12shared_countD1Ev>
  40fea2:	4c 89 f7             	mov    %r14,%rdi
  40fea5:	e8 36 d8 ff ff       	callq  40d6e0 <_ZN5boost9function0INS_10shared_ptrIN6SpyKee7Motion_ISaIvEEEEEED1Ev>
  40feaa:	48 8d 7b 28          	lea    0x28(%rbx),%rdi
  40feae:	e8 3d b0 ff ff       	callq  40aef0 <_ZN5boost6detail12shared_countD1Ev>
  40feb3:	48 8d 7b 18          	lea    0x18(%rbx),%rdi
  40feb7:	e8 34 b0 ff ff       	callq  40aef0 <_ZN5boost6detail12shared_countD1Ev>
  40febc:	48 8d 7b 08          	lea    0x8(%rbx),%rdi
  40fec0:	e8 2b b0 ff ff       	callq  40aef0 <_ZN5boost6detail12shared_countD1Ev>
  40fec5:	48 89 ef             	mov    %rbp,%rdi
  40fec8:	e8 53 98 ff ff       	callq  409720 <_Unwind_Resume@plt>
  40fecd:	48 89 c5             	mov    %rax,%rbp
  40fed0:	eb d0                	jmp    40fea2 <_ZN3ros12MessageEventIKN6SpyKee7Motion_ISaIvEEEEC1ERKNS0_IKvEERKN5boost8functionIFNSB_10shared_ptrIS4_EEvEEE+0x6b2>
  40fed2:	48 89 c5             	mov    %rax,%rbp
  40fed5:	eb be                	jmp    40fe95 <_ZN3ros12MessageEventIKN6SpyKee7Motion_ISaIvEEEEC1ERKNS0_IKvEERKN5boost8functionIFNSB_10shared_ptrIS4_EEvEEE+0x6a5>
  40fed7:	48 89 c5             	mov    %rax,%rbp
  40feda:	48 8d 7c 24 68       	lea    0x68(%rsp),%rdi
  40fedf:	e8 0c b0 ff ff       	callq  40aef0 <_ZN5boost6detail12shared_countD1Ev>
  40fee4:	eb a5                	jmp    40fe8b <_ZN3ros12MessageEventIKN6SpyKee7Motion_ISaIvEEEEC1ERKNS0_IKvEERKN5boost8functionIFNSB_10shared_ptrIS4_EEvEEE+0x69b>
  40fee6:	48 89 c7             	mov    %rax,%rdi
  40fee9:	e8 82 94 ff ff       	callq  409370 <__cxa_begin_catch@plt>
  40feee:	48 c7 44 24 10 00 00 	movq   $0x0,0x10(%rsp)
  40fef5:	00 00 
  40fef7:	e8 44 97 ff ff       	callq  409640 <__cxa_rethrow@plt>
  40fefc:	48 89 c7             	mov    %rax,%rdi
  40feff:	e8 6c 94 ff ff       	callq  409370 <__cxa_begin_catch@plt>
  40ff04:	48 c7 43 40 00 00 00 	movq   $0x0,0x40(%rbx)
  40ff0b:	00 
  40ff0c:	e8 2f 97 ff ff       	callq  409640 <__cxa_rethrow@plt>
  40ff11:	48 89 c5             	mov    %rax,%rbp
  40ff14:	48 8d 7c 24 58       	lea    0x58(%rsp),%rdi
  40ff19:	e8 d2 af ff ff       	callq  40aef0 <_ZN5boost6detail12shared_countD1Ev>
  40ff1e:	eb ba                	jmp    40feda <_ZN3ros12MessageEventIKN6SpyKee7Motion_ISaIvEEEEC1ERKNS0_IKvEERKN5boost8functionIFNSB_10shared_ptrIS4_EEvEEE+0x6ea>
  40ff20:	48 89 c7             	mov    %rax,%rdi
  40ff23:	e8 48 94 ff ff       	callq  409370 <__cxa_begin_catch@plt>
  40ff28:	48 c7 44 24 30 00 00 	movq   $0x0,0x30(%rsp)
  40ff2f:	00 00 
  40ff31:	e8 0a 97 ff ff       	callq  409640 <__cxa_rethrow@plt>
  40ff36:	4c 8d 73 40          	lea    0x40(%rbx),%r14
  40ff3a:	49 89 c5             	mov    %rax,%r13
  40ff3d:	e8 7e 97 ff ff       	callq  4096c0 <__cxa_end_catch@plt>
  40ff42:	4c 89 e7             	mov    %r12,%rdi
  40ff45:	e8 96 d7 ff ff       	callq  40d6e0 <_ZN5boost9function0INS_10shared_ptrIN6SpyKee7Motion_ISaIvEEEEEED1Ev>
  40ff4a:	48 89 ef             	mov    %rbp,%rdi
  40ff4d:	4c 89 ed             	mov    %r13,%rbp
  40ff50:	e8 8b d7 ff ff       	callq  40d6e0 <_ZN5boost9function0INS_10shared_ptrIN6SpyKee7Motion_ISaIvEEEEEED1Ev>
  40ff55:	eb bd                	jmp    40ff14 <_ZN3ros12MessageEventIKN6SpyKee7Motion_ISaIvEEEEC1ERKNS0_IKvEERKN5boost8functionIFNSB_10shared_ptrIS4_EEvEEE+0x724>
  40ff57:	49 89 c5             	mov    %rax,%r13
  40ff5a:	e8 61 97 ff ff       	callq  4096c0 <__cxa_end_catch@plt>
  40ff5f:	90                   	nop
  40ff60:	eb e0                	jmp    40ff42 <_ZN3ros12MessageEventIKN6SpyKee7Motion_ISaIvEEEEC1ERKNS0_IKvEERKN5boost8functionIFNSB_10shared_ptrIS4_EEvEEE+0x752>
  40ff62:	49 89 c5             	mov    %rax,%r13
  40ff65:	eb e3                	jmp    40ff4a <_ZN3ros12MessageEventIKN6SpyKee7Motion_ISaIvEEEEC1ERKNS0_IKvEERKN5boost8functionIFNSB_10shared_ptrIS4_EEvEEE+0x75a>
  40ff67:	49 89 c5             	mov    %rax,%r13
  40ff6a:	e8 51 97 ff ff       	callq  4096c0 <__cxa_end_catch@plt>
  40ff6f:	90                   	nop
  40ff70:	eb d0                	jmp    40ff42 <_ZN3ros12MessageEventIKN6SpyKee7Motion_ISaIvEEEEC1ERKNS0_IKvEERKN5boost8functionIFNSB_10shared_ptrIS4_EEvEEE+0x752>
  40ff72:	90                   	nop
  40ff73:	90                   	nop
  40ff74:	90                   	nop
  40ff75:	90                   	nop
  40ff76:	90                   	nop
  40ff77:	90                   	nop
  40ff78:	90                   	nop
  40ff79:	90                   	nop
  40ff7a:	90                   	nop
  40ff7b:	90                   	nop
  40ff7c:	90                   	nop
  40ff7d:	90                   	nop
  40ff7e:	90                   	nop
  40ff7f:	90                   	nop

000000000040ff80 <_ZN3ros27SubscriptionCallbackHelperTIRKN5boost10shared_ptrIKN6SpyKee7Motion_ISaIvEEEEEvE4callERNS_36SubscriptionCallbackHelperCallParamsE>:
  40ff80:	55                   	push   %rbp
  40ff81:	48 8d 57 28          	lea    0x28(%rdi),%rdx
  40ff85:	48 89 fd             	mov    %rdi,%rbp
  40ff88:	53                   	push   %rbx
  40ff89:	48 81 ec 98 00 00 00 	sub    $0x98,%rsp
  40ff90:	48 89 e7             	mov    %rsp,%rdi
  40ff93:	e8 58 f8 ff ff       	callq  40f7f0 <_ZN3ros12MessageEventIKN6SpyKee7Motion_ISaIvEEEEC1ERKNS0_IKvEERKN5boost8functionIFNSB_10shared_ptrIS4_EEvEEE>
  40ff98:	48 8b 5c 24 08       	mov    0x8(%rsp),%rbx
  40ff9d:	48 8b 04 24          	mov    (%rsp),%rax
  40ffa1:	48 85 db             	test   %rbx,%rbx
  40ffa4:	0f 84 4e 02 00 00    	je     4101f8 <_ZN3ros27SubscriptionCallbackHelperTIRKN5boost10shared_ptrIKN6SpyKee7Motion_ISaIvEEEEEvE4callERNS_36SubscriptionCallbackHelperCallParamsE+0x278>
  40ffaa:	f0 ff 43 08          	lock incl 0x8(%rbx)
  40ffae:	48 89 44 24 60       	mov    %rax,0x60(%rsp)
  40ffb3:	48 89 5c 24 68       	mov    %rbx,0x68(%rsp)
  40ffb8:	b8 ff ff ff ff       	mov    $0xffffffff,%eax
  40ffbd:	f0 ff 43 08          	lock incl 0x8(%rbx)
  40ffc1:	f0 0f c1 43 08       	lock xadd %eax,0x8(%rbx)
  40ffc6:	83 f8 01             	cmp    $0x1,%eax
  40ffc9:	0f 84 11 01 00 00    	je     4100e0 <_ZN3ros27SubscriptionCallbackHelperTIRKN5boost10shared_ptrIKN6SpyKee7Motion_ISaIvEEEEEvE4callERNS_36SubscriptionCallbackHelperCallParamsE+0x160>
  40ffcf:	48 8b 45 08          	mov    0x8(%rbp),%rax
  40ffd3:	48 85 c0             	test   %rax,%rax
  40ffd6:	0f 84 2f 02 00 00    	je     41020b <_ZN3ros27SubscriptionCallbackHelperTIRKN5boost10shared_ptrIKN6SpyKee7Motion_ISaIvEEEEEvE4callERNS_36SubscriptionCallbackHelperCallParamsE+0x28b>
  40ffdc:	48 8b 54 24 60       	mov    0x60(%rsp),%rdx
  40ffe1:	48 83 e0 fe          	and    $0xfffffffffffffffe,%rax
  40ffe5:	48 8b 40 08          	mov    0x8(%rax),%rax
  40ffe9:	48 89 54 24 70       	mov    %rdx,0x70(%rsp)
  40ffee:	48 8b 54 24 68       	mov    0x68(%rsp),%rdx
  40fff3:	48 85 d2             	test   %rdx,%rdx
  40fff6:	48 89 54 24 78       	mov    %rdx,0x78(%rsp)
  40fffb:	74 04                	je     410001 <_ZN3ros27SubscriptionCallbackHelperTIRKN5boost10shared_ptrIKN6SpyKee7Motion_ISaIvEEEEEvE4callERNS_36SubscriptionCallbackHelperCallParamsE+0x81>
  40fffd:	f0 ff 42 08          	lock incl 0x8(%rdx)
  410001:	48 8d 7d 10          	lea    0x10(%rbp),%rdi
  410005:	48 8d 74 24 70       	lea    0x70(%rsp),%rsi
  41000a:	ff d0                	callq  *%rax
  41000c:	48 8b 5c 24 78       	mov    0x78(%rsp),%rbx
  410011:	48 85 db             	test   %rbx,%rbx
  410014:	74 13                	je     410029 <_ZN3ros27SubscriptionCallbackHelperTIRKN5boost10shared_ptrIKN6SpyKee7Motion_ISaIvEEEEEvE4callERNS_36SubscriptionCallbackHelperCallParamsE+0xa9>
  410016:	b8 ff ff ff ff       	mov    $0xffffffff,%eax
  41001b:	f0 0f c1 43 08       	lock xadd %eax,0x8(%rbx)
  410020:	83 f8 01             	cmp    $0x1,%eax
  410023:	0f 84 6f 01 00 00    	je     410198 <_ZN3ros27SubscriptionCallbackHelperTIRKN5boost10shared_ptrIKN6SpyKee7Motion_ISaIvEEEEEvE4callERNS_36SubscriptionCallbackHelperCallParamsE+0x218>
  410029:	48 8b 5c 24 68       	mov    0x68(%rsp),%rbx
  41002e:	48 85 db             	test   %rbx,%rbx
  410031:	74 13                	je     410046 <_ZN3ros27SubscriptionCallbackHelperTIRKN5boost10shared_ptrIKN6SpyKee7Motion_ISaIvEEEEEvE4callERNS_36SubscriptionCallbackHelperCallParamsE+0xc6>
  410033:	b8 ff ff ff ff       	mov    $0xffffffff,%eax
  410038:	f0 0f c1 43 08       	lock xadd %eax,0x8(%rbx)
  41003d:	83 f8 01             	cmp    $0x1,%eax
  410040:	0f 84 82 01 00 00    	je     4101c8 <_ZN3ros27SubscriptionCallbackHelperTIRKN5boost10shared_ptrIKN6SpyKee7Motion_ISaIvEEEEEvE4callERNS_36SubscriptionCallbackHelperCallParamsE+0x248>
  410046:	48 8b 44 24 40       	mov    0x40(%rsp),%rax
  41004b:	48 85 c0             	test   %rax,%rax
  41004e:	74 0d                	je     41005d <_ZN3ros27SubscriptionCallbackHelperTIRKN5boost10shared_ptrIKN6SpyKee7Motion_ISaIvEEEEEvE4callERNS_36SubscriptionCallbackHelperCallParamsE+0xdd>
  410050:	a8 01                	test   $0x1,%al
  410052:	74 6c                	je     4100c0 <_ZN3ros27SubscriptionCallbackHelperTIRKN5boost10shared_ptrIKN6SpyKee7Motion_ISaIvEEEEEvE4callERNS_36SubscriptionCallbackHelperCallParamsE+0x140>
  410054:	48 c7 44 24 40 00 00 	movq   $0x0,0x40(%rsp)
  41005b:	00 00 
  41005d:	48 8b 5c 24 28       	mov    0x28(%rsp),%rbx
  410062:	48 85 db             	test   %rbx,%rbx
  410065:	74 13                	je     41007a <_ZN3ros27SubscriptionCallbackHelperTIRKN5boost10shared_ptrIKN6SpyKee7Motion_ISaIvEEEEEvE4callERNS_36SubscriptionCallbackHelperCallParamsE+0xfa>
  410067:	b8 ff ff ff ff       	mov    $0xffffffff,%eax
  41006c:	f0 0f c1 43 08       	lock xadd %eax,0x8(%rbx)
  410071:	83 f8 01             	cmp    $0x1,%eax
  410074:	0f 84 96 00 00 00    	je     410110 <_ZN3ros27SubscriptionCallbackHelperTIRKN5boost10shared_ptrIKN6SpyKee7Motion_ISaIvEEEEEvE4callERNS_36SubscriptionCallbackHelperCallParamsE+0x190>
  41007a:	48 8b 5c 24 18       	mov    0x18(%rsp),%rbx
  41007f:	48 85 db             	test   %rbx,%rbx
  410082:	74 13                	je     410097 <_ZN3ros27SubscriptionCallbackHelperTIRKN5boost10shared_ptrIKN6SpyKee7Motion_ISaIvEEEEEvE4callERNS_36SubscriptionCallbackHelperCallParamsE+0x117>
  410084:	b8 ff ff ff ff       	mov    $0xffffffff,%eax
  410089:	f0 0f c1 43 08       	lock xadd %eax,0x8(%rbx)
  41008e:	83 f8 01             	cmp    $0x1,%eax
  410091:	0f 84 a9 00 00 00    	je     410140 <_ZN3ros27SubscriptionCallbackHelperTIRKN5boost10shared_ptrIKN6SpyKee7Motion_ISaIvEEEEEvE4callERNS_36SubscriptionCallbackHelperCallParamsE+0x1c0>
  410097:	48 8b 5c 24 08       	mov    0x8(%rsp),%rbx
  41009c:	48 85 db             	test   %rbx,%rbx
  41009f:	74 15                	je     4100b6 <_ZN3ros27SubscriptionCallbackHelperTIRKN5boost10shared_ptrIKN6SpyKee7Motion_ISaIvEEEEEvE4callERNS_36SubscriptionCallbackHelperCallParamsE+0x136>
  4100a1:	bd ff ff ff ff       	mov    $0xffffffff,%ebp
  4100a6:	89 e8                	mov    %ebp,%eax
  4100a8:	f0 0f c1 43 08       	lock xadd %eax,0x8(%rbx)
  4100ad:	83 f8 01             	cmp    $0x1,%eax
  4100b0:	0f 84 ba 00 00 00    	je     410170 <_ZN3ros27SubscriptionCallbackHelperTIRKN5boost10shared_ptrIKN6SpyKee7Motion_ISaIvEEEEEvE4callERNS_36SubscriptionCallbackHelperCallParamsE+0x1f0>
  4100b6:	48 81 c4 98 00 00 00 	add    $0x98,%rsp
  4100bd:	5b                   	pop    %rbx
  4100be:	5d                   	pop    %rbp
  4100bf:	c3                   	retq   
  4100c0:	48 83 e0 fe          	and    $0xfffffffffffffffe,%rax
  4100c4:	48 8b 00             	mov    (%rax),%rax
  4100c7:	48 85 c0             	test   %rax,%rax
  4100ca:	74 88                	je     410054 <_ZN3ros27SubscriptionCallbackHelperTIRKN5boost10shared_ptrIKN6SpyKee7Motion_ISaIvEEEEEvE4callERNS_36SubscriptionCallbackHelperCallParamsE+0xd4>
  4100cc:	48 8d 7c 24 48       	lea    0x48(%rsp),%rdi
  4100d1:	ba 02 00 00 00       	mov    $0x2,%edx
  4100d6:	48 89 fe             	mov    %rdi,%rsi
  4100d9:	ff d0                	callq  *%rax
  4100db:	e9 74 ff ff ff       	jmpq   410054 <_ZN3ros27SubscriptionCallbackHelperTIRKN5boost10shared_ptrIKN6SpyKee7Motion_ISaIvEEEEEvE4callERNS_36SubscriptionCallbackHelperCallParamsE+0xd4>
  4100e0:	48 8b 03             	mov    (%rbx),%rax
  4100e3:	48 89 df             	mov    %rbx,%rdi
  4100e6:	ff 50 10             	callq  *0x10(%rax)
  4100e9:	b8 ff ff ff ff       	mov    $0xffffffff,%eax
  4100ee:	f0 0f c1 43 0c       	lock xadd %eax,0xc(%rbx)
  4100f3:	83 f8 01             	cmp    $0x1,%eax
  4100f6:	0f 85 d3 fe ff ff    	jne    40ffcf <_ZN3ros27SubscriptionCallbackHelperTIRKN5boost10shared_ptrIKN6SpyKee7Motion_ISaIvEEEEEvE4callERNS_36SubscriptionCallbackHelperCallParamsE+0x4f>
  4100fc:	48 8b 03             	mov    (%rbx),%rax
  4100ff:	48 89 df             	mov    %rbx,%rdi
  410102:	ff 50 18             	callq  *0x18(%rax)
  410105:	e9 c5 fe ff ff       	jmpq   40ffcf <_ZN3ros27SubscriptionCallbackHelperTIRKN5boost10shared_ptrIKN6SpyKee7Motion_ISaIvEEEEEvE4callERNS_36SubscriptionCallbackHelperCallParamsE+0x4f>
  41010a:	66 0f 1f 44 00 00    	nopw   0x0(%rax,%rax,1)
  410110:	48 8b 03             	mov    (%rbx),%rax
  410113:	48 89 df             	mov    %rbx,%rdi
  410116:	ff 50 10             	callq  *0x10(%rax)
  410119:	b8 ff ff ff ff       	mov    $0xffffffff,%eax
  41011e:	f0 0f c1 43 0c       	lock xadd %eax,0xc(%rbx)
  410123:	83 f8 01             	cmp    $0x1,%eax
  410126:	0f 85 4e ff ff ff    	jne    41007a <_ZN3ros27SubscriptionCallbackHelperTIRKN5boost10shared_ptrIKN6SpyKee7Motion_ISaIvEEEEEvE4callERNS_36SubscriptionCallbackHelperCallParamsE+0xfa>
  41012c:	48 8b 03             	mov    (%rbx),%rax
  41012f:	48 89 df             	mov    %rbx,%rdi
  410132:	ff 50 18             	callq  *0x18(%rax)
  410135:	e9 40 ff ff ff       	jmpq   41007a <_ZN3ros27SubscriptionCallbackHelperTIRKN5boost10shared_ptrIKN6SpyKee7Motion_ISaIvEEEEEvE4callERNS_36SubscriptionCallbackHelperCallParamsE+0xfa>
  41013a:	66 0f 1f 44 00 00    	nopw   0x0(%rax,%rax,1)
  410140:	48 8b 03             	mov    (%rbx),%rax
  410143:	48 89 df             	mov    %rbx,%rdi
  410146:	ff 50 10             	callq  *0x10(%rax)
  410149:	b8 ff ff ff ff       	mov    $0xffffffff,%eax
  41014e:	f0 0f c1 43 0c       	lock xadd %eax,0xc(%rbx)
  410153:	83 f8 01             	cmp    $0x1,%eax
  410156:	0f 85 3b ff ff ff    	jne    410097 <_ZN3ros27SubscriptionCallbackHelperTIRKN5boost10shared_ptrIKN6SpyKee7Motion_ISaIvEEEEEvE4callERNS_36SubscriptionCallbackHelperCallParamsE+0x117>
  41015c:	48 8b 03             	mov    (%rbx),%rax
  41015f:	48 89 df             	mov    %rbx,%rdi
  410162:	ff 50 18             	callq  *0x18(%rax)
  410165:	e9 2d ff ff ff       	jmpq   410097 <_ZN3ros27SubscriptionCallbackHelperTIRKN5boost10shared_ptrIKN6SpyKee7Motion_ISaIvEEEEEvE4callERNS_36SubscriptionCallbackHelperCallParamsE+0x117>
  41016a:	66 0f 1f 44 00 00    	nopw   0x0(%rax,%rax,1)
  410170:	48 8b 03             	mov    (%rbx),%rax
  410173:	48 89 df             	mov    %rbx,%rdi
  410176:	ff 50 10             	callq  *0x10(%rax)
  410179:	f0 0f c1 6b 0c       	lock xadd %ebp,0xc(%rbx)
  41017e:	83 fd 01             	cmp    $0x1,%ebp
  410181:	0f 85 2f ff ff ff    	jne    4100b6 <_ZN3ros27SubscriptionCallbackHelperTIRKN5boost10shared_ptrIKN6SpyKee7Motion_ISaIvEEEEEvE4callERNS_36SubscriptionCallbackHelperCallParamsE+0x136>
  410187:	48 8b 03             	mov    (%rbx),%rax
  41018a:	48 89 df             	mov    %rbx,%rdi
  41018d:	ff 50 18             	callq  *0x18(%rax)
  410190:	e9 21 ff ff ff       	jmpq   4100b6 <_ZN3ros27SubscriptionCallbackHelperTIRKN5boost10shared_ptrIKN6SpyKee7Motion_ISaIvEEEEEvE4callERNS_36SubscriptionCallbackHelperCallParamsE+0x136>
  410195:	0f 1f 00             	nopl   (%rax)
  410198:	48 8b 03             	mov    (%rbx),%rax
  41019b:	48 89 df             	mov    %rbx,%rdi
  41019e:	ff 50 10             	callq  *0x10(%rax)
  4101a1:	b8 ff ff ff ff       	mov    $0xffffffff,%eax
  4101a6:	f0 0f c1 43 0c       	lock xadd %eax,0xc(%rbx)
  4101ab:	83 f8 01             	cmp    $0x1,%eax
  4101ae:	0f 85 75 fe ff ff    	jne    410029 <_ZN3ros27SubscriptionCallbackHelperTIRKN5boost10shared_ptrIKN6SpyKee7Motion_ISaIvEEEEEvE4callERNS_36SubscriptionCallbackHelperCallParamsE+0xa9>
  4101b4:	48 8b 03             	mov    (%rbx),%rax
  4101b7:	48 89 df             	mov    %rbx,%rdi
  4101ba:	ff 50 18             	callq  *0x18(%rax)
  4101bd:	e9 67 fe ff ff       	jmpq   410029 <_ZN3ros27SubscriptionCallbackHelperTIRKN5boost10shared_ptrIKN6SpyKee7Motion_ISaIvEEEEEvE4callERNS_36SubscriptionCallbackHelperCallParamsE+0xa9>
  4101c2:	66 0f 1f 44 00 00    	nopw   0x0(%rax,%rax,1)
  4101c8:	48 8b 03             	mov    (%rbx),%rax
  4101cb:	48 89 df             	mov    %rbx,%rdi
  4101ce:	ff 50 10             	callq  *0x10(%rax)
  4101d1:	b8 ff ff ff ff       	mov    $0xffffffff,%eax
  4101d6:	f0 0f c1 43 0c       	lock xadd %eax,0xc(%rbx)
  4101db:	83 f8 01             	cmp    $0x1,%eax
  4101de:	0f 85 62 fe ff ff    	jne    410046 <_ZN3ros27SubscriptionCallbackHelperTIRKN5boost10shared_ptrIKN6SpyKee7Motion_ISaIvEEEEEvE4callERNS_36SubscriptionCallbackHelperCallParamsE+0xc6>
  4101e4:	48 8b 03             	mov    (%rbx),%rax
  4101e7:	48 89 df             	mov    %rbx,%rdi
  4101ea:	ff 50 18             	callq  *0x18(%rax)
  4101ed:	e9 54 fe ff ff       	jmpq   410046 <_ZN3ros27SubscriptionCallbackHelperTIRKN5boost10shared_ptrIKN6SpyKee7Motion_ISaIvEEEEEvE4callERNS_36SubscriptionCallbackHelperCallParamsE+0xc6>
  4101f2:	66 0f 1f 44 00 00    	nopw   0x0(%rax,%rax,1)
  4101f8:	48 89 44 24 60       	mov    %rax,0x60(%rsp)
  4101fd:	48 c7 44 24 68 00 00 	movq   $0x0,0x68(%rsp)
  410204:	00 00 
  410206:	e9 c4 fd ff ff       	jmpq   40ffcf <_ZN3ros27SubscriptionCallbackHelperTIRKN5boost10shared_ptrIKN6SpyKee7Motion_ISaIvEEEEEvE4callERNS_36SubscriptionCallbackHelperCallParamsE+0x4f>
  41020b:	48 8d bc 24 80 00 00 	lea    0x80(%rsp),%rdi
  410212:	00 
  410213:	e8 48 ad ff ff       	callq  40af60 <_ZN5boost17bad_function_callC1Ev>
  410218:	48 8d bc 24 80 00 00 	lea    0x80(%rsp),%rdi
  41021f:	00 
  410220:	e8 cb ed ff ff       	callq  40eff0 <_ZN5boost15throw_exceptionINS_17bad_function_callEEEvRKT_>
  410225:	48 8d bc 24 80 00 00 	lea    0x80(%rsp),%rdi
  41022c:	00 
  41022d:	48 89 c3             	mov    %rax,%rbx
  410230:	e8 ab 9f ff ff       	callq  40a1e0 <_ZN5boost17bad_function_callD1Ev>
  410235:	48 8d 7c 24 68       	lea    0x68(%rsp),%rdi
  41023a:	e8 b1 ac ff ff       	callq  40aef0 <_ZN5boost6detail12shared_countD1Ev>
  41023f:	48 89 e7             	mov    %rsp,%rdi
  410242:	e8 49 f4 ff ff       	callq  40f690 <_ZN3ros12MessageEventIKN6SpyKee7Motion_ISaIvEEEED1Ev>
  410247:	48 89 df             	mov    %rbx,%rdi
  41024a:	e8 d1 94 ff ff       	callq  409720 <_Unwind_Resume@plt>
  41024f:	48 89 c3             	mov    %rax,%rbx
  410252:	eb e1                	jmp    410235 <_ZN3ros27SubscriptionCallbackHelperTIRKN5boost10shared_ptrIKN6SpyKee7Motion_ISaIvEEEEEvE4callERNS_36SubscriptionCallbackHelperCallParamsE+0x2b5>
  410254:	48 89 c3             	mov    %rax,%rbx
  410257:	48 8d 7c 24 08       	lea    0x8(%rsp),%rdi
  41025c:	e8 8f ac ff ff       	callq  40aef0 <_ZN5boost6detail12shared_countD1Ev>
  410261:	48 89 df             	mov    %rbx,%rdi
  410264:	e8 b7 94 ff ff       	callq  409720 <_Unwind_Resume@plt>
  410269:	48 89 c3             	mov    %rax,%rbx
  41026c:	48 8d 7c 24 18       	lea    0x18(%rsp),%rdi
  410271:	e8 7a ac ff ff       	callq  40aef0 <_ZN5boost6detail12shared_countD1Ev>
  410276:	eb df                	jmp    410257 <_ZN3ros27SubscriptionCallbackHelperTIRKN5boost10shared_ptrIKN6SpyKee7Motion_ISaIvEEEEEvE4callERNS_36SubscriptionCallbackHelperCallParamsE+0x2d7>
  410278:	48 8d 7c 24 28       	lea    0x28(%rsp),%rdi
  41027d:	48 89 c3             	mov    %rax,%rbx
  410280:	e8 6b ac ff ff       	callq  40aef0 <_ZN5boost6detail12shared_countD1Ev>
  410285:	eb e5                	jmp    41026c <_ZN3ros27SubscriptionCallbackHelperTIRKN5boost10shared_ptrIKN6SpyKee7Motion_ISaIvEEEEEvE4callERNS_36SubscriptionCallbackHelperCallParamsE+0x2ec>
  410287:	48 89 c3             	mov    %rax,%rbx
  41028a:	eb b3                	jmp    41023f <_ZN3ros27SubscriptionCallbackHelperTIRKN5boost10shared_ptrIKN6SpyKee7Motion_ISaIvEEEEEvE4callERNS_36SubscriptionCallbackHelperCallParamsE+0x2bf>
  41028c:	48 8d 7c 24 78       	lea    0x78(%rsp),%rdi
  410291:	48 89 c3             	mov    %rax,%rbx
  410294:	e8 57 ac ff ff       	callq  40aef0 <_ZN5boost6detail12shared_countD1Ev>
  410299:	eb 9a                	jmp    410235 <_ZN3ros27SubscriptionCallbackHelperTIRKN5boost10shared_ptrIKN6SpyKee7Motion_ISaIvEEEEEvE4callERNS_36SubscriptionCallbackHelperCallParamsE+0x2b5>
  41029b:	90                   	nop
  41029c:	90                   	nop
  41029d:	90                   	nop
  41029e:	90                   	nop
  41029f:	90                   	nop

00000000004102a0 <_ZNSt6vectorIhSaIhEE14_M_fill_insertEN9__gnu_cxx17__normal_iteratorIPhS1_EEmRKh>:
  4102a0:	48 89 5c 24 d0       	mov    %rbx,-0x30(%rsp)
  4102a5:	48 89 6c 24 d8       	mov    %rbp,-0x28(%rsp)
  4102aa:	48 89 d3             	mov    %rdx,%rbx
  4102ad:	4c 89 64 24 e0       	mov    %r12,-0x20(%rsp)
  4102b2:	4c 89 6c 24 e8       	mov    %r13,-0x18(%rsp)
  4102b7:	48 89 fd             	mov    %rdi,%rbp
  4102ba:	4c 89 74 24 f0       	mov    %r14,-0x10(%rsp)
  4102bf:	4c 89 7c 24 f8       	mov    %r15,-0x8(%rsp)
  4102c4:	48 83 ec 48          	sub    $0x48,%rsp
  4102c8:	48 85 d2             	test   %rdx,%rdx
  4102cb:	49 89 f4             	mov    %rsi,%r12
  4102ce:	0f 84 c8 00 00 00    	je     41039c <_ZNSt6vectorIhSaIhEE14_M_fill_insertEN9__gnu_cxx17__normal_iteratorIPhS1_EEmRKh+0xfc>
  4102d4:	4c 8b 6f 08          	mov    0x8(%rdi),%r13
  4102d8:	48 8b 47 10          	mov    0x10(%rdi),%rax
  4102dc:	4c 29 e8             	sub    %r13,%rax
  4102df:	48 39 c2             	cmp    %rax,%rdx
  4102e2:	0f 86 d8 00 00 00    	jbe    4103c0 <_ZNSt6vectorIhSaIhEE14_M_fill_insertEN9__gnu_cxx17__normal_iteratorIPhS1_EEmRKh+0x120>
  4102e8:	48 8b 17             	mov    (%rdi),%rdx
  4102eb:	49 29 d5             	sub    %rdx,%r13
  4102ee:	4c 89 e8             	mov    %r13,%rax
  4102f1:	48 f7 d0             	not    %rax
  4102f4:	48 39 c3             	cmp    %rax,%rbx
  4102f7:	0f 87 b1 01 00 00    	ja     4104ae <_ZNSt6vectorIhSaIhEE14_M_fill_insertEN9__gnu_cxx17__normal_iteratorIPhS1_EEmRKh+0x20e>
  4102fd:	49 39 dd             	cmp    %rbx,%r13
  410300:	48 89 d8             	mov    %rbx,%rax
  410303:	49 89 f7             	mov    %rsi,%r15
  410306:	49 0f 43 c5          	cmovae %r13,%rax
  41030a:	49 29 d7             	sub    %rdx,%r15
  41030d:	49 c7 c6 ff ff ff ff 	mov    $0xffffffffffffffff,%r14
  410314:	49 01 c5             	add    %rax,%r13
  410317:	0f 82 2b 01 00 00    	jb     410448 <_ZNSt6vectorIhSaIhEE14_M_fill_insertEN9__gnu_cxx17__normal_iteratorIPhS1_EEmRKh+0x1a8>
  41031d:	4d 85 ed             	test   %r13,%r13
  410320:	0f 85 1b 01 00 00    	jne    410441 <_ZNSt6vectorIhSaIhEE14_M_fill_insertEN9__gnu_cxx17__normal_iteratorIPhS1_EEmRKh+0x1a1>
  410326:	45 31 f6             	xor    %r14d,%r14d
  410329:	45 31 ed             	xor    %r13d,%r13d
  41032c:	0f b6 31             	movzbl (%rcx),%esi
  41032f:	4b 8d 7c 3d 00       	lea    0x0(%r13,%r15,1),%rdi
  410334:	48 89 da             	mov    %rbx,%rdx
  410337:	45 31 ff             	xor    %r15d,%r15d
  41033a:	e8 c1 90 ff ff       	callq  409400 <memset@plt>
  41033f:	48 8b 75 00          	mov    0x0(%rbp),%rsi
  410343:	4c 89 e0             	mov    %r12,%rax
  410346:	48 29 f0             	sub    %rsi,%rax
  410349:	74 0e                	je     410359 <_ZNSt6vectorIhSaIhEE14_M_fill_insertEN9__gnu_cxx17__normal_iteratorIPhS1_EEmRKh+0xb9>
  41034b:	48 89 c2             	mov    %rax,%rdx
  41034e:	4c 89 ef             	mov    %r13,%rdi
  410351:	49 89 c7             	mov    %rax,%r15
  410354:	e8 57 93 ff ff       	callq  4096b0 <memmove@plt>
  410359:	48 8b 45 08          	mov    0x8(%rbp),%rax
  41035d:	4d 01 ef             	add    %r13,%r15
  410360:	4c 01 fb             	add    %r15,%rbx
  410363:	45 31 ff             	xor    %r15d,%r15d
  410366:	4c 29 e0             	sub    %r12,%rax
  410369:	74 11                	je     41037c <_ZNSt6vectorIhSaIhEE14_M_fill_insertEN9__gnu_cxx17__normal_iteratorIPhS1_EEmRKh+0xdc>
  41036b:	48 89 c2             	mov    %rax,%rdx
  41036e:	4c 89 e6             	mov    %r12,%rsi
  410371:	48 89 df             	mov    %rbx,%rdi
  410374:	49 89 c7             	mov    %rax,%r15
  410377:	e8 34 93 ff ff       	callq  4096b0 <memmove@plt>
  41037c:	48 8b 7d 00          	mov    0x0(%rbp),%rdi
  410380:	4c 01 fb             	add    %r15,%rbx
  410383:	48 85 ff             	test   %rdi,%rdi
  410386:	74 05                	je     41038d <_ZNSt6vectorIhSaIhEE14_M_fill_insertEN9__gnu_cxx17__normal_iteratorIPhS1_EEmRKh+0xed>
  410388:	e8 63 91 ff ff       	callq  4094f0 <_ZdlPv@plt>
  41038d:	4c 89 6d 00          	mov    %r13,0x0(%rbp)
  410391:	4d 01 f5             	add    %r14,%r13
  410394:	48 89 5d 08          	mov    %rbx,0x8(%rbp)
  410398:	4c 89 6d 10          	mov    %r13,0x10(%rbp)
  41039c:	48 8b 5c 24 18       	mov    0x18(%rsp),%rbx
  4103a1:	48 8b 6c 24 20       	mov    0x20(%rsp),%rbp
  4103a6:	4c 8b 64 24 28       	mov    0x28(%rsp),%r12
  4103ab:	4c 8b 6c 24 30       	mov    0x30(%rsp),%r13
  4103b0:	4c 8b 74 24 38       	mov    0x38(%rsp),%r14
  4103b5:	4c 8b 7c 24 40       	mov    0x40(%rsp),%r15
  4103ba:	48 83 c4 48          	add    $0x48,%rsp
  4103be:	c3                   	retq   
  4103bf:	90                   	nop
  4103c0:	4d 89 ee             	mov    %r13,%r14
  4103c3:	44 0f b6 39          	movzbl (%rcx),%r15d
  4103c7:	49 29 f6             	sub    %rsi,%r14
  4103ca:	4c 39 f2             	cmp    %r14,%rdx
  4103cd:	0f 83 95 00 00 00    	jae    410468 <_ZNSt6vectorIhSaIhEE14_M_fill_insertEN9__gnu_cxx17__normal_iteratorIPhS1_EEmRKh+0x1c8>
  4103d3:	4d 89 ee             	mov    %r13,%r14
  4103d6:	4c 89 e8             	mov    %r13,%rax
  4103d9:	49 29 d6             	sub    %rdx,%r14
  4103dc:	4c 89 ea             	mov    %r13,%rdx
  4103df:	4c 29 f2             	sub    %r14,%rdx
  4103e2:	74 0f                	je     4103f3 <_ZNSt6vectorIhSaIhEE14_M_fill_insertEN9__gnu_cxx17__normal_iteratorIPhS1_EEmRKh+0x153>
  4103e4:	4c 89 f6             	mov    %r14,%rsi
  4103e7:	4c 89 ef             	mov    %r13,%rdi
  4103ea:	e8 c1 92 ff ff       	callq  4096b0 <memmove@plt>
  4103ef:	48 8b 45 08          	mov    0x8(%rbp),%rax
  4103f3:	48 01 d8             	add    %rbx,%rax
  4103f6:	4d 29 e6             	sub    %r12,%r14
  4103f9:	48 89 45 08          	mov    %rax,0x8(%rbp)
  4103fd:	74 11                	je     410410 <_ZNSt6vectorIhSaIhEE14_M_fill_insertEN9__gnu_cxx17__normal_iteratorIPhS1_EEmRKh+0x170>
  4103ff:	4c 89 ef             	mov    %r13,%rdi
  410402:	4c 89 f2             	mov    %r14,%rdx
  410405:	4c 89 e6             	mov    %r12,%rsi
  410408:	4c 29 f7             	sub    %r14,%rdi
  41040b:	e8 a0 92 ff ff       	callq  4096b0 <memmove@plt>
  410410:	48 89 da             	mov    %rbx,%rdx
  410413:	41 0f b6 f7          	movzbl %r15b,%esi
  410417:	4c 89 e7             	mov    %r12,%rdi
  41041a:	48 8b 5c 24 18       	mov    0x18(%rsp),%rbx
  41041f:	48 8b 6c 24 20       	mov    0x20(%rsp),%rbp
  410424:	4c 8b 64 24 28       	mov    0x28(%rsp),%r12
  410429:	4c 8b 6c 24 30       	mov    0x30(%rsp),%r13
  41042e:	4c 8b 74 24 38       	mov    0x38(%rsp),%r14
  410433:	4c 8b 7c 24 40       	mov    0x40(%rsp),%r15
  410438:	48 83 c4 48          	add    $0x48,%rsp
  41043c:	e9 bf 8f ff ff       	jmpq   409400 <memset@plt>
  410441:	4d 89 ee             	mov    %r13,%r14
  410444:	0f 1f 40 00          	nopl   0x0(%rax)
  410448:	4c 89 f7             	mov    %r14,%rdi
  41044b:	48 89 4c 24 08       	mov    %rcx,0x8(%rsp)
  410450:	e8 cb 90 ff ff       	callq  409520 <_Znwm@plt>
  410455:	48 8b 4c 24 08       	mov    0x8(%rsp),%rcx
  41045a:	49 89 c5             	mov    %rax,%r13
  41045d:	e9 ca fe ff ff       	jmpq   41032c <_ZNSt6vectorIhSaIhEE14_M_fill_insertEN9__gnu_cxx17__normal_iteratorIPhS1_EEmRKh+0x8c>
  410462:	66 0f 1f 44 00 00    	nopw   0x0(%rax,%rax,1)
  410468:	4c 29 f3             	sub    %r14,%rbx
  41046b:	45 0f b6 ff          	movzbl %r15b,%r15d
  41046f:	4c 89 ef             	mov    %r13,%rdi
  410472:	48 89 da             	mov    %rbx,%rdx
  410475:	44 89 fe             	mov    %r15d,%esi
  410478:	e8 83 8f ff ff       	callq  409400 <memset@plt>
  41047d:	48 8b 7d 08          	mov    0x8(%rbp),%rdi
  410481:	48 01 df             	add    %rbx,%rdi
  410484:	4d 85 f6             	test   %r14,%r14
  410487:	48 89 7d 08          	mov    %rdi,0x8(%rbp)
  41048b:	74 0f                	je     41049c <_ZNSt6vectorIhSaIhEE14_M_fill_insertEN9__gnu_cxx17__normal_iteratorIPhS1_EEmRKh+0x1fc>
  41048d:	4c 89 f2             	mov    %r14,%rdx
  410490:	4c 89 e6             	mov    %r12,%rsi
  410493:	e8 18 92 ff ff       	callq  4096b0 <memmove@plt>
  410498:	48 8b 7d 08          	mov    0x8(%rbp),%rdi
  41049c:	4c 01 f7             	add    %r14,%rdi
  41049f:	4c 89 f2             	mov    %r14,%rdx
  4104a2:	44 89 fe             	mov    %r15d,%esi
  4104a5:	48 89 7d 08          	mov    %rdi,0x8(%rbp)
  4104a9:	e9 69 ff ff ff       	jmpq   410417 <_ZNSt6vectorIhSaIhEE14_M_fill_insertEN9__gnu_cxx17__normal_iteratorIPhS1_EEmRKh+0x177>
  4104ae:	bf 1a 2e 41 00       	mov    $0x412e1a,%edi
  4104b3:	e8 28 8f ff ff       	callq  4093e0 <_ZSt20__throw_length_errorPKc@plt>
  4104b8:	90                   	nop
  4104b9:	90                   	nop
  4104ba:	90                   	nop
  4104bb:	90                   	nop
  4104bc:	90                   	nop
  4104bd:	90                   	nop
  4104be:	90                   	nop
  4104bf:	90                   	nop

00000000004104c0 <_ZN11sensor_msgs16CompressedImage_ISaIvEE11deserializeEPh>:
  4104c0:	41 56                	push   %r14
  4104c2:	41 55                	push   %r13
  4104c4:	41 54                	push   %r12
  4104c6:	49 89 f4             	mov    %rsi,%r12
  4104c9:	55                   	push   %rbp
  4104ca:	48 8d ae 00 ca 9a 3b 	lea    0x3b9aca00(%rsi),%rbp
  4104d1:	53                   	push   %rbx
  4104d2:	48 89 fb             	mov    %rdi,%rbx
  4104d5:	48 83 ec 30          	sub    $0x30,%rsp
  4104d9:	8b 06                	mov    (%rsi),%eax
  4104db:	89 47 10             	mov    %eax,0x10(%rdi)
  4104de:	48 8d 46 08          	lea    0x8(%rsi),%rax
  4104e2:	48 39 c5             	cmp    %rax,%rbp
  4104e5:	73 05                	jae    4104ec <_ZN11sensor_msgs16CompressedImage_ISaIvEE11deserializeEPh+0x2c>
  4104e7:	e8 f4 8f ff ff       	callq  4094e0 <_ZN3ros13serialization18throwStreamOverrunEv@plt>
  4104ec:	41 8b 44 24 04       	mov    0x4(%r12),%eax
  4104f1:	89 43 14             	mov    %eax,0x14(%rbx)
  4104f4:	49 8d 44 24 0c       	lea    0xc(%r12),%rax
  4104f9:	48 39 c5             	cmp    %rax,%rbp
  4104fc:	73 05                	jae    410503 <_ZN11sensor_msgs16CompressedImage_ISaIvEE11deserializeEPh+0x43>
  4104fe:	e8 dd 8f ff ff       	callq  4094e0 <_ZN3ros13serialization18throwStreamOverrunEv@plt>
  410503:	41 8b 44 24 08       	mov    0x8(%r12),%eax
  410508:	4d 8d 6c 24 10       	lea    0x10(%r12),%r13
  41050d:	4c 8d 73 20          	lea    0x20(%rbx),%r14
  410511:	4c 39 ed             	cmp    %r13,%rbp
  410514:	89 43 18             	mov    %eax,0x18(%rbx)
  410517:	73 05                	jae    41051e <_ZN11sensor_msgs16CompressedImage_ISaIvEE11deserializeEPh+0x5e>
  410519:	e8 c2 8f ff ff       	callq  4094e0 <_ZN3ros13serialization18throwStreamOverrunEv@plt>
  41051e:	41 8b 54 24 0c       	mov    0xc(%r12),%edx
  410523:	85 d2                	test   %edx,%edx
  410525:	0f 84 8d 01 00 00    	je     4106b8 <_ZN11sensor_msgs16CompressedImage_ISaIvEE11deserializeEPh+0x1f8>
  41052b:	4d 8d 64 15 00       	lea    0x0(%r13,%rdx,1),%r12
  410530:	4c 39 e5             	cmp    %r12,%rbp
  410533:	0f 82 47 01 00 00    	jb     410680 <_ZN11sensor_msgs16CompressedImage_ISaIvEE11deserializeEPh+0x1c0>
  410539:	48 8d 7c 24 10       	lea    0x10(%rsp),%rdi
  41053e:	48 8d 4c 24 2c       	lea    0x2c(%rsp),%rcx
  410543:	4c 89 ee             	mov    %r13,%rsi
  410546:	e8 85 8e ff ff       	callq  4093d0 <_ZNSsC1EPKcmRKSaIcE@plt>
  41054b:	48 8d 74 24 10       	lea    0x10(%rsp),%rsi
  410550:	4c 89 f7             	mov    %r14,%rdi
  410553:	e8 88 90 ff ff       	callq  4095e0 <_ZNSs6assignERKSs@plt>
  410558:	48 8b 44 24 10       	mov    0x10(%rsp),%rax
  41055d:	48 8d 78 e8          	lea    -0x18(%rax),%rdi
  410561:	48 81 ff 00 77 61 00 	cmp    $0x617700,%rdi
  410568:	0f 85 77 01 00 00    	jne    4106e5 <_ZN11sensor_msgs16CompressedImage_ISaIvEE11deserializeEPh+0x225>
  41056e:	4d 8d 6c 24 04       	lea    0x4(%r12),%r13
  410573:	4c 8d 73 38          	lea    0x38(%rbx),%r14
  410577:	4c 39 ed             	cmp    %r13,%rbp
  41057a:	73 05                	jae    410581 <_ZN11sensor_msgs16CompressedImage_ISaIvEE11deserializeEPh+0xc1>
  41057c:	e8 5f 8f ff ff       	callq  4094e0 <_ZN3ros13serialization18throwStreamOverrunEv@plt>
  410581:	41 8b 14 24          	mov    (%r12),%edx
  410585:	85 d2                	test   %edx,%edx
  410587:	0f 84 0b 01 00 00    	je     410698 <_ZN11sensor_msgs16CompressedImage_ISaIvEE11deserializeEPh+0x1d8>
  41058d:	4d 8d 64 15 00       	lea    0x0(%r13,%rdx,1),%r12
  410592:	4c 39 e5             	cmp    %r12,%rbp
  410595:	0f 82 cd 00 00 00    	jb     410668 <_ZN11sensor_msgs16CompressedImage_ISaIvEE11deserializeEPh+0x1a8>
  41059b:	48 8d 7c 24 20       	lea    0x20(%rsp),%rdi
  4105a0:	48 8d 4c 24 2e       	lea    0x2e(%rsp),%rcx
  4105a5:	4c 89 ee             	mov    %r13,%rsi
  4105a8:	e8 23 8e ff ff       	callq  4093d0 <_ZNSsC1EPKcmRKSaIcE@plt>
  4105ad:	48 8d 74 24 20       	lea    0x20(%rsp),%rsi
  4105b2:	4c 89 f7             	mov    %r14,%rdi
  4105b5:	e8 26 90 ff ff       	callq  4095e0 <_ZNSs6assignERKSs@plt>
  4105ba:	48 8b 44 24 20       	mov    0x20(%rsp),%rax
  4105bf:	48 8d 78 e8          	lea    -0x18(%rax),%rdi
  4105c3:	48 81 ff 00 77 61 00 	cmp    $0x617700,%rdi
  4105ca:	0f 85 3e 01 00 00    	jne    41070e <_ZN11sensor_msgs16CompressedImage_ISaIvEE11deserializeEPh+0x24e>
  4105d0:	4d 8d 6c 24 04       	lea    0x4(%r12),%r13
  4105d5:	4c 39 ed             	cmp    %r13,%rbp
  4105d8:	73 05                	jae    4105df <_ZN11sensor_msgs16CompressedImage_ISaIvEE11deserializeEPh+0x11f>
  4105da:	e8 01 8f ff ff       	callq  4094e0 <_ZN3ros13serialization18throwStreamOverrunEv@plt>
  4105df:	48 8b 73 48          	mov    0x48(%rbx),%rsi
  4105e3:	45 8b 34 24          	mov    (%r12),%r14d
  4105e7:	48 8b 43 40          	mov    0x40(%rbx),%rax
  4105eb:	c6 44 24 2b 00       	movb   $0x0,0x2b(%rsp)
  4105f0:	48 89 f2             	mov    %rsi,%rdx
  4105f3:	45 89 f4             	mov    %r14d,%r12d
  4105f6:	48 29 c2             	sub    %rax,%rdx
  4105f9:	49 39 d4             	cmp    %rdx,%r12
  4105fc:	77 4a                	ja     410648 <_ZN11sensor_msgs16CompressedImage_ISaIvEE11deserializeEPh+0x188>
  4105fe:	72 38                	jb     410638 <_ZN11sensor_msgs16CompressedImage_ISaIvEE11deserializeEPh+0x178>
  410600:	45 85 f6             	test   %r14d,%r14d
  410603:	74 20                	je     410625 <_ZN11sensor_msgs16CompressedImage_ISaIvEE11deserializeEPh+0x165>
  410605:	4f 8d 74 25 00       	lea    0x0(%r13,%r12,1),%r14
  41060a:	4c 39 f5             	cmp    %r14,%rbp
  41060d:	0f 82 c5 00 00 00    	jb     4106d8 <_ZN11sensor_msgs16CompressedImage_ISaIvEE11deserializeEPh+0x218>
  410613:	48 8b 7b 40          	mov    0x40(%rbx),%rdi
  410617:	4c 89 ee             	mov    %r13,%rsi
  41061a:	4c 89 e2             	mov    %r12,%rdx
  41061d:	4d 89 f5             	mov    %r14,%r13
  410620:	e8 eb 90 ff ff       	callq  409710 <memcpy@plt>
  410625:	48 83 c4 30          	add    $0x30,%rsp
  410629:	4c 89 e8             	mov    %r13,%rax
  41062c:	5b                   	pop    %rbx
  41062d:	5d                   	pop    %rbp
  41062e:	41 5c                	pop    %r12
  410630:	41 5d                	pop    %r13
  410632:	41 5e                	pop    %r14
  410634:	c3                   	retq   
  410635:	0f 1f 00             	nopl   (%rax)
  410638:	4c 01 e0             	add    %r12,%rax
  41063b:	48 89 43 48          	mov    %rax,0x48(%rbx)
  41063f:	eb bf                	jmp    410600 <_ZN11sensor_msgs16CompressedImage_ISaIvEE11deserializeEPh+0x140>
  410641:	0f 1f 80 00 00 00 00 	nopl   0x0(%rax)
  410648:	4c 89 e0             	mov    %r12,%rax
  41064b:	48 8d 7b 40          	lea    0x40(%rbx),%rdi
  41064f:	48 8d 4c 24 2b       	lea    0x2b(%rsp),%rcx
  410654:	48 29 d0             	sub    %rdx,%rax
  410657:	48 89 c2             	mov    %rax,%rdx
  41065a:	e8 41 fc ff ff       	callq  4102a0 <_ZNSt6vectorIhSaIhEE14_M_fill_insertEN9__gnu_cxx17__normal_iteratorIPhS1_EEmRKh>
  41065f:	eb 9f                	jmp    410600 <_ZN11sensor_msgs16CompressedImage_ISaIvEE11deserializeEPh+0x140>
  410661:	0f 1f 80 00 00 00 00 	nopl   0x0(%rax)
  410668:	48 89 54 24 08       	mov    %rdx,0x8(%rsp)
  41066d:	e8 6e 8e ff ff       	callq  4094e0 <_ZN3ros13serialization18throwStreamOverrunEv@plt>
  410672:	48 8b 54 24 08       	mov    0x8(%rsp),%rdx
  410677:	e9 1f ff ff ff       	jmpq   41059b <_ZN11sensor_msgs16CompressedImage_ISaIvEE11deserializeEPh+0xdb>
  41067c:	0f 1f 40 00          	nopl   0x0(%rax)
  410680:	48 89 54 24 08       	mov    %rdx,0x8(%rsp)
  410685:	e8 56 8e ff ff       	callq  4094e0 <_ZN3ros13serialization18throwStreamOverrunEv@plt>
  41068a:	48 8b 54 24 08       	mov    0x8(%rsp),%rdx
  41068f:	e9 a5 fe ff ff       	jmpq   410539 <_ZN11sensor_msgs16CompressedImage_ISaIvEE11deserializeEPh+0x79>
  410694:	0f 1f 40 00          	nopl   0x0(%rax)
  410698:	48 8b 43 38          	mov    0x38(%rbx),%rax
  41069c:	31 c9                	xor    %ecx,%ecx
  41069e:	31 f6                	xor    %esi,%esi
  4106a0:	4c 89 f7             	mov    %r14,%rdi
  4106a3:	4d 89 ec             	mov    %r13,%r12
  4106a6:	48 8b 50 e8          	mov    -0x18(%rax),%rdx
  4106aa:	e8 41 8f ff ff       	callq  4095f0 <_ZNSs9_M_mutateEmmm@plt>
  4106af:	e9 1c ff ff ff       	jmpq   4105d0 <_ZN11sensor_msgs16CompressedImage_ISaIvEE11deserializeEPh+0x110>
  4106b4:	0f 1f 40 00          	nopl   0x0(%rax)
  4106b8:	48 8b 43 20          	mov    0x20(%rbx),%rax
  4106bc:	31 c9                	xor    %ecx,%ecx
  4106be:	31 f6                	xor    %esi,%esi
  4106c0:	4c 89 f7             	mov    %r14,%rdi
  4106c3:	4d 89 ec             	mov    %r13,%r12
  4106c6:	48 8b 50 e8          	mov    -0x18(%rax),%rdx
  4106ca:	e8 21 8f ff ff       	callq  4095f0 <_ZNSs9_M_mutateEmmm@plt>
  4106cf:	e9 9a fe ff ff       	jmpq   41056e <_ZN11sensor_msgs16CompressedImage_ISaIvEE11deserializeEPh+0xae>
  4106d4:	0f 1f 40 00          	nopl   0x0(%rax)
  4106d8:	e8 03 8e ff ff       	callq  4094e0 <_ZN3ros13serialization18throwStreamOverrunEv@plt>
  4106dd:	0f 1f 00             	nopl   (%rax)
  4106e0:	e9 2e ff ff ff       	jmpq   410613 <_ZN11sensor_msgs16CompressedImage_ISaIvEE11deserializeEPh+0x153>
  4106e5:	ba 80 92 40 00       	mov    $0x409280,%edx
  4106ea:	48 85 d2             	test   %rdx,%rdx
  4106ed:	74 7d                	je     41076c <_ZN11sensor_msgs16CompressedImage_ISaIvEE11deserializeEPh+0x2ac>
  4106ef:	83 ca ff             	or     $0xffffffff,%edx
  4106f2:	f0 0f c1 50 f8       	lock xadd %edx,-0x8(%rax)
  4106f7:	85 d2                	test   %edx,%edx
  4106f9:	0f 8f 6f fe ff ff    	jg     41056e <_ZN11sensor_msgs16CompressedImage_ISaIvEE11deserializeEPh+0xae>
  4106ff:	48 8d 74 24 2d       	lea    0x2d(%rsp),%rsi
  410704:	e8 87 8d ff ff       	callq  409490 <_ZNSs4_Rep10_M_destroyERKSaIcE@plt>
  410709:	e9 60 fe ff ff       	jmpq   41056e <_ZN11sensor_msgs16CompressedImage_ISaIvEE11deserializeEPh+0xae>
  41070e:	ba 80 92 40 00       	mov    $0x409280,%edx
  410713:	48 85 d2             	test   %rdx,%rdx
  410716:	74 34                	je     41074c <_ZN11sensor_msgs16CompressedImage_ISaIvEE11deserializeEPh+0x28c>
  410718:	83 ca ff             	or     $0xffffffff,%edx
  41071b:	f0 0f c1 50 f8       	lock xadd %edx,-0x8(%rax)
  410720:	85 d2                	test   %edx,%edx
  410722:	0f 8f a8 fe ff ff    	jg     4105d0 <_ZN11sensor_msgs16CompressedImage_ISaIvEE11deserializeEPh+0x110>
  410728:	48 8d 74 24 2f       	lea    0x2f(%rsp),%rsi
  41072d:	e8 5e 8d ff ff       	callq  409490 <_ZNSs4_Rep10_M_destroyERKSaIcE@plt>
  410732:	e9 99 fe ff ff       	jmpq   4105d0 <_ZN11sensor_msgs16CompressedImage_ISaIvEE11deserializeEPh+0x110>
  410737:	48 8d 7c 24 20       	lea    0x20(%rsp),%rdi
  41073c:	48 89 c3             	mov    %rax,%rbx
  41073f:	e8 4c 8f ff ff       	callq  409690 <_ZNSsD1Ev@plt>
  410744:	48 89 df             	mov    %rbx,%rdi
  410747:	e8 d4 8f ff ff       	callq  409720 <_Unwind_Resume@plt>
  41074c:	8b 50 f8             	mov    -0x8(%rax),%edx
  41074f:	8d 4a ff             	lea    -0x1(%rdx),%ecx
  410752:	89 48 f8             	mov    %ecx,-0x8(%rax)
  410755:	eb c9                	jmp    410720 <_ZN11sensor_msgs16CompressedImage_ISaIvEE11deserializeEPh+0x260>
  410757:	48 8d 7c 24 10       	lea    0x10(%rsp),%rdi
  41075c:	48 89 c3             	mov    %rax,%rbx
  41075f:	e8 2c 8f ff ff       	callq  409690 <_ZNSsD1Ev@plt>
  410764:	48 89 df             	mov    %rbx,%rdi
  410767:	e8 b4 8f ff ff       	callq  409720 <_Unwind_Resume@plt>
  41076c:	8b 50 f8             	mov    -0x8(%rax),%edx
  41076f:	8d 4a ff             	lea    -0x1(%rdx),%ecx
  410772:	89 48 f8             	mov    %ecx,-0x8(%rax)
  410775:	eb 80                	jmp    4106f7 <_ZN11sensor_msgs16CompressedImage_ISaIvEE11deserializeEPh+0x237>
  410777:	90                   	nop
  410778:	90                   	nop
  410779:	90                   	nop
  41077a:	90                   	nop
  41077b:	90                   	nop
  41077c:	90                   	nop
  41077d:	90                   	nop
  41077e:	90                   	nop
  41077f:	90                   	nop

0000000000410780 <_ZN13SpykeeManagerC1EPcS0_>:
  410780:	55                   	push   %rbp
  410781:	48 89 e5             	mov    %rsp,%rbp
  410784:	41 57                	push   %r15
  410786:	41 56                	push   %r14
  410788:	49 89 fe             	mov    %rdi,%r14
  41078b:	48 8d 7d c0          	lea    -0x40(%rbp),%rdi
  41078f:	41 55                	push   %r13
  410791:	49 89 d5             	mov    %rdx,%r13
  410794:	41 54                	push   %r12
  410796:	53                   	push   %rbx
  410797:	48 89 f3             	mov    %rsi,%rbx
  41079a:	48 81 ec e8 00 00 00 	sub    $0xe8,%rsp
  4107a1:	48 89 a5 00 ff ff ff 	mov    %rsp,-0x100(%rbp)
  4107a8:	e8 53 15 00 00       	callq  411d00 <_ZN9UDPSocketC1Ev>
  4107ad:	48 89 df             	mov    %rbx,%rdi
  4107b0:	c6 45 a0 44          	movb   $0x44,-0x60(%rbp)
  4107b4:	c6 45 a1 53          	movb   $0x53,-0x5f(%rbp)
  4107b8:	c6 45 a2 43          	movb   $0x43,-0x5e(%rbp)
  4107bc:	c6 45 a3 56          	movb   $0x56,-0x5d(%rbp)
  4107c0:	45 31 ff             	xor    %r15d,%r15d
  4107c3:	c6 45 a4 01          	movb   $0x1,-0x5c(%rbp)
  4107c7:	c6 45 b0 50          	movb   $0x50,-0x50(%rbp)
  4107cb:	c6 45 b1 4b          	movb   $0x4b,-0x4f(%rbp)
  4107cf:	c6 45 b2 0a          	movb   $0xa,-0x4e(%rbp)
  4107d3:	c6 45 b3 00          	movb   $0x0,-0x4d(%rbp)
  4107d7:	c6 45 b4 0c          	movb   $0xc,-0x4c(%rbp)
  4107db:	e8 a0 8b ff ff       	callq  409380 <strlen@plt>
  4107e0:	4c 89 ef             	mov    %r13,%rdi
  4107e3:	49 89 c4             	mov    %rax,%r12
  4107e6:	e8 95 8b ff ff       	callq  409380 <strlen@plt>
  4107eb:	49 8d 44 04 20       	lea    0x20(%r12,%rax,1),%rax
  4107f0:	48 c7 45 80 18 77 61 	movq   $0x617718,-0x80(%rbp)
  4107f7:	00 
  4107f8:	31 d2                	xor    %edx,%edx
  4107fa:	48 83 e0 f0          	and    $0xfffffffffffffff0,%rax
  4107fe:	48 29 c4             	sub    %rax,%rsp
  410801:	4c 8d 64 24 0f       	lea    0xf(%rsp),%r12
  410806:	49 83 e4 f0          	and    $0xfffffffffffffff0,%r12
  41080a:	41 c6 04 24 05       	movb   $0x5,(%r12)
  41080f:	eb 16                	jmp    410827 <_ZN13SpykeeManagerC1EPcS0_+0xa7>
  410811:	0f 1f 80 00 00 00 00 	nopl   0x0(%rax)
  410818:	42 0f b6 04 3b       	movzbl (%rbx,%r15,1),%eax
  41081d:	83 c2 01             	add    $0x1,%edx
  410820:	41 89 d7             	mov    %edx,%r15d
  410823:	43 88 04 3c          	mov    %al,(%r12,%r15,1)
  410827:	48 89 df             	mov    %rbx,%rdi
  41082a:	89 95 f8 fe ff ff    	mov    %edx,-0x108(%rbp)
  410830:	e8 4b 8b ff ff       	callq  409380 <strlen@plt>
  410835:	49 39 c7             	cmp    %rax,%r15
  410838:	8b 95 f8 fe ff ff    	mov    -0x108(%rbp),%edx
  41083e:	72 d8                	jb     410818 <_ZN13SpykeeManagerC1EPcS0_+0x98>
  410840:	41 c6 44 04 01 05    	movb   $0x5,0x1(%r12,%rax,1)
  410846:	c7 85 08 ff ff ff 00 	movl   $0x0,-0xf8(%rbp)
  41084d:	00 00 00 
  410850:	eb 23                	jmp    410875 <_ZN13SpykeeManagerC1EPcS0_+0xf5>
  410852:	66 0f 1f 44 00 00    	nopw   0x0(%rax,%rax,1)
  410858:	48 89 df             	mov    %rbx,%rdi
  41085b:	e8 20 8b ff ff       	callq  409380 <strlen@plt>
  410860:	43 0f b6 54 3d 00    	movzbl 0x0(%r13,%r15,1),%edx
  410866:	83 85 08 ff ff ff 01 	addl   $0x1,-0xf8(%rbp)
  41086d:	4d 01 e7             	add    %r12,%r15
  410870:	42 88 54 38 02       	mov    %dl,0x2(%rax,%r15,1)
  410875:	44 8b bd 08 ff ff ff 	mov    -0xf8(%rbp),%r15d
  41087c:	4c 89 ef             	mov    %r13,%rdi
  41087f:	e8 fc 8a ff ff       	callq  409380 <strlen@plt>
  410884:	49 39 c7             	cmp    %rax,%r15
  410887:	72 cf                	jb     410858 <_ZN13SpykeeManagerC1EPcS0_+0xd8>
  410889:	48 8d 55 cd          	lea    -0x33(%rbp),%rdx
  41088d:	48 8d 7d 90          	lea    -0x70(%rbp),%rdi
  410891:	be 32 3f 41 00       	mov    $0x413f32,%esi
  410896:	e8 d5 8c ff ff       	callq  409570 <_ZNSsC1EPKcRKSaIcE@plt>
  41089b:	48 8d 4d 90          	lea    -0x70(%rbp),%rcx
  41089f:	48 8d 75 a0          	lea    -0x60(%rbp),%rsi
  4108a3:	48 8d 7d c0          	lea    -0x40(%rbp),%rdi
  4108a7:	41 b8 28 23 00 00    	mov    $0x2328,%r8d
  4108ad:	ba 05 00 00 00       	mov    $0x5,%edx
  4108b2:	e8 49 15 00 00       	callq  411e00 <_ZN9UDPSocket6sendToEPKviRKSst>
  4108b7:	48 8b 45 90          	mov    -0x70(%rbp),%rax
  4108bb:	48 8d 78 e8          	lea    -0x18(%rax),%rdi
  4108bf:	48 81 ff 00 77 61 00 	cmp    $0x617700,%rdi
  4108c6:	0f 85 bc 01 00 00    	jne    410a88 <_ZN13SpykeeManagerC1EPcS0_+0x308>
  4108cc:	48 8d 45 80          	lea    -0x80(%rbp),%rax
  4108d0:	4c 8d 45 ca          	lea    -0x36(%rbp),%r8
  4108d4:	48 8d b5 10 ff ff ff 	lea    -0xf0(%rbp),%rsi
  4108db:	48 8d 7d c0          	lea    -0x40(%rbp),%rdi
  4108df:	ba 64 00 00 00       	mov    $0x64,%edx
  4108e4:	48 89 c1             	mov    %rax,%rcx
  4108e7:	48 89 85 08 ff ff ff 	mov    %rax,-0xf8(%rbp)
  4108ee:	e8 ed 15 00 00       	callq  411ee0 <_ZN9UDPSocket8recvFromEPviRSsRt>
  4108f3:	85 c0                	test   %eax,%eax
  4108f5:	7e 10                	jle    410907 <_ZN13SpykeeManagerC1EPcS0_+0x187>
  4108f7:	48 8d bd 10 ff ff ff 	lea    -0xf0(%rbp),%rdi
  4108fe:	48 83 c7 07          	add    $0x7,%rdi
  410902:	e8 69 8d ff ff       	callq  409670 <puts@plt>
  410907:	bf 04 00 00 00       	mov    $0x4,%edi
  41090c:	e8 0f 8c ff ff       	callq  409520 <_Znwm@plt>
  410911:	48 8b b5 08 ff ff ff 	mov    -0xf8(%rbp),%rsi
  410918:	ba 28 23 00 00       	mov    $0x2328,%edx
  41091d:	48 89 c7             	mov    %rax,%rdi
  410920:	49 89 c7             	mov    %rax,%r15
  410923:	e8 c8 0f 00 00       	callq  4118f0 <_ZN9TCPSocketC1ERKSst>
  410928:	48 8d 75 b0          	lea    -0x50(%rbp),%rsi
  41092c:	4d 89 3e             	mov    %r15,(%r14)
  41092f:	ba 05 00 00 00       	mov    $0x5,%edx
  410934:	4c 89 ff             	mov    %r15,%rdi
  410937:	e8 b4 0c 00 00       	callq  4115f0 <_ZN19CommunicatingSocket4sendEPKvi>
  41093c:	48 89 df             	mov    %rbx,%rdi
  41093f:	e8 3c 8a ff ff       	callq  409380 <strlen@plt>
  410944:	4c 89 ef             	mov    %r13,%rdi
  410947:	48 89 c3             	mov    %rax,%rbx
  41094a:	e8 31 8a ff ff       	callq  409380 <strlen@plt>
  41094f:	49 8b 3e             	mov    (%r14),%rdi
  410952:	8d 54 03 02          	lea    0x2(%rbx,%rax,1),%edx
  410956:	4c 89 e6             	mov    %r12,%rsi
  410959:	e8 92 0c 00 00       	callq  4115f0 <_ZN19CommunicatingSocket4sendEPKvi>
  41095e:	49 8b 3e             	mov    (%r14),%rdi
  410961:	48 8d b5 10 ff ff ff 	lea    -0xf0(%rbp),%rsi
  410968:	ba 64 00 00 00       	mov    $0x64,%edx
  41096d:	e8 1e 0d 00 00       	callq  411690 <_ZN19CommunicatingSocket4recvEPvi>
  410972:	85 c0                	test   %eax,%eax
  410974:	7e 10                	jle    410986 <_ZN13SpykeeManagerC1EPcS0_+0x206>
  410976:	48 8d bd 10 ff ff ff 	lea    -0xf0(%rbp),%rdi
  41097d:	48 83 c7 07          	add    $0x7,%rdi
  410981:	e8 ea 8c ff ff       	callq  409670 <puts@plt>
  410986:	48 8b 45 80          	mov    -0x80(%rbp),%rax
  41098a:	48 8d 78 e8          	lea    -0x18(%rax),%rdi
  41098e:	48 81 ff 00 77 61 00 	cmp    $0x617700,%rdi
  410995:	75 2d                	jne    4109c4 <_ZN13SpykeeManagerC1EPcS0_+0x244>
  410997:	48 8d 7d c0          	lea    -0x40(%rbp),%rdi
  41099b:	e8 c0 07 00 00       	callq  411160 <_ZN6SocketD1Ev>
  4109a0:	48 8d 65 d8          	lea    -0x28(%rbp),%rsp
  4109a4:	5b                   	pop    %rbx
  4109a5:	41 5c                	pop    %r12
  4109a7:	41 5d                	pop    %r13
  4109a9:	41 5e                	pop    %r14
  4109ab:	41 5f                	pop    %r15
  4109ad:	5d                   	pop    %rbp
  4109ae:	c3                   	retq   
  4109af:	48 89 c7             	mov    %rax,%rdi
  4109b2:	48 83 fa ff          	cmp    $0xffffffffffffffff,%rdx
  4109b6:	48 8b a5 00 ff ff ff 	mov    -0x100(%rbp),%rsp
  4109bd:	74 65                	je     410a24 <_ZN13SpykeeManagerC1EPcS0_+0x2a4>
  4109bf:	e8 5c 8d ff ff       	callq  409720 <_Unwind_Resume@plt>
  4109c4:	ba 80 92 40 00       	mov    $0x409280,%edx
  4109c9:	48 85 d2             	test   %rdx,%rdx
  4109cc:	74 5b                	je     410a29 <_ZN13SpykeeManagerC1EPcS0_+0x2a9>
  4109ce:	ba ff ff ff ff       	mov    $0xffffffff,%edx
  4109d3:	f0 0f c1 50 f8       	lock xadd %edx,-0x8(%rax)
  4109d8:	85 d2                	test   %edx,%edx
  4109da:	7f bb                	jg     410997 <_ZN13SpykeeManagerC1EPcS0_+0x217>
  4109dc:	48 8d 75 cf          	lea    -0x31(%rbp),%rsi
  4109e0:	e8 ab 8a ff ff       	callq  409490 <_ZNSs4_Rep10_M_destroyERKSaIcE@plt>
  4109e5:	eb b0                	jmp    410997 <_ZN13SpykeeManagerC1EPcS0_+0x217>
  4109e7:	48 89 c3             	mov    %rax,%rbx
  4109ea:	49 89 d4             	mov    %rdx,%r12
  4109ed:	4c 89 ff             	mov    %r15,%rdi
  4109f0:	e8 fb 8a ff ff       	callq  4094f0 <_ZdlPv@plt>
  4109f5:	48 89 d8             	mov    %rbx,%rax
  4109f8:	4c 89 e2             	mov    %r12,%rdx
  4109fb:	48 83 fa 02          	cmp    $0x2,%rdx
  4109ff:	49 89 c4             	mov    %rax,%r12
  410a02:	48 89 d3             	mov    %rdx,%rbx
  410a05:	74 2d                	je     410a34 <_ZN13SpykeeManagerC1EPcS0_+0x2b4>
  410a07:	48 8b bd 08 ff ff ff 	mov    -0xf8(%rbp),%rdi
  410a0e:	e8 7d 8c ff ff       	callq  409690 <_ZNSsD1Ev@plt>
  410a13:	48 8d 7d c0          	lea    -0x40(%rbp),%rdi
  410a17:	e8 44 07 00 00       	callq  411160 <_ZN6SocketD1Ev>
  410a1c:	4c 89 e7             	mov    %r12,%rdi
  410a1f:	48 89 da             	mov    %rbx,%rdx
  410a22:	eb 8e                	jmp    4109b2 <_ZN13SpykeeManagerC1EPcS0_+0x232>
  410a24:	e8 97 8b ff ff       	callq  4095c0 <__cxa_call_unexpected@plt>
  410a29:	8b 50 f8             	mov    -0x8(%rax),%edx
  410a2c:	8d 4a ff             	lea    -0x1(%rdx),%ecx
  410a2f:	89 48 f8             	mov    %ecx,-0x8(%rax)
  410a32:	eb a4                	jmp    4109d8 <_ZN13SpykeeManagerC1EPcS0_+0x258>
  410a34:	48 89 c7             	mov    %rax,%rdi
  410a37:	e8 34 89 ff ff       	callq  409370 <__cxa_begin_catch@plt>
  410a3c:	bf 08 00 00 00       	mov    $0x8,%edi
  410a41:	e8 6a 89 ff ff       	callq  4093b0 <__cxa_allocate_exception@plt>
  410a46:	ba 70 0e 41 00       	mov    $0x410e70,%edx
  410a4b:	48 c7 00 70 3f 41 00 	movq   $0x413f70,(%rax)
  410a52:	be 90 3f 41 00       	mov    $0x413f90,%esi
  410a57:	48 89 c7             	mov    %rax,%rdi
  410a5a:	e8 a1 8c ff ff       	callq  409700 <__cxa_throw@plt>
  410a5f:	eb 9a                	jmp    4109fb <_ZN13SpykeeManagerC1EPcS0_+0x27b>
  410a61:	48 8d 7d 90          	lea    -0x70(%rbp),%rdi
  410a65:	48 89 c3             	mov    %rax,%rbx
  410a68:	49 89 d4             	mov    %rdx,%r12
  410a6b:	e8 20 8c ff ff       	callq  409690 <_ZNSsD1Ev@plt>
  410a70:	48 89 d8             	mov    %rbx,%rax
  410a73:	4c 89 e2             	mov    %r12,%rdx
  410a76:	48 8d 4d 80          	lea    -0x80(%rbp),%rcx
  410a7a:	48 89 8d 08 ff ff ff 	mov    %rcx,-0xf8(%rbp)
  410a81:	e9 75 ff ff ff       	jmpq   4109fb <_ZN13SpykeeManagerC1EPcS0_+0x27b>
  410a86:	eb ee                	jmp    410a76 <_ZN13SpykeeManagerC1EPcS0_+0x2f6>
  410a88:	ba 80 92 40 00       	mov    $0x409280,%edx
  410a8d:	48 85 d2             	test   %rdx,%rdx
  410a90:	74 30                	je     410ac2 <_ZN13SpykeeManagerC1EPcS0_+0x342>
  410a92:	ba ff ff ff ff       	mov    $0xffffffff,%edx
  410a97:	f0 0f c1 50 f8       	lock xadd %edx,-0x8(%rax)
  410a9c:	85 d2                	test   %edx,%edx
  410a9e:	0f 8f 28 fe ff ff    	jg     4108cc <_ZN13SpykeeManagerC1EPcS0_+0x14c>
  410aa4:	48 8d 75 ce          	lea    -0x32(%rbp),%rsi
  410aa8:	e8 e3 89 ff ff       	callq  409490 <_ZNSs4_Rep10_M_destroyERKSaIcE@plt>
  410aad:	e9 1a fe ff ff       	jmpq   4108cc <_ZN13SpykeeManagerC1EPcS0_+0x14c>
  410ab2:	49 89 c4             	mov    %rax,%r12
  410ab5:	48 89 d3             	mov    %rdx,%rbx
  410ab8:	e8 03 8c ff ff       	callq  4096c0 <__cxa_end_catch@plt>
  410abd:	e9 45 ff ff ff       	jmpq   410a07 <_ZN13SpykeeManagerC1EPcS0_+0x287>
  410ac2:	8b 50 f8             	mov    -0x8(%rax),%edx
  410ac5:	8d 4a ff             	lea    -0x1(%rdx),%ecx
  410ac8:	89 48 f8             	mov    %ecx,-0x8(%rax)
  410acb:	eb cf                	jmp    410a9c <_ZN13SpykeeManagerC1EPcS0_+0x31c>
  410acd:	90                   	nop
  410ace:	66 90                	xchg   %ax,%ax

0000000000410ad0 <_ZN13SpykeeManager11startCameraEv>:
  410ad0:	53                   	push   %rbx
  410ad1:	48 89 fb             	mov    %rdi,%rbx
  410ad4:	ba 05 00 00 00       	mov    $0x5,%edx
  410ad9:	48 83 ec 20          	sub    $0x20,%rsp
  410add:	48 8b 3f             	mov    (%rdi),%rdi
  410ae0:	48 8d 74 24 10       	lea    0x10(%rsp),%rsi
  410ae5:	c6 44 24 10 50       	movb   $0x50,0x10(%rsp)
  410aea:	c6 44 24 11 4b       	movb   $0x4b,0x11(%rsp)
  410aef:	c6 44 24 12 0f       	movb   $0xf,0x12(%rsp)
  410af4:	c6 44 24 13 00       	movb   $0x0,0x13(%rsp)
  410af9:	c6 44 24 14 02       	movb   $0x2,0x14(%rsp)
  410afe:	c6 04 24 01          	movb   $0x1,(%rsp)
  410b02:	c6 44 24 01 01       	movb   $0x1,0x1(%rsp)
  410b07:	c6 44 24 02 50       	movb   $0x50,0x2(%rsp)
  410b0c:	c6 44 24 03 4b       	movb   $0x4b,0x3(%rsp)
  410b11:	c6 44 24 04 0f       	movb   $0xf,0x4(%rsp)
  410b16:	c6 44 24 05 00       	movb   $0x0,0x5(%rsp)
  410b1b:	c6 44 24 06 02       	movb   $0x2,0x6(%rsp)
  410b20:	c6 44 24 07 02       	movb   $0x2,0x7(%rsp)
  410b25:	c6 44 24 08 01       	movb   $0x1,0x8(%rsp)
  410b2a:	e8 c1 0a 00 00       	callq  4115f0 <_ZN19CommunicatingSocket4sendEPKvi>
  410b2f:	48 8b 3b             	mov    (%rbx),%rdi
  410b32:	48 89 e6             	mov    %rsp,%rsi
  410b35:	ba 09 00 00 00       	mov    $0x9,%edx
  410b3a:	e8 b1 0a 00 00       	callq  4115f0 <_ZN19CommunicatingSocket4sendEPKvi>
  410b3f:	48 83 c4 20          	add    $0x20,%rsp
  410b43:	5b                   	pop    %rbx
  410b44:	c3                   	retq   
  410b45:	90                   	nop
  410b46:	66 2e 0f 1f 84 00 00 	nopw   %cs:0x0(%rax,%rax,1)
  410b4d:	00 00 00 

0000000000410b50 <_ZN13SpykeeManager8getImageEv>:
  410b50:	41 57                	push   %r15
  410b52:	ba 10 27 00 00       	mov    $0x2710,%edx
  410b57:	41 56                	push   %r14
  410b59:	41 55                	push   %r13
  410b5b:	49 89 fd             	mov    %rdi,%r13
  410b5e:	41 54                	push   %r12
  410b60:	55                   	push   %rbp
  410b61:	bd 10 27 00 00       	mov    $0x2710,%ebp
  410b66:	53                   	push   %rbx
  410b67:	48 81 ec 28 27 00 00 	sub    $0x2728,%rsp
  410b6e:	48 8b 3f             	mov    (%rdi),%rdi
  410b71:	48 8d 74 24 10       	lea    0x10(%rsp),%rsi
  410b76:	4c 8d 74 24 14       	lea    0x14(%rsp),%r14
  410b7b:	e8 10 0b 00 00       	callq  411690 <_ZN19CommunicatingSocket4recvEPvi>
  410b80:	3d 10 27 00 00       	cmp    $0x2710,%eax
  410b85:	0f 4e e8             	cmovle %eax,%ebp
  410b88:	45 31 e4             	xor    %r12d,%r12d
  410b8b:	45 31 ff             	xor    %r15d,%r15d
  410b8e:	31 c9                	xor    %ecx,%ecx
  410b90:	80 7c 24 10 50       	cmpb   $0x50,0x10(%rsp)
  410b95:	74 43                	je     410bda <_ZN13SpykeeManager8getImageEv+0x8a>
  410b97:	83 f9 02             	cmp    $0x2,%ecx
  410b9a:	0f 84 ac 01 00 00    	je     410d4c <_ZN13SpykeeManager8getImageEv+0x1fc>
  410ba0:	49 8b 7d 00          	mov    0x0(%r13),%rdi
  410ba4:	48 8d 74 24 10       	lea    0x10(%rsp),%rsi
  410ba9:	ba 10 27 00 00       	mov    $0x2710,%edx
  410bae:	89 4c 24 08          	mov    %ecx,0x8(%rsp)
  410bb2:	bd 10 27 00 00       	mov    $0x2710,%ebp
  410bb7:	e8 d4 0a 00 00       	callq  411690 <_ZN19CommunicatingSocket4recvEPvi>
  410bbc:	8b 4c 24 08          	mov    0x8(%rsp),%ecx
  410bc0:	3d 10 27 00 00       	cmp    $0x2710,%eax
  410bc5:	0f 4e e8             	cmovle %eax,%ebp
  410bc8:	83 f9 01             	cmp    $0x1,%ecx
  410bcb:	0f 84 0f 01 00 00    	je     410ce0 <_ZN13SpykeeManager8getImageEv+0x190>
  410bd1:	31 c9                	xor    %ecx,%ecx
  410bd3:	80 7c 24 10 50       	cmpb   $0x50,0x10(%rsp)
  410bd8:	75 bd                	jne    410b97 <_ZN13SpykeeManager8getImageEv+0x47>
  410bda:	80 7c 24 11 4b       	cmpb   $0x4b,0x11(%rsp)
  410bdf:	75 b6                	jne    410b97 <_ZN13SpykeeManager8getImageEv+0x47>
  410be1:	85 c9                	test   %ecx,%ecx
  410be3:	75 b2                	jne    410b97 <_ZN13SpykeeManager8getImageEv+0x47>
  410be5:	80 7c 24 12 02       	cmpb   $0x2,0x12(%rsp)
  410bea:	75 ab                	jne    410b97 <_ZN13SpykeeManager8getImageEv+0x47>
  410bec:	0f b6 44 24 13       	movzbl 0x13(%rsp),%eax
  410bf1:	44 0f b6 64 24 14    	movzbl 0x14(%rsp),%r12d
  410bf7:	bf 18 00 00 00       	mov    $0x18,%edi
  410bfc:	c1 e0 08             	shl    $0x8,%eax
  410bff:	41 01 c4             	add    %eax,%r12d
  410c02:	45 89 e7             	mov    %r12d,%r15d
  410c05:	e8 16 89 ff ff       	callq  409520 <_Znwm@plt>
  410c0a:	31 ff                	xor    %edi,%edi
  410c0c:	48 89 c3             	mov    %rax,%rbx
  410c0f:	48 c7 00 00 00 00 00 	movq   $0x0,(%rax)
  410c16:	48 c7 40 08 00 00 00 	movq   $0x0,0x8(%rax)
  410c1d:	00 
  410c1e:	48 c7 40 10 00 00 00 	movq   $0x0,0x10(%rax)
  410c25:	00 
  410c26:	31 c0                	xor    %eax,%eax
  410c28:	4d 85 ff             	test   %r15,%r15
  410c2b:	0f 85 43 01 00 00    	jne    410d74 <_ZN13SpykeeManager8getImageEv+0x224>
  410c31:	49 01 ff             	add    %rdi,%r15
  410c34:	31 f6                	xor    %esi,%esi
  410c36:	48 89 3b             	mov    %rdi,(%rbx)
  410c39:	4c 89 fa             	mov    %r15,%rdx
  410c3c:	48 89 7b 08          	mov    %rdi,0x8(%rbx)
  410c40:	4c 89 7b 10          	mov    %r15,0x10(%rbx)
  410c44:	48 29 c2             	sub    %rax,%rdx
  410c47:	e8 b4 87 ff ff       	callq  409400 <memset@plt>
  410c4c:	48 8b 43 10          	mov    0x10(%rbx),%rax
  410c50:	83 fd 05             	cmp    $0x5,%ebp
  410c53:	48 89 43 08          	mov    %rax,0x8(%rbx)
  410c57:	0f 8e 31 01 00 00    	jle    410d8e <_ZN13SpykeeManager8getImageEv+0x23e>
  410c5d:	45 85 e4             	test   %r12d,%r12d
  410c60:	0f 84 28 01 00 00    	je     410d8e <_ZN13SpykeeManager8getImageEv+0x23e>
  410c66:	48 8b 0b             	mov    (%rbx),%rcx
  410c69:	48 39 c1             	cmp    %rax,%rcx
  410c6c:	0f 84 12 01 00 00    	je     410d84 <_ZN13SpykeeManager8getImageEv+0x234>
  410c72:	b8 01 00 00 00       	mov    $0x1,%eax
  410c77:	31 f6                	xor    %esi,%esi
  410c79:	eb 27                	jmp    410ca2 <_ZN13SpykeeManager8getImageEv+0x152>
  410c7b:	0f 1f 44 00 00       	nopl   0x0(%rax,%rax,1)
  410c80:	41 39 c4             	cmp    %eax,%r12d
  410c83:	76 30                	jbe    410cb5 <_ZN13SpykeeManager8getImageEv+0x165>
  410c85:	48 8b 0b             	mov    (%rbx),%rcx
  410c88:	48 8b 53 08          	mov    0x8(%rbx),%rdx
  410c8c:	48 8d 78 01          	lea    0x1(%rax),%rdi
  410c90:	48 29 ca             	sub    %rcx,%rdx
  410c93:	48 39 c2             	cmp    %rax,%rdx
  410c96:	0f 86 e8 00 00 00    	jbe    410d84 <_ZN13SpykeeManager8getImageEv+0x234>
  410c9c:	48 89 c6             	mov    %rax,%rsi
  410c9f:	48 89 f8             	mov    %rdi,%rax
  410ca2:	41 0f b6 14 06       	movzbl (%r14,%rax,1),%edx
  410ca7:	41 89 c7             	mov    %eax,%r15d
  410caa:	88 14 31             	mov    %dl,(%rcx,%rsi,1)
  410cad:	41 8d 57 05          	lea    0x5(%r15),%edx
  410cb1:	39 d5                	cmp    %edx,%ebp
  410cb3:	7f cb                	jg     410c80 <_ZN13SpykeeManager8getImageEv+0x130>
  410cb5:	45 39 fc             	cmp    %r15d,%r12d
  410cb8:	0f 86 8e 00 00 00    	jbe    410d4c <_ZN13SpykeeManager8getImageEv+0x1fc>
  410cbe:	49 8b 7d 00          	mov    0x0(%r13),%rdi
  410cc2:	48 8d 74 24 10       	lea    0x10(%rsp),%rsi
  410cc7:	ba 10 27 00 00       	mov    $0x2710,%edx
  410ccc:	bd 10 27 00 00       	mov    $0x2710,%ebp
  410cd1:	e8 ba 09 00 00       	callq  411690 <_ZN19CommunicatingSocket4recvEPvi>
  410cd6:	3d 10 27 00 00       	cmp    $0x2710,%eax
  410cdb:	0f 4e e8             	cmovle %eax,%ebp
  410cde:	66 90                	xchg   %ax,%ax
  410ce0:	85 ed                	test   %ebp,%ebp
  410ce2:	7e 7d                	jle    410d61 <_ZN13SpykeeManager8getImageEv+0x211>
  410ce4:	45 39 e7             	cmp    %r12d,%r15d
  410ce7:	73 78                	jae    410d61 <_ZN13SpykeeManager8getImageEv+0x211>
  410ce9:	48 8b 33             	mov    (%rbx),%rsi
  410cec:	48 8b 43 08          	mov    0x8(%rbx),%rax
  410cf0:	44 89 f9             	mov    %r15d,%ecx
  410cf3:	48 29 f0             	sub    %rsi,%rax
  410cf6:	48 39 c1             	cmp    %rax,%rcx
  410cf9:	0f 83 85 00 00 00    	jae    410d84 <_ZN13SpykeeManager8getImageEv+0x234>
  410cff:	48 8d 7c 24 10       	lea    0x10(%rsp),%rdi
  410d04:	44 89 f8             	mov    %r15d,%eax
  410d07:	eb 21                	jmp    410d2a <_ZN13SpykeeManager8getImageEv+0x1da>
  410d09:	0f 1f 80 00 00 00 00 	nopl   0x0(%rax)
  410d10:	44 39 e0             	cmp    %r12d,%eax
  410d13:	73 27                	jae    410d3c <_ZN13SpykeeManager8getImageEv+0x1ec>
  410d15:	48 8b 33             	mov    (%rbx),%rsi
  410d18:	48 8b 53 08          	mov    0x8(%rbx),%rdx
  410d1c:	89 c1                	mov    %eax,%ecx
  410d1e:	48 83 c7 01          	add    $0x1,%rdi
  410d22:	48 29 f2             	sub    %rsi,%rdx
  410d25:	48 39 d1             	cmp    %rdx,%rcx
  410d28:	73 5a                	jae    410d84 <_ZN13SpykeeManager8getImageEv+0x234>
  410d2a:	0f b6 17             	movzbl (%rdi),%edx
  410d2d:	83 c0 01             	add    $0x1,%eax
  410d30:	88 14 0e             	mov    %dl,(%rsi,%rcx,1)
  410d33:	89 c2                	mov    %eax,%edx
  410d35:	44 29 fa             	sub    %r15d,%edx
  410d38:	39 d5                	cmp    %edx,%ebp
  410d3a:	7f d4                	jg     410d10 <_ZN13SpykeeManager8getImageEv+0x1c0>
  410d3c:	44 39 e0             	cmp    %r12d,%eax
  410d3f:	41 89 c7             	mov    %eax,%r15d
  410d42:	19 c9                	sbb    %ecx,%ecx
  410d44:	83 c1 02             	add    $0x2,%ecx
  410d47:	e9 44 fe ff ff       	jmpq   410b90 <_ZN13SpykeeManager8getImageEv+0x40>
  410d4c:	48 81 c4 28 27 00 00 	add    $0x2728,%rsp
  410d53:	48 89 d8             	mov    %rbx,%rax
  410d56:	5b                   	pop    %rbx
  410d57:	5d                   	pop    %rbp
  410d58:	41 5c                	pop    %r12
  410d5a:	41 5d                	pop    %r13
  410d5c:	41 5e                	pop    %r14
  410d5e:	41 5f                	pop    %r15
  410d60:	c3                   	retq   
  410d61:	44 89 f8             	mov    %r15d,%eax
  410d64:	44 39 e0             	cmp    %r12d,%eax
  410d67:	41 89 c7             	mov    %eax,%r15d
  410d6a:	19 c9                	sbb    %ecx,%ecx
  410d6c:	83 c1 02             	add    $0x2,%ecx
  410d6f:	e9 1c fe ff ff       	jmpq   410b90 <_ZN13SpykeeManager8getImageEv+0x40>
  410d74:	4c 89 ff             	mov    %r15,%rdi
  410d77:	e8 a4 87 ff ff       	callq  409520 <_Znwm@plt>
  410d7c:	48 89 c7             	mov    %rax,%rdi
  410d7f:	e9 ad fe ff ff       	jmpq   410c31 <_ZN13SpykeeManager8getImageEv+0xe1>
  410d84:	bf 3f 3f 41 00       	mov    $0x413f3f,%edi
  410d89:	e8 a2 88 ff ff       	callq  409630 <_ZSt20__throw_out_of_rangePKc@plt>
  410d8e:	45 31 ff             	xor    %r15d,%r15d
  410d91:	e9 1f ff ff ff       	jmpq   410cb5 <_ZN13SpykeeManager8getImageEv+0x165>
  410d96:	48 89 c5             	mov    %rax,%rbp
  410d99:	48 89 df             	mov    %rbx,%rdi
  410d9c:	e8 4f 87 ff ff       	callq  4094f0 <_ZdlPv@plt>
  410da1:	48 89 ef             	mov    %rbp,%rdi
  410da4:	e8 77 89 ff ff       	callq  409720 <_Unwind_Resume@plt>
  410da9:	90                   	nop
  410daa:	66 0f 1f 44 00 00    	nopw   0x0(%rax,%rax,1)

0000000000410db0 <_ZN13SpykeeManager4moveEii>:
  410db0:	53                   	push   %rbx
  410db1:	48 89 fb             	mov    %rdi,%rbx
  410db4:	48 83 ec 20          	sub    $0x20,%rsp
  410db8:	48 8b 3f             	mov    (%rdi),%rdi
  410dbb:	40 88 74 24 10       	mov    %sil,0x10(%rsp)
  410dc0:	88 54 24 11          	mov    %dl,0x11(%rsp)
  410dc4:	48 89 e6             	mov    %rsp,%rsi
  410dc7:	ba 05 00 00 00       	mov    $0x5,%edx
  410dcc:	c6 04 24 50          	movb   $0x50,(%rsp)
  410dd0:	c6 44 24 01 4b       	movb   $0x4b,0x1(%rsp)
  410dd5:	c6 44 24 02 05       	movb   $0x5,0x2(%rsp)
  410dda:	c6 44 24 03 00       	movb   $0x0,0x3(%rsp)
  410ddf:	c6 44 24 04 02       	movb   $0x2,0x4(%rsp)
  410de4:	c6 44 24 12 00       	movb   $0x0,0x12(%rsp)
  410de9:	e8 02 08 00 00       	callq  4115f0 <_ZN19CommunicatingSocket4sendEPKvi>
  410dee:	48 8b 3b             	mov    (%rbx),%rdi
  410df1:	48 8d 74 24 10       	lea    0x10(%rsp),%rsi
  410df6:	ba 02 00 00 00       	mov    $0x2,%edx
  410dfb:	e8 f0 07 00 00       	callq  4115f0 <_ZN19CommunicatingSocket4sendEPKvi>
  410e00:	48 83 c4 20          	add    $0x20,%rsp
  410e04:	5b                   	pop    %rbx
  410e05:	c3                   	retq   
  410e06:	66 2e 0f 1f 84 00 00 	nopw   %cs:0x0(%rax,%rax,1)
  410e0d:	00 00 00 

0000000000410e10 <_ZN13SpykeeManager6unplugEv>:
  410e10:	53                   	push   %rbx
  410e11:	48 89 fb             	mov    %rdi,%rbx
  410e14:	ba 05 00 00 00       	mov    $0x5,%edx
  410e19:	48 83 ec 10          	sub    $0x10,%rsp
  410e1d:	48 8b 3f             	mov    (%rdi),%rdi
  410e20:	48 89 e6             	mov    %rsp,%rsi
  410e23:	c6 04 24 50          	movb   $0x50,(%rsp)
  410e27:	c6 44 24 01 4b       	movb   $0x4b,0x1(%rsp)
  410e2c:	c6 44 24 02 10       	movb   $0x10,0x2(%rsp)
  410e31:	c6 44 24 03 00       	movb   $0x0,0x3(%rsp)
  410e36:	c6 44 24 04 01       	movb   $0x1,0x4(%rsp)
  410e3b:	e8 b0 07 00 00       	callq  4115f0 <_ZN19CommunicatingSocket4sendEPKvi>
  410e40:	48 8b 3b             	mov    (%rbx),%rdi
  410e43:	48 89 e6             	mov    %rsp,%rsi
  410e46:	ba 01 00 00 00       	mov    $0x1,%edx
  410e4b:	c6 04 24 05          	movb   $0x5,(%rsp)
  410e4f:	e8 9c 07 00 00       	callq  4115f0 <_ZN19CommunicatingSocket4sendEPKvi>
  410e54:	48 83 c4 10          	add    $0x10,%rsp
  410e58:	5b                   	pop    %rbx
  410e59:	c3                   	retq   
  410e5a:	90                   	nop
  410e5b:	90                   	nop
  410e5c:	90                   	nop
  410e5d:	90                   	nop
  410e5e:	90                   	nop
  410e5f:	90                   	nop

0000000000410e60 <_ZNK15SpykeeException4whatEv>:
  410e60:	b8 08 3f 41 00       	mov    $0x413f08,%eax
  410e65:	c3                   	retq   
  410e66:	90                   	nop
  410e67:	90                   	nop
  410e68:	90                   	nop
  410e69:	90                   	nop
  410e6a:	90                   	nop
  410e6b:	90                   	nop
  410e6c:	90                   	nop
  410e6d:	90                   	nop
  410e6e:	90                   	nop
  410e6f:	90                   	nop

0000000000410e70 <_ZN15SpykeeExceptionD1Ev>:
  410e70:	48 c7 07 70 3f 41 00 	movq   $0x413f70,(%rdi)
  410e77:	e9 d4 88 ff ff       	jmpq   409750 <_ZNSt9exceptionD2Ev@plt>
  410e7c:	90                   	nop
  410e7d:	90                   	nop
  410e7e:	90                   	nop
  410e7f:	90                   	nop

0000000000410e80 <_ZN15SpykeeExceptionD0Ev>:
  410e80:	53                   	push   %rbx
  410e81:	48 89 fb             	mov    %rdi,%rbx
  410e84:	48 c7 07 70 3f 41 00 	movq   $0x413f70,(%rdi)
  410e8b:	e8 c0 88 ff ff       	callq  409750 <_ZNSt9exceptionD2Ev@plt>
  410e90:	48 89 df             	mov    %rbx,%rdi
  410e93:	5b                   	pop    %rbx
  410e94:	e9 57 86 ff ff       	jmpq   4094f0 <_ZdlPv@plt>
  410e99:	90                   	nop
  410e9a:	90                   	nop
  410e9b:	90                   	nop
  410e9c:	90                   	nop
  410e9d:	90                   	nop
  410e9e:	90                   	nop
  410e9f:	90                   	nop

0000000000410ea0 <_ZNK15SocketException4whatEv>:
  410ea0:	48 8b 47 08          	mov    0x8(%rdi),%rax
  410ea4:	c3                   	retq   
  410ea5:	90                   	nop
  410ea6:	66 2e 0f 1f 84 00 00 	nopw   %cs:0x0(%rax,%rax,1)
  410ead:	00 00 00 

0000000000410eb0 <_ZN15SocketExceptionD1Ev>:
  410eb0:	53                   	push   %rbx
  410eb1:	48 89 fb             	mov    %rdi,%rbx
  410eb4:	48 83 ec 10          	sub    $0x10,%rsp
  410eb8:	48 8b 47 08          	mov    0x8(%rdi),%rax
  410ebc:	48 c7 07 30 43 41 00 	movq   $0x414330,(%rdi)
  410ec3:	48 8d 78 e8          	lea    -0x18(%rax),%rdi
  410ec7:	48 81 ff 00 77 61 00 	cmp    $0x617700,%rdi
  410ece:	75 0e                	jne    410ede <_ZN15SocketExceptionD1Ev+0x2e>
  410ed0:	48 89 df             	mov    %rbx,%rdi
  410ed3:	e8 78 88 ff ff       	callq  409750 <_ZNSt9exceptionD2Ev@plt>
  410ed8:	48 83 c4 10          	add    $0x10,%rsp
  410edc:	5b                   	pop    %rbx
  410edd:	c3                   	retq   
  410ede:	ba 80 92 40 00       	mov    $0x409280,%edx
  410ee3:	48 85 d2             	test   %rdx,%rdx
  410ee6:	74 18                	je     410f00 <_ZN15SocketExceptionD1Ev+0x50>
  410ee8:	83 ca ff             	or     $0xffffffff,%edx
  410eeb:	f0 0f c1 50 f8       	lock xadd %edx,-0x8(%rax)
  410ef0:	85 d2                	test   %edx,%edx
  410ef2:	7f dc                	jg     410ed0 <_ZN15SocketExceptionD1Ev+0x20>
  410ef4:	48 8d 74 24 0f       	lea    0xf(%rsp),%rsi
  410ef9:	e8 92 85 ff ff       	callq  409490 <_ZNSs4_Rep10_M_destroyERKSaIcE@plt>
  410efe:	eb d0                	jmp    410ed0 <_ZN15SocketExceptionD1Ev+0x20>
  410f00:	8b 50 f8             	mov    -0x8(%rax),%edx
  410f03:	8d 4a ff             	lea    -0x1(%rdx),%ecx
  410f06:	89 48 f8             	mov    %ecx,-0x8(%rax)
  410f09:	eb e5                	jmp    410ef0 <_ZN15SocketExceptionD1Ev+0x40>
  410f0b:	90                   	nop
  410f0c:	0f 1f 40 00          	nopl   0x0(%rax)

0000000000410f10 <_ZN15SocketExceptionD0Ev>:
  410f10:	53                   	push   %rbx
  410f11:	48 89 fb             	mov    %rdi,%rbx
  410f14:	e8 97 ff ff ff       	callq  410eb0 <_ZN15SocketExceptionD1Ev>
  410f19:	48 89 df             	mov    %rbx,%rdi
  410f1c:	5b                   	pop    %rbx
  410f1d:	e9 ce 85 ff ff       	jmpq   4094f0 <_ZdlPv@plt>
  410f22:	66 66 66 66 66 2e 0f 	data32 data32 data32 data32 nopw %cs:0x0(%rax,%rax,1)
  410f29:	1f 84 00 00 00 00 00 

0000000000410f30 <_ZN15SocketExceptionC1ERKSsb>:
  410f30:	48 89 6c 24 f0       	mov    %rbp,-0x10(%rsp)
  410f35:	48 8d 6f 08          	lea    0x8(%rdi),%rbp
  410f39:	48 89 5c 24 e8       	mov    %rbx,-0x18(%rsp)
  410f3e:	4c 89 64 24 f8       	mov    %r12,-0x8(%rsp)
  410f43:	48 89 fb             	mov    %rdi,%rbx
  410f46:	48 83 ec 28          	sub    $0x28,%rsp
  410f4a:	48 c7 07 30 43 41 00 	movq   $0x414330,(%rdi)
  410f51:	48 89 ef             	mov    %rbp,%rdi
  410f54:	41 89 d4             	mov    %edx,%r12d
  410f57:	e8 b4 84 ff ff       	callq  409410 <_ZNSsC1ERKSs@plt>
  410f5c:	45 84 e4             	test   %r12b,%r12b
  410f5f:	75 17                	jne    410f78 <_ZN15SocketExceptionC1ERKSsb+0x48>
  410f61:	48 8b 5c 24 10       	mov    0x10(%rsp),%rbx
  410f66:	48 8b 6c 24 18       	mov    0x18(%rsp),%rbp
  410f6b:	4c 8b 64 24 20       	mov    0x20(%rsp),%r12
  410f70:	48 83 c4 28          	add    $0x28,%rsp
  410f74:	c3                   	retq   
  410f75:	0f 1f 00             	nopl   (%rax)
  410f78:	ba 02 00 00 00       	mov    $0x2,%edx
  410f7d:	be c2 3f 41 00       	mov    $0x413fc2,%esi
  410f82:	48 89 ef             	mov    %rbp,%rdi
  410f85:	e8 36 83 ff ff       	callq  4092c0 <_ZNSs6appendEPKcm@plt>
  410f8a:	e8 e1 82 ff ff       	callq  409270 <__errno_location@plt>
  410f8f:	8b 38                	mov    (%rax),%edi
  410f91:	e8 ba 83 ff ff       	callq  409350 <strerror@plt>
  410f96:	49 89 c4             	mov    %rax,%r12
  410f99:	48 89 c7             	mov    %rax,%rdi
  410f9c:	e8 df 83 ff ff       	callq  409380 <strlen@plt>
  410fa1:	4c 89 e6             	mov    %r12,%rsi
  410fa4:	48 89 c2             	mov    %rax,%rdx
  410fa7:	48 89 ef             	mov    %rbp,%rdi
  410faa:	e8 11 83 ff ff       	callq  4092c0 <_ZNSs6appendEPKcm@plt>
  410faf:	eb b0                	jmp    410f61 <_ZN15SocketExceptionC1ERKSsb+0x31>
  410fb1:	48 89 ef             	mov    %rbp,%rdi
  410fb4:	49 89 c4             	mov    %rax,%r12
  410fb7:	48 89 54 24 08       	mov    %rdx,0x8(%rsp)
  410fbc:	e8 cf 86 ff ff       	callq  409690 <_ZNSsD1Ev@plt>
  410fc1:	48 8b 54 24 08       	mov    0x8(%rsp),%rdx
  410fc6:	4c 89 e5             	mov    %r12,%rbp
  410fc9:	49 89 d4             	mov    %rdx,%r12
  410fcc:	48 89 df             	mov    %rbx,%rdi
  410fcf:	e8 7c 87 ff ff       	callq  409750 <_ZNSt9exceptionD2Ev@plt>
  410fd4:	49 83 c4 01          	add    $0x1,%r12
  410fd8:	48 89 ef             	mov    %rbp,%rdi
  410fdb:	74 0d                	je     410fea <_ZN15SocketExceptionC1ERKSsb+0xba>
  410fdd:	e8 3e 87 ff ff       	callq  409720 <_Unwind_Resume@plt>
  410fe2:	48 89 c5             	mov    %rax,%rbp
  410fe5:	49 89 d4             	mov    %rdx,%r12
  410fe8:	eb e2                	jmp    410fcc <_ZN15SocketExceptionC1ERKSsb+0x9c>
  410fea:	e8 d1 85 ff ff       	callq  4095c0 <__cxa_call_unexpected@plt>
  410fef:	90                   	nop

0000000000410ff0 <_ZL8fillAddrRKSstR11sockaddr_in.constprop.8>:
  410ff0:	48 89 5c 24 f0       	mov    %rbx,-0x10(%rsp)
  410ff5:	48 89 6c 24 f8       	mov    %rbp,-0x8(%rsp)
  410ffa:	48 83 ec 28          	sub    $0x28,%rsp
  410ffe:	48 c7 02 00 00 00 00 	movq   $0x0,(%rdx)
  411005:	48 c7 42 08 00 00 00 	movq   $0x0,0x8(%rdx)
  41100c:	00 
  41100d:	48 89 d3             	mov    %rdx,%rbx
  411010:	66 c7 02 02 00       	movw   $0x2,(%rdx)
  411015:	48 8b 3f             	mov    (%rdi),%rdi
  411018:	89 f5                	mov    %esi,%ebp
  41101a:	e8 61 85 ff ff       	callq  409580 <gethostbyname@plt>
  41101f:	48 85 c0             	test   %rax,%rax
  411022:	74 24                	je     411048 <_ZL8fillAddrRKSstR11sockaddr_in.constprop.8+0x58>
  411024:	48 8b 40 18          	mov    0x18(%rax),%rax
  411028:	66 c1 cd 08          	ror    $0x8,%bp
  41102c:	48 8b 00             	mov    (%rax),%rax
  41102f:	48 8b 00             	mov    (%rax),%rax
  411032:	66 89 6b 02          	mov    %bp,0x2(%rbx)
  411036:	89 43 04             	mov    %eax,0x4(%rbx)
  411039:	48 8b 5c 24 18       	mov    0x18(%rsp),%rbx
  41103e:	48 8b 6c 24 20       	mov    0x20(%rsp),%rbp
  411043:	48 83 c4 28          	add    $0x28,%rsp
  411047:	c3                   	retq   
  411048:	bf 10 00 00 00       	mov    $0x10,%edi
  41104d:	e8 5e 83 ff ff       	callq  4093b0 <__cxa_allocate_exception@plt>
  411052:	48 8d 54 24 0f       	lea    0xf(%rsp),%rdx
  411057:	be 98 40 41 00       	mov    $0x414098,%esi
  41105c:	48 89 e7             	mov    %rsp,%rdi
  41105f:	48 89 c3             	mov    %rax,%rbx
  411062:	e8 09 85 ff ff       	callq  409570 <_ZNSsC1EPKcRKSaIcE@plt>
  411067:	31 d2                	xor    %edx,%edx
  411069:	48 89 e6             	mov    %rsp,%rsi
  41106c:	48 89 df             	mov    %rbx,%rdi
  41106f:	e8 bc fe ff ff       	callq  410f30 <_ZN15SocketExceptionC1ERKSsb>
  411074:	48 89 e7             	mov    %rsp,%rdi
  411077:	e8 14 86 ff ff       	callq  409690 <_ZNSsD1Ev@plt>
  41107c:	ba b0 0e 41 00       	mov    $0x410eb0,%edx
  411081:	be 00 43 41 00       	mov    $0x414300,%esi
  411086:	48 89 df             	mov    %rbx,%rdi
  411089:	e8 72 86 ff ff       	callq  409700 <__cxa_throw@plt>
  41108e:	48 89 c5             	mov    %rax,%rbp
  411091:	48 89 df             	mov    %rbx,%rdi
  411094:	e8 b7 83 ff ff       	callq  409450 <__cxa_free_exception@plt>
  411099:	48 89 ef             	mov    %rbp,%rdi
  41109c:	e8 7f 86 ff ff       	callq  409720 <_Unwind_Resume@plt>
  4110a1:	90                   	nop
  4110a2:	66 66 66 66 66 2e 0f 	data32 data32 data32 data32 nopw %cs:0x0(%rax,%rax,1)
  4110a9:	1f 84 00 00 00 00 00 

00000000004110b0 <_ZN6SocketC1Eii>:
  4110b0:	53                   	push   %rbx
  4110b1:	48 89 fb             	mov    %rdi,%rbx
  4110b4:	bf 02 00 00 00       	mov    $0x2,%edi
  4110b9:	48 83 ec 20          	sub    $0x20,%rsp
  4110bd:	e8 1e 82 ff ff       	callq  4092e0 <socket@plt>
  4110c2:	85 c0                	test   %eax,%eax
  4110c4:	89 03                	mov    %eax,(%rbx)
  4110c6:	78 06                	js     4110ce <_ZN6SocketC1Eii+0x1e>
  4110c8:	48 83 c4 20          	add    $0x20,%rsp
  4110cc:	5b                   	pop    %rbx
  4110cd:	c3                   	retq   
  4110ce:	bf 10 00 00 00       	mov    $0x10,%edi
  4110d3:	e8 d8 82 ff ff       	callq  4093b0 <__cxa_allocate_exception@plt>
  4110d8:	48 8d 54 24 1f       	lea    0x1f(%rsp),%rdx
  4110dd:	48 8d 7c 24 10       	lea    0x10(%rsp),%rdi
  4110e2:	be c8 40 41 00       	mov    $0x4140c8,%esi
  4110e7:	48 89 c3             	mov    %rax,%rbx
  4110ea:	e8 81 84 ff ff       	callq  409570 <_ZNSsC1EPKcRKSaIcE@plt>
  4110ef:	48 8d 74 24 10       	lea    0x10(%rsp),%rsi
  4110f4:	ba 01 00 00 00       	mov    $0x1,%edx
  4110f9:	48 89 df             	mov    %rbx,%rdi
  4110fc:	e8 2f fe ff ff       	callq  410f30 <_ZN15SocketExceptionC1ERKSsb>
  411101:	48 8d 7c 24 10       	lea    0x10(%rsp),%rdi
  411106:	e8 85 85 ff ff       	callq  409690 <_ZNSsD1Ev@plt>
  41110b:	ba b0 0e 41 00       	mov    $0x410eb0,%edx
  411110:	be 00 43 41 00       	mov    $0x414300,%esi
  411115:	48 89 df             	mov    %rbx,%rdi
  411118:	e8 e3 85 ff ff       	callq  409700 <__cxa_throw@plt>
  41111d:	48 89 c7             	mov    %rax,%rdi
  411120:	48 83 c2 01          	add    $0x1,%rdx
  411124:	74 24                	je     41114a <_ZN6SocketC1Eii+0x9a>
  411126:	e8 f5 85 ff ff       	callq  409720 <_Unwind_Resume@plt>
  41112b:	48 89 df             	mov    %rbx,%rdi
  41112e:	48 89 44 24 08       	mov    %rax,0x8(%rsp)
  411133:	48 89 14 24          	mov    %rdx,(%rsp)
  411137:	e8 14 83 ff ff       	callq  409450 <__cxa_free_exception@plt>
  41113c:	48 8b 44 24 08       	mov    0x8(%rsp),%rax
  411141:	48 8b 14 24          	mov    (%rsp),%rdx
  411145:	48 89 c7             	mov    %rax,%rdi
  411148:	eb d6                	jmp    411120 <_ZN6SocketC1Eii+0x70>
  41114a:	e8 71 84 ff ff       	callq  4095c0 <__cxa_call_unexpected@plt>
  41114f:	90                   	nop

0000000000411150 <_ZN6SocketC1Ei>:
  411150:	89 37                	mov    %esi,(%rdi)
  411152:	c3                   	retq   
  411153:	90                   	nop
  411154:	66 66 66 2e 0f 1f 84 	data32 data32 nopw %cs:0x0(%rax,%rax,1)
  41115b:	00 00 00 00 00 

0000000000411160 <_ZN6SocketD1Ev>:
  411160:	53                   	push   %rbx
  411161:	48 89 fb             	mov    %rdi,%rbx
  411164:	8b 3f                	mov    (%rdi),%edi
  411166:	e8 15 86 ff ff       	callq  409780 <close@plt>
  41116b:	c7 03 ff ff ff ff    	movl   $0xffffffff,(%rbx)
  411171:	5b                   	pop    %rbx
  411172:	c3                   	retq   
  411173:	90                   	nop
  411174:	66 66 66 2e 0f 1f 84 	data32 data32 nopw %cs:0x0(%rax,%rax,1)
  41117b:	00 00 00 00 00 

0000000000411180 <_ZN6Socket15getLocalAddressEv>:
  411180:	53                   	push   %rbx
  411181:	48 89 f0             	mov    %rsi,%rax
  411184:	48 89 fb             	mov    %rdi,%rbx
  411187:	48 83 ec 30          	sub    $0x30,%rsp
  41118b:	8b 38                	mov    (%rax),%edi
  41118d:	48 8d 54 24 28       	lea    0x28(%rsp),%rdx
  411192:	48 8d 74 24 10       	lea    0x10(%rsp),%rsi
  411197:	c7 44 24 28 10 00 00 	movl   $0x10,0x28(%rsp)
  41119e:	00 
  41119f:	e8 2c 83 ff ff       	callq  4094d0 <getsockname@plt>
  4111a4:	85 c0                	test   %eax,%eax
  4111a6:	78 22                	js     4111ca <_ZN6Socket15getLocalAddressEv+0x4a>
  4111a8:	8b 7c 24 14          	mov    0x14(%rsp),%edi
  4111ac:	e8 df 81 ff ff       	callq  409390 <inet_ntoa@plt>
  4111b1:	48 8d 54 24 2f       	lea    0x2f(%rsp),%rdx
  4111b6:	48 89 c6             	mov    %rax,%rsi
  4111b9:	48 89 df             	mov    %rbx,%rdi
  4111bc:	e8 af 83 ff ff       	callq  409570 <_ZNSsC1EPKcRKSaIcE@plt>
  4111c1:	48 83 c4 30          	add    $0x30,%rsp
  4111c5:	48 89 d8             	mov    %rbx,%rax
  4111c8:	5b                   	pop    %rbx
  4111c9:	c3                   	retq   
  4111ca:	bf 10 00 00 00       	mov    $0x10,%edi
  4111cf:	e8 dc 81 ff ff       	callq  4093b0 <__cxa_allocate_exception@plt>
  4111d4:	48 8d 54 24 2e       	lea    0x2e(%rsp),%rdx
  4111d9:	48 8d 7c 24 20       	lea    0x20(%rsp),%rdi
  4111de:	be f0 40 41 00       	mov    $0x4140f0,%esi
  4111e3:	48 89 c3             	mov    %rax,%rbx
  4111e6:	e8 85 83 ff ff       	callq  409570 <_ZNSsC1EPKcRKSaIcE@plt>
  4111eb:	48 8d 74 24 20       	lea    0x20(%rsp),%rsi
  4111f0:	ba 01 00 00 00       	mov    $0x1,%edx
  4111f5:	48 89 df             	mov    %rbx,%rdi
  4111f8:	e8 33 fd ff ff       	callq  410f30 <_ZN15SocketExceptionC1ERKSsb>
  4111fd:	48 8d 7c 24 20       	lea    0x20(%rsp),%rdi
  411202:	e8 89 84 ff ff       	callq  409690 <_ZNSsD1Ev@plt>
  411207:	ba b0 0e 41 00       	mov    $0x410eb0,%edx
  41120c:	be 00 43 41 00       	mov    $0x414300,%esi
  411211:	48 89 df             	mov    %rbx,%rdi
  411214:	e8 e7 84 ff ff       	callq  409700 <__cxa_throw@plt>
  411219:	48 89 c7             	mov    %rax,%rdi
  41121c:	48 83 c2 01          	add    $0x1,%rdx
  411220:	74 24                	je     411246 <_ZN6Socket15getLocalAddressEv+0xc6>
  411222:	e8 f9 84 ff ff       	callq  409720 <_Unwind_Resume@plt>
  411227:	48 89 df             	mov    %rbx,%rdi
  41122a:	48 89 44 24 08       	mov    %rax,0x8(%rsp)
  41122f:	48 89 14 24          	mov    %rdx,(%rsp)
  411233:	e8 18 82 ff ff       	callq  409450 <__cxa_free_exception@plt>
  411238:	48 8b 44 24 08       	mov    0x8(%rsp),%rax
  41123d:	48 8b 14 24          	mov    (%rsp),%rdx
  411241:	48 89 c7             	mov    %rax,%rdi
  411244:	eb d6                	jmp    41121c <_ZN6Socket15getLocalAddressEv+0x9c>
  411246:	e8 75 83 ff ff       	callq  4095c0 <__cxa_call_unexpected@plt>
  41124b:	90                   	nop
  41124c:	0f 1f 40 00          	nopl   0x0(%rax)

0000000000411250 <_ZN6Socket12getLocalPortEv>:
  411250:	53                   	push   %rbx
  411251:	48 83 ec 30          	sub    $0x30,%rsp
  411255:	8b 3f                	mov    (%rdi),%edi
  411257:	48 8d 54 24 28       	lea    0x28(%rsp),%rdx
  41125c:	48 8d 74 24 10       	lea    0x10(%rsp),%rsi
  411261:	c7 44 24 28 10 00 00 	movl   $0x10,0x28(%rsp)
  411268:	00 
  411269:	e8 62 82 ff ff       	callq  4094d0 <getsockname@plt>
  41126e:	85 c0                	test   %eax,%eax
  411270:	78 0f                	js     411281 <_ZN6Socket12getLocalPortEv+0x31>
  411272:	0f b7 44 24 12       	movzwl 0x12(%rsp),%eax
  411277:	48 83 c4 30          	add    $0x30,%rsp
  41127b:	66 c1 c8 08          	ror    $0x8,%ax
  41127f:	5b                   	pop    %rbx
  411280:	c3                   	retq   
  411281:	bf 10 00 00 00       	mov    $0x10,%edi
  411286:	e8 25 81 ff ff       	callq  4093b0 <__cxa_allocate_exception@plt>
  41128b:	48 8d 54 24 2f       	lea    0x2f(%rsp),%rdx
  411290:	48 8d 7c 24 20       	lea    0x20(%rsp),%rdi
  411295:	be 20 41 41 00       	mov    $0x414120,%esi
  41129a:	48 89 c3             	mov    %rax,%rbx
  41129d:	e8 ce 82 ff ff       	callq  409570 <_ZNSsC1EPKcRKSaIcE@plt>
  4112a2:	48 8d 74 24 20       	lea    0x20(%rsp),%rsi
  4112a7:	ba 01 00 00 00       	mov    $0x1,%edx
  4112ac:	48 89 df             	mov    %rbx,%rdi
  4112af:	e8 7c fc ff ff       	callq  410f30 <_ZN15SocketExceptionC1ERKSsb>
  4112b4:	48 8d 7c 24 20       	lea    0x20(%rsp),%rdi
  4112b9:	e8 d2 83 ff ff       	callq  409690 <_ZNSsD1Ev@plt>
  4112be:	ba b0 0e 41 00       	mov    $0x410eb0,%edx
  4112c3:	be 00 43 41 00       	mov    $0x414300,%esi
  4112c8:	48 89 df             	mov    %rbx,%rdi
  4112cb:	e8 30 84 ff ff       	callq  409700 <__cxa_throw@plt>
  4112d0:	48 89 c7             	mov    %rax,%rdi
  4112d3:	48 83 c2 01          	add    $0x1,%rdx
  4112d7:	74 24                	je     4112fd <_ZN6Socket12getLocalPortEv+0xad>
  4112d9:	e8 42 84 ff ff       	callq  409720 <_Unwind_Resume@plt>
  4112de:	48 89 df             	mov    %rbx,%rdi
  4112e1:	48 89 44 24 08       	mov    %rax,0x8(%rsp)
  4112e6:	48 89 14 24          	mov    %rdx,(%rsp)
  4112ea:	e8 61 81 ff ff       	callq  409450 <__cxa_free_exception@plt>
  4112ef:	48 8b 44 24 08       	mov    0x8(%rsp),%rax
  4112f4:	48 8b 14 24          	mov    (%rsp),%rdx
  4112f8:	48 89 c7             	mov    %rax,%rdi
  4112fb:	eb d6                	jmp    4112d3 <_ZN6Socket12getLocalPortEv+0x83>
  4112fd:	e8 be 82 ff ff       	callq  4095c0 <__cxa_call_unexpected@plt>
  411302:	66 66 66 66 66 2e 0f 	data32 data32 data32 data32 nopw %cs:0x0(%rax,%rax,1)
  411309:	1f 84 00 00 00 00 00 

0000000000411310 <_ZN6Socket12setLocalPortEt>:
  411310:	53                   	push   %rbx
  411311:	ba 10 00 00 00       	mov    $0x10,%edx
  411316:	66 c1 ce 08          	ror    $0x8,%si
  41131a:	48 83 ec 30          	sub    $0x30,%rsp
  41131e:	8b 3f                	mov    (%rdi),%edi
  411320:	48 c7 44 24 10 00 00 	movq   $0x0,0x10(%rsp)
  411327:	00 00 
  411329:	66 89 74 24 12       	mov    %si,0x12(%rsp)
  41132e:	48 8d 74 24 10       	lea    0x10(%rsp),%rsi
  411333:	48 c7 44 24 18 00 00 	movq   $0x0,0x18(%rsp)
  41133a:	00 00 
  41133c:	66 c7 44 24 10 02 00 	movw   $0x2,0x10(%rsp)
  411343:	e8 68 7f ff ff       	callq  4092b0 <bind@plt>
  411348:	85 c0                	test   %eax,%eax
  41134a:	78 06                	js     411352 <_ZN6Socket12setLocalPortEt+0x42>
  41134c:	48 83 c4 30          	add    $0x30,%rsp
  411350:	5b                   	pop    %rbx
  411351:	c3                   	retq   
  411352:	bf 10 00 00 00       	mov    $0x10,%edi
  411357:	e8 54 80 ff ff       	callq  4093b0 <__cxa_allocate_exception@plt>
  41135c:	48 8d 54 24 2f       	lea    0x2f(%rsp),%rdx
  411361:	48 8d 7c 24 20       	lea    0x20(%rsp),%rdi
  411366:	be 50 41 41 00       	mov    $0x414150,%esi
  41136b:	48 89 c3             	mov    %rax,%rbx
  41136e:	e8 fd 81 ff ff       	callq  409570 <_ZNSsC1EPKcRKSaIcE@plt>
  411373:	48 8d 74 24 20       	lea    0x20(%rsp),%rsi
  411378:	ba 01 00 00 00       	mov    $0x1,%edx
  41137d:	48 89 df             	mov    %rbx,%rdi
  411380:	e8 ab fb ff ff       	callq  410f30 <_ZN15SocketExceptionC1ERKSsb>
  411385:	48 8d 7c 24 20       	lea    0x20(%rsp),%rdi
  41138a:	e8 01 83 ff ff       	callq  409690 <_ZNSsD1Ev@plt>
  41138f:	ba b0 0e 41 00       	mov    $0x410eb0,%edx
  411394:	be 00 43 41 00       	mov    $0x414300,%esi
  411399:	48 89 df             	mov    %rbx,%rdi
  41139c:	e8 5f 83 ff ff       	callq  409700 <__cxa_throw@plt>
  4113a1:	48 89 c7             	mov    %rax,%rdi
  4113a4:	48 83 c2 01          	add    $0x1,%rdx
  4113a8:	74 24                	je     4113ce <_ZN6Socket12setLocalPortEt+0xbe>
  4113aa:	e8 71 83 ff ff       	callq  409720 <_Unwind_Resume@plt>
  4113af:	48 89 df             	mov    %rbx,%rdi
  4113b2:	48 89 44 24 08       	mov    %rax,0x8(%rsp)
  4113b7:	48 89 14 24          	mov    %rdx,(%rsp)
  4113bb:	e8 90 80 ff ff       	callq  409450 <__cxa_free_exception@plt>
  4113c0:	48 8b 44 24 08       	mov    0x8(%rsp),%rax
  4113c5:	48 8b 14 24          	mov    (%rsp),%rdx
  4113c9:	48 89 c7             	mov    %rax,%rdi
  4113cc:	eb d6                	jmp    4113a4 <_ZN6Socket12setLocalPortEt+0x94>
  4113ce:	e8 ed 81 ff ff       	callq  4095c0 <__cxa_call_unexpected@plt>
  4113d3:	90                   	nop
  4113d4:	66 66 66 2e 0f 1f 84 	data32 data32 nopw %cs:0x0(%rax,%rax,1)
  4113db:	00 00 00 00 00 

00000000004113e0 <_ZN6Socket22setLocalAddressAndPortERKSst>:
  4113e0:	53                   	push   %rbx
  4113e1:	48 89 fb             	mov    %rdi,%rbx
  4113e4:	48 89 f7             	mov    %rsi,%rdi
  4113e7:	0f b7 f2             	movzwl %dx,%esi
  4113ea:	48 83 ec 30          	sub    $0x30,%rsp
  4113ee:	48 8d 54 24 10       	lea    0x10(%rsp),%rdx
  4113f3:	e8 f8 fb ff ff       	callq  410ff0 <_ZL8fillAddrRKSstR11sockaddr_in.constprop.8>
  4113f8:	8b 3b                	mov    (%rbx),%edi
  4113fa:	48 8d 74 24 10       	lea    0x10(%rsp),%rsi
  4113ff:	ba 10 00 00 00       	mov    $0x10,%edx
  411404:	e8 a7 7e ff ff       	callq  4092b0 <bind@plt>
  411409:	85 c0                	test   %eax,%eax
  41140b:	78 06                	js     411413 <_ZN6Socket22setLocalAddressAndPortERKSst+0x33>
  41140d:	48 83 c4 30          	add    $0x30,%rsp
  411411:	5b                   	pop    %rbx
  411412:	c3                   	retq   
  411413:	bf 10 00 00 00       	mov    $0x10,%edi
  411418:	e8 93 7f ff ff       	callq  4093b0 <__cxa_allocate_exception@plt>
  41141d:	48 8d 54 24 2f       	lea    0x2f(%rsp),%rdx
  411422:	48 8d 7c 24 20       	lea    0x20(%rsp),%rdi
  411427:	be 78 41 41 00       	mov    $0x414178,%esi
  41142c:	48 89 c3             	mov    %rax,%rbx
  41142f:	e8 3c 81 ff ff       	callq  409570 <_ZNSsC1EPKcRKSaIcE@plt>
  411434:	48 8d 74 24 20       	lea    0x20(%rsp),%rsi
  411439:	ba 01 00 00 00       	mov    $0x1,%edx
  41143e:	48 89 df             	mov    %rbx,%rdi
  411441:	e8 ea fa ff ff       	callq  410f30 <_ZN15SocketExceptionC1ERKSsb>
  411446:	48 8d 7c 24 20       	lea    0x20(%rsp),%rdi
  41144b:	e8 40 82 ff ff       	callq  409690 <_ZNSsD1Ev@plt>
  411450:	ba b0 0e 41 00       	mov    $0x410eb0,%edx
  411455:	be 00 43 41 00       	mov    $0x414300,%esi
  41145a:	48 89 df             	mov    %rbx,%rdi
  41145d:	e8 9e 82 ff ff       	callq  409700 <__cxa_throw@plt>
  411462:	48 89 c7             	mov    %rax,%rdi
  411465:	48 83 c2 01          	add    $0x1,%rdx
  411469:	74 24                	je     41148f <_ZN6Socket22setLocalAddressAndPortERKSst+0xaf>
  41146b:	e8 b0 82 ff ff       	callq  409720 <_Unwind_Resume@plt>
  411470:	48 89 df             	mov    %rbx,%rdi
  411473:	48 89 44 24 08       	mov    %rax,0x8(%rsp)
  411478:	48 89 14 24          	mov    %rdx,(%rsp)
  41147c:	e8 cf 7f ff ff       	callq  409450 <__cxa_free_exception@plt>
  411481:	48 8b 44 24 08       	mov    0x8(%rsp),%rax
  411486:	48 8b 14 24          	mov    (%rsp),%rdx
  41148a:	48 89 c7             	mov    %rax,%rdi
  41148d:	eb d6                	jmp    411465 <_ZN6Socket22setLocalAddressAndPortERKSst+0x85>
  41148f:	e8 2c 81 ff ff       	callq  4095c0 <__cxa_call_unexpected@plt>
  411494:	66 66 66 2e 0f 1f 84 	data32 data32 nopw %cs:0x0(%rax,%rax,1)
  41149b:	00 00 00 00 00 

00000000004114a0 <_ZN6Socket7cleanUpEv>:
  4114a0:	f3 c3                	repz retq 
  4114a2:	66 66 66 66 66 2e 0f 	data32 data32 data32 data32 nopw %cs:0x0(%rax,%rax,1)
  4114a9:	1f 84 00 00 00 00 00 

00000000004114b0 <_ZN6Socket14resolveServiceERKSsS1_>:
  4114b0:	53                   	push   %rbx
  4114b1:	48 89 fb             	mov    %rdi,%rbx
  4114b4:	48 8b 36             	mov    (%rsi),%rsi
  4114b7:	48 8b 3f             	mov    (%rdi),%rdi
  4114ba:	e8 e1 7d ff ff       	callq  4092a0 <getservbyname@plt>
  4114bf:	48 85 c0             	test   %rax,%rax
  4114c2:	74 0c                	je     4114d0 <_ZN6Socket14resolveServiceERKSsS1_+0x20>
  4114c4:	8b 40 10             	mov    0x10(%rax),%eax
  4114c7:	5b                   	pop    %rbx
  4114c8:	66 c1 c8 08          	ror    $0x8,%ax
  4114cc:	c3                   	retq   
  4114cd:	0f 1f 00             	nopl   (%rax)
  4114d0:	48 8b 3b             	mov    (%rbx),%rdi
  4114d3:	ba 0a 00 00 00       	mov    $0xa,%edx
  4114d8:	31 f6                	xor    %esi,%esi
  4114da:	e8 31 81 ff ff       	callq  409610 <strtol@plt>
  4114df:	5b                   	pop    %rbx
  4114e0:	c3                   	retq   
  4114e1:	90                   	nop
  4114e2:	66 66 66 66 66 2e 0f 	data32 data32 data32 data32 nopw %cs:0x0(%rax,%rax,1)
  4114e9:	1f 84 00 00 00 00 00 

00000000004114f0 <_ZN19CommunicatingSocketC1Eii>:
  4114f0:	48 83 ec 08          	sub    $0x8,%rsp
  4114f4:	e8 b7 fb ff ff       	callq  4110b0 <_ZN6SocketC1Eii>
  4114f9:	48 83 c4 08          	add    $0x8,%rsp
  4114fd:	c3                   	retq   
  4114fe:	48 83 c2 01          	add    $0x1,%rdx
  411502:	48 89 c7             	mov    %rax,%rdi
  411505:	74 05                	je     41150c <_ZN19CommunicatingSocketC1Eii+0x1c>
  411507:	e8 14 82 ff ff       	callq  409720 <_Unwind_Resume@plt>
  41150c:	e8 af 80 ff ff       	callq  4095c0 <__cxa_call_unexpected@plt>
  411511:	90                   	nop
  411512:	66 66 66 66 66 2e 0f 	data32 data32 data32 data32 nopw %cs:0x0(%rax,%rax,1)
  411519:	1f 84 00 00 00 00 00 

0000000000411520 <_ZN19CommunicatingSocketC1Ei>:
  411520:	89 37                	mov    %esi,(%rdi)
  411522:	c3                   	retq   
  411523:	90                   	nop
  411524:	66 66 66 2e 0f 1f 84 	data32 data32 nopw %cs:0x0(%rax,%rax,1)
  41152b:	00 00 00 00 00 

0000000000411530 <_ZN19CommunicatingSocket7connectERKSst>:
  411530:	53                   	push   %rbx
  411531:	48 89 fb             	mov    %rdi,%rbx
  411534:	48 89 f7             	mov    %rsi,%rdi
  411537:	0f b7 f2             	movzwl %dx,%esi
  41153a:	48 83 ec 30          	sub    $0x30,%rsp
  41153e:	48 8d 54 24 10       	lea    0x10(%rsp),%rdx
  411543:	e8 a8 fa ff ff       	callq  410ff0 <_ZL8fillAddrRKSstR11sockaddr_in.constprop.8>
  411548:	8b 3b                	mov    (%rbx),%edi
  41154a:	48 8d 74 24 10       	lea    0x10(%rsp),%rsi
  41154f:	ba 10 00 00 00       	mov    $0x10,%edx
  411554:	e8 47 7f ff ff       	callq  4094a0 <connect@plt>
  411559:	85 c0                	test   %eax,%eax
  41155b:	78 06                	js     411563 <_ZN19CommunicatingSocket7connectERKSst+0x33>
  41155d:	48 83 c4 30          	add    $0x30,%rsp
  411561:	5b                   	pop    %rbx
  411562:	c3                   	retq   
  411563:	bf 10 00 00 00       	mov    $0x10,%edi
  411568:	e8 43 7e ff ff       	callq  4093b0 <__cxa_allocate_exception@plt>
  41156d:	48 8d 54 24 2f       	lea    0x2f(%rsp),%rdx
  411572:	48 8d 7c 24 20       	lea    0x20(%rsp),%rdi
  411577:	be c5 3f 41 00       	mov    $0x413fc5,%esi
  41157c:	48 89 c3             	mov    %rax,%rbx
  41157f:	e8 ec 7f ff ff       	callq  409570 <_ZNSsC1EPKcRKSaIcE@plt>
  411584:	48 8d 74 24 20       	lea    0x20(%rsp),%rsi
  411589:	ba 01 00 00 00       	mov    $0x1,%edx
  41158e:	48 89 df             	mov    %rbx,%rdi
  411591:	e8 9a f9 ff ff       	callq  410f30 <_ZN15SocketExceptionC1ERKSsb>
  411596:	48 8d 7c 24 20       	lea    0x20(%rsp),%rdi
  41159b:	e8 f0 80 ff ff       	callq  409690 <_ZNSsD1Ev@plt>
  4115a0:	ba b0 0e 41 00       	mov    $0x410eb0,%edx
  4115a5:	be 00 43 41 00       	mov    $0x414300,%esi
  4115aa:	48 89 df             	mov    %rbx,%rdi
  4115ad:	e8 4e 81 ff ff       	callq  409700 <__cxa_throw@plt>
  4115b2:	48 89 c7             	mov    %rax,%rdi
  4115b5:	48 83 c2 01          	add    $0x1,%rdx
  4115b9:	74 24                	je     4115df <_ZN19CommunicatingSocket7connectERKSst+0xaf>
  4115bb:	e8 60 81 ff ff       	callq  409720 <_Unwind_Resume@plt>
  4115c0:	48 89 df             	mov    %rbx,%rdi
  4115c3:	48 89 44 24 08       	mov    %rax,0x8(%rsp)
  4115c8:	48 89 14 24          	mov    %rdx,(%rsp)
  4115cc:	e8 7f 7e ff ff       	callq  409450 <__cxa_free_exception@plt>
  4115d1:	48 8b 44 24 08       	mov    0x8(%rsp),%rax
  4115d6:	48 8b 14 24          	mov    (%rsp),%rdx
  4115da:	48 89 c7             	mov    %rax,%rdi
  4115dd:	eb d6                	jmp    4115b5 <_ZN19CommunicatingSocket7connectERKSst+0x85>
  4115df:	e8 dc 7f ff ff       	callq  4095c0 <__cxa_call_unexpected@plt>
  4115e4:	66 66 66 2e 0f 1f 84 	data32 data32 nopw %cs:0x0(%rax,%rax,1)
  4115eb:	00 00 00 00 00 

00000000004115f0 <_ZN19CommunicatingSocket4sendEPKvi>:
  4115f0:	53                   	push   %rbx
  4115f1:	48 63 d2             	movslq %edx,%rdx
  4115f4:	31 c9                	xor    %ecx,%ecx
  4115f6:	48 83 ec 20          	sub    $0x20,%rsp
  4115fa:	8b 3f                	mov    (%rdi),%edi
  4115fc:	e8 bf 7d ff ff       	callq  4093c0 <send@plt>
  411601:	48 85 c0             	test   %rax,%rax
  411604:	78 06                	js     41160c <_ZN19CommunicatingSocket4sendEPKvi+0x1c>
  411606:	48 83 c4 20          	add    $0x20,%rsp
  41160a:	5b                   	pop    %rbx
  41160b:	c3                   	retq   
  41160c:	bf 10 00 00 00       	mov    $0x10,%edi
  411611:	e8 9a 7d ff ff       	callq  4093b0 <__cxa_allocate_exception@plt>
  411616:	48 8d 54 24 1f       	lea    0x1f(%rsp),%rdx
  41161b:	48 8d 7c 24 10       	lea    0x10(%rsp),%rdi
  411620:	be e0 3f 41 00       	mov    $0x413fe0,%esi
  411625:	48 89 c3             	mov    %rax,%rbx
  411628:	e8 43 7f ff ff       	callq  409570 <_ZNSsC1EPKcRKSaIcE@plt>
  41162d:	48 8d 74 24 10       	lea    0x10(%rsp),%rsi
  411632:	ba 01 00 00 00       	mov    $0x1,%edx
  411637:	48 89 df             	mov    %rbx,%rdi
  41163a:	e8 f1 f8 ff ff       	callq  410f30 <_ZN15SocketExceptionC1ERKSsb>
  41163f:	48 8d 7c 24 10       	lea    0x10(%rsp),%rdi
  411644:	e8 47 80 ff ff       	callq  409690 <_ZNSsD1Ev@plt>
  411649:	ba b0 0e 41 00       	mov    $0x410eb0,%edx
  41164e:	be 00 43 41 00       	mov    $0x414300,%esi
  411653:	48 89 df             	mov    %rbx,%rdi
  411656:	e8 a5 80 ff ff       	callq  409700 <__cxa_throw@plt>
  41165b:	48 89 c7             	mov    %rax,%rdi
  41165e:	48 83 c2 01          	add    $0x1,%rdx
  411662:	74 24                	je     411688 <_ZN19CommunicatingSocket4sendEPKvi+0x98>
  411664:	e8 b7 80 ff ff       	callq  409720 <_Unwind_Resume@plt>
  411669:	48 89 df             	mov    %rbx,%rdi
  41166c:	48 89 44 24 08       	mov    %rax,0x8(%rsp)
  411671:	48 89 14 24          	mov    %rdx,(%rsp)
  411675:	e8 d6 7d ff ff       	callq  409450 <__cxa_free_exception@plt>
  41167a:	48 8b 44 24 08       	mov    0x8(%rsp),%rax
  41167f:	48 8b 14 24          	mov    (%rsp),%rdx
  411683:	48 89 c7             	mov    %rax,%rdi
  411686:	eb d6                	jmp    41165e <_ZN19CommunicatingSocket4sendEPKvi+0x6e>
  411688:	e8 33 7f ff ff       	callq  4095c0 <__cxa_call_unexpected@plt>
  41168d:	90                   	nop
  41168e:	66 90                	xchg   %ax,%ax

0000000000411690 <_ZN19CommunicatingSocket4recvEPvi>:
  411690:	53                   	push   %rbx
  411691:	48 63 d2             	movslq %edx,%rdx
  411694:	31 c9                	xor    %ecx,%ecx
  411696:	48 83 ec 20          	sub    $0x20,%rsp
  41169a:	8b 3f                	mov    (%rdi),%edi
  41169c:	e8 9f 7c ff ff       	callq  409340 <recv@plt>
  4116a1:	85 c0                	test   %eax,%eax
  4116a3:	78 06                	js     4116ab <_ZN19CommunicatingSocket4recvEPvi+0x1b>
  4116a5:	48 83 c4 20          	add    $0x20,%rsp
  4116a9:	5b                   	pop    %rbx
  4116aa:	c3                   	retq   
  4116ab:	bf 10 00 00 00       	mov    $0x10,%edi
  4116b0:	e8 fb 7c ff ff       	callq  4093b0 <__cxa_allocate_exception@plt>
  4116b5:	48 8d 54 24 1f       	lea    0x1f(%rsp),%rdx
  4116ba:	48 8d 7c 24 10       	lea    0x10(%rsp),%rdi
  4116bf:	be f5 3f 41 00       	mov    $0x413ff5,%esi
  4116c4:	48 89 c3             	mov    %rax,%rbx
  4116c7:	e8 a4 7e ff ff       	callq  409570 <_ZNSsC1EPKcRKSaIcE@plt>
  4116cc:	48 8d 74 24 10       	lea    0x10(%rsp),%rsi
  4116d1:	ba 01 00 00 00       	mov    $0x1,%edx
  4116d6:	48 89 df             	mov    %rbx,%rdi
  4116d9:	e8 52 f8 ff ff       	callq  410f30 <_ZN15SocketExceptionC1ERKSsb>
  4116de:	48 8d 7c 24 10       	lea    0x10(%rsp),%rdi
  4116e3:	e8 a8 7f ff ff       	callq  409690 <_ZNSsD1Ev@plt>
  4116e8:	ba b0 0e 41 00       	mov    $0x410eb0,%edx
  4116ed:	be 00 43 41 00       	mov    $0x414300,%esi
  4116f2:	48 89 df             	mov    %rbx,%rdi
  4116f5:	e8 06 80 ff ff       	callq  409700 <__cxa_throw@plt>
  4116fa:	48 89 c7             	mov    %rax,%rdi
  4116fd:	48 83 c2 01          	add    $0x1,%rdx
  411701:	74 24                	je     411727 <_ZN19CommunicatingSocket4recvEPvi+0x97>
  411703:	e8 18 80 ff ff       	callq  409720 <_Unwind_Resume@plt>
  411708:	48 89 df             	mov    %rbx,%rdi
  41170b:	48 89 44 24 08       	mov    %rax,0x8(%rsp)
  411710:	48 89 14 24          	mov    %rdx,(%rsp)
  411714:	e8 37 7d ff ff       	callq  409450 <__cxa_free_exception@plt>
  411719:	48 8b 44 24 08       	mov    0x8(%rsp),%rax
  41171e:	48 8b 14 24          	mov    (%rsp),%rdx
  411722:	48 89 c7             	mov    %rax,%rdi
  411725:	eb d6                	jmp    4116fd <_ZN19CommunicatingSocket4recvEPvi+0x6d>
  411727:	e8 94 7e ff ff       	callq  4095c0 <__cxa_call_unexpected@plt>
  41172c:	0f 1f 40 00          	nopl   0x0(%rax)

0000000000411730 <_ZN19CommunicatingSocket17getForeignAddressEv>:
  411730:	53                   	push   %rbx
  411731:	48 89 f0             	mov    %rsi,%rax
  411734:	48 89 fb             	mov    %rdi,%rbx
  411737:	48 83 ec 30          	sub    $0x30,%rsp
  41173b:	8b 38                	mov    (%rax),%edi
  41173d:	48 8d 54 24 28       	lea    0x28(%rsp),%rdx
  411742:	48 8d 74 24 10       	lea    0x10(%rsp),%rsi
  411747:	c7 44 24 28 10 00 00 	movl   $0x10,0x28(%rsp)
  41174e:	00 
  41174f:	e8 0c 7d ff ff       	callq  409460 <getpeername@plt>
  411754:	85 c0                	test   %eax,%eax
  411756:	78 22                	js     41177a <_ZN19CommunicatingSocket17getForeignAddressEv+0x4a>
  411758:	8b 7c 24 14          	mov    0x14(%rsp),%edi
  41175c:	e8 2f 7c ff ff       	callq  409390 <inet_ntoa@plt>
  411761:	48 8d 54 24 2f       	lea    0x2f(%rsp),%rdx
  411766:	48 89 c6             	mov    %rax,%rsi
  411769:	48 89 df             	mov    %rbx,%rdi
  41176c:	e8 ff 7d ff ff       	callq  409570 <_ZNSsC1EPKcRKSaIcE@plt>
  411771:	48 83 c4 30          	add    $0x30,%rsp
  411775:	48 89 d8             	mov    %rbx,%rax
  411778:	5b                   	pop    %rbx
  411779:	c3                   	retq   
  41177a:	bf 10 00 00 00       	mov    $0x10,%edi
  41177f:	e8 2c 7c ff ff       	callq  4093b0 <__cxa_allocate_exception@plt>
  411784:	48 8d 54 24 2e       	lea    0x2e(%rsp),%rdx
  411789:	48 8d 7c 24 20       	lea    0x20(%rsp),%rdi
  41178e:	be a8 41 41 00       	mov    $0x4141a8,%esi
  411793:	48 89 c3             	mov    %rax,%rbx
  411796:	e8 d5 7d ff ff       	callq  409570 <_ZNSsC1EPKcRKSaIcE@plt>
  41179b:	48 8d 74 24 20       	lea    0x20(%rsp),%rsi
  4117a0:	ba 01 00 00 00       	mov    $0x1,%edx
  4117a5:	48 89 df             	mov    %rbx,%rdi
  4117a8:	e8 83 f7 ff ff       	callq  410f30 <_ZN15SocketExceptionC1ERKSsb>
  4117ad:	48 8d 7c 24 20       	lea    0x20(%rsp),%rdi
  4117b2:	e8 d9 7e ff ff       	callq  409690 <_ZNSsD1Ev@plt>
  4117b7:	ba b0 0e 41 00       	mov    $0x410eb0,%edx
  4117bc:	be 00 43 41 00       	mov    $0x414300,%esi
  4117c1:	48 89 df             	mov    %rbx,%rdi
  4117c4:	e8 37 7f ff ff       	callq  409700 <__cxa_throw@plt>
  4117c9:	48 89 c7             	mov    %rax,%rdi
  4117cc:	48 83 c2 01          	add    $0x1,%rdx
  4117d0:	74 24                	je     4117f6 <_ZN19CommunicatingSocket17getForeignAddressEv+0xc6>
  4117d2:	e8 49 7f ff ff       	callq  409720 <_Unwind_Resume@plt>
  4117d7:	48 89 df             	mov    %rbx,%rdi
  4117da:	48 89 44 24 08       	mov    %rax,0x8(%rsp)
  4117df:	48 89 14 24          	mov    %rdx,(%rsp)
  4117e3:	e8 68 7c ff ff       	callq  409450 <__cxa_free_exception@plt>
  4117e8:	48 8b 44 24 08       	mov    0x8(%rsp),%rax
  4117ed:	48 8b 14 24          	mov    (%rsp),%rdx
  4117f1:	48 89 c7             	mov    %rax,%rdi
  4117f4:	eb d6                	jmp    4117cc <_ZN19CommunicatingSocket17getForeignAddressEv+0x9c>
  4117f6:	e8 c5 7d ff ff       	callq  4095c0 <__cxa_call_unexpected@plt>
  4117fb:	90                   	nop
  4117fc:	0f 1f 40 00          	nopl   0x0(%rax)

0000000000411800 <_ZN19CommunicatingSocket14getForeignPortEv>:
  411800:	53                   	push   %rbx
  411801:	48 83 ec 30          	sub    $0x30,%rsp
  411805:	8b 3f                	mov    (%rdi),%edi
  411807:	48 8d 54 24 28       	lea    0x28(%rsp),%rdx
  41180c:	48 8d 74 24 10       	lea    0x10(%rsp),%rsi
  411811:	c7 44 24 28 10 00 00 	movl   $0x10,0x28(%rsp)
  411818:	00 
  411819:	e8 42 7c ff ff       	callq  409460 <getpeername@plt>
  41181e:	85 c0                	test   %eax,%eax
  411820:	78 0f                	js     411831 <_ZN19CommunicatingSocket14getForeignPortEv+0x31>
  411822:	0f b7 44 24 12       	movzwl 0x12(%rsp),%eax
  411827:	48 83 c4 30          	add    $0x30,%rsp
  41182b:	66 c1 c8 08          	ror    $0x8,%ax
  41182f:	5b                   	pop    %rbx
  411830:	c3                   	retq   
  411831:	bf 10 00 00 00       	mov    $0x10,%edi
  411836:	e8 75 7b ff ff       	callq  4093b0 <__cxa_allocate_exception@plt>
  41183b:	48 8d 54 24 2f       	lea    0x2f(%rsp),%rdx
  411840:	48 8d 7c 24 20       	lea    0x20(%rsp),%rdi
  411845:	be d8 41 41 00       	mov    $0x4141d8,%esi
  41184a:	48 89 c3             	mov    %rax,%rbx
  41184d:	e8 1e 7d ff ff       	callq  409570 <_ZNSsC1EPKcRKSaIcE@plt>
  411852:	48 8d 74 24 20       	lea    0x20(%rsp),%rsi
  411857:	ba 01 00 00 00       	mov    $0x1,%edx
  41185c:	48 89 df             	mov    %rbx,%rdi
  41185f:	e8 cc f6 ff ff       	callq  410f30 <_ZN15SocketExceptionC1ERKSsb>
  411864:	48 8d 7c 24 20       	lea    0x20(%rsp),%rdi
  411869:	e8 22 7e ff ff       	callq  409690 <_ZNSsD1Ev@plt>
  41186e:	ba b0 0e 41 00       	mov    $0x410eb0,%edx
  411873:	be 00 43 41 00       	mov    $0x414300,%esi
  411878:	48 89 df             	mov    %rbx,%rdi
  41187b:	e8 80 7e ff ff       	callq  409700 <__cxa_throw@plt>
  411880:	48 89 c7             	mov    %rax,%rdi
  411883:	48 83 c2 01          	add    $0x1,%rdx
  411887:	74 24                	je     4118ad <_ZN19CommunicatingSocket14getForeignPortEv+0xad>
  411889:	e8 92 7e ff ff       	callq  409720 <_Unwind_Resume@plt>
  41188e:	48 89 df             	mov    %rbx,%rdi
  411891:	48 89 44 24 08       	mov    %rax,0x8(%rsp)
  411896:	48 89 14 24          	mov    %rdx,(%rsp)
  41189a:	e8 b1 7b ff ff       	callq  409450 <__cxa_free_exception@plt>
  41189f:	48 8b 44 24 08       	mov    0x8(%rsp),%rax
  4118a4:	48 8b 14 24          	mov    (%rsp),%rdx
  4118a8:	48 89 c7             	mov    %rax,%rdi
  4118ab:	eb d6                	jmp    411883 <_ZN19CommunicatingSocket14getForeignPortEv+0x83>
  4118ad:	e8 0e 7d ff ff       	callq  4095c0 <__cxa_call_unexpected@plt>
  4118b2:	66 66 66 66 66 2e 0f 	data32 data32 data32 data32 nopw %cs:0x0(%rax,%rax,1)
  4118b9:	1f 84 00 00 00 00 00 

00000000004118c0 <_ZN9TCPSocketC1Ev>:
  4118c0:	48 83 ec 08          	sub    $0x8,%rsp
  4118c4:	ba 06 00 00 00       	mov    $0x6,%edx
  4118c9:	be 01 00 00 00       	mov    $0x1,%esi
  4118ce:	e8 1d fc ff ff       	callq  4114f0 <_ZN19CommunicatingSocketC1Eii>
  4118d3:	48 83 c4 08          	add    $0x8,%rsp
  4118d7:	c3                   	retq   
  4118d8:	48 83 c2 01          	add    $0x1,%rdx
  4118dc:	48 89 c7             	mov    %rax,%rdi
  4118df:	74 05                	je     4118e6 <_ZN9TCPSocketC1Ev+0x26>
  4118e1:	e8 3a 7e ff ff       	callq  409720 <_Unwind_Resume@plt>
  4118e6:	e8 d5 7c ff ff       	callq  4095c0 <__cxa_call_unexpected@plt>
  4118eb:	90                   	nop
  4118ec:	0f 1f 40 00          	nopl   0x0(%rax)

00000000004118f0 <_ZN9TCPSocketC1ERKSst>:
  4118f0:	48 89 5c 24 e8       	mov    %rbx,-0x18(%rsp)
  4118f5:	48 89 6c 24 f0       	mov    %rbp,-0x10(%rsp)
  4118fa:	89 d5                	mov    %edx,%ebp
  4118fc:	4c 89 64 24 f8       	mov    %r12,-0x8(%rsp)
  411901:	ba 06 00 00 00       	mov    $0x6,%edx
  411906:	49 89 f4             	mov    %rsi,%r12
  411909:	48 83 ec 18          	sub    $0x18,%rsp
  41190d:	be 01 00 00 00       	mov    $0x1,%esi
  411912:	48 89 fb             	mov    %rdi,%rbx
  411915:	e8 d6 fb ff ff       	callq  4114f0 <_ZN19CommunicatingSocketC1Eii>
  41191a:	0f b7 d5             	movzwl %bp,%edx
  41191d:	4c 89 e6             	mov    %r12,%rsi
  411920:	48 89 df             	mov    %rbx,%rdi
  411923:	e8 08 fc ff ff       	callq  411530 <_ZN19CommunicatingSocket7connectERKSst>
  411928:	48 8b 1c 24          	mov    (%rsp),%rbx
  41192c:	48 8b 6c 24 08       	mov    0x8(%rsp),%rbp
  411931:	4c 8b 64 24 10       	mov    0x10(%rsp),%r12
  411936:	48 83 c4 18          	add    $0x18,%rsp
  41193a:	c3                   	retq   
  41193b:	48 89 c7             	mov    %rax,%rdi
  41193e:	48 83 c2 01          	add    $0x1,%rdx
  411942:	74 1b                	je     41195f <_ZN9TCPSocketC1ERKSst+0x6f>
  411944:	e8 d7 7d ff ff       	callq  409720 <_Unwind_Resume@plt>
  411949:	48 89 c5             	mov    %rax,%rbp
  41194c:	49 89 d4             	mov    %rdx,%r12
  41194f:	48 89 df             	mov    %rbx,%rdi
  411952:	e8 09 f8 ff ff       	callq  411160 <_ZN6SocketD1Ev>
  411957:	48 89 ef             	mov    %rbp,%rdi
  41195a:	4c 89 e2             	mov    %r12,%rdx
  41195d:	eb df                	jmp    41193e <_ZN9TCPSocketC1ERKSst+0x4e>
  41195f:	e8 5c 7c ff ff       	callq  4095c0 <__cxa_call_unexpected@plt>
  411964:	66 66 66 2e 0f 1f 84 	data32 data32 nopw %cs:0x0(%rax,%rax,1)
  41196b:	00 00 00 00 00 

0000000000411970 <_ZN9TCPSocketC1Ei>:
  411970:	89 37                	mov    %esi,(%rdi)
  411972:	c3                   	retq   
  411973:	90                   	nop
  411974:	66 66 66 2e 0f 1f 84 	data32 data32 nopw %cs:0x0(%rax,%rax,1)
  41197b:	00 00 00 00 00 

0000000000411980 <_ZN15TCPServerSocket6acceptEv>:
  411980:	53                   	push   %rbx
  411981:	31 d2                	xor    %edx,%edx
  411983:	31 f6                	xor    %esi,%esi
  411985:	48 83 ec 20          	sub    $0x20,%rsp
  411989:	8b 3f                	mov    (%rdi),%edi
  41198b:	e8 a0 79 ff ff       	callq  409330 <accept@plt>
  411990:	85 c0                	test   %eax,%eax
  411992:	89 c3                	mov    %eax,%ebx
  411994:	78 12                	js     4119a8 <_ZN15TCPServerSocket6acceptEv+0x28>
  411996:	bf 04 00 00 00       	mov    $0x4,%edi
  41199b:	e8 80 7b ff ff       	callq  409520 <_Znwm@plt>
  4119a0:	89 18                	mov    %ebx,(%rax)
  4119a2:	48 83 c4 20          	add    $0x20,%rsp
  4119a6:	5b                   	pop    %rbx
  4119a7:	c3                   	retq   
  4119a8:	bf 10 00 00 00       	mov    $0x10,%edi
  4119ad:	e8 fe 79 ff ff       	callq  4093b0 <__cxa_allocate_exception@plt>
  4119b2:	48 8d 54 24 1f       	lea    0x1f(%rsp),%rdx
  4119b7:	48 8d 7c 24 10       	lea    0x10(%rsp),%rdi
  4119bc:	be 0e 40 41 00       	mov    $0x41400e,%esi
  4119c1:	48 89 c3             	mov    %rax,%rbx
  4119c4:	e8 a7 7b ff ff       	callq  409570 <_ZNSsC1EPKcRKSaIcE@plt>
  4119c9:	48 8d 74 24 10       	lea    0x10(%rsp),%rsi
  4119ce:	ba 01 00 00 00       	mov    $0x1,%edx
  4119d3:	48 89 df             	mov    %rbx,%rdi
  4119d6:	e8 55 f5 ff ff       	callq  410f30 <_ZN15SocketExceptionC1ERKSsb>
  4119db:	48 8d 7c 24 10       	lea    0x10(%rsp),%rdi
  4119e0:	e8 ab 7c ff ff       	callq  409690 <_ZNSsD1Ev@plt>
  4119e5:	ba b0 0e 41 00       	mov    $0x410eb0,%edx
  4119ea:	be 00 43 41 00       	mov    $0x414300,%esi
  4119ef:	48 89 df             	mov    %rbx,%rdi
  4119f2:	e8 09 7d ff ff       	callq  409700 <__cxa_throw@plt>
  4119f7:	48 89 c7             	mov    %rax,%rdi
  4119fa:	48 83 c2 01          	add    $0x1,%rdx
  4119fe:	74 24                	je     411a24 <_ZN15TCPServerSocket6acceptEv+0xa4>
  411a00:	e8 1b 7d ff ff       	callq  409720 <_Unwind_Resume@plt>
  411a05:	48 89 df             	mov    %rbx,%rdi
  411a08:	48 89 44 24 08       	mov    %rax,0x8(%rsp)
  411a0d:	48 89 14 24          	mov    %rdx,(%rsp)
  411a11:	e8 3a 7a ff ff       	callq  409450 <__cxa_free_exception@plt>
  411a16:	48 8b 44 24 08       	mov    0x8(%rsp),%rax
  411a1b:	48 8b 14 24          	mov    (%rsp),%rdx
  411a1f:	48 89 c7             	mov    %rax,%rdi
  411a22:	eb d6                	jmp    4119fa <_ZN15TCPServerSocket6acceptEv+0x7a>
  411a24:	e8 97 7b ff ff       	callq  4095c0 <__cxa_call_unexpected@plt>
  411a29:	90                   	nop
  411a2a:	66 0f 1f 44 00 00    	nopw   0x0(%rax,%rax,1)

0000000000411a30 <_ZN15TCPServerSocket9setListenEi>:
  411a30:	53                   	push   %rbx
  411a31:	48 83 ec 20          	sub    $0x20,%rsp
  411a35:	8b 3f                	mov    (%rdi),%edi
  411a37:	e8 24 7b ff ff       	callq  409560 <listen@plt>
  411a3c:	85 c0                	test   %eax,%eax
  411a3e:	78 06                	js     411a46 <_ZN15TCPServerSocket9setListenEi+0x16>
  411a40:	48 83 c4 20          	add    $0x20,%rsp
  411a44:	5b                   	pop    %rbx
  411a45:	c3                   	retq   
  411a46:	bf 10 00 00 00       	mov    $0x10,%edi
  411a4b:	e8 60 79 ff ff       	callq  4093b0 <__cxa_allocate_exception@plt>
  411a50:	48 8d 54 24 1f       	lea    0x1f(%rsp),%rdx
  411a55:	48 8d 7c 24 10       	lea    0x10(%rsp),%rdi
  411a5a:	be 08 42 41 00       	mov    $0x414208,%esi
  411a5f:	48 89 c3             	mov    %rax,%rbx
  411a62:	e8 09 7b ff ff       	callq  409570 <_ZNSsC1EPKcRKSaIcE@plt>
  411a67:	48 8d 74 24 10       	lea    0x10(%rsp),%rsi
  411a6c:	ba 01 00 00 00       	mov    $0x1,%edx
  411a71:	48 89 df             	mov    %rbx,%rdi
  411a74:	e8 b7 f4 ff ff       	callq  410f30 <_ZN15SocketExceptionC1ERKSsb>
  411a79:	48 8d 7c 24 10       	lea    0x10(%rsp),%rdi
  411a7e:	e8 0d 7c ff ff       	callq  409690 <_ZNSsD1Ev@plt>
  411a83:	ba b0 0e 41 00       	mov    $0x410eb0,%edx
  411a88:	be 00 43 41 00       	mov    $0x414300,%esi
  411a8d:	48 89 df             	mov    %rbx,%rdi
  411a90:	e8 6b 7c ff ff       	callq  409700 <__cxa_throw@plt>
  411a95:	48 89 c7             	mov    %rax,%rdi
  411a98:	48 83 c2 01          	add    $0x1,%rdx
  411a9c:	74 24                	je     411ac2 <_ZN15TCPServerSocket9setListenEi+0x92>
  411a9e:	e8 7d 7c ff ff       	callq  409720 <_Unwind_Resume@plt>
  411aa3:	48 89 df             	mov    %rbx,%rdi
  411aa6:	48 89 44 24 08       	mov    %rax,0x8(%rsp)
  411aab:	48 89 14 24          	mov    %rdx,(%rsp)
  411aaf:	e8 9c 79 ff ff       	callq  409450 <__cxa_free_exception@plt>
  411ab4:	48 8b 44 24 08       	mov    0x8(%rsp),%rax
  411ab9:	48 8b 14 24          	mov    (%rsp),%rdx
  411abd:	48 89 c7             	mov    %rax,%rdi
  411ac0:	eb d6                	jmp    411a98 <_ZN15TCPServerSocket9setListenEi+0x68>
  411ac2:	e8 f9 7a ff ff       	callq  4095c0 <__cxa_call_unexpected@plt>
  411ac7:	90                   	nop
  411ac8:	0f 1f 84 00 00 00 00 	nopl   0x0(%rax,%rax,1)
  411acf:	00 

0000000000411ad0 <_ZN15TCPServerSocketC1ERKSsti>:
  411ad0:	48 89 5c 24 e0       	mov    %rbx,-0x20(%rsp)
  411ad5:	48 89 6c 24 e8       	mov    %rbp,-0x18(%rsp)
  411ada:	89 d5                	mov    %edx,%ebp
  411adc:	4c 89 64 24 f0       	mov    %r12,-0x10(%rsp)
  411ae1:	4c 89 6c 24 f8       	mov    %r13,-0x8(%rsp)
  411ae6:	49 89 f4             	mov    %rsi,%r12
  411ae9:	48 83 ec 28          	sub    $0x28,%rsp
  411aed:	ba 06 00 00 00       	mov    $0x6,%edx
  411af2:	be 01 00 00 00       	mov    $0x1,%esi
  411af7:	48 89 fb             	mov    %rdi,%rbx
  411afa:	41 89 cd             	mov    %ecx,%r13d
  411afd:	e8 ae f5 ff ff       	callq  4110b0 <_ZN6SocketC1Eii>
  411b02:	0f b7 d5             	movzwl %bp,%edx
  411b05:	4c 89 e6             	mov    %r12,%rsi
  411b08:	48 89 df             	mov    %rbx,%rdi
  411b0b:	e8 d0 f8 ff ff       	callq  4113e0 <_ZN6Socket22setLocalAddressAndPortERKSst>
  411b10:	44 89 ee             	mov    %r13d,%esi
  411b13:	48 89 df             	mov    %rbx,%rdi
  411b16:	e8 15 ff ff ff       	callq  411a30 <_ZN15TCPServerSocket9setListenEi>
  411b1b:	48 8b 5c 24 08       	mov    0x8(%rsp),%rbx
  411b20:	48 8b 6c 24 10       	mov    0x10(%rsp),%rbp
  411b25:	4c 8b 64 24 18       	mov    0x18(%rsp),%r12
  411b2a:	4c 8b 6c 24 20       	mov    0x20(%rsp),%r13
  411b2f:	48 83 c4 28          	add    $0x28,%rsp
  411b33:	c3                   	retq   
  411b34:	48 89 c7             	mov    %rax,%rdi
  411b37:	48 83 c2 01          	add    $0x1,%rdx
  411b3b:	74 1b                	je     411b58 <_ZN15TCPServerSocketC1ERKSsti+0x88>
  411b3d:	e8 de 7b ff ff       	callq  409720 <_Unwind_Resume@plt>
  411b42:	48 89 c5             	mov    %rax,%rbp
  411b45:	49 89 d4             	mov    %rdx,%r12
  411b48:	48 89 df             	mov    %rbx,%rdi
  411b4b:	e8 10 f6 ff ff       	callq  411160 <_ZN6SocketD1Ev>
  411b50:	48 89 ef             	mov    %rbp,%rdi
  411b53:	4c 89 e2             	mov    %r12,%rdx
  411b56:	eb df                	jmp    411b37 <_ZN15TCPServerSocketC1ERKSsti+0x67>
  411b58:	e8 63 7a ff ff       	callq  4095c0 <__cxa_call_unexpected@plt>
  411b5d:	90                   	nop
  411b5e:	66 90                	xchg   %ax,%ax

0000000000411b60 <_ZN15TCPServerSocketC1Eti>:
  411b60:	48 89 5c 24 e8       	mov    %rbx,-0x18(%rsp)
  411b65:	48 89 6c 24 f0       	mov    %rbp,-0x10(%rsp)
  411b6a:	89 f5                	mov    %esi,%ebp
  411b6c:	4c 89 64 24 f8       	mov    %r12,-0x8(%rsp)
  411b71:	be 01 00 00 00       	mov    $0x1,%esi
  411b76:	41 89 d4             	mov    %edx,%r12d
  411b79:	48 83 ec 18          	sub    $0x18,%rsp
  411b7d:	ba 06 00 00 00       	mov    $0x6,%edx
  411b82:	48 89 fb             	mov    %rdi,%rbx
  411b85:	e8 26 f5 ff ff       	callq  4110b0 <_ZN6SocketC1Eii>
  411b8a:	0f b7 f5             	movzwl %bp,%esi
  411b8d:	48 89 df             	mov    %rbx,%rdi
  411b90:	e8 7b f7 ff ff       	callq  411310 <_ZN6Socket12setLocalPortEt>
  411b95:	44 89 e6             	mov    %r12d,%esi
  411b98:	48 89 df             	mov    %rbx,%rdi
  411b9b:	e8 90 fe ff ff       	callq  411a30 <_ZN15TCPServerSocket9setListenEi>
  411ba0:	48 8b 1c 24          	mov    (%rsp),%rbx
  411ba4:	48 8b 6c 24 08       	mov    0x8(%rsp),%rbp
  411ba9:	4c 8b 64 24 10       	mov    0x10(%rsp),%r12
  411bae:	48 83 c4 18          	add    $0x18,%rsp
  411bb2:	c3                   	retq   
  411bb3:	48 89 c7             	mov    %rax,%rdi
  411bb6:	48 83 c2 01          	add    $0x1,%rdx
  411bba:	74 1b                	je     411bd7 <_ZN15TCPServerSocketC1Eti+0x77>
  411bbc:	e8 5f 7b ff ff       	callq  409720 <_Unwind_Resume@plt>
  411bc1:	48 89 c5             	mov    %rax,%rbp
  411bc4:	49 89 d4             	mov    %rdx,%r12
  411bc7:	48 89 df             	mov    %rbx,%rdi
  411bca:	e8 91 f5 ff ff       	callq  411160 <_ZN6SocketD1Ev>
  411bcf:	48 89 ef             	mov    %rbp,%rdi
  411bd2:	4c 89 e2             	mov    %r12,%rdx
  411bd5:	eb df                	jmp    411bb6 <_ZN15TCPServerSocketC1Eti+0x56>
  411bd7:	e8 e4 79 ff ff       	callq  4095c0 <__cxa_call_unexpected@plt>
  411bdc:	0f 1f 40 00          	nopl   0x0(%rax)

0000000000411be0 <_ZN9UDPSocket12setBroadcastEv>:
  411be0:	48 83 ec 18          	sub    $0x18,%rsp
  411be4:	8b 3f                	mov    (%rdi),%edi
  411be6:	41 b8 04 00 00 00    	mov    $0x4,%r8d
  411bec:	48 8d 4c 24 0c       	lea    0xc(%rsp),%rcx
  411bf1:	ba 06 00 00 00       	mov    $0x6,%edx
  411bf6:	be 01 00 00 00       	mov    $0x1,%esi
  411bfb:	c7 44 24 0c 01 00 00 	movl   $0x1,0xc(%rsp)
  411c02:	00 
  411c03:	e8 28 7b ff ff       	callq  409730 <setsockopt@plt>
  411c08:	48 83 c4 18          	add    $0x18,%rsp
  411c0c:	c3                   	retq   
  411c0d:	90                   	nop
  411c0e:	66 90                	xchg   %ax,%ax

0000000000411c10 <_ZN9UDPSocketC1ERKSst>:
  411c10:	48 89 5c 24 e8       	mov    %rbx,-0x18(%rsp)
  411c15:	48 89 6c 24 f0       	mov    %rbp,-0x10(%rsp)
  411c1a:	89 d5                	mov    %edx,%ebp
  411c1c:	4c 89 64 24 f8       	mov    %r12,-0x8(%rsp)
  411c21:	ba 11 00 00 00       	mov    $0x11,%edx
  411c26:	49 89 f4             	mov    %rsi,%r12
  411c29:	48 83 ec 18          	sub    $0x18,%rsp
  411c2d:	be 02 00 00 00       	mov    $0x2,%esi
  411c32:	48 89 fb             	mov    %rdi,%rbx
  411c35:	e8 b6 f8 ff ff       	callq  4114f0 <_ZN19CommunicatingSocketC1Eii>
  411c3a:	0f b7 d5             	movzwl %bp,%edx
  411c3d:	4c 89 e6             	mov    %r12,%rsi
  411c40:	48 89 df             	mov    %rbx,%rdi
  411c43:	e8 98 f7 ff ff       	callq  4113e0 <_ZN6Socket22setLocalAddressAndPortERKSst>
  411c48:	48 89 df             	mov    %rbx,%rdi
  411c4b:	48 8b 6c 24 08       	mov    0x8(%rsp),%rbp
  411c50:	48 8b 1c 24          	mov    (%rsp),%rbx
  411c54:	4c 8b 64 24 10       	mov    0x10(%rsp),%r12
  411c59:	48 83 c4 18          	add    $0x18,%rsp
  411c5d:	e9 7e ff ff ff       	jmpq   411be0 <_ZN9UDPSocket12setBroadcastEv>
  411c62:	48 89 c7             	mov    %rax,%rdi
  411c65:	48 83 c2 01          	add    $0x1,%rdx
  411c69:	74 1b                	je     411c86 <_ZN9UDPSocketC1ERKSst+0x76>
  411c6b:	e8 b0 7a ff ff       	callq  409720 <_Unwind_Resume@plt>
  411c70:	48 89 c5             	mov    %rax,%rbp
  411c73:	49 89 d4             	mov    %rdx,%r12
  411c76:	48 89 df             	mov    %rbx,%rdi
  411c79:	e8 e2 f4 ff ff       	callq  411160 <_ZN6SocketD1Ev>
  411c7e:	48 89 ef             	mov    %rbp,%rdi
  411c81:	4c 89 e2             	mov    %r12,%rdx
  411c84:	eb df                	jmp    411c65 <_ZN9UDPSocketC1ERKSst+0x55>
  411c86:	e8 35 79 ff ff       	callq  4095c0 <__cxa_call_unexpected@plt>
  411c8b:	90                   	nop
  411c8c:	0f 1f 40 00          	nopl   0x0(%rax)

0000000000411c90 <_ZN9UDPSocketC1Et>:
  411c90:	48 89 5c 24 f0       	mov    %rbx,-0x10(%rsp)
  411c95:	48 89 6c 24 f8       	mov    %rbp,-0x8(%rsp)
  411c9a:	ba 11 00 00 00       	mov    $0x11,%edx
  411c9f:	89 f5                	mov    %esi,%ebp
  411ca1:	48 83 ec 28          	sub    $0x28,%rsp
  411ca5:	be 02 00 00 00       	mov    $0x2,%esi
  411caa:	48 89 fb             	mov    %rdi,%rbx
  411cad:	e8 3e f8 ff ff       	callq  4114f0 <_ZN19CommunicatingSocketC1Eii>
  411cb2:	0f b7 f5             	movzwl %bp,%esi
  411cb5:	48 89 df             	mov    %rbx,%rdi
  411cb8:	e8 53 f6 ff ff       	callq  411310 <_ZN6Socket12setLocalPortEt>
  411cbd:	48 89 df             	mov    %rbx,%rdi
  411cc0:	48 8b 6c 24 20       	mov    0x20(%rsp),%rbp
  411cc5:	48 8b 5c 24 18       	mov    0x18(%rsp),%rbx
  411cca:	48 83 c4 28          	add    $0x28,%rsp
  411cce:	e9 0d ff ff ff       	jmpq   411be0 <_ZN9UDPSocket12setBroadcastEv>
  411cd3:	48 89 c7             	mov    %rax,%rdi
  411cd6:	48 83 c2 01          	add    $0x1,%rdx
  411cda:	74 1f                	je     411cfb <_ZN9UDPSocketC1Et+0x6b>
  411cdc:	e8 3f 7a ff ff       	callq  409720 <_Unwind_Resume@plt>
  411ce1:	48 89 c5             	mov    %rax,%rbp
  411ce4:	48 89 df             	mov    %rbx,%rdi
  411ce7:	48 89 54 24 08       	mov    %rdx,0x8(%rsp)
  411cec:	e8 6f f4 ff ff       	callq  411160 <_ZN6SocketD1Ev>
  411cf1:	48 89 ef             	mov    %rbp,%rdi
  411cf4:	48 8b 54 24 08       	mov    0x8(%rsp),%rdx
  411cf9:	eb db                	jmp    411cd6 <_ZN9UDPSocketC1Et+0x46>
  411cfb:	e8 c0 78 ff ff       	callq  4095c0 <__cxa_call_unexpected@plt>

0000000000411d00 <_ZN9UDPSocketC1Ev>:
  411d00:	53                   	push   %rbx
  411d01:	ba 11 00 00 00       	mov    $0x11,%edx
  411d06:	be 02 00 00 00       	mov    $0x2,%esi
  411d0b:	48 89 fb             	mov    %rdi,%rbx
  411d0e:	e8 dd f7 ff ff       	callq  4114f0 <_ZN19CommunicatingSocketC1Eii>
  411d13:	48 89 df             	mov    %rbx,%rdi
  411d16:	5b                   	pop    %rbx
  411d17:	e9 c4 fe ff ff       	jmpq   411be0 <_ZN9UDPSocket12setBroadcastEv>
  411d1c:	48 83 c2 01          	add    $0x1,%rdx
  411d20:	48 89 c7             	mov    %rax,%rdi
  411d23:	74 05                	je     411d2a <_ZN9UDPSocketC1Ev+0x2a>
  411d25:	e8 f6 79 ff ff       	callq  409720 <_Unwind_Resume@plt>
  411d2a:	e8 91 78 ff ff       	callq  4095c0 <__cxa_call_unexpected@plt>
  411d2f:	90                   	nop

0000000000411d30 <_ZN9UDPSocket10disconnectEv>:
  411d30:	53                   	push   %rbx
  411d31:	ba 10 00 00 00       	mov    $0x10,%edx
  411d36:	48 83 ec 30          	sub    $0x30,%rsp
  411d3a:	8b 3f                	mov    (%rdi),%edi
  411d3c:	48 8d 74 24 10       	lea    0x10(%rsp),%rsi
  411d41:	48 c7 44 24 10 00 00 	movq   $0x0,0x10(%rsp)
  411d48:	00 00 
  411d4a:	48 c7 44 24 18 00 00 	movq   $0x0,0x18(%rsp)
  411d51:	00 00 
  411d53:	e8 48 77 ff ff       	callq  4094a0 <connect@plt>
  411d58:	85 c0                	test   %eax,%eax
  411d5a:	78 0c                	js     411d68 <_ZN9UDPSocket10disconnectEv+0x38>
  411d5c:	48 83 c4 30          	add    $0x30,%rsp
  411d60:	5b                   	pop    %rbx
  411d61:	c3                   	retq   
  411d62:	66 0f 1f 44 00 00    	nopw   0x0(%rax,%rax,1)
  411d68:	e8 03 75 ff ff       	callq  409270 <__errno_location@plt>
  411d6d:	83 38 61             	cmpl   $0x61,(%rax)
  411d70:	74 ea                	je     411d5c <_ZN9UDPSocket10disconnectEv+0x2c>
  411d72:	bf 10 00 00 00       	mov    $0x10,%edi
  411d77:	e8 34 76 ff ff       	callq  4093b0 <__cxa_allocate_exception@plt>
  411d7c:	48 8d 54 24 2f       	lea    0x2f(%rsp),%rdx
  411d81:	48 8d 7c 24 20       	lea    0x20(%rsp),%rdi
  411d86:	be 27 40 41 00       	mov    $0x414027,%esi
  411d8b:	48 89 c3             	mov    %rax,%rbx
  411d8e:	e8 dd 77 ff ff       	callq  409570 <_ZNSsC1EPKcRKSaIcE@plt>
  411d93:	48 8d 74 24 20       	lea    0x20(%rsp),%rsi
  411d98:	ba 01 00 00 00       	mov    $0x1,%edx
  411d9d:	48 89 df             	mov    %rbx,%rdi
  411da0:	e8 8b f1 ff ff       	callq  410f30 <_ZN15SocketExceptionC1ERKSsb>
  411da5:	48 8d 7c 24 20       	lea    0x20(%rsp),%rdi
  411daa:	e8 e1 78 ff ff       	callq  409690 <_ZNSsD1Ev@plt>
  411daf:	ba b0 0e 41 00       	mov    $0x410eb0,%edx
  411db4:	be 00 43 41 00       	mov    $0x414300,%esi
  411db9:	48 89 df             	mov    %rbx,%rdi
  411dbc:	e8 3f 79 ff ff       	callq  409700 <__cxa_throw@plt>
  411dc1:	48 89 c7             	mov    %rax,%rdi
  411dc4:	48 83 c2 01          	add    $0x1,%rdx
  411dc8:	74 24                	je     411dee <_ZN9UDPSocket10disconnectEv+0xbe>
  411dca:	e8 51 79 ff ff       	callq  409720 <_Unwind_Resume@plt>
  411dcf:	48 89 df             	mov    %rbx,%rdi
  411dd2:	48 89 44 24 08       	mov    %rax,0x8(%rsp)
  411dd7:	48 89 14 24          	mov    %rdx,(%rsp)
  411ddb:	e8 70 76 ff ff       	callq  409450 <__cxa_free_exception@plt>
  411de0:	48 8b 44 24 08       	mov    0x8(%rsp),%rax
  411de5:	48 8b 14 24          	mov    (%rsp),%rdx
  411de9:	48 89 c7             	mov    %rax,%rdi
  411dec:	eb d6                	jmp    411dc4 <_ZN9UDPSocket10disconnectEv+0x94>
  411dee:	e8 cd 77 ff ff       	callq  4095c0 <__cxa_call_unexpected@plt>
  411df3:	90                   	nop
  411df4:	66 66 66 2e 0f 1f 84 	data32 data32 nopw %cs:0x0(%rax,%rax,1)
  411dfb:	00 00 00 00 00 

0000000000411e00 <_ZN9UDPSocket6sendToEPKviRKSst>:
  411e00:	48 89 5c 24 e8       	mov    %rbx,-0x18(%rsp)
  411e05:	48 89 6c 24 f0       	mov    %rbp,-0x10(%rsp)
  411e0a:	89 d3                	mov    %edx,%ebx
  411e0c:	4c 89 64 24 f8       	mov    %r12,-0x8(%rsp)
  411e11:	48 83 ec 38          	sub    $0x38,%rsp
  411e15:	48 89 fd             	mov    %rdi,%rbp
  411e18:	49 89 f4             	mov    %rsi,%r12
  411e1b:	48 89 e2             	mov    %rsp,%rdx
  411e1e:	41 0f b7 f0          	movzwl %r8w,%esi
  411e22:	48 89 cf             	mov    %rcx,%rdi
  411e25:	e8 c6 f1 ff ff       	callq  410ff0 <_ZL8fillAddrRKSstR11sockaddr_in.constprop.8>
  411e2a:	8b 7d 00             	mov    0x0(%rbp),%edi
  411e2d:	48 63 db             	movslq %ebx,%rbx
  411e30:	41 b9 10 00 00 00    	mov    $0x10,%r9d
  411e36:	49 89 e0             	mov    %rsp,%r8
  411e39:	31 c9                	xor    %ecx,%ecx
  411e3b:	48 89 da             	mov    %rbx,%rdx
  411e3e:	4c 89 e6             	mov    %r12,%rsi
  411e41:	e8 4a 74 ff ff       	callq  409290 <sendto@plt>
  411e46:	48 39 d8             	cmp    %rbx,%rax
  411e49:	75 14                	jne    411e5f <_ZN9UDPSocket6sendToEPKviRKSst+0x5f>
  411e4b:	48 8b 5c 24 20       	mov    0x20(%rsp),%rbx
  411e50:	48 8b 6c 24 28       	mov    0x28(%rsp),%rbp
  411e55:	4c 8b 64 24 30       	mov    0x30(%rsp),%r12
  411e5a:	48 83 c4 38          	add    $0x38,%rsp
  411e5e:	c3                   	retq   
  411e5f:	bf 10 00 00 00       	mov    $0x10,%edi
  411e64:	e8 47 75 ff ff       	callq  4093b0 <__cxa_allocate_exception@plt>
  411e69:	48 8d 54 24 1f       	lea    0x1f(%rsp),%rdx
  411e6e:	48 8d 7c 24 10       	lea    0x10(%rsp),%rdi
  411e73:	be 45 40 41 00       	mov    $0x414045,%esi
  411e78:	48 89 c3             	mov    %rax,%rbx
  411e7b:	e8 f0 76 ff ff       	callq  409570 <_ZNSsC1EPKcRKSaIcE@plt>
  411e80:	48 8d 74 24 10       	lea    0x10(%rsp),%rsi
  411e85:	ba 01 00 00 00       	mov    $0x1,%edx
  411e8a:	48 89 df             	mov    %rbx,%rdi
  411e8d:	e8 9e f0 ff ff       	callq  410f30 <_ZN15SocketExceptionC1ERKSsb>
  411e92:	48 8d 7c 24 10       	lea    0x10(%rsp),%rdi
  411e97:	e8 f4 77 ff ff       	callq  409690 <_ZNSsD1Ev@plt>
  411e9c:	ba b0 0e 41 00       	mov    $0x410eb0,%edx
  411ea1:	be 00 43 41 00       	mov    $0x414300,%esi
  411ea6:	48 89 df             	mov    %rbx,%rdi
  411ea9:	e8 52 78 ff ff       	callq  409700 <__cxa_throw@plt>
  411eae:	48 89 c7             	mov    %rax,%rdi
  411eb1:	48 83 c2 01          	add    $0x1,%rdx
  411eb5:	74 1b                	je     411ed2 <_ZN9UDPSocket6sendToEPKviRKSst+0xd2>
  411eb7:	e8 64 78 ff ff       	callq  409720 <_Unwind_Resume@plt>
  411ebc:	48 89 c5             	mov    %rax,%rbp
  411ebf:	49 89 d4             	mov    %rdx,%r12
  411ec2:	48 89 df             	mov    %rbx,%rdi
  411ec5:	e8 86 75 ff ff       	callq  409450 <__cxa_free_exception@plt>
  411eca:	48 89 ef             	mov    %rbp,%rdi
  411ecd:	4c 89 e2             	mov    %r12,%rdx
  411ed0:	eb df                	jmp    411eb1 <_ZN9UDPSocket6sendToEPKviRKSst+0xb1>
  411ed2:	e8 e9 76 ff ff       	callq  4095c0 <__cxa_call_unexpected@plt>
  411ed7:	90                   	nop
  411ed8:	0f 1f 84 00 00 00 00 	nopl   0x0(%rax,%rax,1)
  411edf:	00 

0000000000411ee0 <_ZN9UDPSocket8recvFromEPviRSsRt>:
  411ee0:	41 56                	push   %r14
  411ee2:	31 c0                	xor    %eax,%eax
  411ee4:	49 89 ce             	mov    %rcx,%r14
  411ee7:	b9 10 00 00 00       	mov    $0x10,%ecx
  411eec:	41 55                	push   %r13
  411eee:	49 89 f5             	mov    %rsi,%r13
  411ef1:	41 54                	push   %r12
  411ef3:	41 89 d4             	mov    %edx,%r12d
  411ef6:	55                   	push   %rbp
  411ef7:	4c 89 c5             	mov    %r8,%rbp
  411efa:	53                   	push   %rbx
  411efb:	48 89 fb             	mov    %rdi,%rbx
  411efe:	48 81 ec 50 01 00 00 	sub    $0x150,%rsp
  411f05:	c7 84 24 48 01 00 00 	movl   $0x10,0x148(%rsp)
  411f0c:	10 00 00 00 
  411f10:	48 c7 84 24 10 01 00 	movq   $0x1,0x110(%rsp)
  411f17:	00 01 00 00 00 
  411f1c:	48 8d bc 24 80 00 00 	lea    0x80(%rsp),%rdi
  411f23:	00 
  411f24:	48 c7 84 24 18 01 00 	movq   $0x0,0x118(%rsp)
  411f2b:	00 00 00 00 00 
  411f30:	fc                   	cld    
  411f31:	f3 48 ab             	rep stos %rax,%es:(%rdi)
  411f34:	8b 3b                	mov    (%rbx),%edi
  411f36:	4c 8d 84 24 10 01 00 	lea    0x110(%rsp),%r8
  411f3d:	00 
  411f3e:	48 89 e6             	mov    %rsp,%rsi
  411f41:	8d 57 3f             	lea    0x3f(%rdi),%edx
  411f44:	85 ff                	test   %edi,%edi
  411f46:	89 f8                	mov    %edi,%eax
  411f48:	0f 49 d7             	cmovns %edi,%edx
  411f4b:	c1 f8 1f             	sar    $0x1f,%eax
  411f4e:	c1 e8 1a             	shr    $0x1a,%eax
  411f51:	c1 fa 06             	sar    $0x6,%edx
  411f54:	8d 0c 07             	lea    (%rdi,%rax,1),%ecx
  411f57:	48 63 d2             	movslq %edx,%rdx
  411f5a:	83 c7 01             	add    $0x1,%edi
  411f5d:	83 e1 3f             	and    $0x3f,%ecx
  411f60:	29 c1                	sub    %eax,%ecx
  411f62:	b8 01 00 00 00       	mov    $0x1,%eax
  411f67:	48 d3 e0             	shl    %cl,%rax
  411f6a:	48 09 84 d4 80 00 00 	or     %rax,0x80(%rsp,%rdx,8)
  411f71:	00 
  411f72:	31 c9                	xor    %ecx,%ecx
  411f74:	48 8b 84 24 80 00 00 	mov    0x80(%rsp),%rax
  411f7b:	00 
  411f7c:	31 d2                	xor    %edx,%edx
  411f7e:	48 89 04 24          	mov    %rax,(%rsp)
  411f82:	48 8b 84 24 88 00 00 	mov    0x88(%rsp),%rax
  411f89:	00 
  411f8a:	48 89 44 24 08       	mov    %rax,0x8(%rsp)
  411f8f:	48 8b 84 24 90 00 00 	mov    0x90(%rsp),%rax
  411f96:	00 
  411f97:	48 89 44 24 10       	mov    %rax,0x10(%rsp)
  411f9c:	48 8b 84 24 98 00 00 	mov    0x98(%rsp),%rax
  411fa3:	00 
  411fa4:	48 89 44 24 18       	mov    %rax,0x18(%rsp)
  411fa9:	48 8b 84 24 a0 00 00 	mov    0xa0(%rsp),%rax
  411fb0:	00 
  411fb1:	48 89 44 24 20       	mov    %rax,0x20(%rsp)
  411fb6:	48 8b 84 24 a8 00 00 	mov    0xa8(%rsp),%rax
  411fbd:	00 
  411fbe:	48 89 44 24 28       	mov    %rax,0x28(%rsp)
  411fc3:	48 8b 84 24 b0 00 00 	mov    0xb0(%rsp),%rax
  411fca:	00 
  411fcb:	48 89 44 24 30       	mov    %rax,0x30(%rsp)
  411fd0:	48 8b 84 24 b8 00 00 	mov    0xb8(%rsp),%rax
  411fd7:	00 
  411fd8:	48 89 44 24 38       	mov    %rax,0x38(%rsp)
  411fdd:	48 8b 84 24 c0 00 00 	mov    0xc0(%rsp),%rax
  411fe4:	00 
  411fe5:	48 89 44 24 40       	mov    %rax,0x40(%rsp)
  411fea:	48 8b 84 24 c8 00 00 	mov    0xc8(%rsp),%rax
  411ff1:	00 
  411ff2:	48 89 44 24 48       	mov    %rax,0x48(%rsp)
  411ff7:	48 8b 84 24 d0 00 00 	mov    0xd0(%rsp),%rax
  411ffe:	00 
  411fff:	48 89 44 24 50       	mov    %rax,0x50(%rsp)
  412004:	48 8b 84 24 d8 00 00 	mov    0xd8(%rsp),%rax
  41200b:	00 
  41200c:	48 89 44 24 58       	mov    %rax,0x58(%rsp)
  412011:	48 8b 84 24 e0 00 00 	mov    0xe0(%rsp),%rax
  412018:	00 
  412019:	48 89 44 24 60       	mov    %rax,0x60(%rsp)
  41201e:	48 8b 84 24 e8 00 00 	mov    0xe8(%rsp),%rax
  412025:	00 
  412026:	48 89 44 24 68       	mov    %rax,0x68(%rsp)
  41202b:	48 8b 84 24 f0 00 00 	mov    0xf0(%rsp),%rax
  412032:	00 
  412033:	48 89 44 24 70       	mov    %rax,0x70(%rsp)
  412038:	48 8b 84 24 f8 00 00 	mov    0xf8(%rsp),%rax
  41203f:	00 
  412040:	48 89 44 24 78       	mov    %rax,0x78(%rsp)
  412045:	e8 b6 74 ff ff       	callq  409500 <select@plt>
  41204a:	85 c0                	test   %eax,%eax
  41204c:	0f 88 9c 00 00 00    	js     4120ee <_ZN9UDPSocket8recvFromEPviRSsRt+0x20e>
  412052:	8b 3b                	mov    (%rbx),%edi
  412054:	8d 47 3f             	lea    0x3f(%rdi),%eax
  412057:	85 ff                	test   %edi,%edi
  412059:	89 fa                	mov    %edi,%edx
  41205b:	0f 49 c7             	cmovns %edi,%eax
  41205e:	c1 fa 1f             	sar    $0x1f,%edx
  412061:	c1 ea 1a             	shr    $0x1a,%edx
  412064:	c1 f8 06             	sar    $0x6,%eax
  412067:	48 63 c8             	movslq %eax,%rcx
  41206a:	8d 04 17             	lea    (%rdi,%rdx,1),%eax
  41206d:	83 e0 3f             	and    $0x3f,%eax
  412070:	29 d0                	sub    %edx,%eax
  412072:	48 8b 14 cc          	mov    (%rsp,%rcx,8),%rdx
  412076:	48 0f a3 c2          	bt     %rax,%rdx
  41207a:	0f 83 39 01 00 00    	jae    4121b9 <_ZN9UDPSocket8recvFromEPviRSsRt+0x2d9>
  412080:	4c 8d 8c 24 48 01 00 	lea    0x148(%rsp),%r9
  412087:	00 
  412088:	4c 8d 84 24 00 01 00 	lea    0x100(%rsp),%r8
  41208f:	00 
  412090:	49 63 d4             	movslq %r12d,%rdx
  412093:	31 c9                	xor    %ecx,%ecx
  412095:	4c 89 ee             	mov    %r13,%rsi
  412098:	e8 e3 73 ff ff       	callq  409480 <recvfrom@plt>
  41209d:	85 c0                	test   %eax,%eax
  41209f:	89 c3                	mov    %eax,%ebx
  4120a1:	0f 88 b7 00 00 00    	js     41215e <_ZN9UDPSocket8recvFromEPviRSsRt+0x27e>
  4120a7:	8b bc 24 04 01 00 00 	mov    0x104(%rsp),%edi
  4120ae:	e8 dd 72 ff ff       	callq  409390 <inet_ntoa@plt>
  4120b3:	49 89 c4             	mov    %rax,%r12
  4120b6:	48 89 c7             	mov    %rax,%rdi
  4120b9:	e8 c2 72 ff ff       	callq  409380 <strlen@plt>
  4120be:	4c 89 e6             	mov    %r12,%rsi
  4120c1:	48 89 c2             	mov    %rax,%rdx
  4120c4:	4c 89 f7             	mov    %r14,%rdi
  4120c7:	e8 c4 74 ff ff       	callq  409590 <_ZNSs6assignEPKcm@plt>
  4120cc:	0f b7 84 24 02 01 00 	movzwl 0x102(%rsp),%eax
  4120d3:	00 
  4120d4:	66 c1 c8 08          	ror    $0x8,%ax
  4120d8:	66 89 45 00          	mov    %ax,0x0(%rbp)
  4120dc:	48 81 c4 50 01 00 00 	add    $0x150,%rsp
  4120e3:	89 d8                	mov    %ebx,%eax
  4120e5:	5b                   	pop    %rbx
  4120e6:	5d                   	pop    %rbp
  4120e7:	41 5c                	pop    %r12
  4120e9:	41 5d                	pop    %r13
  4120eb:	41 5e                	pop    %r14
  4120ed:	c3                   	retq   
  4120ee:	bf 10 00 00 00       	mov    $0x10,%edi
  4120f3:	e8 b8 72 ff ff       	callq  4093b0 <__cxa_allocate_exception@plt>
  4120f8:	48 8d 94 24 4d 01 00 	lea    0x14d(%rsp),%rdx
  4120ff:	00 
  412100:	48 8d bc 24 20 01 00 	lea    0x120(%rsp),%rdi
  412107:	00 
  412108:	be 5c 40 41 00       	mov    $0x41405c,%esi
  41210d:	48 89 c3             	mov    %rax,%rbx
  412110:	e8 5b 74 ff ff       	callq  409570 <_ZNSsC1EPKcRKSaIcE@plt>
  412115:	48 8d b4 24 20 01 00 	lea    0x120(%rsp),%rsi
  41211c:	00 
  41211d:	ba 01 00 00 00       	mov    $0x1,%edx
  412122:	48 89 df             	mov    %rbx,%rdi
  412125:	e8 06 ee ff ff       	callq  410f30 <_ZN15SocketExceptionC1ERKSsb>
  41212a:	48 8d bc 24 20 01 00 	lea    0x120(%rsp),%rdi
  412131:	00 
  412132:	e8 59 75 ff ff       	callq  409690 <_ZNSsD1Ev@plt>
  412137:	ba b0 0e 41 00       	mov    $0x410eb0,%edx
  41213c:	be 00 43 41 00       	mov    $0x414300,%esi
  412141:	48 89 df             	mov    %rbx,%rdi
  412144:	e8 b7 75 ff ff       	callq  409700 <__cxa_throw@plt>
  412149:	48 89 c7             	mov    %rax,%rdi
  41214c:	49 89 d4             	mov    %rdx,%r12
  41214f:	49 83 c4 01          	add    $0x1,%r12
  412153:	0f 84 d3 00 00 00    	je     41222c <_ZN9UDPSocket8recvFromEPviRSsRt+0x34c>
  412159:	e8 c2 75 ff ff       	callq  409720 <_Unwind_Resume@plt>
  41215e:	bf 10 00 00 00       	mov    $0x10,%edi
  412163:	e8 48 72 ff ff       	callq  4093b0 <__cxa_allocate_exception@plt>
  412168:	48 8d 94 24 4f 01 00 	lea    0x14f(%rsp),%rdx
  41216f:	00 
  412170:	48 8d bc 24 40 01 00 	lea    0x140(%rsp),%rdi
  412177:	00 
  412178:	be 76 40 41 00       	mov    $0x414076,%esi
  41217d:	48 89 c3             	mov    %rax,%rbx
  412180:	e8 eb 73 ff ff       	callq  409570 <_ZNSsC1EPKcRKSaIcE@plt>
  412185:	48 8d b4 24 40 01 00 	lea    0x140(%rsp),%rsi
  41218c:	00 
  41218d:	ba 01 00 00 00       	mov    $0x1,%edx
  412192:	48 89 df             	mov    %rbx,%rdi
  412195:	e8 96 ed ff ff       	callq  410f30 <_ZN15SocketExceptionC1ERKSsb>
  41219a:	48 8d bc 24 40 01 00 	lea    0x140(%rsp),%rdi
  4121a1:	00 
  4121a2:	e8 e9 74 ff ff       	callq  409690 <_ZNSsD1Ev@plt>
  4121a7:	ba b0 0e 41 00       	mov    $0x410eb0,%edx
  4121ac:	be 00 43 41 00       	mov    $0x414300,%esi
  4121b1:	48 89 df             	mov    %rbx,%rdi
  4121b4:	e8 47 75 ff ff       	callq  409700 <__cxa_throw@plt>
  4121b9:	bf 10 00 00 00       	mov    $0x10,%edi
  4121be:	e8 ed 71 ff ff       	callq  4093b0 <__cxa_allocate_exception@plt>
  4121c3:	48 8d 94 24 4e 01 00 	lea    0x14e(%rsp),%rdx
  4121ca:	00 
  4121cb:	48 8d bc 24 30 01 00 	lea    0x130(%rsp),%rdi
  4121d2:	00 
  4121d3:	be 30 42 41 00       	mov    $0x414230,%esi
  4121d8:	48 89 c3             	mov    %rax,%rbx
  4121db:	e8 90 73 ff ff       	callq  409570 <_ZNSsC1EPKcRKSaIcE@plt>
  4121e0:	48 8d b4 24 30 01 00 	lea    0x130(%rsp),%rsi
  4121e7:	00 
  4121e8:	ba 01 00 00 00       	mov    $0x1,%edx
  4121ed:	48 89 df             	mov    %rbx,%rdi
  4121f0:	e8 3b ed ff ff       	callq  410f30 <_ZN15SocketExceptionC1ERKSsb>
  4121f5:	48 8d bc 24 30 01 00 	lea    0x130(%rsp),%rdi
  4121fc:	00 
  4121fd:	e8 8e 74 ff ff       	callq  409690 <_ZNSsD1Ev@plt>
  412202:	ba b0 0e 41 00       	mov    $0x410eb0,%edx
  412207:	be 00 43 41 00       	mov    $0x414300,%esi
  41220c:	48 89 df             	mov    %rbx,%rdi
  41220f:	e8 ec 74 ff ff       	callq  409700 <__cxa_throw@plt>
  412214:	48 89 c5             	mov    %rax,%rbp
  412217:	48 89 df             	mov    %rbx,%rdi
  41221a:	49 89 d4             	mov    %rdx,%r12
  41221d:	e8 2e 72 ff ff       	callq  409450 <__cxa_free_exception@plt>
  412222:	48 89 ef             	mov    %rbp,%rdi
  412225:	e9 25 ff ff ff       	jmpq   41214f <_ZN9UDPSocket8recvFromEPviRSsRt+0x26f>
  41222a:	eb e8                	jmp    412214 <_ZN9UDPSocket8recvFromEPviRSsRt+0x334>
  41222c:	0f 1f 40 00          	nopl   0x0(%rax)
  412230:	e8 8b 73 ff ff       	callq  4095c0 <__cxa_call_unexpected@plt>
  412235:	eb dd                	jmp    412214 <_ZN9UDPSocket8recvFromEPviRSsRt+0x334>
  412237:	90                   	nop
  412238:	0f 1f 84 00 00 00 00 	nopl   0x0(%rax,%rax,1)
  41223f:	00 

0000000000412240 <_ZN9UDPSocket15setMulticastTTLEh>:
  412240:	53                   	push   %rbx
  412241:	41 b8 01 00 00 00    	mov    $0x1,%r8d
  412247:	ba 21 00 00 00       	mov    $0x21,%edx
  41224c:	48 83 ec 30          	sub    $0x30,%rsp
  412250:	8b 3f                	mov    (%rdi),%edi
  412252:	48 8d 4c 24 1c       	lea    0x1c(%rsp),%rcx
  412257:	40 88 74 24 1c       	mov    %sil,0x1c(%rsp)
  41225c:	31 f6                	xor    %esi,%esi
  41225e:	e8 cd 74 ff ff       	callq  409730 <setsockopt@plt>
  412263:	85 c0                	test   %eax,%eax
  412265:	78 06                	js     41226d <_ZN9UDPSocket15setMulticastTTLEh+0x2d>
  412267:	48 83 c4 30          	add    $0x30,%rsp
  41226b:	5b                   	pop    %rbx
  41226c:	c3                   	retq   
  41226d:	bf 10 00 00 00       	mov    $0x10,%edi
  412272:	e8 39 71 ff ff       	callq  4093b0 <__cxa_allocate_exception@plt>
  412277:	48 8d 54 24 2f       	lea    0x2f(%rsp),%rdx
  41227c:	48 8d 7c 24 20       	lea    0x20(%rsp),%rdi
  412281:	be 58 42 41 00       	mov    $0x414258,%esi
  412286:	48 89 c3             	mov    %rax,%rbx
  412289:	e8 e2 72 ff ff       	callq  409570 <_ZNSsC1EPKcRKSaIcE@plt>
  41228e:	48 8d 74 24 20       	lea    0x20(%rsp),%rsi
  412293:	ba 01 00 00 00       	mov    $0x1,%edx
  412298:	48 89 df             	mov    %rbx,%rdi
  41229b:	e8 90 ec ff ff       	callq  410f30 <_ZN15SocketExceptionC1ERKSsb>
  4122a0:	48 8d 7c 24 20       	lea    0x20(%rsp),%rdi
  4122a5:	e8 e6 73 ff ff       	callq  409690 <_ZNSsD1Ev@plt>
  4122aa:	ba b0 0e 41 00       	mov    $0x410eb0,%edx
  4122af:	be 00 43 41 00       	mov    $0x414300,%esi
  4122b4:	48 89 df             	mov    %rbx,%rdi
  4122b7:	e8 44 74 ff ff       	callq  409700 <__cxa_throw@plt>
  4122bc:	48 89 c7             	mov    %rax,%rdi
  4122bf:	48 83 c2 01          	add    $0x1,%rdx
  4122c3:	74 26                	je     4122eb <_ZN9UDPSocket15setMulticastTTLEh+0xab>
  4122c5:	e8 56 74 ff ff       	callq  409720 <_Unwind_Resume@plt>
  4122ca:	48 89 df             	mov    %rbx,%rdi
  4122cd:	48 89 44 24 10       	mov    %rax,0x10(%rsp)
  4122d2:	48 89 54 24 08       	mov    %rdx,0x8(%rsp)
  4122d7:	e8 74 71 ff ff       	callq  409450 <__cxa_free_exception@plt>
  4122dc:	48 8b 44 24 10       	mov    0x10(%rsp),%rax
  4122e1:	48 8b 54 24 08       	mov    0x8(%rsp),%rdx
  4122e6:	48 89 c7             	mov    %rax,%rdi
  4122e9:	eb d4                	jmp    4122bf <_ZN9UDPSocket15setMulticastTTLEh+0x7f>
  4122eb:	e8 d0 72 ff ff       	callq  4095c0 <__cxa_call_unexpected@plt>

00000000004122f0 <_ZN9UDPSocket9joinGroupERKSs>:
  4122f0:	53                   	push   %rbx
  4122f1:	48 89 fb             	mov    %rdi,%rbx
  4122f4:	48 83 ec 30          	sub    $0x30,%rsp
  4122f8:	48 8b 3e             	mov    (%rsi),%rdi
  4122fb:	e8 30 72 ff ff       	callq  409530 <inet_addr@plt>
  412300:	8b 3b                	mov    (%rbx),%edi
  412302:	48 8d 4c 24 10       	lea    0x10(%rsp),%rcx
  412307:	31 f6                	xor    %esi,%esi
  412309:	41 b8 08 00 00 00    	mov    $0x8,%r8d
  41230f:	ba 23 00 00 00       	mov    $0x23,%edx
  412314:	89 44 24 10          	mov    %eax,0x10(%rsp)
  412318:	c7 44 24 14 00 00 00 	movl   $0x0,0x14(%rsp)
  41231f:	00 
  412320:	e8 0b 74 ff ff       	callq  409730 <setsockopt@plt>
  412325:	85 c0                	test   %eax,%eax
  412327:	78 06                	js     41232f <_ZN9UDPSocket9joinGroupERKSs+0x3f>
  412329:	48 83 c4 30          	add    $0x30,%rsp
  41232d:	5b                   	pop    %rbx
  41232e:	c3                   	retq   
  41232f:	bf 10 00 00 00       	mov    $0x10,%edi
  412334:	e8 77 70 ff ff       	callq  4093b0 <__cxa_allocate_exception@plt>
  412339:	48 8d 54 24 2f       	lea    0x2f(%rsp),%rdx
  41233e:	48 8d 7c 24 20       	lea    0x20(%rsp),%rdi
  412343:	be 80 42 41 00       	mov    $0x414280,%esi
  412348:	48 89 c3             	mov    %rax,%rbx
  41234b:	e8 20 72 ff ff       	callq  409570 <_ZNSsC1EPKcRKSaIcE@plt>
  412350:	48 8d 74 24 20       	lea    0x20(%rsp),%rsi
  412355:	ba 01 00 00 00       	mov    $0x1,%edx
  41235a:	48 89 df             	mov    %rbx,%rdi
  41235d:	e8 ce eb ff ff       	callq  410f30 <_ZN15SocketExceptionC1ERKSsb>
  412362:	48 8d 7c 24 20       	lea    0x20(%rsp),%rdi
  412367:	e8 24 73 ff ff       	callq  409690 <_ZNSsD1Ev@plt>
  41236c:	ba b0 0e 41 00       	mov    $0x410eb0,%edx
  412371:	be 00 43 41 00       	mov    $0x414300,%esi
  412376:	48 89 df             	mov    %rbx,%rdi
  412379:	e8 82 73 ff ff       	callq  409700 <__cxa_throw@plt>
  41237e:	48 89 c7             	mov    %rax,%rdi
  412381:	48 83 c2 01          	add    $0x1,%rdx
  412385:	74 24                	je     4123ab <_ZN9UDPSocket9joinGroupERKSs+0xbb>
  412387:	e8 94 73 ff ff       	callq  409720 <_Unwind_Resume@plt>
  41238c:	48 89 df             	mov    %rbx,%rdi
  41238f:	48 89 44 24 08       	mov    %rax,0x8(%rsp)
  412394:	48 89 14 24          	mov    %rdx,(%rsp)
  412398:	e8 b3 70 ff ff       	callq  409450 <__cxa_free_exception@plt>
  41239d:	48 8b 44 24 08       	mov    0x8(%rsp),%rax
  4123a2:	48 8b 14 24          	mov    (%rsp),%rdx
  4123a6:	48 89 c7             	mov    %rax,%rdi
  4123a9:	eb d6                	jmp    412381 <_ZN9UDPSocket9joinGroupERKSs+0x91>
  4123ab:	e8 10 72 ff ff       	callq  4095c0 <__cxa_call_unexpected@plt>

00000000004123b0 <_ZN9UDPSocket10leaveGroupERKSs>:
  4123b0:	53                   	push   %rbx
  4123b1:	48 89 fb             	mov    %rdi,%rbx
  4123b4:	48 83 ec 30          	sub    $0x30,%rsp
  4123b8:	48 8b 3e             	mov    (%rsi),%rdi
  4123bb:	e8 70 71 ff ff       	callq  409530 <inet_addr@plt>
  4123c0:	8b 3b                	mov    (%rbx),%edi
  4123c2:	48 8d 4c 24 10       	lea    0x10(%rsp),%rcx
  4123c7:	31 f6                	xor    %esi,%esi
  4123c9:	41 b8 08 00 00 00    	mov    $0x8,%r8d
  4123cf:	ba 24 00 00 00       	mov    $0x24,%edx
  4123d4:	89 44 24 10          	mov    %eax,0x10(%rsp)
  4123d8:	c7 44 24 14 00 00 00 	movl   $0x0,0x14(%rsp)
  4123df:	00 
  4123e0:	e8 4b 73 ff ff       	callq  409730 <setsockopt@plt>
  4123e5:	85 c0                	test   %eax,%eax
  4123e7:	78 06                	js     4123ef <_ZN9UDPSocket10leaveGroupERKSs+0x3f>
  4123e9:	48 83 c4 30          	add    $0x30,%rsp
  4123ed:	5b                   	pop    %rbx
  4123ee:	c3                   	retq   
  4123ef:	bf 10 00 00 00       	mov    $0x10,%edi
  4123f4:	e8 b7 6f ff ff       	callq  4093b0 <__cxa_allocate_exception@plt>
  4123f9:	48 8d 54 24 2f       	lea    0x2f(%rsp),%rdx
  4123fe:	48 8d 7c 24 20       	lea    0x20(%rsp),%rdi
  412403:	be b0 42 41 00       	mov    $0x4142b0,%esi
  412408:	48 89 c3             	mov    %rax,%rbx
  41240b:	e8 60 71 ff ff       	callq  409570 <_ZNSsC1EPKcRKSaIcE@plt>
  412410:	48 8d 74 24 20       	lea    0x20(%rsp),%rsi
  412415:	ba 01 00 00 00       	mov    $0x1,%edx
  41241a:	48 89 df             	mov    %rbx,%rdi
  41241d:	e8 0e eb ff ff       	callq  410f30 <_ZN15SocketExceptionC1ERKSsb>
  412422:	48 8d 7c 24 20       	lea    0x20(%rsp),%rdi
  412427:	e8 64 72 ff ff       	callq  409690 <_ZNSsD1Ev@plt>
  41242c:	ba b0 0e 41 00       	mov    $0x410eb0,%edx
  412431:	be 00 43 41 00       	mov    $0x414300,%esi
  412436:	48 89 df             	mov    %rbx,%rdi
  412439:	e8 c2 72 ff ff       	callq  409700 <__cxa_throw@plt>
  41243e:	48 89 c7             	mov    %rax,%rdi
  412441:	48 83 c2 01          	add    $0x1,%rdx
  412445:	74 24                	je     41246b <_ZN9UDPSocket10leaveGroupERKSs+0xbb>
  412447:	e8 d4 72 ff ff       	callq  409720 <_Unwind_Resume@plt>
  41244c:	48 89 df             	mov    %rbx,%rdi
  41244f:	48 89 44 24 08       	mov    %rax,0x8(%rsp)
  412454:	48 89 14 24          	mov    %rdx,(%rsp)
  412458:	e8 f3 6f ff ff       	callq  409450 <__cxa_free_exception@plt>
  41245d:	48 8b 44 24 08       	mov    0x8(%rsp),%rax
  412462:	48 8b 14 24          	mov    (%rsp),%rdx
  412466:	48 89 c7             	mov    %rax,%rdi
  412469:	eb d6                	jmp    412441 <_ZN9UDPSocket10leaveGroupERKSs+0x91>
  41246b:	e8 50 71 ff ff       	callq  4095c0 <__cxa_call_unexpected@plt>

0000000000412470 <__libc_csu_fini>:
  412470:	f3 c3                	repz retq 
  412472:	66 66 66 66 66 2e 0f 	data32 data32 data32 data32 nopw %cs:0x0(%rax,%rax,1)
  412479:	1f 84 00 00 00 00 00 

0000000000412480 <__libc_csu_init>:
  412480:	48 89 6c 24 d8       	mov    %rbp,-0x28(%rsp)
  412485:	4c 89 64 24 e0       	mov    %r12,-0x20(%rsp)
  41248a:	48 8d 2d 87 4b 20 00 	lea    0x204b87(%rip),%rbp        # 617018 <__init_array_end>
  412491:	4c 8d 25 68 4b 20 00 	lea    0x204b68(%rip),%r12        # 617000 <__init_array_start>
  412498:	4c 89 6c 24 e8       	mov    %r13,-0x18(%rsp)
  41249d:	4c 89 74 24 f0       	mov    %r14,-0x10(%rsp)
  4124a2:	4c 89 7c 24 f8       	mov    %r15,-0x8(%rsp)
  4124a7:	48 89 5c 24 d0       	mov    %rbx,-0x30(%rsp)
  4124ac:	48 83 ec 38          	sub    $0x38,%rsp
  4124b0:	4c 29 e5             	sub    %r12,%rbp
  4124b3:	41 89 fd             	mov    %edi,%r13d
  4124b6:	49 89 f6             	mov    %rsi,%r14
  4124b9:	48 c1 fd 03          	sar    $0x3,%rbp
  4124bd:	49 89 d7             	mov    %rdx,%r15
  4124c0:	e8 6b 6d ff ff       	callq  409230 <_init>
  4124c5:	48 85 ed             	test   %rbp,%rbp
  4124c8:	74 1c                	je     4124e6 <__libc_csu_init+0x66>
  4124ca:	31 db                	xor    %ebx,%ebx
  4124cc:	0f 1f 40 00          	nopl   0x0(%rax)
  4124d0:	4c 89 fa             	mov    %r15,%rdx
  4124d3:	4c 89 f6             	mov    %r14,%rsi
  4124d6:	44 89 ef             	mov    %r13d,%edi
  4124d9:	41 ff 14 dc          	callq  *(%r12,%rbx,8)
  4124dd:	48 83 c3 01          	add    $0x1,%rbx
  4124e1:	48 39 eb             	cmp    %rbp,%rbx
  4124e4:	72 ea                	jb     4124d0 <__libc_csu_init+0x50>
  4124e6:	48 8b 5c 24 08       	mov    0x8(%rsp),%rbx
  4124eb:	48 8b 6c 24 10       	mov    0x10(%rsp),%rbp
  4124f0:	4c 8b 64 24 18       	mov    0x18(%rsp),%r12
  4124f5:	4c 8b 6c 24 20       	mov    0x20(%rsp),%r13
  4124fa:	4c 8b 74 24 28       	mov    0x28(%rsp),%r14
  4124ff:	4c 8b 7c 24 30       	mov    0x30(%rsp),%r15
  412504:	48 83 c4 38          	add    $0x38,%rsp
  412508:	c3                   	retq   
  412509:	90                   	nop
  41250a:	90                   	nop
  41250b:	90                   	nop
  41250c:	90                   	nop
  41250d:	90                   	nop
  41250e:	90                   	nop
  41250f:	90                   	nop

0000000000412510 <__do_global_ctors_aux>:
  412510:	55                   	push   %rbp
  412511:	48 89 e5             	mov    %rsp,%rbp
  412514:	53                   	push   %rbx
  412515:	48 83 ec 08          	sub    $0x8,%rsp
  412519:	48 8b 05 f8 4a 20 00 	mov    0x204af8(%rip),%rax        # 617018 <__init_array_end>
  412520:	48 83 f8 ff          	cmp    $0xffffffffffffffff,%rax
  412524:	74 19                	je     41253f <__do_global_ctors_aux+0x2f>
  412526:	bb 18 70 61 00       	mov    $0x617018,%ebx
  41252b:	0f 1f 44 00 00       	nopl   0x0(%rax,%rax,1)
  412530:	48 83 eb 08          	sub    $0x8,%rbx
  412534:	ff d0                	callq  *%rax
  412536:	48 8b 03             	mov    (%rbx),%rax
  412539:	48 83 f8 ff          	cmp    $0xffffffffffffffff,%rax
  41253d:	75 f1                	jne    412530 <__do_global_ctors_aux+0x20>
  41253f:	48 83 c4 08          	add    $0x8,%rsp
  412543:	5b                   	pop    %rbx
  412544:	5d                   	pop    %rbp
  412545:	c3                   	retq   
  412546:	90                   	nop
  412547:	90                   	nop

Disassembly of section .fini:

0000000000412548 <_fini>:
  412548:	48 83 ec 08          	sub    $0x8,%rsp
  41254c:	e8 ef 79 ff ff       	callq  409f40 <__do_global_dtors_aux>
  412551:	48 83 c4 08          	add    $0x8,%rsp
  412555:	c3                   	retq   
