
spykee:     file format elf64-x86-64


Disassembly of section .init:

0000000000409230 <_init>:
  409230:	48 83 ec 08          	sub    $0x8,%rsp
  409234:	e8 eb 0c 00 00       	callq  409f24 <call_gmon_start>
  409239:	e8 72 0d 00 00       	callq  409fb0 <frame_dummy>
  40923e:	e8 cd 92 00 00       	callq  412510 <__do_global_ctors_aux>
  409243:	48 83 c4 08          	add    $0x8,%rsp
  409247:	c3                   	retq   

Disassembly of section .plt:

0000000000409250 <_Znam@plt-0x10>:
  409250:	ff 35 fa e0 20 00    	pushq  0x20e0fa(%rip)        # 617350 <_GLOBAL_OFFSET_TABLE_+0x8>
  409256:	ff 25 fc e0 20 00    	jmpq   *0x20e0fc(%rip)        # 617358 <_GLOBAL_OFFSET_TABLE_+0x10>
  40925c:	0f 1f 40 00          	nopl   0x0(%rax)

0000000000409260 <_Znam@plt>:
  409260:	ff 25 fa e0 20 00    	jmpq   *0x20e0fa(%rip)        # 617360 <_GLOBAL_OFFSET_TABLE_+0x18>
  409266:	68 00 00 00 00       	pushq  $0x0
  40926b:	e9 e0 ff ff ff       	jmpq   409250 <_init+0x20>

0000000000409270 <__errno_location@plt>:
  409270:	ff 25 f2 e0 20 00    	jmpq   *0x20e0f2(%rip)        # 617368 <_GLOBAL_OFFSET_TABLE_+0x20>
  409276:	68 01 00 00 00       	pushq  $0x1
  40927b:	e9 d0 ff ff ff       	jmpq   409250 <_init+0x20>

0000000000409280 <pthread_cancel@plt>:
  409280:	ff 25 ea e0 20 00    	jmpq   *0x20e0ea(%rip)        # 617370 <_GLOBAL_OFFSET_TABLE_+0x28>
  409286:	68 02 00 00 00       	pushq  $0x2
  40928b:	e9 c0 ff ff ff       	jmpq   409250 <_init+0x20>

0000000000409290 <sendto@plt>:
  409290:	ff 25 e2 e0 20 00    	jmpq   *0x20e0e2(%rip)        # 617378 <_GLOBAL_OFFSET_TABLE_+0x30>
  409296:	68 03 00 00 00       	pushq  $0x3
  40929b:	e9 b0 ff ff ff       	jmpq   409250 <_init+0x20>

00000000004092a0 <getservbyname@plt>:
  4092a0:	ff 25 da e0 20 00    	jmpq   *0x20e0da(%rip)        # 617380 <_GLOBAL_OFFSET_TABLE_+0x38>
  4092a6:	68 04 00 00 00       	pushq  $0x4
  4092ab:	e9 a0 ff ff ff       	jmpq   409250 <_init+0x20>

00000000004092b0 <bind@plt>:
  4092b0:	ff 25 d2 e0 20 00    	jmpq   *0x20e0d2(%rip)        # 617388 <_GLOBAL_OFFSET_TABLE_+0x40>
  4092b6:	68 05 00 00 00       	pushq  $0x5
  4092bb:	e9 90 ff ff ff       	jmpq   409250 <_init+0x20>

00000000004092c0 <_ZNSs6appendEPKcm@plt>:
  4092c0:	ff 25 ca e0 20 00    	jmpq   *0x20e0ca(%rip)        # 617390 <_GLOBAL_OFFSET_TABLE_+0x48>
  4092c6:	68 06 00 00 00       	pushq  $0x6
  4092cb:	e9 80 ff ff ff       	jmpq   409250 <_init+0x20>

00000000004092d0 <_ZNKSs7compareEPKc@plt>:
  4092d0:	ff 25 c2 e0 20 00    	jmpq   *0x20e0c2(%rip)        # 617398 <_GLOBAL_OFFSET_TABLE_+0x50>
  4092d6:	68 07 00 00 00       	pushq  $0x7
  4092db:	e9 70 ff ff ff       	jmpq   409250 <_init+0x20>

00000000004092e0 <socket@plt>:
  4092e0:	ff 25 ba e0 20 00    	jmpq   *0x20e0ba(%rip)        # 6173a0 <_GLOBAL_OFFSET_TABLE_+0x58>
  4092e6:	68 08 00 00 00       	pushq  $0x8
  4092eb:	e9 60 ff ff ff       	jmpq   409250 <_init+0x20>

00000000004092f0 <_ZN3ros4initERiPPcRKSsj@plt>:
  4092f0:	ff 25 b2 e0 20 00    	jmpq   *0x20e0b2(%rip)        # 6173a8 <_GLOBAL_OFFSET_TABLE_+0x60>
  4092f6:	68 09 00 00 00       	pushq  $0x9
  4092fb:	e9 50 ff ff ff       	jmpq   409250 <_init+0x20>

0000000000409300 <_ZSt9terminatev@plt>:
  409300:	ff 25 aa e0 20 00    	jmpq   *0x20e0aa(%rip)        # 6173b0 <_GLOBAL_OFFSET_TABLE_+0x68>
  409306:	68 0a 00 00 00       	pushq  $0xa
  40930b:	e9 40 ff ff ff       	jmpq   409250 <_init+0x20>

0000000000409310 <_ZN3ros10NodeHandle9subscribeERNS_16SubscribeOptionsE@plt>:
  409310:	ff 25 a2 e0 20 00    	jmpq   *0x20e0a2(%rip)        # 6173b8 <_GLOBAL_OFFSET_TABLE_+0x70>
  409316:	68 0b 00 00 00       	pushq  $0xb
  40931b:	e9 30 ff ff ff       	jmpq   409250 <_init+0x20>

0000000000409320 <_ZN3ros7console5printEPNS0_10FilterBaseEPN7log4cxx6LoggerENS0_6levels5LevelEPKciS9_S9_z@plt>:
  409320:	ff 25 9a e0 20 00    	jmpq   *0x20e09a(%rip)        # 6173c0 <_GLOBAL_OFFSET_TABLE_+0x78>
  409326:	68 0c 00 00 00       	pushq  $0xc
  40932b:	e9 20 ff ff ff       	jmpq   409250 <_init+0x20>

0000000000409330 <accept@plt>:
  409330:	ff 25 92 e0 20 00    	jmpq   *0x20e092(%rip)        # 6173c8 <_GLOBAL_OFFSET_TABLE_+0x80>
  409336:	68 0d 00 00 00       	pushq  $0xd
  40933b:	e9 10 ff ff ff       	jmpq   409250 <_init+0x20>

0000000000409340 <recv@plt>:
  409340:	ff 25 8a e0 20 00    	jmpq   *0x20e08a(%rip)        # 6173d0 <_GLOBAL_OFFSET_TABLE_+0x88>
  409346:	68 0e 00 00 00       	pushq  $0xe
  40934b:	e9 00 ff ff ff       	jmpq   409250 <_init+0x20>

0000000000409350 <strerror@plt>:
  409350:	ff 25 82 e0 20 00    	jmpq   *0x20e082(%rip)        # 6173d8 <_GLOBAL_OFFSET_TABLE_+0x90>
  409356:	68 0f 00 00 00       	pushq  $0xf
  40935b:	e9 f0 fe ff ff       	jmpq   409250 <_init+0x20>

0000000000409360 <_ZSt17__throw_bad_allocv@plt>:
  409360:	ff 25 7a e0 20 00    	jmpq   *0x20e07a(%rip)        # 6173e0 <_GLOBAL_OFFSET_TABLE_+0x98>
  409366:	68 10 00 00 00       	pushq  $0x10
  40936b:	e9 e0 fe ff ff       	jmpq   409250 <_init+0x20>

0000000000409370 <__cxa_begin_catch@plt>:
  409370:	ff 25 72 e0 20 00    	jmpq   *0x20e072(%rip)        # 6173e8 <_GLOBAL_OFFSET_TABLE_+0xa0>
  409376:	68 11 00 00 00       	pushq  $0x11
  40937b:	e9 d0 fe ff ff       	jmpq   409250 <_init+0x20>

0000000000409380 <strlen@plt>:
  409380:	ff 25 6a e0 20 00    	jmpq   *0x20e06a(%rip)        # 6173f0 <_GLOBAL_OFFSET_TABLE_+0xa8>
  409386:	68 12 00 00 00       	pushq  $0x12
  40938b:	e9 c0 fe ff ff       	jmpq   409250 <_init+0x20>

0000000000409390 <inet_ntoa@plt>:
  409390:	ff 25 62 e0 20 00    	jmpq   *0x20e062(%rip)        # 6173f8 <_GLOBAL_OFFSET_TABLE_+0xb0>
  409396:	68 13 00 00 00       	pushq  $0x13
  40939b:	e9 b0 fe ff ff       	jmpq   409250 <_init+0x20>

00000000004093a0 <_ZSt4endlIcSt11char_traitsIcEERSt13basic_ostreamIT_T0_ES6_@plt>:
  4093a0:	ff 25 5a e0 20 00    	jmpq   *0x20e05a(%rip)        # 617400 <_GLOBAL_OFFSET_TABLE_+0xb8>
  4093a6:	68 14 00 00 00       	pushq  $0x14
  4093ab:	e9 a0 fe ff ff       	jmpq   409250 <_init+0x20>

00000000004093b0 <__cxa_allocate_exception@plt>:
  4093b0:	ff 25 52 e0 20 00    	jmpq   *0x20e052(%rip)        # 617408 <_GLOBAL_OFFSET_TABLE_+0xc0>
  4093b6:	68 15 00 00 00       	pushq  $0x15
  4093bb:	e9 90 fe ff ff       	jmpq   409250 <_init+0x20>

00000000004093c0 <send@plt>:
  4093c0:	ff 25 4a e0 20 00    	jmpq   *0x20e04a(%rip)        # 617410 <_GLOBAL_OFFSET_TABLE_+0xc8>
  4093c6:	68 16 00 00 00       	pushq  $0x16
  4093cb:	e9 80 fe ff ff       	jmpq   409250 <_init+0x20>

00000000004093d0 <_ZNSsC1EPKcmRKSaIcE@plt>:
  4093d0:	ff 25 42 e0 20 00    	jmpq   *0x20e042(%rip)        # 617418 <_GLOBAL_OFFSET_TABLE_+0xd0>
  4093d6:	68 17 00 00 00       	pushq  $0x17
  4093db:	e9 70 fe ff ff       	jmpq   409250 <_init+0x20>

00000000004093e0 <_ZSt20__throw_length_errorPKc@plt>:
  4093e0:	ff 25 3a e0 20 00    	jmpq   *0x20e03a(%rip)        # 617420 <_GLOBAL_OFFSET_TABLE_+0xd8>
  4093e6:	68 18 00 00 00       	pushq  $0x18
  4093eb:	e9 60 fe ff ff       	jmpq   409250 <_init+0x20>

00000000004093f0 <_ZN3ros7console10initializeEv@plt>:
  4093f0:	ff 25 32 e0 20 00    	jmpq   *0x20e032(%rip)        # 617428 <_GLOBAL_OFFSET_TABLE_+0xe0>
  4093f6:	68 19 00 00 00       	pushq  $0x19
  4093fb:	e9 50 fe ff ff       	jmpq   409250 <_init+0x20>

0000000000409400 <memset@plt>:
  409400:	ff 25 2a e0 20 00    	jmpq   *0x20e02a(%rip)        # 617430 <_GLOBAL_OFFSET_TABLE_+0xe8>
  409406:	68 1a 00 00 00       	pushq  $0x1a
  40940b:	e9 40 fe ff ff       	jmpq   409250 <_init+0x20>

0000000000409410 <_ZNSsC1ERKSs@plt>:
  409410:	ff 25 22 e0 20 00    	jmpq   *0x20e022(%rip)        # 617438 <_GLOBAL_OFFSET_TABLE_+0xf0>
  409416:	68 1b 00 00 00       	pushq  $0x1b
  40941b:	e9 30 fe ff ff       	jmpq   409250 <_init+0x20>

0000000000409420 <_ZN3ros10NodeHandleD1Ev@plt>:
  409420:	ff 25 1a e0 20 00    	jmpq   *0x20e01a(%rip)        # 617440 <_GLOBAL_OFFSET_TABLE_+0xf8>
  409426:	68 1c 00 00 00       	pushq  $0x1c
  40942b:	e9 20 fe ff ff       	jmpq   409250 <_init+0x20>

0000000000409430 <_ZN3ros7console21initializeLogLocationEPNS0_11LogLocationERKSsNS0_6levels5LevelE@plt>:
  409430:	ff 25 12 e0 20 00    	jmpq   *0x20e012(%rip)        # 617448 <_GLOBAL_OFFSET_TABLE_+0x100>
  409436:	68 1d 00 00 00       	pushq  $0x1d
  40943b:	e9 10 fe ff ff       	jmpq   409250 <_init+0x20>

0000000000409440 <__assert_fail@plt>:
  409440:	ff 25 0a e0 20 00    	jmpq   *0x20e00a(%rip)        # 617450 <_GLOBAL_OFFSET_TABLE_+0x108>
  409446:	68 1e 00 00 00       	pushq  $0x1e
  40944b:	e9 00 fe ff ff       	jmpq   409250 <_init+0x20>

0000000000409450 <__cxa_free_exception@plt>:
  409450:	ff 25 02 e0 20 00    	jmpq   *0x20e002(%rip)        # 617458 <_GLOBAL_OFFSET_TABLE_+0x110>
  409456:	68 1f 00 00 00       	pushq  $0x1f
  40945b:	e9 f0 fd ff ff       	jmpq   409250 <_init+0x20>

0000000000409460 <getpeername@plt>:
  409460:	ff 25 fa df 20 00    	jmpq   *0x20dffa(%rip)        # 617460 <_GLOBAL_OFFSET_TABLE_+0x118>
  409466:	68 20 00 00 00       	pushq  $0x20
  40946b:	e9 e0 fd ff ff       	jmpq   409250 <_init+0x20>

0000000000409470 <_ZN3ros9PublisherD1Ev@plt>:
  409470:	ff 25 f2 df 20 00    	jmpq   *0x20dff2(%rip)        # 617468 <_GLOBAL_OFFSET_TABLE_+0x120>
  409476:	68 21 00 00 00       	pushq  $0x21
  40947b:	e9 d0 fd ff ff       	jmpq   409250 <_init+0x20>

0000000000409480 <recvfrom@plt>:
  409480:	ff 25 ea df 20 00    	jmpq   *0x20dfea(%rip)        # 617470 <_GLOBAL_OFFSET_TABLE_+0x128>
  409486:	68 22 00 00 00       	pushq  $0x22
  40948b:	e9 c0 fd ff ff       	jmpq   409250 <_init+0x20>

0000000000409490 <_ZNSs4_Rep10_M_destroyERKSaIcE@plt>:
  409490:	ff 25 e2 df 20 00    	jmpq   *0x20dfe2(%rip)        # 617478 <_GLOBAL_OFFSET_TABLE_+0x130>
  409496:	68 23 00 00 00       	pushq  $0x23
  40949b:	e9 b0 fd ff ff       	jmpq   409250 <_init+0x20>

00000000004094a0 <connect@plt>:
  4094a0:	ff 25 da df 20 00    	jmpq   *0x20dfda(%rip)        # 617480 <_GLOBAL_OFFSET_TABLE_+0x138>
  4094a6:	68 24 00 00 00       	pushq  $0x24
  4094ab:	e9 a0 fd ff ff       	jmpq   409250 <_init+0x20>

00000000004094b0 <_ZNK3ros9Publisher4Impl7isValidEv@plt>:
  4094b0:	ff 25 d2 df 20 00    	jmpq   *0x20dfd2(%rip)        # 617488 <_GLOBAL_OFFSET_TABLE_+0x140>
  4094b6:	68 25 00 00 00       	pushq  $0x25
  4094bb:	e9 90 fd ff ff       	jmpq   409250 <_init+0x20>

00000000004094c0 <__cxa_atexit@plt>:
  4094c0:	ff 25 ca df 20 00    	jmpq   *0x20dfca(%rip)        # 617490 <_GLOBAL_OFFSET_TABLE_+0x148>
  4094c6:	68 26 00 00 00       	pushq  $0x26
  4094cb:	e9 80 fd ff ff       	jmpq   409250 <_init+0x20>

00000000004094d0 <getsockname@plt>:
  4094d0:	ff 25 c2 df 20 00    	jmpq   *0x20dfc2(%rip)        # 617498 <_GLOBAL_OFFSET_TABLE_+0x150>
  4094d6:	68 27 00 00 00       	pushq  $0x27
  4094db:	e9 70 fd ff ff       	jmpq   409250 <_init+0x20>

00000000004094e0 <_ZN3ros13serialization18throwStreamOverrunEv@plt>:
  4094e0:	ff 25 ba df 20 00    	jmpq   *0x20dfba(%rip)        # 6174a0 <_GLOBAL_OFFSET_TABLE_+0x158>
  4094e6:	68 28 00 00 00       	pushq  $0x28
  4094eb:	e9 60 fd ff ff       	jmpq   409250 <_init+0x20>

00000000004094f0 <_ZdlPv@plt>:
  4094f0:	ff 25 b2 df 20 00    	jmpq   *0x20dfb2(%rip)        # 6174a8 <_GLOBAL_OFFSET_TABLE_+0x160>
  4094f6:	68 29 00 00 00       	pushq  $0x29
  4094fb:	e9 50 fd ff ff       	jmpq   409250 <_init+0x20>

0000000000409500 <select@plt>:
  409500:	ff 25 aa df 20 00    	jmpq   *0x20dfaa(%rip)        # 6174b0 <_GLOBAL_OFFSET_TABLE_+0x168>
  409506:	68 2a 00 00 00       	pushq  $0x2a
  40950b:	e9 40 fd ff ff       	jmpq   409250 <_init+0x20>

0000000000409510 <_ZStlsISt11char_traitsIcEERSt13basic_ostreamIcT_ES5_PKc@plt>:
  409510:	ff 25 a2 df 20 00    	jmpq   *0x20dfa2(%rip)        # 6174b8 <_GLOBAL_OFFSET_TABLE_+0x170>
  409516:	68 2b 00 00 00       	pushq  $0x2b
  40951b:	e9 30 fd ff ff       	jmpq   409250 <_init+0x20>

0000000000409520 <_Znwm@plt>:
  409520:	ff 25 9a df 20 00    	jmpq   *0x20df9a(%rip)        # 6174c0 <_GLOBAL_OFFSET_TABLE_+0x178>
  409526:	68 2c 00 00 00       	pushq  $0x2c
  40952b:	e9 20 fd ff ff       	jmpq   409250 <_init+0x20>

0000000000409530 <inet_addr@plt>:
  409530:	ff 25 92 df 20 00    	jmpq   *0x20df92(%rip)        # 6174c8 <_GLOBAL_OFFSET_TABLE_+0x180>
  409536:	68 2d 00 00 00       	pushq  $0x2d
  40953b:	e9 10 fd ff ff       	jmpq   409250 <_init+0x20>

0000000000409540 <_ZN3ros2okEv@plt>:
  409540:	ff 25 8a df 20 00    	jmpq   *0x20df8a(%rip)        # 6174d0 <_GLOBAL_OFFSET_TABLE_+0x188>
  409546:	68 2e 00 00 00       	pushq  $0x2e
  40954b:	e9 00 fd ff ff       	jmpq   409250 <_init+0x20>

0000000000409550 <_ZNSt13runtime_errorD2Ev@plt>:
  409550:	ff 25 82 df 20 00    	jmpq   *0x20df82(%rip)        # 6174d8 <_GLOBAL_OFFSET_TABLE_+0x190>
  409556:	68 2f 00 00 00       	pushq  $0x2f
  40955b:	e9 f0 fc ff ff       	jmpq   409250 <_init+0x20>

0000000000409560 <listen@plt>:
  409560:	ff 25 7a df 20 00    	jmpq   *0x20df7a(%rip)        # 6174e0 <_GLOBAL_OFFSET_TABLE_+0x198>
  409566:	68 30 00 00 00       	pushq  $0x30
  40956b:	e9 e0 fc ff ff       	jmpq   409250 <_init+0x20>

0000000000409570 <_ZNSsC1EPKcRKSaIcE@plt>:
  409570:	ff 25 72 df 20 00    	jmpq   *0x20df72(%rip)        # 6174e8 <_GLOBAL_OFFSET_TABLE_+0x1a0>
  409576:	68 31 00 00 00       	pushq  $0x31
  40957b:	e9 d0 fc ff ff       	jmpq   409250 <_init+0x20>

0000000000409580 <gethostbyname@plt>:
  409580:	ff 25 6a df 20 00    	jmpq   *0x20df6a(%rip)        # 6174f0 <_GLOBAL_OFFSET_TABLE_+0x1a8>
  409586:	68 32 00 00 00       	pushq  $0x32
  40958b:	e9 c0 fc ff ff       	jmpq   409250 <_init+0x20>

0000000000409590 <_ZNSs6assignEPKcm@plt>:
  409590:	ff 25 62 df 20 00    	jmpq   *0x20df62(%rip)        # 6174f8 <_GLOBAL_OFFSET_TABLE_+0x1b0>
  409596:	68 33 00 00 00       	pushq  $0x33
  40959b:	e9 b0 fc ff ff       	jmpq   409250 <_init+0x20>

00000000004095a0 <_ZN3ros10NodeHandleC1ERKSsRKSt3mapISsSsSt4lessISsESaISt4pairIS1_SsEEE@plt>:
  4095a0:	ff 25 5a df 20 00    	jmpq   *0x20df5a(%rip)        # 617500 <_GLOBAL_OFFSET_TABLE_+0x1b8>
  4095a6:	68 34 00 00 00       	pushq  $0x34
  4095ab:	e9 a0 fc ff ff       	jmpq   409250 <_init+0x20>

00000000004095b0 <exit@plt>:
  4095b0:	ff 25 52 df 20 00    	jmpq   *0x20df52(%rip)        # 617508 <_GLOBAL_OFFSET_TABLE_+0x1c0>
  4095b6:	68 35 00 00 00       	pushq  $0x35
  4095bb:	e9 90 fc ff ff       	jmpq   409250 <_init+0x20>

00000000004095c0 <__cxa_call_unexpected@plt>:
  4095c0:	ff 25 4a df 20 00    	jmpq   *0x20df4a(%rip)        # 617510 <_GLOBAL_OFFSET_TABLE_+0x1c8>
  4095c6:	68 36 00 00 00       	pushq  $0x36
  4095cb:	e9 80 fc ff ff       	jmpq   409250 <_init+0x20>

00000000004095d0 <_ZdaPv@plt>:
  4095d0:	ff 25 42 df 20 00    	jmpq   *0x20df42(%rip)        # 617518 <_GLOBAL_OFFSET_TABLE_+0x1d0>
  4095d6:	68 37 00 00 00       	pushq  $0x37
  4095db:	e9 70 fc ff ff       	jmpq   409250 <_init+0x20>

00000000004095e0 <_ZNSs6assignERKSs@plt>:
  4095e0:	ff 25 3a df 20 00    	jmpq   *0x20df3a(%rip)        # 617520 <_GLOBAL_OFFSET_TABLE_+0x1d8>
  4095e6:	68 38 00 00 00       	pushq  $0x38
  4095eb:	e9 60 fc ff ff       	jmpq   409250 <_init+0x20>

00000000004095f0 <_ZNSs9_M_mutateEmmm@plt>:
  4095f0:	ff 25 32 df 20 00    	jmpq   *0x20df32(%rip)        # 617528 <_GLOBAL_OFFSET_TABLE_+0x1e0>
  4095f6:	68 39 00 00 00       	pushq  $0x39
  4095fb:	e9 50 fc ff ff       	jmpq   409250 <_init+0x20>

0000000000409600 <_ZNKSt13runtime_error4whatEv@plt>:
  409600:	ff 25 2a df 20 00    	jmpq   *0x20df2a(%rip)        # 617530 <_GLOBAL_OFFSET_TABLE_+0x1e8>
  409606:	68 3a 00 00 00       	pushq  $0x3a
  40960b:	e9 40 fc ff ff       	jmpq   409250 <_init+0x20>

0000000000409610 <strtol@plt>:
  409610:	ff 25 22 df 20 00    	jmpq   *0x20df22(%rip)        # 617538 <_GLOBAL_OFFSET_TABLE_+0x1f0>
  409616:	68 3b 00 00 00       	pushq  $0x3b
  40961b:	e9 30 fc ff ff       	jmpq   409250 <_init+0x20>

0000000000409620 <_ZN3ros7console19setLogLocationLevelEPNS0_11LogLocationENS0_6levels5LevelE@plt>:
  409620:	ff 25 1a df 20 00    	jmpq   *0x20df1a(%rip)        # 617540 <_GLOBAL_OFFSET_TABLE_+0x1f8>
  409626:	68 3c 00 00 00       	pushq  $0x3c
  40962b:	e9 20 fc ff ff       	jmpq   409250 <_init+0x20>

0000000000409630 <_ZSt20__throw_out_of_rangePKc@plt>:
  409630:	ff 25 12 df 20 00    	jmpq   *0x20df12(%rip)        # 617548 <_GLOBAL_OFFSET_TABLE_+0x200>
  409636:	68 3d 00 00 00       	pushq  $0x3d
  40963b:	e9 10 fc ff ff       	jmpq   409250 <_init+0x20>

0000000000409640 <__cxa_rethrow@plt>:
  409640:	ff 25 0a df 20 00    	jmpq   *0x20df0a(%rip)        # 617550 <_GLOBAL_OFFSET_TABLE_+0x208>
  409646:	68 3e 00 00 00       	pushq  $0x3e
  40964b:	e9 00 fc ff ff       	jmpq   409250 <_init+0x20>

0000000000409650 <_ZN3ros10SubscriberD1Ev@plt>:
  409650:	ff 25 02 df 20 00    	jmpq   *0x20df02(%rip)        # 617558 <_GLOBAL_OFFSET_TABLE_+0x210>
  409656:	68 3f 00 00 00       	pushq  $0x3f
  40965b:	e9 f0 fb ff ff       	jmpq   409250 <_init+0x20>

0000000000409660 <_ZNSt8ios_base4InitC1Ev@plt>:
  409660:	ff 25 fa de 20 00    	jmpq   *0x20defa(%rip)        # 617560 <_GLOBAL_OFFSET_TABLE_+0x218>
  409666:	68 40 00 00 00       	pushq  $0x40
  40966b:	e9 e0 fb ff ff       	jmpq   409250 <_init+0x20>

0000000000409670 <puts@plt>:
  409670:	ff 25 f2 de 20 00    	jmpq   *0x20def2(%rip)        # 617568 <_GLOBAL_OFFSET_TABLE_+0x220>
  409676:	68 41 00 00 00       	pushq  $0x41
  40967b:	e9 d0 fb ff ff       	jmpq   409250 <_init+0x20>

0000000000409680 <_ZN3ros8spinOnceEv@plt>:
  409680:	ff 25 ea de 20 00    	jmpq   *0x20deea(%rip)        # 617570 <_GLOBAL_OFFSET_TABLE_+0x228>
  409686:	68 42 00 00 00       	pushq  $0x42
  40968b:	e9 c0 fb ff ff       	jmpq   409250 <_init+0x20>

0000000000409690 <_ZNSsD1Ev@plt>:
  409690:	ff 25 e2 de 20 00    	jmpq   *0x20dee2(%rip)        # 617578 <_GLOBAL_OFFSET_TABLE_+0x230>
  409696:	68 43 00 00 00       	pushq  $0x43
  40969b:	e9 b0 fb ff ff       	jmpq   409250 <_init+0x20>

00000000004096a0 <_ZNSt13runtime_errorC2ERKSs@plt>:
  4096a0:	ff 25 da de 20 00    	jmpq   *0x20deda(%rip)        # 617580 <_GLOBAL_OFFSET_TABLE_+0x238>
  4096a6:	68 44 00 00 00       	pushq  $0x44
  4096ab:	e9 a0 fb ff ff       	jmpq   409250 <_init+0x20>

00000000004096b0 <memmove@plt>:
  4096b0:	ff 25 d2 de 20 00    	jmpq   *0x20ded2(%rip)        # 617588 <_GLOBAL_OFFSET_TABLE_+0x240>
  4096b6:	68 45 00 00 00       	pushq  $0x45
  4096bb:	e9 90 fb ff ff       	jmpq   409250 <_init+0x20>

00000000004096c0 <__cxa_end_catch@plt>:
  4096c0:	ff 25 ca de 20 00    	jmpq   *0x20deca(%rip)        # 617590 <_GLOBAL_OFFSET_TABLE_+0x248>
  4096c6:	68 46 00 00 00       	pushq  $0x46
  4096cb:	e9 80 fb ff ff       	jmpq   409250 <_init+0x20>

00000000004096d0 <__gxx_personality_v0@plt>:
  4096d0:	ff 25 c2 de 20 00    	jmpq   *0x20dec2(%rip)        # 617598 <_GLOBAL_OFFSET_TABLE_+0x250>
  4096d6:	68 47 00 00 00       	pushq  $0x47
  4096db:	e9 70 fb ff ff       	jmpq   409250 <_init+0x20>

00000000004096e0 <_ZNK3ros9Publisher7publishERKN5boost8functionIFNS_17SerializedMessageEvEEERS3_@plt>:
  4096e0:	ff 25 ba de 20 00    	jmpq   *0x20deba(%rip)        # 6175a0 <_GLOBAL_OFFSET_TABLE_+0x258>
  4096e6:	68 48 00 00 00       	pushq  $0x48
  4096eb:	e9 60 fb ff ff       	jmpq   409250 <_init+0x20>

00000000004096f0 <_ZN3ros7console23checkLogLocationEnabledEPNS0_11LogLocationE@plt>:
  4096f0:	ff 25 b2 de 20 00    	jmpq   *0x20deb2(%rip)        # 6175a8 <_GLOBAL_OFFSET_TABLE_+0x260>
  4096f6:	68 49 00 00 00       	pushq  $0x49
  4096fb:	e9 50 fb ff ff       	jmpq   409250 <_init+0x20>

0000000000409700 <__cxa_throw@plt>:
  409700:	ff 25 aa de 20 00    	jmpq   *0x20deaa(%rip)        # 6175b0 <_GLOBAL_OFFSET_TABLE_+0x268>
  409706:	68 4a 00 00 00       	pushq  $0x4a
  40970b:	e9 40 fb ff ff       	jmpq   409250 <_init+0x20>

0000000000409710 <memcpy@plt>:
  409710:	ff 25 a2 de 20 00    	jmpq   *0x20dea2(%rip)        # 6175b8 <_GLOBAL_OFFSET_TABLE_+0x270>
  409716:	68 4b 00 00 00       	pushq  $0x4b
  40971b:	e9 30 fb ff ff       	jmpq   409250 <_init+0x20>

0000000000409720 <_Unwind_Resume@plt>:
  409720:	ff 25 9a de 20 00    	jmpq   *0x20de9a(%rip)        # 6175c0 <_GLOBAL_OFFSET_TABLE_+0x278>
  409726:	68 4c 00 00 00       	pushq  $0x4c
  40972b:	e9 20 fb ff ff       	jmpq   409250 <_init+0x20>

0000000000409730 <setsockopt@plt>:
  409730:	ff 25 92 de 20 00    	jmpq   *0x20de92(%rip)        # 6175c8 <_GLOBAL_OFFSET_TABLE_+0x280>
  409736:	68 4d 00 00 00       	pushq  $0x4d
  40973b:	e9 10 fb ff ff       	jmpq   409250 <_init+0x20>

0000000000409740 <_ZN3ros10NodeHandle9advertiseERNS_16AdvertiseOptionsE@plt>:
  409740:	ff 25 8a de 20 00    	jmpq   *0x20de8a(%rip)        # 6175d0 <_GLOBAL_OFFSET_TABLE_+0x288>
  409746:	68 4e 00 00 00       	pushq  $0x4e
  40974b:	e9 00 fb ff ff       	jmpq   409250 <_init+0x20>

0000000000409750 <_ZNSt9exceptionD2Ev@plt>:
  409750:	ff 25 82 de 20 00    	jmpq   *0x20de82(%rip)        # 6175d8 <_GLOBAL_OFFSET_TABLE_+0x290>
  409756:	68 4f 00 00 00       	pushq  $0x4f
  40975b:	e9 f0 fa ff ff       	jmpq   409250 <_init+0x20>

0000000000409760 <__libc_start_main@plt>:
  409760:	ff 25 7a de 20 00    	jmpq   *0x20de7a(%rip)        # 6175e0 <_GLOBAL_OFFSET_TABLE_+0x298>
  409766:	68 50 00 00 00       	pushq  $0x50
  40976b:	e9 e0 fa ff ff       	jmpq   409250 <_init+0x20>

0000000000409770 <__cxa_pure_virtual@plt>:
  409770:	ff 25 72 de 20 00    	jmpq   *0x20de72(%rip)        # 6175e8 <_GLOBAL_OFFSET_TABLE_+0x2a0>
  409776:	68 51 00 00 00       	pushq  $0x51
  40977b:	e9 d0 fa ff ff       	jmpq   409250 <_init+0x20>

0000000000409780 <close@plt>:
  409780:	ff 25 6a de 20 00    	jmpq   *0x20de6a(%rip)        # 6175f0 <_GLOBAL_OFFSET_TABLE_+0x2a8>
  409786:	68 52 00 00 00       	pushq  $0x52
  40978b:	e9 c0 fa ff ff       	jmpq   409250 <_init+0x20>

0000000000409790 <_ZNSt8ios_base4InitD1Ev@plt>:
  409790:	ff 25 62 de 20 00    	jmpq   *0x20de62(%rip)        # 6175f8 <_GLOBAL_OFFSET_TABLE_+0x2b0>
  409796:	68 53 00 00 00       	pushq  $0x53
  40979b:	e9 b0 fa ff ff       	jmpq   409250 <_init+0x20>

Disassembly of section .text:

00000000004097a0 <_ZNK5boost10shared_ptrIN3ros9Publisher4ImplEEptEv.isra.48.part.49>:
  4097a0:	50                   	push   %rax
  4097a1:	b9 80 31 41 00       	mov    $0x413180,%ecx
  4097a6:	ba ac 01 00 00       	mov    $0x1ac,%edx
  4097ab:	be 68 25 41 00       	mov    $0x412568,%esi
  4097b0:	bf 7b 2d 41 00       	mov    $0x412d7b,%edi
  4097b5:	e8 86 fc ff ff       	callq  409440 <__assert_fail@plt>

00000000004097ba <_ZNK5boost10shared_ptrIKN6SpyKee7Motion_ISaIvEEEEptEv.isra.50.part.51>:
  4097ba:	52                   	push   %rdx
  4097bb:	b9 40 2e 41 00       	mov    $0x412e40,%ecx
  4097c0:	ba ac 01 00 00       	mov    $0x1ac,%edx
  4097c5:	be 68 25 41 00       	mov    $0x412568,%esi
  4097ca:	bf 7b 2d 41 00       	mov    $0x412d7b,%edi
  4097cf:	e8 6c fc ff ff       	callq  409440 <__assert_fail@plt>
  4097d4:	90                   	nop
  4097d5:	90                   	nop
  4097d6:	90                   	nop
  4097d7:	90                   	nop
  4097d8:	90                   	nop
  4097d9:	90                   	nop
  4097da:	90                   	nop
  4097db:	90                   	nop
  4097dc:	90                   	nop
  4097dd:	90                   	nop
  4097de:	90                   	nop
  4097df:	90                   	nop

00000000004097e0 <main>:
  4097e0:	55                   	push   %rbp
  4097e1:	53                   	push   %rbx
  4097e2:	48 89 f3             	mov    %rsi,%rbx
  4097e5:	be f2 2d 41 00       	mov    $0x412df2,%esi
  4097ea:	48 81 ec 18 02 00 00 	sub    $0x218,%rsp
  4097f1:	c6 05 80 e2 20 00 00 	movb   $0x0,0x20e280(%rip)        # 617a78 <started>
  4097f8:	89 7c 24 0c          	mov    %edi,0xc(%rsp)
  4097fc:	48 8d 94 24 0b 02 00 	lea    0x20b(%rsp),%rdx
  409803:	00 
  409804:	48 8d bc 24 b0 01 00 	lea    0x1b0(%rsp),%rdi
  40980b:	00 
  40980c:	e8 5f fd ff ff       	callq  409570 <_ZNSsC1EPKcRKSaIcE@plt>
  409811:	48 8d 94 24 b0 01 00 	lea    0x1b0(%rsp),%rdx
  409818:	00 
  409819:	48 8d 7c 24 0c       	lea    0xc(%rsp),%rdi
  40981e:	31 c9                	xor    %ecx,%ecx
  409820:	48 89 de             	mov    %rbx,%rsi
  409823:	e8 c8 fa ff ff       	callq  4092f0 <_ZN3ros4initERiPPcRKSsj@plt>
  409828:	48 8d bc 24 b0 01 00 	lea    0x1b0(%rsp),%rdi
  40982f:	00 
  409830:	e8 5b fe ff ff       	callq  409690 <_ZNSsD1Ev@plt>
  409835:	48 8d 84 24 68 01 00 	lea    0x168(%rsp),%rax
  40983c:	00 
  40983d:	48 8d 94 24 60 01 00 	lea    0x160(%rsp),%rdx
  409844:	00 
  409845:	48 8d b4 24 c0 01 00 	lea    0x1c0(%rsp),%rsi
  40984c:	00 
  40984d:	48 8d 7c 24 10       	lea    0x10(%rsp),%rdi
  409852:	c7 84 24 68 01 00 00 	movl   $0x0,0x168(%rsp)
  409859:	00 00 00 00 
  40985d:	48 c7 84 24 70 01 00 	movq   $0x0,0x170(%rsp)
  409864:	00 00 00 00 00 
  409869:	48 c7 84 24 88 01 00 	movq   $0x0,0x188(%rsp)
  409870:	00 00 00 00 00 
  409875:	48 89 84 24 78 01 00 	mov    %rax,0x178(%rsp)
  40987c:	00 
  40987d:	48 89 84 24 80 01 00 	mov    %rax,0x180(%rsp)
  409884:	00 
  409885:	48 c7 84 24 c0 01 00 	movq   $0x617718,0x1c0(%rsp)
  40988c:	00 18 77 61 00 
  409891:	e8 0a fd ff ff       	callq  4095a0 <_ZN3ros10NodeHandleC1ERKSsRKSt3mapISsSsSt4lessISsESaISt4pairIS1_SsEEE@plt>
  409896:	48 8d bc 24 c0 01 00 	lea    0x1c0(%rsp),%rdi
  40989d:	00 
  40989e:	e8 ed fd ff ff       	callq  409690 <_ZNSsD1Ev@plt>
  4098a3:	48 8b b4 24 70 01 00 	mov    0x170(%rsp),%rsi
  4098aa:	00 
  4098ab:	48 8d bc 24 60 01 00 	lea    0x160(%rsp),%rdi
  4098b2:	00 
  4098b3:	e8 78 3a 00 00       	callq  40d330 <_ZNSt8_Rb_treeISsSt4pairIKSsSsESt10_Select1stIS2_ESt4lessISsESaIS2_EE8_M_eraseEPSt13_Rb_tree_nodeIS2_E>
  4098b8:	bf 08 00 00 00       	mov    $0x8,%edi
  4098bd:	c7 84 24 f0 01 00 00 	movl   $0x696d6461,0x1f0(%rsp)
  4098c4:	61 64 6d 69 
  4098c8:	66 c7 84 24 f4 01 00 	movw   $0x6e,0x1f4(%rsp)
  4098cf:	00 6e 00 
  4098d2:	c7 84 24 00 02 00 00 	movl   $0x696d6461,0x200(%rsp)
  4098d9:	61 64 6d 69 
  4098dd:	66 c7 84 24 04 02 00 	movw   $0x6e,0x204(%rsp)
  4098e4:	00 6e 00 
  4098e7:	e8 34 fc ff ff       	callq  409520 <_Znwm@plt>
  4098ec:	48 8d 94 24 00 02 00 	lea    0x200(%rsp),%rdx
  4098f3:	00 
  4098f4:	48 8d b4 24 f0 01 00 	lea    0x1f0(%rsp),%rsi
  4098fb:	00 
  4098fc:	48 89 c7             	mov    %rax,%rdi
  4098ff:	48 89 c3             	mov    %rax,%rbx
  409902:	e8 79 6e 00 00       	callq  410780 <_ZN13SpykeeManagerC1EPcS0_>
  409907:	48 8d bc 24 10 01 00 	lea    0x110(%rsp),%rdi
  40990e:	00 
  40990f:	31 c0                	xor    %eax,%eax
  409911:	b9 09 00 00 00       	mov    $0x9,%ecx
  409916:	48 8d 94 24 0c 02 00 	lea    0x20c(%rsp),%rdx
  40991d:	00 
  40991e:	be f9 2d 41 00       	mov    $0x412df9,%esi
  409923:	48 89 1d 56 e1 20 00 	mov    %rbx,0x20e156(%rip)        # 617a80 <robot_ptr>
  40992a:	f3 48 ab             	rep stos %rax,%es:(%rdi)
  40992d:	48 8d 84 24 30 01 00 	lea    0x130(%rsp),%rax
  409934:	00 
  409935:	48 8d bc 24 d0 01 00 	lea    0x1d0(%rsp),%rdi
  40993c:	00 
  40993d:	48 89 84 24 40 01 00 	mov    %rax,0x140(%rsp)
  409944:	00 
  409945:	48 89 84 24 48 01 00 	mov    %rax,0x148(%rsp)
  40994c:	00 
  40994d:	e8 1e fc ff ff       	callq  409570 <_ZNSsC1EPKcRKSaIcE@plt>
  409952:	4c 8d 8c 24 10 01 00 	lea    0x110(%rsp),%r9
  409959:	00 
  40995a:	48 8d 94 24 d0 01 00 	lea    0x1d0(%rsp),%rdx
  409961:	00 
  409962:	48 8d 74 24 10       	lea    0x10(%rsp),%rsi
  409967:	48 8d bc 24 90 01 00 	lea    0x190(%rsp),%rdi
  40996e:	00 
  40996f:	41 b8 e0 9f 40 00    	mov    $0x409fe0,%r8d
  409975:	b9 e8 03 00 00       	mov    $0x3e8,%ecx
  40997a:	e8 c1 4c 00 00       	callq  40e640 <_ZN3ros10NodeHandle9subscribeIN6SpyKee7Motion_ISaIvEEEEENS_10SubscriberERKSsjPFvRKN5boost10shared_ptrIKT_EEERKNS_14TransportHintsE>
  40997f:	48 8d bc 24 d0 01 00 	lea    0x1d0(%rsp),%rdi
  409986:	00 
  409987:	e8 04 fd ff ff       	callq  409690 <_ZNSsD1Ev@plt>
  40998c:	48 8d bc 24 10 01 00 	lea    0x110(%rsp),%rdi
  409993:	00 
  409994:	e8 67 3a 00 00       	callq  40d400 <_ZN3ros14TransportHintsD1Ev>
  409999:	48 8d 94 24 0d 02 00 	lea    0x20d(%rsp),%rdx
  4099a0:	00 
  4099a1:	48 8d bc 24 e0 01 00 	lea    0x1e0(%rsp),%rdi
  4099a8:	00 
  4099a9:	be 07 2e 41 00       	mov    $0x412e07,%esi
  4099ae:	e8 bd fb ff ff       	callq  409570 <_ZNSsC1EPKcRKSaIcE@plt>
  4099b3:	48 8d 94 24 e0 01 00 	lea    0x1e0(%rsp),%rdx
  4099ba:	00 
  4099bb:	48 8d 74 24 10       	lea    0x10(%rsp),%rsi
  4099c0:	48 8d bc 24 a0 01 00 	lea    0x1a0(%rsp),%rdi
  4099c7:	00 
  4099c8:	45 31 c0             	xor    %r8d,%r8d
  4099cb:	b9 03 00 00 00       	mov    $0x3,%ecx
  4099d0:	e8 bb 1b 00 00       	callq  40b590 <_ZN3ros10NodeHandle9advertiseIN11sensor_msgs16CompressedImage_ISaIvEEEEENS_9PublisherERKSsjb>
  4099d5:	48 8d bc 24 e0 01 00 	lea    0x1e0(%rsp),%rdi
  4099dc:	00 
  4099dd:	e8 ae fc ff ff       	callq  409690 <_ZNSsD1Ev@plt>
  4099e2:	48 8b 3d 97 e0 20 00 	mov    0x20e097(%rip),%rdi        # 617a80 <robot_ptr>
  4099e9:	e8 22 74 00 00       	callq  410e10 <_ZN13SpykeeManager6unplugEv>
  4099ee:	48 8b 3d 8b e0 20 00 	mov    0x20e08b(%rip),%rdi        # 617a80 <robot_ptr>
  4099f5:	e8 d6 70 00 00       	callq  410ad0 <_ZN13SpykeeManager11startCameraEv>
  4099fa:	48 8d ac 24 e0 00 00 	lea    0xe0(%rsp),%rbp
  409a01:	00 
  409a02:	eb 74                	jmp    409a78 <main+0x298>
  409a04:	0f 1f 40 00          	nopl   0x0(%rax)
  409a08:	48 8b bc 24 e0 00 00 	mov    0xe0(%rsp),%rdi
  409a0f:	00 
  409a10:	48 85 ff             	test   %rdi,%rdi
  409a13:	74 05                	je     409a1a <main+0x23a>
  409a15:	e8 d6 fa ff ff       	callq  4094f0 <_ZdlPv@plt>
  409a1a:	48 8b 84 24 d8 00 00 	mov    0xd8(%rsp),%rax
  409a21:	00 
  409a22:	48 8d 78 e8          	lea    -0x18(%rax),%rdi
  409a26:	48 81 ff 00 77 61 00 	cmp    $0x617700,%rdi
  409a2d:	0f 85 27 02 00 00    	jne    409c5a <main+0x47a>
  409a33:	48 8b 9c 24 d0 00 00 	mov    0xd0(%rsp),%rbx
  409a3a:	00 
  409a3b:	48 c7 84 24 a8 00 00 	movq   $0x413230,0xa8(%rsp)
  409a42:	00 30 32 41 00 
  409a47:	48 85 db             	test   %rbx,%rbx
  409a4a:	74 13                	je     409a5f <main+0x27f>
  409a4c:	b8 ff ff ff ff       	mov    $0xffffffff,%eax
  409a51:	f0 0f c1 43 08       	lock xadd %eax,0x8(%rbx)
  409a56:	83 f8 01             	cmp    $0x1,%eax
  409a59:	0f 84 91 01 00 00    	je     409bf0 <main+0x410>
  409a5f:	48 8b 84 24 c0 00 00 	mov    0xc0(%rsp),%rax
  409a66:	00 
  409a67:	48 8d 78 e8          	lea    -0x18(%rax),%rdi
  409a6b:	48 81 ff 00 77 61 00 	cmp    $0x617700,%rdi
  409a72:	0f 85 12 02 00 00    	jne    409c8a <main+0x4aa>
  409a78:	e8 c3 fa ff ff       	callq  409540 <_ZN3ros2okEv@plt>
  409a7d:	84 c0                	test   %al,%al
  409a7f:	48 8b 3d fa df 20 00 	mov    0x20dffa(%rip),%rdi        # 617a80 <robot_ptr>
  409a86:	0f 84 94 01 00 00    	je     409c20 <main+0x440>
  409a8c:	e8 bf 70 00 00       	callq  410b50 <_ZN13SpykeeManager8getImageEv>
  409a91:	48 89 c6             	mov    %rax,%rsi
  409a94:	48 89 ef             	mov    %rbp,%rdi
  409a97:	48 89 c3             	mov    %rax,%rbx
  409a9a:	48 c7 84 24 a0 00 00 	movq   $0x4131f0,0xa0(%rsp)
  409aa1:	00 f0 31 41 00 
  409aa6:	48 c7 84 24 a8 00 00 	movq   $0x413230,0xa8(%rsp)
  409aad:	00 30 32 41 00 
  409ab2:	c7 84 24 b0 00 00 00 	movl   $0x0,0xb0(%rsp)
  409ab9:	00 00 00 00 
  409abd:	c7 84 24 b4 00 00 00 	movl   $0x0,0xb4(%rsp)
  409ac4:	00 00 00 00 
  409ac8:	c7 84 24 b8 00 00 00 	movl   $0x0,0xb8(%rsp)
  409acf:	00 00 00 00 
  409ad3:	48 c7 84 24 c0 00 00 	movq   $0x617718,0xc0(%rsp)
  409ada:	00 18 77 61 00 
  409adf:	48 c7 84 24 c8 00 00 	movq   $0x0,0xc8(%rsp)
  409ae6:	00 00 00 00 00 
  409aeb:	48 c7 84 24 d0 00 00 	movq   $0x0,0xd0(%rsp)
  409af2:	00 00 00 00 00 
  409af7:	48 c7 84 24 d8 00 00 	movq   $0x617718,0xd8(%rsp)
  409afe:	00 18 77 61 00 
  409b03:	48 c7 84 24 e0 00 00 	movq   $0x0,0xe0(%rsp)
  409b0a:	00 00 00 00 00 
  409b0f:	48 c7 84 24 e8 00 00 	movq   $0x0,0xe8(%rsp)
  409b16:	00 00 00 00 00 
  409b1b:	48 c7 84 24 f0 00 00 	movq   $0x0,0xf0(%rsp)
  409b22:	00 00 00 00 00 
  409b27:	48 c7 84 24 f8 00 00 	movq   $0x0,0xf8(%rsp)
  409b2e:	00 00 00 00 00 
  409b33:	48 c7 84 24 00 01 00 	movq   $0x0,0x100(%rsp)
  409b3a:	00 00 00 00 00 
  409b3f:	e8 bc 26 00 00       	callq  40c200 <_ZNSt6vectorIhSaIhEEaSERKS1_>
  409b44:	48 8d bc 24 d8 00 00 	lea    0xd8(%rsp),%rdi
  409b4b:	00 
  409b4c:	ba 04 00 00 00       	mov    $0x4,%edx
  409b51:	be 15 2e 41 00       	mov    $0x412e15,%esi
  409b56:	e8 35 fa ff ff       	callq  409590 <_ZNSs6assignEPKcm@plt>
  409b5b:	48 8d b4 24 a0 00 00 	lea    0xa0(%rsp),%rsi
  409b62:	00 
  409b63:	48 8d bc 24 a0 01 00 	lea    0x1a0(%rsp),%rdi
  409b6a:	00 
  409b6b:	e8 30 2c 00 00       	callq  40c7a0 <_ZNK3ros9Publisher7publishIN11sensor_msgs16CompressedImage_ISaIvEEEEEvRKT_>
  409b70:	e8 0b fb ff ff       	callq  409680 <_ZN3ros8spinOnceEv@plt>
  409b75:	48 85 db             	test   %rbx,%rbx
  409b78:	74 15                	je     409b8f <main+0x3af>
  409b7a:	48 8b 3b             	mov    (%rbx),%rdi
  409b7d:	48 85 ff             	test   %rdi,%rdi
  409b80:	74 05                	je     409b87 <main+0x3a7>
  409b82:	e8 69 f9 ff ff       	callq  4094f0 <_ZdlPv@plt>
  409b87:	48 89 df             	mov    %rbx,%rdi
  409b8a:	e8 61 f9 ff ff       	callq  4094f0 <_ZdlPv@plt>
  409b8f:	48 8b 9c 24 00 01 00 	mov    0x100(%rsp),%rbx
  409b96:	00 
  409b97:	48 c7 84 24 a0 00 00 	movq   $0x4131f0,0xa0(%rsp)
  409b9e:	00 f0 31 41 00 
  409ba3:	48 85 db             	test   %rbx,%rbx
  409ba6:	0f 84 5c fe ff ff    	je     409a08 <main+0x228>
  409bac:	b8 ff ff ff ff       	mov    $0xffffffff,%eax
  409bb1:	f0 0f c1 43 08       	lock xadd %eax,0x8(%rbx)
  409bb6:	83 f8 01             	cmp    $0x1,%eax
  409bb9:	0f 85 49 fe ff ff    	jne    409a08 <main+0x228>
  409bbf:	48 8b 03             	mov    (%rbx),%rax
  409bc2:	48 89 df             	mov    %rbx,%rdi
  409bc5:	ff 50 10             	callq  *0x10(%rax)
  409bc8:	b8 ff ff ff ff       	mov    $0xffffffff,%eax
  409bcd:	f0 0f c1 43 0c       	lock xadd %eax,0xc(%rbx)
  409bd2:	83 f8 01             	cmp    $0x1,%eax
  409bd5:	0f 85 2d fe ff ff    	jne    409a08 <main+0x228>
  409bdb:	48 8b 03             	mov    (%rbx),%rax
  409bde:	48 89 df             	mov    %rbx,%rdi
  409be1:	ff 50 18             	callq  *0x18(%rax)
  409be4:	e9 1f fe ff ff       	jmpq   409a08 <main+0x228>
  409be9:	0f 1f 80 00 00 00 00 	nopl   0x0(%rax)
  409bf0:	48 8b 03             	mov    (%rbx),%rax
  409bf3:	48 89 df             	mov    %rbx,%rdi
  409bf6:	ff 50 10             	callq  *0x10(%rax)
  409bf9:	b8 ff ff ff ff       	mov    $0xffffffff,%eax
  409bfe:	f0 0f c1 43 0c       	lock xadd %eax,0xc(%rbx)
  409c03:	83 f8 01             	cmp    $0x1,%eax
  409c06:	0f 85 53 fe ff ff    	jne    409a5f <main+0x27f>
  409c0c:	48 8b 03             	mov    (%rbx),%rax
  409c0f:	48 89 df             	mov    %rbx,%rdi
  409c12:	ff 50 18             	callq  *0x18(%rax)
  409c15:	e9 45 fe ff ff       	jmpq   409a5f <main+0x27f>
  409c1a:	66 0f 1f 44 00 00    	nopw   0x0(%rax,%rax,1)
  409c20:	48 85 ff             	test   %rdi,%rdi
  409c23:	74 05                	je     409c2a <main+0x44a>
  409c25:	e8 c6 f8 ff ff       	callq  4094f0 <_ZdlPv@plt>
  409c2a:	48 8d bc 24 a0 01 00 	lea    0x1a0(%rsp),%rdi
  409c31:	00 
  409c32:	e8 39 f8 ff ff       	callq  409470 <_ZN3ros9PublisherD1Ev@plt>
  409c37:	48 8d bc 24 90 01 00 	lea    0x190(%rsp),%rdi
  409c3e:	00 
  409c3f:	e8 0c fa ff ff       	callq  409650 <_ZN3ros10SubscriberD1Ev@plt>
  409c44:	48 8d 7c 24 10       	lea    0x10(%rsp),%rdi
  409c49:	e8 d2 f7 ff ff       	callq  409420 <_ZN3ros10NodeHandleD1Ev@plt>
  409c4e:	48 81 c4 18 02 00 00 	add    $0x218,%rsp
  409c55:	31 c0                	xor    %eax,%eax
  409c57:	5b                   	pop    %rbx
  409c58:	5d                   	pop    %rbp
  409c59:	c3                   	retq   
  409c5a:	ba 80 92 40 00       	mov    $0x409280,%edx
  409c5f:	48 85 d2             	test   %rdx,%rdx
  409c62:	0f 84 92 01 00 00    	je     409dfa <main+0x61a>
  409c68:	83 ca ff             	or     $0xffffffff,%edx
  409c6b:	f0 0f c1 50 f8       	lock xadd %edx,-0x8(%rax)
  409c70:	85 d2                	test   %edx,%edx
  409c72:	0f 8f bb fd ff ff    	jg     409a33 <main+0x253>
  409c78:	48 8d b4 24 0e 02 00 	lea    0x20e(%rsp),%rsi
  409c7f:	00 
  409c80:	e8 0b f8 ff ff       	callq  409490 <_ZNSs4_Rep10_M_destroyERKSaIcE@plt>
  409c85:	e9 a9 fd ff ff       	jmpq   409a33 <main+0x253>
  409c8a:	ba 80 92 40 00       	mov    $0x409280,%edx
  409c8f:	48 85 d2             	test   %rdx,%rdx
  409c92:	74 51                	je     409ce5 <main+0x505>
  409c94:	83 ca ff             	or     $0xffffffff,%edx
  409c97:	f0 0f c1 50 f8       	lock xadd %edx,-0x8(%rax)
  409c9c:	85 d2                	test   %edx,%edx
  409c9e:	0f 8f d4 fd ff ff    	jg     409a78 <main+0x298>
  409ca4:	48 8d b4 24 0f 02 00 	lea    0x20f(%rsp),%rsi
  409cab:	00 
  409cac:	e8 df f7 ff ff       	callq  409490 <_ZNSs4_Rep10_M_destroyERKSaIcE@plt>
  409cb1:	e9 c2 fd ff ff       	jmpq   409a78 <main+0x298>
  409cb6:	48 8d bc 24 d0 01 00 	lea    0x1d0(%rsp),%rdi
  409cbd:	00 
  409cbe:	48 89 c3             	mov    %rax,%rbx
  409cc1:	e8 ca f9 ff ff       	callq  409690 <_ZNSsD1Ev@plt>
  409cc6:	48 8d bc 24 10 01 00 	lea    0x110(%rsp),%rdi
  409ccd:	00 
  409cce:	e8 2d 37 00 00       	callq  40d400 <_ZN3ros14TransportHintsD1Ev>
  409cd3:	48 8d 7c 24 10       	lea    0x10(%rsp),%rdi
  409cd8:	e8 43 f7 ff ff       	callq  409420 <_ZN3ros10NodeHandleD1Ev@plt>
  409cdd:	48 89 df             	mov    %rbx,%rdi
  409ce0:	e8 3b fa ff ff       	callq  409720 <_Unwind_Resume@plt>
  409ce5:	8b 50 f8             	mov    -0x8(%rax),%edx
  409ce8:	8d 4a ff             	lea    -0x1(%rdx),%ecx
  409ceb:	89 48 f8             	mov    %ecx,-0x8(%rax)
  409cee:	eb ac                	jmp    409c9c <main+0x4bc>
  409cf0:	48 89 c3             	mov    %rax,%rbx
  409cf3:	eb d1                	jmp    409cc6 <main+0x4e6>
  409cf5:	48 89 df             	mov    %rbx,%rdi
  409cf8:	48 89 c5             	mov    %rax,%rbp
  409cfb:	48 89 14 24          	mov    %rdx,(%rsp)
  409cff:	e8 ec f7 ff ff       	callq  4094f0 <_ZdlPv@plt>
  409d04:	48 8b 14 24          	mov    (%rsp),%rdx
  409d08:	48 89 e8             	mov    %rbp,%rax
  409d0b:	48 83 ea 01          	sub    $0x1,%rdx
  409d0f:	74 4d                	je     409d5e <main+0x57e>
  409d11:	48 89 c3             	mov    %rax,%rbx
  409d14:	eb bd                	jmp    409cd3 <main+0x4f3>
  409d16:	48 8d bc 24 a0 00 00 	lea    0xa0(%rsp),%rdi
  409d1d:	00 
  409d1e:	48 89 c3             	mov    %rax,%rbx
  409d21:	e8 9a 13 00 00       	callq  40b0c0 <_ZN11sensor_msgs16CompressedImage_ISaIvEED1Ev>
  409d26:	48 8d bc 24 a0 01 00 	lea    0x1a0(%rsp),%rdi
  409d2d:	00 
  409d2e:	e8 3d f7 ff ff       	callq  409470 <_ZN3ros9PublisherD1Ev@plt>
  409d33:	48 8d bc 24 90 01 00 	lea    0x190(%rsp),%rdi
  409d3a:	00 
  409d3b:	e8 10 f9 ff ff       	callq  409650 <_ZN3ros10SubscriberD1Ev@plt>
  409d40:	eb 91                	jmp    409cd3 <main+0x4f3>
  409d42:	48 89 c3             	mov    %rax,%rbx
  409d45:	eb ec                	jmp    409d33 <main+0x553>
  409d47:	48 89 c3             	mov    %rax,%rbx
  409d4a:	eb da                	jmp    409d26 <main+0x546>
  409d4c:	48 8d bc 24 e0 01 00 	lea    0x1e0(%rsp),%rdi
  409d53:	00 
  409d54:	48 89 c3             	mov    %rax,%rbx
  409d57:	e8 34 f9 ff ff       	callq  409690 <_ZNSsD1Ev@plt>
  409d5c:	eb d5                	jmp    409d33 <main+0x553>
  409d5e:	48 89 c7             	mov    %rax,%rdi
  409d61:	e8 0a f6 ff ff       	callq  409370 <__cxa_begin_catch@plt>
  409d66:	be 80 2c 41 00       	mov    $0x412c80,%esi
  409d6b:	bf 40 79 61 00       	mov    $0x617940,%edi
  409d70:	e8 9b f7 ff ff       	callq  409510 <_ZStlsISt11char_traitsIcEERSt13basic_ostreamIcT_ES5_PKc@plt>
  409d75:	48 89 c7             	mov    %rax,%rdi
  409d78:	e8 23 f6 ff ff       	callq  4093a0 <_ZSt4endlIcSt11char_traitsIcEERSt13basic_ostreamIT_T0_ES6_@plt>
  409d7d:	be a0 2c 41 00       	mov    $0x412ca0,%esi
  409d82:	bf 40 79 61 00       	mov    $0x617940,%edi
  409d87:	e8 84 f7 ff ff       	callq  409510 <_ZStlsISt11char_traitsIcEERSt13basic_ostreamIcT_ES5_PKc@plt>
  409d8c:	be c8 2c 41 00       	mov    $0x412cc8,%esi
  409d91:	48 89 c7             	mov    %rax,%rdi
  409d94:	e8 77 f7 ff ff       	callq  409510 <_ZStlsISt11char_traitsIcEERSt13basic_ostreamIcT_ES5_PKc@plt>
  409d99:	48 89 c7             	mov    %rax,%rdi
  409d9c:	e8 ff f5 ff ff       	callq  4093a0 <_ZSt4endlIcSt11char_traitsIcEERSt13basic_ostreamIT_T0_ES6_@plt>
  409da1:	bf 01 00 00 00       	mov    $0x1,%edi
  409da6:	e8 05 f8 ff ff       	callq  4095b0 <exit@plt>
  409dab:	e9 61 ff ff ff       	jmpq   409d11 <main+0x531>
  409db0:	e9 56 ff ff ff       	jmpq   409d0b <main+0x52b>
  409db5:	48 8d bc 24 c0 01 00 	lea    0x1c0(%rsp),%rdi
  409dbc:	00 
  409dbd:	48 89 c3             	mov    %rax,%rbx
  409dc0:	e8 cb f8 ff ff       	callq  409690 <_ZNSsD1Ev@plt>
  409dc5:	48 8b b4 24 70 01 00 	mov    0x170(%rsp),%rsi
  409dcc:	00 
  409dcd:	48 8d bc 24 60 01 00 	lea    0x160(%rsp),%rdi
  409dd4:	00 
  409dd5:	e8 56 35 00 00       	callq  40d330 <_ZNSt8_Rb_treeISsSt4pairIKSsSsESt10_Select1stIS2_ESt4lessISsESaIS2_EE8_M_eraseEPSt13_Rb_tree_nodeIS2_E>
  409dda:	48 89 df             	mov    %rbx,%rdi
  409ddd:	e8 3e f9 ff ff       	callq  409720 <_Unwind_Resume@plt>
  409de2:	48 8d bc 24 b0 01 00 	lea    0x1b0(%rsp),%rdi
  409de9:	00 
  409dea:	48 89 c3             	mov    %rax,%rbx
  409ded:	e8 9e f8 ff ff       	callq  409690 <_ZNSsD1Ev@plt>
  409df2:	48 89 df             	mov    %rbx,%rdi
  409df5:	e8 26 f9 ff ff       	callq  409720 <_Unwind_Resume@plt>
  409dfa:	8b 50 f8             	mov    -0x8(%rax),%edx
  409dfd:	8d 4a ff             	lea    -0x1(%rdx),%ecx
  409e00:	89 48 f8             	mov    %ecx,-0x8(%rax)
  409e03:	e9 68 fe ff ff       	jmpq   409c70 <main+0x490>
  409e08:	e9 35 ff ff ff       	jmpq   409d42 <main+0x562>
  409e0d:	48 8d bc 24 c0 00 00 	lea    0xc0(%rsp),%rdi
  409e14:	00 
  409e15:	48 89 c3             	mov    %rax,%rbx
  409e18:	e8 73 f8 ff ff       	callq  409690 <_ZNSsD1Ev@plt>
  409e1d:	e9 04 ff ff ff       	jmpq   409d26 <main+0x546>
  409e22:	48 8b bc 24 e0 00 00 	mov    0xe0(%rsp),%rdi
  409e29:	00 
  409e2a:	48 89 c3             	mov    %rax,%rbx
  409e2d:	48 85 ff             	test   %rdi,%rdi
  409e30:	74 05                	je     409e37 <main+0x657>
  409e32:	e8 b9 f6 ff ff       	callq  4094f0 <_ZdlPv@plt>
  409e37:	48 8d bc 24 d8 00 00 	lea    0xd8(%rsp),%rdi
  409e3e:	00 
  409e3f:	e8 4c f8 ff ff       	callq  409690 <_ZNSsD1Ev@plt>
  409e44:	48 8d bc 24 a8 00 00 	lea    0xa8(%rsp),%rdi
  409e4b:	00 
  409e4c:	e8 af 11 00 00       	callq  40b000 <_ZN8std_msgs7Header_ISaIvEED1Ev>
  409e51:	e9 d0 fe ff ff       	jmpq   409d26 <main+0x546>
  409e56:	48 89 c3             	mov    %rax,%rbx
  409e59:	e8 62 f8 ff ff       	callq  4096c0 <__cxa_end_catch@plt>
  409e5e:	66 90                	xchg   %ax,%ax
  409e60:	e9 6e fe ff ff       	jmpq   409cd3 <main+0x4f3>
  409e65:	66 66 2e 0f 1f 84 00 	data32 nopw %cs:0x0(%rax,%rax,1)
  409e6c:	00 00 00 00 

0000000000409e70 <_GLOBAL__sub_I_robot_ptr>:
  409e70:	48 83 ec 08          	sub    $0x8,%rsp
  409e74:	bf 88 7a 61 00       	mov    $0x617a88,%edi
  409e79:	e8 e2 f7 ff ff       	callq  409660 <_ZNSt8ios_base4InitC1Ev@plt>
  409e7e:	ba 08 76 61 00       	mov    $0x617608,%edx
  409e83:	be 88 7a 61 00       	mov    $0x617a88,%esi
  409e88:	bf 90 97 40 00       	mov    $0x409790,%edi
  409e8d:	48 83 c4 08          	add    $0x8,%rsp
  409e91:	e9 2a f6 ff ff       	jmpq   4094c0 <__cxa_atexit@plt>
  409e96:	90                   	nop
  409e97:	90                   	nop
  409e98:	90                   	nop
  409e99:	90                   	nop
  409e9a:	90                   	nop
  409e9b:	90                   	nop
  409e9c:	90                   	nop
  409e9d:	90                   	nop
  409e9e:	90                   	nop
  409e9f:	90                   	nop

0000000000409ea0 <_GLOBAL__sub_I__ZN13SpykeeManagerC2EPcS0_>:
  409ea0:	48 83 ec 08          	sub    $0x8,%rsp
  409ea4:	bf 8c 7a 61 00       	mov    $0x617a8c,%edi
  409ea9:	e8 b2 f7 ff ff       	callq  409660 <_ZNSt8ios_base4InitC1Ev@plt>
  409eae:	ba 08 76 61 00       	mov    $0x617608,%edx
  409eb3:	be 8c 7a 61 00       	mov    $0x617a8c,%esi
  409eb8:	bf 90 97 40 00       	mov    $0x409790,%edi
  409ebd:	48 83 c4 08          	add    $0x8,%rsp
  409ec1:	e9 fa f5 ff ff       	jmpq   4094c0 <__cxa_atexit@plt>
  409ec6:	90                   	nop
  409ec7:	90                   	nop
  409ec8:	90                   	nop
  409ec9:	90                   	nop
  409eca:	90                   	nop
  409ecb:	90                   	nop
  409ecc:	90                   	nop
  409ecd:	90                   	nop
  409ece:	90                   	nop
  409ecf:	90                   	nop

0000000000409ed0 <_GLOBAL__sub_I__ZN15SocketExceptionC2ERKSsb>:
  409ed0:	48 83 ec 08          	sub    $0x8,%rsp
  409ed4:	bf 90 7a 61 00       	mov    $0x617a90,%edi
  409ed9:	e8 82 f7 ff ff       	callq  409660 <_ZNSt8ios_base4InitC1Ev@plt>
  409ede:	ba 08 76 61 00       	mov    $0x617608,%edx
  409ee3:	be 90 7a 61 00       	mov    $0x617a90,%esi
  409ee8:	bf 90 97 40 00       	mov    $0x409790,%edi
  409eed:	48 83 c4 08          	add    $0x8,%rsp
  409ef1:	e9 ca f5 ff ff       	jmpq   4094c0 <__cxa_atexit@plt>
  409ef6:	90                   	nop
  409ef7:	90                   	nop

0000000000409ef8 <_start>:
  409ef8:	31 ed                	xor    %ebp,%ebp
  409efa:	49 89 d1             	mov    %rdx,%r9
  409efd:	5e                   	pop    %rsi
  409efe:	48 89 e2             	mov    %rsp,%rdx
  409f01:	48 83 e4 f0          	and    $0xfffffffffffffff0,%rsp
  409f05:	50                   	push   %rax
  409f06:	54                   	push   %rsp
  409f07:	49 c7 c0 70 24 41 00 	mov    $0x412470,%r8
  409f0e:	48 c7 c1 80 24 41 00 	mov    $0x412480,%rcx
  409f15:	48 c7 c7 e0 97 40 00 	mov    $0x4097e0,%rdi
  409f1c:	e8 3f f8 ff ff       	callq  409760 <__libc_start_main@plt>
  409f21:	f4                   	hlt    
  409f22:	90                   	nop
  409f23:	90                   	nop

0000000000409f24 <call_gmon_start>:
  409f24:	48 83 ec 08          	sub    $0x8,%rsp
  409f28:	48 8b 05 11 d4 20 00 	mov    0x20d411(%rip),%rax        # 617340 <_DYNAMIC+0x300>
  409f2f:	48 85 c0             	test   %rax,%rax
  409f32:	74 02                	je     409f36 <call_gmon_start+0x12>
  409f34:	ff d0                	callq  *%rax
  409f36:	48 83 c4 08          	add    $0x8,%rsp
  409f3a:	c3                   	retq   
  409f3b:	90                   	nop
  409f3c:	90                   	nop
  409f3d:	90                   	nop
  409f3e:	90                   	nop
  409f3f:	90                   	nop

0000000000409f40 <__do_global_dtors_aux>:
  409f40:	55                   	push   %rbp
  409f41:	48 89 e5             	mov    %rsp,%rbp
  409f44:	53                   	push   %rbx
  409f45:	48 83 ec 08          	sub    $0x8,%rsp
  409f49:	80 3d 18 db 20 00 00 	cmpb   $0x0,0x20db18(%rip)        # 617a68 <completed.5886>
  409f50:	75 4b                	jne    409f9d <__do_global_dtors_aux+0x5d>
  409f52:	bb 30 70 61 00       	mov    $0x617030,%ebx
  409f57:	48 8b 05 12 db 20 00 	mov    0x20db12(%rip),%rax        # 617a70 <dtor_idx.5888>
  409f5e:	48 81 eb 28 70 61 00 	sub    $0x617028,%rbx
  409f65:	48 c1 fb 03          	sar    $0x3,%rbx
  409f69:	48 83 eb 01          	sub    $0x1,%rbx
  409f6d:	48 39 d8             	cmp    %rbx,%rax
  409f70:	73 24                	jae    409f96 <__do_global_dtors_aux+0x56>
  409f72:	66 0f 1f 44 00 00    	nopw   0x0(%rax,%rax,1)
  409f78:	48 83 c0 01          	add    $0x1,%rax
  409f7c:	48 89 05 ed da 20 00 	mov    %rax,0x20daed(%rip)        # 617a70 <dtor_idx.5888>
  409f83:	ff 14 c5 28 70 61 00 	callq  *0x617028(,%rax,8)
  409f8a:	48 8b 05 df da 20 00 	mov    0x20dadf(%rip),%rax        # 617a70 <dtor_idx.5888>
  409f91:	48 39 d8             	cmp    %rbx,%rax
  409f94:	72 e2                	jb     409f78 <__do_global_dtors_aux+0x38>
  409f96:	c6 05 cb da 20 00 01 	movb   $0x1,0x20dacb(%rip)        # 617a68 <completed.5886>
  409f9d:	48 83 c4 08          	add    $0x8,%rsp
  409fa1:	5b                   	pop    %rbx
  409fa2:	5d                   	pop    %rbp
  409fa3:	c3                   	retq   
  409fa4:	66 66 66 2e 0f 1f 84 	data32 data32 nopw %cs:0x0(%rax,%rax,1)
  409fab:	00 00 00 00 00 

0000000000409fb0 <frame_dummy>:
  409fb0:	48 83 3d 80 d0 20 00 	cmpq   $0x0,0x20d080(%rip)        # 617038 <__JCR_END__>
  409fb7:	00 
  409fb8:	55                   	push   %rbp
  409fb9:	48 89 e5             	mov    %rsp,%rbp
  409fbc:	74 12                	je     409fd0 <frame_dummy+0x20>
  409fbe:	b8 00 00 00 00       	mov    $0x0,%eax
  409fc3:	48 85 c0             	test   %rax,%rax
  409fc6:	74 08                	je     409fd0 <frame_dummy+0x20>
  409fc8:	5d                   	pop    %rbp
  409fc9:	bf 38 70 61 00       	mov    $0x617038,%edi
  409fce:	ff e0                	jmpq   *%rax
  409fd0:	5d                   	pop    %rbp
  409fd1:	c3                   	retq   
  409fd2:	90                   	nop
  409fd3:	90                   	nop
  409fd4:	90                   	nop
  409fd5:	90                   	nop
  409fd6:	90                   	nop
  409fd7:	90                   	nop
  409fd8:	90                   	nop
  409fd9:	90                   	nop
  409fda:	90                   	nop
  409fdb:	90                   	nop
  409fdc:	90                   	nop
  409fdd:	90                   	nop
  409fde:	90                   	nop
  409fdf:	90                   	nop

0000000000409fe0 <_Z4moveRKN5boost10shared_ptrIKN6SpyKee7Motion_ISaIvEEEEE>:
  409fe0:	48 83 ec 08          	sub    $0x8,%rsp
  409fe4:	48 8b 07             	mov    (%rdi),%rax
  409fe7:	48 85 c0             	test   %rax,%rax
  409fea:	74 1e                	je     40a00a <_Z4moveRKN5boost10shared_ptrIKN6SpyKee7Motion_ISaIvEEEEE+0x2a>
  409fec:	0f be 70 08          	movsbl 0x8(%rax),%esi
  409ff0:	0f be 40 09          	movsbl 0x9(%rax),%eax
  409ff4:	48 8b 3d 85 da 20 00 	mov    0x20da85(%rip),%rdi        # 617a80 <robot_ptr>
  409ffb:	48 83 c4 08          	add    $0x8,%rsp
  409fff:	89 f2                	mov    %esi,%edx
  40a001:	01 c6                	add    %eax,%esi
  40a003:	29 c2                	sub    %eax,%edx
  40a005:	e9 a6 6d 00 00       	jmpq   410db0 <_ZN13SpykeeManager4moveEii>
  40a00a:	e8 ab f7 ff ff       	callq  4097ba <_ZNK5boost10shared_ptrIKN6SpyKee7Motion_ISaIvEEEEptEv.isra.50.part.51>
  40a00f:	90                   	nop

000000000040a010 <_ZN5boost16exception_detail10clone_baseD1Ev>:
  40a010:	48 c7 07 b0 35 41 00 	movq   $0x4135b0,(%rdi)
  40a017:	c3                   	retq   
  40a018:	90                   	nop
  40a019:	90                   	nop
  40a01a:	90                   	nop
  40a01b:	90                   	nop
  40a01c:	90                   	nop
  40a01d:	90                   	nop
  40a01e:	90                   	nop
  40a01f:	90                   	nop

000000000040a020 <_ZN5boost6detail15sp_counted_baseD1Ev>:
  40a020:	48 c7 07 f0 32 41 00 	movq   $0x4132f0,(%rdi)
  40a027:	c3                   	retq   
  40a028:	90                   	nop
  40a029:	90                   	nop
  40a02a:	90                   	nop
  40a02b:	90                   	nop
  40a02c:	90                   	nop
  40a02d:	90                   	nop
  40a02e:	90                   	nop
  40a02f:	90                   	nop

000000000040a030 <_ZN5boost6detail15sp_counted_base7destroyEv>:
  40a030:	48 85 ff             	test   %rdi,%rdi
  40a033:	74 0b                	je     40a040 <_ZN5boost6detail15sp_counted_base7destroyEv+0x10>
  40a035:	48 8b 07             	mov    (%rdi),%rax
  40a038:	48 8b 40 08          	mov    0x8(%rax),%rax
  40a03c:	ff e0                	jmpq   *%rax
  40a03e:	66 90                	xchg   %ax,%ax
  40a040:	f3 c3                	repz retq 
  40a042:	90                   	nop
  40a043:	90                   	nop
  40a044:	90                   	nop
  40a045:	90                   	nop
  40a046:	90                   	nop
  40a047:	90                   	nop
  40a048:	90                   	nop
  40a049:	90                   	nop
  40a04a:	90                   	nop
  40a04b:	90                   	nop
  40a04c:	90                   	nop
  40a04d:	90                   	nop
  40a04e:	90                   	nop
  40a04f:	90                   	nop

000000000040a050 <_ZN3ros26SubscriptionCallbackHelperD1Ev>:
  40a050:	48 c7 07 30 34 41 00 	movq   $0x413430,(%rdi)
  40a057:	c3                   	retq   
  40a058:	90                   	nop
  40a059:	90                   	nop
  40a05a:	90                   	nop
  40a05b:	90                   	nop
  40a05c:	90                   	nop
  40a05d:	90                   	nop
  40a05e:	90                   	nop
  40a05f:	90                   	nop

000000000040a060 <_ZN5boost6detail8function22void_function_invoker1IPFvRKNS_10shared_ptrIKN6SpyKee7Motion_ISaIvEEEEEEvSB_E6invokeERNS1_15function_bufferESB_>:
  40a060:	48 8b 07             	mov    (%rdi),%rax
  40a063:	48 89 f7             	mov    %rsi,%rdi
  40a066:	ff e0                	jmpq   *%rax
  40a068:	90                   	nop
  40a069:	90                   	nop
  40a06a:	90                   	nop
  40a06b:	90                   	nop
  40a06c:	90                   	nop
  40a06d:	90                   	nop
  40a06e:	90                   	nop
  40a06f:	90                   	nop

000000000040a070 <_ZN5boost6detail8function21function_obj_invoker0INS_3_bi6bind_tIN3ros17SerializedMessageEPFS6_RKN11sensor_msgs16CompressedImage_ISaIvEEEENS3_5list1INS_17reference_wrapperISB_EEEEEES6_E6invokeERNS1_15function_bufferE>:
  40a070:	53                   	push   %rbx
  40a071:	48 89 f0             	mov    %rsi,%rax
  40a074:	48 89 fb             	mov    %rdi,%rbx
  40a077:	48 8b 76 08          	mov    0x8(%rsi),%rsi
  40a07b:	ff 10                	callq  *(%rax)
  40a07d:	48 89 d8             	mov    %rbx,%rax
  40a080:	5b                   	pop    %rbx
  40a081:	c3                   	retq   
  40a082:	90                   	nop
  40a083:	90                   	nop
  40a084:	90                   	nop
  40a085:	90                   	nop
  40a086:	90                   	nop
  40a087:	90                   	nop
  40a088:	90                   	nop
  40a089:	90                   	nop
  40a08a:	90                   	nop
  40a08b:	90                   	nop
  40a08c:	90                   	nop
  40a08d:	90                   	nop
  40a08e:	90                   	nop
  40a08f:	90                   	nop

000000000040a090 <_ZN5boost6detail17sp_counted_impl_pIN3ros27SubscriptionCallbackHelperTIRKNS_10shared_ptrIKN6SpyKee7Motion_ISaIvEEEEEvEEED1Ev>:
  40a090:	48 c7 07 f0 32 41 00 	movq   $0x4132f0,(%rdi)
  40a097:	c3                   	retq   
  40a098:	90                   	nop
  40a099:	90                   	nop
  40a09a:	90                   	nop
  40a09b:	90                   	nop
  40a09c:	90                   	nop
  40a09d:	90                   	nop
  40a09e:	90                   	nop
  40a09f:	90                   	nop

000000000040a0a0 <_ZN5boost6detail18sp_counted_impl_pdIPhNS_21checked_array_deleterIhEEED1Ev>:
  40a0a0:	48 c7 07 f0 32 41 00 	movq   $0x4132f0,(%rdi)
  40a0a7:	c3                   	retq   
  40a0a8:	90                   	nop
  40a0a9:	90                   	nop
  40a0aa:	90                   	nop
  40a0ab:	90                   	nop
  40a0ac:	90                   	nop
  40a0ad:	90                   	nop
  40a0ae:	90                   	nop
  40a0af:	90                   	nop

000000000040a0b0 <_ZN5boost6detail17sp_counted_impl_pIN3ros27SubscriptionCallbackHelperTIRKNS_10shared_ptrIKN6SpyKee7Motion_ISaIvEEEEEvEEE7disposeEv>:
  40a0b0:	48 8b 7f 10          	mov    0x10(%rdi),%rdi
  40a0b4:	48 85 ff             	test   %rdi,%rdi
  40a0b7:	74 0f                	je     40a0c8 <_ZN5boost6detail17sp_counted_impl_pIN3ros27SubscriptionCallbackHelperTIRKNS_10shared_ptrIKN6SpyKee7Motion_ISaIvEEEEEvEEE7disposeEv+0x18>
  40a0b9:	48 8b 07             	mov    (%rdi),%rax
  40a0bc:	48 8b 40 08          	mov    0x8(%rax),%rax
  40a0c0:	ff e0                	jmpq   *%rax
  40a0c2:	66 0f 1f 44 00 00    	nopw   0x0(%rax,%rax,1)
  40a0c8:	f3 c3                	repz retq 
  40a0ca:	90                   	nop
  40a0cb:	90                   	nop
  40a0cc:	90                   	nop
  40a0cd:	90                   	nop
  40a0ce:	90                   	nop
  40a0cf:	90                   	nop

000000000040a0d0 <_ZN5boost6detail17sp_counted_impl_pIN3ros27SubscriptionCallbackHelperTIRKNS_10shared_ptrIKN6SpyKee7Motion_ISaIvEEEEEvEEE11get_deleterERKSt9type_info>:
  40a0d0:	31 c0                	xor    %eax,%eax
  40a0d2:	c3                   	retq   
  40a0d3:	90                   	nop
  40a0d4:	90                   	nop
  40a0d5:	90                   	nop
  40a0d6:	90                   	nop
  40a0d7:	90                   	nop
  40a0d8:	90                   	nop
  40a0d9:	90                   	nop
  40a0da:	90                   	nop
  40a0db:	90                   	nop
  40a0dc:	90                   	nop
  40a0dd:	90                   	nop
  40a0de:	90                   	nop
  40a0df:	90                   	nop

000000000040a0e0 <_ZN3ros27SubscriptionCallbackHelperTIRKN5boost10shared_ptrIKN6SpyKee7Motion_ISaIvEEEEEvE11getTypeInfoEv>:
  40a0e0:	b8 90 32 41 00       	mov    $0x413290,%eax
  40a0e5:	c3                   	retq   
  40a0e6:	90                   	nop
  40a0e7:	90                   	nop
  40a0e8:	90                   	nop
  40a0e9:	90                   	nop
  40a0ea:	90                   	nop
  40a0eb:	90                   	nop
  40a0ec:	90                   	nop
  40a0ed:	90                   	nop
  40a0ee:	90                   	nop
  40a0ef:	90                   	nop

000000000040a0f0 <_ZN3ros27SubscriptionCallbackHelperTIRKN5boost10shared_ptrIKN6SpyKee7Motion_ISaIvEEEEEvE7isConstEv>:
  40a0f0:	b8 01 00 00 00       	mov    $0x1,%eax
  40a0f5:	c3                   	retq   
  40a0f6:	90                   	nop
  40a0f7:	90                   	nop
  40a0f8:	90                   	nop
  40a0f9:	90                   	nop
  40a0fa:	90                   	nop
  40a0fb:	90                   	nop
  40a0fc:	90                   	nop
  40a0fd:	90                   	nop
  40a0fe:	90                   	nop
  40a0ff:	90                   	nop

000000000040a100 <_ZNK8std_msgs7Header_ISaIvEE19serializationLengthEv>:
  40a100:	48 8b 47 18          	mov    0x18(%rdi),%rax
  40a104:	48 8b 40 e8          	mov    -0x18(%rax),%rax
  40a108:	83 c0 10             	add    $0x10,%eax
  40a10b:	c3                   	retq   
  40a10c:	90                   	nop
  40a10d:	90                   	nop
  40a10e:	90                   	nop
  40a10f:	90                   	nop

000000000040a110 <_ZNK6SpyKee7Motion_ISaIvEE19serializationLengthEv>:
  40a110:	b8 02 00 00 00       	mov    $0x2,%eax
  40a115:	c3                   	retq   
  40a116:	90                   	nop
  40a117:	90                   	nop
  40a118:	90                   	nop
  40a119:	90                   	nop
  40a11a:	90                   	nop
  40a11b:	90                   	nop
  40a11c:	90                   	nop
  40a11d:	90                   	nop
  40a11e:	90                   	nop
  40a11f:	90                   	nop

000000000040a120 <_ZN5boost6detail18sp_counted_impl_pdIPhNS_21checked_array_deleterIhEEED0Ev>:
  40a120:	48 c7 07 f0 32 41 00 	movq   $0x4132f0,(%rdi)
  40a127:	e9 c4 f3 ff ff       	jmpq   4094f0 <_ZdlPv@plt>
  40a12c:	90                   	nop
  40a12d:	90                   	nop
  40a12e:	90                   	nop
  40a12f:	90                   	nop

000000000040a130 <_ZN5boost6detail17sp_counted_impl_pIN3ros27SubscriptionCallbackHelperTIRKNS_10shared_ptrIKN6SpyKee7Motion_ISaIvEEEEEvEEED0Ev>:
  40a130:	48 c7 07 f0 32 41 00 	movq   $0x4132f0,(%rdi)
  40a137:	e9 b4 f3 ff ff       	jmpq   4094f0 <_ZdlPv@plt>
  40a13c:	90                   	nop
  40a13d:	90                   	nop
  40a13e:	90                   	nop
  40a13f:	90                   	nop

000000000040a140 <_ZN3ros26SubscriptionCallbackHelperD0Ev>:
  40a140:	48 c7 07 30 34 41 00 	movq   $0x413430,(%rdi)
  40a147:	e9 a4 f3 ff ff       	jmpq   4094f0 <_ZdlPv@plt>
  40a14c:	90                   	nop
  40a14d:	90                   	nop
  40a14e:	90                   	nop
  40a14f:	90                   	nop

000000000040a150 <_ZN5boost6detail15sp_counted_baseD0Ev>:
  40a150:	48 c7 07 f0 32 41 00 	movq   $0x4132f0,(%rdi)
  40a157:	e9 94 f3 ff ff       	jmpq   4094f0 <_ZdlPv@plt>
  40a15c:	90                   	nop
  40a15d:	90                   	nop
  40a15e:	90                   	nop
  40a15f:	90                   	nop

000000000040a160 <_ZN5boost16exception_detail10clone_baseD0Ev>:
  40a160:	48 c7 07 b0 35 41 00 	movq   $0x4135b0,(%rdi)
  40a167:	e9 84 f3 ff ff       	jmpq   4094f0 <_ZdlPv@plt>
  40a16c:	90                   	nop
  40a16d:	90                   	nop
  40a16e:	90                   	nop
  40a16f:	90                   	nop

000000000040a170 <_ZNK6SpyKee7Motion_ISaIvEE9serializeEPhj>:
  40a170:	48 89 5c 24 e8       	mov    %rbx,-0x18(%rsp)
  40a175:	48 89 6c 24 f0       	mov    %rbp,-0x10(%rsp)
  40a17a:	48 8d 6e 02          	lea    0x2(%rsi),%rbp
  40a17e:	4c 89 64 24 f8       	mov    %r12,-0x8(%rsp)
  40a183:	48 83 ec 18          	sub    $0x18,%rsp
  40a187:	0f b6 47 08          	movzbl 0x8(%rdi),%eax
  40a18b:	48 89 f3             	mov    %rsi,%rbx
  40a18e:	88 06                	mov    %al,(%rsi)
  40a190:	48 8d 86 00 ca 9a 3b 	lea    0x3b9aca00(%rsi),%rax
  40a197:	44 0f b6 67 09       	movzbl 0x9(%rdi),%r12d
  40a19c:	48 39 c5             	cmp    %rax,%rbp
  40a19f:	76 05                	jbe    40a1a6 <_ZNK6SpyKee7Motion_ISaIvEE9serializeEPhj+0x36>
  40a1a1:	e8 3a f3 ff ff       	callq  4094e0 <_ZN3ros13serialization18throwStreamOverrunEv@plt>
  40a1a6:	44 88 63 01          	mov    %r12b,0x1(%rbx)
  40a1aa:	48 89 e8             	mov    %rbp,%rax
  40a1ad:	48 8b 1c 24          	mov    (%rsp),%rbx
  40a1b1:	48 8b 6c 24 08       	mov    0x8(%rsp),%rbp
  40a1b6:	4c 8b 64 24 10       	mov    0x10(%rsp),%r12
  40a1bb:	48 83 c4 18          	add    $0x18,%rsp
  40a1bf:	c3                   	retq   

000000000040a1c0 <_ZN5boost6detail18sp_counted_impl_pdIPhNS_21checked_array_deleterIhEEE7disposeEv>:
  40a1c0:	48 8b 7f 10          	mov    0x10(%rdi),%rdi
  40a1c4:	48 85 ff             	test   %rdi,%rdi
  40a1c7:	74 07                	je     40a1d0 <_ZN5boost6detail18sp_counted_impl_pdIPhNS_21checked_array_deleterIhEEE7disposeEv+0x10>
  40a1c9:	e9 02 f4 ff ff       	jmpq   4095d0 <_ZdaPv@plt>
  40a1ce:	66 90                	xchg   %ax,%ax
  40a1d0:	f3 c3                	repz retq 
  40a1d2:	90                   	nop
  40a1d3:	90                   	nop
  40a1d4:	90                   	nop
  40a1d5:	90                   	nop
  40a1d6:	90                   	nop
  40a1d7:	90                   	nop
  40a1d8:	90                   	nop
  40a1d9:	90                   	nop
  40a1da:	90                   	nop
  40a1db:	90                   	nop
  40a1dc:	90                   	nop
  40a1dd:	90                   	nop
  40a1de:	90                   	nop
  40a1df:	90                   	nop

000000000040a1e0 <_ZN5boost17bad_function_callD1Ev>:
  40a1e0:	48 c7 07 f0 34 41 00 	movq   $0x4134f0,(%rdi)
  40a1e7:	e9 64 f3 ff ff       	jmpq   409550 <_ZNSt13runtime_errorD2Ev@plt>
  40a1ec:	90                   	nop
  40a1ed:	90                   	nop
  40a1ee:	90                   	nop
  40a1ef:	90                   	nop

000000000040a1f0 <_ZN5boost6detail8function15functor_managerIPFvRKNS_10shared_ptrIKN6SpyKee7Motion_ISaIvEEEEEEE6manageERKNS1_15function_bufferERSF_NS1_30functor_manager_operation_typeE>:
  40a1f0:	83 fa 04             	cmp    $0x4,%edx
  40a1f3:	49 89 f8             	mov    %rdi,%r8
  40a1f6:	48 89 f0             	mov    %rsi,%rax
  40a1f9:	74 13                	je     40a20e <_ZN5boost6detail8function15functor_managerIPFvRKNS_10shared_ptrIKN6SpyKee7Motion_ISaIvEEEEEEE6manageERKNS1_15function_bufferERSF_NS1_30functor_manager_operation_typeE+0x1e>
  40a1fb:	85 d2                	test   %edx,%edx
  40a1fd:	74 21                	je     40a220 <_ZN5boost6detail8function15functor_managerIPFvRKNS_10shared_ptrIKN6SpyKee7Motion_ISaIvEEEEEEE6manageERKNS1_15function_bufferERSF_NS1_30functor_manager_operation_typeE+0x30>
  40a1ff:	83 fa 01             	cmp    $0x1,%edx
  40a202:	74 64                	je     40a268 <_ZN5boost6detail8function15functor_managerIPFvRKNS_10shared_ptrIKN6SpyKee7Motion_ISaIvEEEEEEE6manageERKNS1_15function_bufferERSF_NS1_30functor_manager_operation_typeE+0x78>
  40a204:	83 fa 02             	cmp    $0x2,%edx
  40a207:	74 77                	je     40a280 <_ZN5boost6detail8function15functor_managerIPFvRKNS_10shared_ptrIKN6SpyKee7Motion_ISaIvEEEEEEE6manageERKNS1_15function_bufferERSF_NS1_30functor_manager_operation_typeE+0x90>
  40a209:	83 fa 03             	cmp    $0x3,%edx
  40a20c:	74 22                	je     40a230 <_ZN5boost6detail8function15functor_managerIPFvRKNS_10shared_ptrIKN6SpyKee7Motion_ISaIvEEEEEEE6manageERKNS1_15function_bufferERSF_NS1_30functor_manager_operation_typeE+0x40>
  40a20e:	48 c7 00 c0 33 41 00 	movq   $0x4133c0,(%rax)
  40a215:	c6 40 08 00          	movb   $0x0,0x8(%rax)
  40a219:	c6 40 09 00          	movb   $0x0,0x9(%rax)
  40a21d:	c3                   	retq   
  40a21e:	66 90                	xchg   %ax,%ax
  40a220:	48 8b 17             	mov    (%rdi),%rdx
  40a223:	48 89 16             	mov    %rdx,(%rsi)
  40a226:	c3                   	retq   
  40a227:	66 0f 1f 84 00 00 00 	nopw   0x0(%rax,%rax,1)
  40a22e:	00 00 
  40a230:	48 8b 16             	mov    (%rsi),%rdx
  40a233:	b9 36 00 00 00       	mov    $0x36,%ecx
  40a238:	bf e0 33 41 00       	mov    $0x4133e0,%edi
  40a23d:	48 8b 72 08          	mov    0x8(%rdx),%rsi
  40a241:	31 d2                	xor    %edx,%edx
  40a243:	80 3e 2a             	cmpb   $0x2a,(%rsi)
  40a246:	0f 94 c2             	sete   %dl
  40a249:	48 01 d6             	add    %rdx,%rsi
  40a24c:	f3 a6                	repz cmpsb %es:(%rdi),%ds:(%rsi)
  40a24e:	40 0f 97 c6          	seta   %sil
  40a252:	0f 92 c1             	setb   %cl
  40a255:	31 d2                	xor    %edx,%edx
  40a257:	40 38 ce             	cmp    %cl,%sil
  40a25a:	49 0f 44 d0          	cmove  %r8,%rdx
  40a25e:	48 89 10             	mov    %rdx,(%rax)
  40a261:	c3                   	retq   
  40a262:	66 0f 1f 44 00 00    	nopw   0x0(%rax,%rax,1)
  40a268:	48 8b 17             	mov    (%rdi),%rdx
  40a26b:	48 89 16             	mov    %rdx,(%rsi)
  40a26e:	48 c7 07 00 00 00 00 	movq   $0x0,(%rdi)
  40a275:	c3                   	retq   
  40a276:	66 2e 0f 1f 84 00 00 	nopw   %cs:0x0(%rax,%rax,1)
  40a27d:	00 00 00 
  40a280:	48 c7 06 00 00 00 00 	movq   $0x0,(%rsi)
  40a287:	c3                   	retq   
  40a288:	90                   	nop
  40a289:	90                   	nop
  40a28a:	90                   	nop
  40a28b:	90                   	nop
  40a28c:	90                   	nop
  40a28d:	90                   	nop
  40a28e:	90                   	nop
  40a28f:	90                   	nop

000000000040a290 <_ZN5boost6detail8function15functor_managerIN3ros21DefaultMessageCreatorIN6SpyKee7Motion_ISaIvEEEEEE6manageERKNS1_15function_bufferERSB_NS1_30functor_manager_operation_typeE>:
  40a290:	83 fa 04             	cmp    $0x4,%edx
  40a293:	49 89 f8             	mov    %rdi,%r8
  40a296:	48 89 f0             	mov    %rsi,%rax
  40a299:	74 25                	je     40a2c0 <_ZN5boost6detail8function15functor_managerIN3ros21DefaultMessageCreatorIN6SpyKee7Motion_ISaIvEEEEEE6manageERKNS1_15function_bufferERSB_NS1_30functor_manager_operation_typeE+0x30>
  40a29b:	83 fa 01             	cmp    $0x1,%edx
  40a29e:	76 19                	jbe    40a2b9 <_ZN5boost6detail8function15functor_managerIN3ros21DefaultMessageCreatorIN6SpyKee7Motion_ISaIvEEEEEE6manageERKNS1_15function_bufferERSB_NS1_30functor_manager_operation_typeE+0x29>
  40a2a0:	83 fa 02             	cmp    $0x2,%edx
  40a2a3:	74 14                	je     40a2b9 <_ZN5boost6detail8function15functor_managerIN3ros21DefaultMessageCreatorIN6SpyKee7Motion_ISaIvEEEEEE6manageERKNS1_15function_bufferERSB_NS1_30functor_manager_operation_typeE+0x29>
  40a2a5:	83 fa 03             	cmp    $0x3,%edx
  40a2a8:	74 26                	je     40a2d0 <_ZN5boost6detail8function15functor_managerIN3ros21DefaultMessageCreatorIN6SpyKee7Motion_ISaIvEEEEEE6manageERKNS1_15function_bufferERSB_NS1_30functor_manager_operation_typeE+0x40>
  40a2aa:	48 c7 06 60 33 41 00 	movq   $0x413360,(%rsi)
  40a2b1:	c6 46 08 00          	movb   $0x0,0x8(%rsi)
  40a2b5:	c6 46 09 00          	movb   $0x0,0x9(%rsi)
  40a2b9:	f3 c3                	repz retq 
  40a2bb:	0f 1f 44 00 00       	nopl   0x0(%rax,%rax,1)
  40a2c0:	48 c7 06 60 33 41 00 	movq   $0x413360,(%rsi)
  40a2c7:	c6 46 08 00          	movb   $0x0,0x8(%rsi)
  40a2cb:	c6 46 09 00          	movb   $0x0,0x9(%rsi)
  40a2cf:	c3                   	retq   
  40a2d0:	48 8b 16             	mov    (%rsi),%rdx
  40a2d3:	b9 38 00 00 00       	mov    $0x38,%ecx
  40a2d8:	bf 80 33 41 00       	mov    $0x413380,%edi
  40a2dd:	48 8b 72 08          	mov    0x8(%rdx),%rsi
  40a2e1:	31 d2                	xor    %edx,%edx
  40a2e3:	80 3e 2a             	cmpb   $0x2a,(%rsi)
  40a2e6:	0f 94 c2             	sete   %dl
  40a2e9:	48 01 d6             	add    %rdx,%rsi
  40a2ec:	f3 a6                	repz cmpsb %es:(%rdi),%ds:(%rsi)
  40a2ee:	40 0f 97 c6          	seta   %sil
  40a2f2:	0f 92 c1             	setb   %cl
  40a2f5:	31 d2                	xor    %edx,%edx
  40a2f7:	40 38 ce             	cmp    %cl,%sil
  40a2fa:	49 0f 44 d0          	cmove  %r8,%rdx
  40a2fe:	48 89 10             	mov    %rdx,(%rax)
  40a301:	c3                   	retq   
  40a302:	90                   	nop
  40a303:	90                   	nop
  40a304:	90                   	nop
  40a305:	90                   	nop
  40a306:	90                   	nop
  40a307:	90                   	nop
  40a308:	90                   	nop
  40a309:	90                   	nop
  40a30a:	90                   	nop
  40a30b:	90                   	nop
  40a30c:	90                   	nop
  40a30d:	90                   	nop
  40a30e:	90                   	nop
  40a30f:	90                   	nop

000000000040a310 <_ZN5boost6detail8function15functor_managerINS_3_bi6bind_tIN3ros17SerializedMessageEPFS6_RKN11sensor_msgs16CompressedImage_ISaIvEEEENS3_5list1INS_17reference_wrapperISB_EEEEEEE6manageERKNS1_15function_bufferERSL_NS1_30functor_manager_operation_typeE>:
  40a310:	83 fa 04             	cmp    $0x4,%edx
  40a313:	49 89 f8             	mov    %rdi,%r8
  40a316:	48 89 f0             	mov    %rsi,%rax
  40a319:	74 25                	je     40a340 <_ZN5boost6detail8function15functor_managerINS_3_bi6bind_tIN3ros17SerializedMessageEPFS6_RKN11sensor_msgs16CompressedImage_ISaIvEEEENS3_5list1INS_17reference_wrapperISB_EEEEEEE6manageERKNS1_15function_bufferERSL_NS1_30functor_manager_operation_typeE+0x30>
  40a31b:	83 fa 01             	cmp    $0x1,%edx
  40a31e:	76 30                	jbe    40a350 <_ZN5boost6detail8function15functor_managerINS_3_bi6bind_tIN3ros17SerializedMessageEPFS6_RKN11sensor_msgs16CompressedImage_ISaIvEEEENS3_5list1INS_17reference_wrapperISB_EEEEEEE6manageERKNS1_15function_bufferERSL_NS1_30functor_manager_operation_typeE+0x40>
  40a320:	83 fa 02             	cmp    $0x2,%edx
  40a323:	74 14                	je     40a339 <_ZN5boost6detail8function15functor_managerINS_3_bi6bind_tIN3ros17SerializedMessageEPFS6_RKN11sensor_msgs16CompressedImage_ISaIvEEEENS3_5list1INS_17reference_wrapperISB_EEEEEEE6manageERKNS1_15function_bufferERSL_NS1_30functor_manager_operation_typeE+0x29>
  40a325:	83 fa 03             	cmp    $0x3,%edx
  40a328:	74 3e                	je     40a368 <_ZN5boost6detail8function15functor_managerINS_3_bi6bind_tIN3ros17SerializedMessageEPFS6_RKN11sensor_msgs16CompressedImage_ISaIvEEEENS3_5list1INS_17reference_wrapperISB_EEEEEEE6manageERKNS1_15function_bufferERSL_NS1_30functor_manager_operation_typeE+0x58>
  40a32a:	48 c7 06 30 37 41 00 	movq   $0x413730,(%rsi)
  40a331:	c6 46 08 00          	movb   $0x0,0x8(%rsi)
  40a335:	c6 46 09 00          	movb   $0x0,0x9(%rsi)
  40a339:	f3 c3                	repz retq 
  40a33b:	0f 1f 44 00 00       	nopl   0x0(%rax,%rax,1)
  40a340:	48 c7 06 30 37 41 00 	movq   $0x413730,(%rsi)
  40a347:	c6 46 08 00          	movb   $0x0,0x8(%rsi)
  40a34b:	c6 46 09 00          	movb   $0x0,0x9(%rsi)
  40a34f:	c3                   	retq   
  40a350:	48 85 f6             	test   %rsi,%rsi
  40a353:	74 e4                	je     40a339 <_ZN5boost6detail8function15functor_managerINS_3_bi6bind_tIN3ros17SerializedMessageEPFS6_RKN11sensor_msgs16CompressedImage_ISaIvEEEENS3_5list1INS_17reference_wrapperISB_EEEEEEE6manageERKNS1_15function_bufferERSL_NS1_30functor_manager_operation_typeE+0x29>
  40a355:	48 8b 17             	mov    (%rdi),%rdx
  40a358:	48 89 16             	mov    %rdx,(%rsi)
  40a35b:	48 8b 57 08          	mov    0x8(%rdi),%rdx
  40a35f:	48 89 56 08          	mov    %rdx,0x8(%rsi)
  40a363:	c3                   	retq   
  40a364:	0f 1f 40 00          	nopl   0x0(%rax)
  40a368:	48 8b 16             	mov    (%rsi),%rdx
  40a36b:	b9 88 00 00 00       	mov    $0x88,%ecx
  40a370:	bf 40 37 41 00       	mov    $0x413740,%edi
  40a375:	48 8b 72 08          	mov    0x8(%rdx),%rsi
  40a379:	31 d2                	xor    %edx,%edx
  40a37b:	80 3e 2a             	cmpb   $0x2a,(%rsi)
  40a37e:	0f 94 c2             	sete   %dl
  40a381:	48 01 d6             	add    %rdx,%rsi
  40a384:	f3 a6                	repz cmpsb %es:(%rdi),%ds:(%rsi)
  40a386:	40 0f 97 c6          	seta   %sil
  40a38a:	0f 92 c1             	setb   %cl
  40a38d:	31 d2                	xor    %edx,%edx
  40a38f:	40 38 ce             	cmp    %cl,%sil
  40a392:	49 0f 44 d0          	cmove  %r8,%rdx
  40a396:	48 89 10             	mov    %rdx,(%rax)
  40a399:	c3                   	retq   
  40a39a:	90                   	nop
  40a39b:	90                   	nop
  40a39c:	90                   	nop
  40a39d:	90                   	nop
  40a39e:	90                   	nop
  40a39f:	90                   	nop

000000000040a3a0 <_ZNK11sensor_msgs16CompressedImage_ISaIvEE19serializationLengthEv>:
  40a3a0:	48 8b 47 38          	mov    0x38(%rdi),%rax
  40a3a4:	48 8b 57 20          	mov    0x20(%rdi),%rdx
  40a3a8:	48 8b 52 e8          	mov    -0x18(%rdx),%rdx
  40a3ac:	03 50 e8             	add    -0x18(%rax),%edx
  40a3af:	48 8b 47 48          	mov    0x48(%rdi),%rax
  40a3b3:	48 2b 47 40          	sub    0x40(%rdi),%rax
  40a3b7:	8d 44 02 18          	lea    0x18(%rdx,%rax,1),%eax
  40a3bb:	c3                   	retq   
  40a3bc:	90                   	nop
  40a3bd:	90                   	nop
  40a3be:	90                   	nop
  40a3bf:	90                   	nop

000000000040a3c0 <_ZN5boost17bad_function_callD0Ev>:
  40a3c0:	53                   	push   %rbx
  40a3c1:	48 89 fb             	mov    %rdi,%rbx
  40a3c4:	48 c7 07 f0 34 41 00 	movq   $0x4134f0,(%rdi)
  40a3cb:	e8 80 f1 ff ff       	callq  409550 <_ZNSt13runtime_errorD2Ev@plt>
  40a3d0:	48 89 df             	mov    %rbx,%rdi
  40a3d3:	5b                   	pop    %rbx
  40a3d4:	e9 17 f1 ff ff       	jmpq   4094f0 <_ZdlPv@plt>
  40a3d9:	90                   	nop
  40a3da:	90                   	nop
  40a3db:	90                   	nop
  40a3dc:	90                   	nop
  40a3dd:	90                   	nop
  40a3de:	90                   	nop
  40a3df:	90                   	nop

000000000040a3e0 <_ZN6SpyKee7Motion_ISaIvEE11deserializeEPh>:
  40a3e0:	48 89 5c 24 e8       	mov    %rbx,-0x18(%rsp)
  40a3e5:	48 89 6c 24 f0       	mov    %rbp,-0x10(%rsp)
  40a3ea:	48 89 fb             	mov    %rdi,%rbx
  40a3ed:	4c 89 64 24 f8       	mov    %r12,-0x8(%rsp)
  40a3f2:	48 83 ec 18          	sub    $0x18,%rsp
  40a3f6:	0f b6 06             	movzbl (%rsi),%eax
  40a3f9:	4c 8d 66 02          	lea    0x2(%rsi),%r12
  40a3fd:	48 89 f5             	mov    %rsi,%rbp
  40a400:	88 47 08             	mov    %al,0x8(%rdi)
  40a403:	48 8d 86 00 ca 9a 3b 	lea    0x3b9aca00(%rsi),%rax
  40a40a:	49 39 c4             	cmp    %rax,%r12
  40a40d:	76 05                	jbe    40a414 <_ZN6SpyKee7Motion_ISaIvEE11deserializeEPh+0x34>
  40a40f:	e8 cc f0 ff ff       	callq  4094e0 <_ZN3ros13serialization18throwStreamOverrunEv@plt>
  40a414:	0f b6 45 01          	movzbl 0x1(%rbp),%eax
  40a418:	48 8b 6c 24 08       	mov    0x8(%rsp),%rbp
  40a41d:	88 43 09             	mov    %al,0x9(%rbx)
  40a420:	4c 89 e0             	mov    %r12,%rax
  40a423:	48 8b 1c 24          	mov    (%rsp),%rbx
  40a427:	4c 8b 64 24 10       	mov    0x10(%rsp),%r12
  40a42c:	48 83 c4 18          	add    $0x18,%rsp
  40a430:	c3                   	retq   
  40a431:	90                   	nop
  40a432:	90                   	nop
  40a433:	90                   	nop
  40a434:	90                   	nop
  40a435:	90                   	nop
  40a436:	90                   	nop
  40a437:	90                   	nop
  40a438:	90                   	nop
  40a439:	90                   	nop
  40a43a:	90                   	nop
  40a43b:	90                   	nop
  40a43c:	90                   	nop
  40a43d:	90                   	nop
  40a43e:	90                   	nop
  40a43f:	90                   	nop

000000000040a440 <_ZN5boost6detail18sp_counted_impl_pdIPhNS_21checked_array_deleterIhEEE11get_deleterERKSt9type_info>:
  40a440:	48 8b 76 08          	mov    0x8(%rsi),%rsi
  40a444:	48 89 fa             	mov    %rdi,%rdx
  40a447:	48 81 fe 20 38 41 00 	cmp    $0x413820,%rsi
  40a44e:	74 20                	je     40a470 <_ZN5boost6detail18sp_counted_impl_pdIPhNS_21checked_array_deleterIhEEE11get_deleterERKSt9type_info+0x30>
  40a450:	31 c0                	xor    %eax,%eax
  40a452:	80 3e 2a             	cmpb   $0x2a,(%rsi)
  40a455:	74 0e                	je     40a465 <_ZN5boost6detail18sp_counted_impl_pdIPhNS_21checked_array_deleterIhEEE11get_deleterERKSt9type_info+0x25>
  40a457:	bf 20 38 41 00       	mov    $0x413820,%edi
  40a45c:	b9 23 00 00 00       	mov    $0x23,%ecx
  40a461:	f3 a6                	repz cmpsb %es:(%rdi),%ds:(%rsi)
  40a463:	74 0b                	je     40a470 <_ZN5boost6detail18sp_counted_impl_pdIPhNS_21checked_array_deleterIhEEE11get_deleterERKSt9type_info+0x30>
  40a465:	f3 c3                	repz retq 
  40a467:	66 0f 1f 84 00 00 00 	nopw   0x0(%rax,%rax,1)
  40a46e:	00 00 
  40a470:	48 8d 42 18          	lea    0x18(%rdx),%rax
  40a474:	c3                   	retq   
  40a475:	90                   	nop
  40a476:	90                   	nop
  40a477:	90                   	nop
  40a478:	90                   	nop
  40a479:	90                   	nop
  40a47a:	90                   	nop
  40a47b:	90                   	nop
  40a47c:	90                   	nop
  40a47d:	90                   	nop
  40a47e:	90                   	nop
  40a47f:	90                   	nop

000000000040a480 <_ZN5boost6detail18sp_counted_impl_pdIPN6SpyKee7Motion_ISaIvEEENS0_13sp_ms_deleterIS5_EEE11get_deleterERKSt9type_info>:
  40a480:	48 8b 76 08          	mov    0x8(%rsi),%rsi
  40a484:	48 89 fa             	mov    %rdi,%rdx
  40a487:	48 81 fe a0 32 41 00 	cmp    $0x4132a0,%rsi
  40a48e:	74 20                	je     40a4b0 <_ZN5boost6detail18sp_counted_impl_pdIPN6SpyKee7Motion_ISaIvEEENS0_13sp_ms_deleterIS5_EEE11get_deleterERKSt9type_info+0x30>
  40a490:	31 c0                	xor    %eax,%eax
  40a492:	80 3e 2a             	cmpb   $0x2a,(%rsi)
  40a495:	74 0e                	je     40a4a5 <_ZN5boost6detail18sp_counted_impl_pdIPN6SpyKee7Motion_ISaIvEEENS0_13sp_ms_deleterIS5_EEE11get_deleterERKSt9type_info+0x25>
  40a497:	bf a0 32 41 00       	mov    $0x4132a0,%edi
  40a49c:	b9 39 00 00 00       	mov    $0x39,%ecx
  40a4a1:	f3 a6                	repz cmpsb %es:(%rdi),%ds:(%rsi)
  40a4a3:	74 0b                	je     40a4b0 <_ZN5boost6detail18sp_counted_impl_pdIPN6SpyKee7Motion_ISaIvEEENS0_13sp_ms_deleterIS5_EEE11get_deleterERKSt9type_info+0x30>
  40a4a5:	f3 c3                	repz retq 
  40a4a7:	66 0f 1f 84 00 00 00 	nopw   0x0(%rax,%rax,1)
  40a4ae:	00 00 
  40a4b0:	48 8d 42 18          	lea    0x18(%rdx),%rax
  40a4b4:	c3                   	retq   
  40a4b5:	90                   	nop
  40a4b6:	90                   	nop
  40a4b7:	90                   	nop
  40a4b8:	90                   	nop
  40a4b9:	90                   	nop
  40a4ba:	90                   	nop
  40a4bb:	90                   	nop
  40a4bc:	90                   	nop
  40a4bd:	90                   	nop
  40a4be:	90                   	nop
  40a4bf:	90                   	nop

000000000040a4c0 <_ZNK8std_msgs7Header_ISaIvEE9serializeEPhj>:
  40a4c0:	4c 89 74 24 f0       	mov    %r14,-0x10(%rsp)
  40a4c5:	48 8d 46 08          	lea    0x8(%rsi),%rax
  40a4c9:	4c 8d b6 00 ca 9a 3b 	lea    0x3b9aca00(%rsi),%r14
  40a4d0:	4c 89 64 24 e0       	mov    %r12,-0x20(%rsp)
  40a4d5:	4c 89 6c 24 e8       	mov    %r13,-0x18(%rsp)
  40a4da:	49 89 fc             	mov    %rdi,%r12
  40a4dd:	48 89 5c 24 d0       	mov    %rbx,-0x30(%rsp)
  40a4e2:	48 89 6c 24 d8       	mov    %rbp,-0x28(%rsp)
  40a4e7:	49 89 f5             	mov    %rsi,%r13
  40a4ea:	4c 89 7c 24 f8       	mov    %r15,-0x8(%rsp)
  40a4ef:	48 83 ec 48          	sub    $0x48,%rsp
  40a4f3:	49 39 c6             	cmp    %rax,%r14
  40a4f6:	89 16                	mov    %edx,(%rsi)
  40a4f8:	8b 5f 0c             	mov    0xc(%rdi),%ebx
  40a4fb:	0f 82 8f 00 00 00    	jb     40a590 <_ZNK8std_msgs7Header_ISaIvEE9serializeEPhj+0xd0>
  40a501:	49 8d 45 0c          	lea    0xc(%r13),%rax
  40a505:	41 89 5d 04          	mov    %ebx,0x4(%r13)
  40a509:	41 8b 5c 24 10       	mov    0x10(%r12),%ebx
  40a50e:	49 39 c6             	cmp    %rax,%r14
  40a511:	73 05                	jae    40a518 <_ZNK8std_msgs7Header_ISaIvEE9serializeEPhj+0x58>
  40a513:	e8 c8 ef ff ff       	callq  4094e0 <_ZN3ros13serialization18throwStreamOverrunEv@plt>
  40a518:	41 89 5d 08          	mov    %ebx,0x8(%r13)
  40a51c:	49 8b 44 24 18       	mov    0x18(%r12),%rax
  40a521:	49 8d 6d 10          	lea    0x10(%r13),%rbp
  40a525:	49 39 ee             	cmp    %rbp,%r14
  40a528:	4c 8b 78 e8          	mov    -0x18(%rax),%r15
  40a52c:	44 89 fb             	mov    %r15d,%ebx
  40a52f:	72 4f                	jb     40a580 <_ZNK8std_msgs7Header_ISaIvEE9serializeEPhj+0xc0>
  40a531:	4d 85 ff             	test   %r15,%r15
  40a534:	41 89 5d 0c          	mov    %ebx,0xc(%r13)
  40a538:	74 1b                	je     40a555 <_ZNK8std_msgs7Header_ISaIvEE9serializeEPhj+0x95>
  40a53a:	48 01 eb             	add    %rbp,%rbx
  40a53d:	49 8b 74 24 18       	mov    0x18(%r12),%rsi
  40a542:	49 39 de             	cmp    %rbx,%r14
  40a545:	72 59                	jb     40a5a0 <_ZNK8std_msgs7Header_ISaIvEE9serializeEPhj+0xe0>
  40a547:	48 89 ef             	mov    %rbp,%rdi
  40a54a:	4c 89 fa             	mov    %r15,%rdx
  40a54d:	48 89 dd             	mov    %rbx,%rbp
  40a550:	e8 bb f1 ff ff       	callq  409710 <memcpy@plt>
  40a555:	48 89 e8             	mov    %rbp,%rax
  40a558:	48 8b 5c 24 18       	mov    0x18(%rsp),%rbx
  40a55d:	48 8b 6c 24 20       	mov    0x20(%rsp),%rbp
  40a562:	4c 8b 64 24 28       	mov    0x28(%rsp),%r12
  40a567:	4c 8b 6c 24 30       	mov    0x30(%rsp),%r13
  40a56c:	4c 8b 74 24 38       	mov    0x38(%rsp),%r14
  40a571:	4c 8b 7c 24 40       	mov    0x40(%rsp),%r15
  40a576:	48 83 c4 48          	add    $0x48,%rsp
  40a57a:	c3                   	retq   
  40a57b:	0f 1f 44 00 00       	nopl   0x0(%rax,%rax,1)
  40a580:	e8 5b ef ff ff       	callq  4094e0 <_ZN3ros13serialization18throwStreamOverrunEv@plt>
  40a585:	eb aa                	jmp    40a531 <_ZNK8std_msgs7Header_ISaIvEE9serializeEPhj+0x71>
  40a587:	66 0f 1f 84 00 00 00 	nopw   0x0(%rax,%rax,1)
  40a58e:	00 00 
  40a590:	e8 4b ef ff ff       	callq  4094e0 <_ZN3ros13serialization18throwStreamOverrunEv@plt>
  40a595:	e9 67 ff ff ff       	jmpq   40a501 <_ZNK8std_msgs7Header_ISaIvEE9serializeEPhj+0x41>
  40a59a:	66 0f 1f 44 00 00    	nopw   0x0(%rax,%rax,1)
  40a5a0:	48 89 74 24 08       	mov    %rsi,0x8(%rsp)
  40a5a5:	e8 36 ef ff ff       	callq  4094e0 <_ZN3ros13serialization18throwStreamOverrunEv@plt>
  40a5aa:	48 8b 74 24 08       	mov    0x8(%rsp),%rsi
  40a5af:	eb 96                	jmp    40a547 <_ZNK8std_msgs7Header_ISaIvEE9serializeEPhj+0x87>
  40a5b1:	90                   	nop
  40a5b2:	90                   	nop
  40a5b3:	90                   	nop
  40a5b4:	90                   	nop
  40a5b5:	90                   	nop
  40a5b6:	90                   	nop
  40a5b7:	90                   	nop
  40a5b8:	90                   	nop
  40a5b9:	90                   	nop
  40a5ba:	90                   	nop
  40a5bb:	90                   	nop
  40a5bc:	90                   	nop
  40a5bd:	90                   	nop
  40a5be:	90                   	nop
  40a5bf:	90                   	nop

000000000040a5c0 <_ZNK11sensor_msgs16CompressedImage_ISaIvEE9serializeEPhj>:
  40a5c0:	48 89 5c 24 d0       	mov    %rbx,-0x30(%rsp)
  40a5c5:	48 89 6c 24 d8       	mov    %rbp,-0x28(%rsp)
  40a5ca:	48 8d ae 00 ca 9a 3b 	lea    0x3b9aca00(%rsi),%rbp
  40a5d1:	4c 89 6c 24 e8       	mov    %r13,-0x18(%rsp)
  40a5d6:	4c 89 64 24 e0       	mov    %r12,-0x20(%rsp)
  40a5db:	48 89 fb             	mov    %rdi,%rbx
  40a5de:	4c 89 74 24 f0       	mov    %r14,-0x10(%rsp)
  40a5e3:	4c 89 7c 24 f8       	mov    %r15,-0x8(%rsp)
  40a5e8:	48 83 ec 48          	sub    $0x48,%rsp
  40a5ec:	8b 47 10             	mov    0x10(%rdi),%eax
  40a5ef:	49 89 f5             	mov    %rsi,%r13
  40a5f2:	89 06                	mov    %eax,(%rsi)
  40a5f4:	48 8d 46 08          	lea    0x8(%rsi),%rax
  40a5f8:	44 8b 67 14          	mov    0x14(%rdi),%r12d
  40a5fc:	48 39 c5             	cmp    %rax,%rbp
  40a5ff:	0f 82 1b 01 00 00    	jb     40a720 <_ZNK11sensor_msgs16CompressedImage_ISaIvEE9serializeEPhj+0x160>
  40a605:	49 8d 45 0c          	lea    0xc(%r13),%rax
  40a609:	45 89 65 04          	mov    %r12d,0x4(%r13)
  40a60d:	44 8b 63 18          	mov    0x18(%rbx),%r12d
  40a611:	48 39 c5             	cmp    %rax,%rbp
  40a614:	73 05                	jae    40a61b <_ZNK11sensor_msgs16CompressedImage_ISaIvEE9serializeEPhj+0x5b>
  40a616:	e8 c5 ee ff ff       	callq  4094e0 <_ZN3ros13serialization18throwStreamOverrunEv@plt>
  40a61b:	45 89 65 08          	mov    %r12d,0x8(%r13)
  40a61f:	48 8b 43 20          	mov    0x20(%rbx),%rax
  40a623:	4d 8d 75 10          	lea    0x10(%r13),%r14
  40a627:	4c 39 f5             	cmp    %r14,%rbp
  40a62a:	4c 8b 78 e8          	mov    -0x18(%rax),%r15
  40a62e:	45 89 fc             	mov    %r15d,%r12d
  40a631:	0f 82 d9 00 00 00    	jb     40a710 <_ZNK11sensor_msgs16CompressedImage_ISaIvEE9serializeEPhj+0x150>
  40a637:	4d 85 ff             	test   %r15,%r15
  40a63a:	45 89 65 0c          	mov    %r12d,0xc(%r13)
  40a63e:	74 1e                	je     40a65e <_ZNK11sensor_msgs16CompressedImage_ISaIvEE9serializeEPhj+0x9e>
  40a640:	4d 01 f4             	add    %r14,%r12
  40a643:	48 8b 73 20          	mov    0x20(%rbx),%rsi
  40a647:	4c 39 e5             	cmp    %r12,%rbp
  40a64a:	0f 82 28 01 00 00    	jb     40a778 <_ZNK11sensor_msgs16CompressedImage_ISaIvEE9serializeEPhj+0x1b8>
  40a650:	4c 89 f7             	mov    %r14,%rdi
  40a653:	4c 89 fa             	mov    %r15,%rdx
  40a656:	4d 89 e6             	mov    %r12,%r14
  40a659:	e8 b2 f0 ff ff       	callq  409710 <memcpy@plt>
  40a65e:	48 8b 43 38          	mov    0x38(%rbx),%rax
  40a662:	4d 8d 6e 04          	lea    0x4(%r14),%r13
  40a666:	4c 39 ed             	cmp    %r13,%rbp
  40a669:	4c 8b 78 e8          	mov    -0x18(%rax),%r15
  40a66d:	45 89 fc             	mov    %r15d,%r12d
  40a670:	0f 82 8a 00 00 00    	jb     40a700 <_ZNK11sensor_msgs16CompressedImage_ISaIvEE9serializeEPhj+0x140>
  40a676:	4d 85 ff             	test   %r15,%r15
  40a679:	45 89 26             	mov    %r12d,(%r14)
  40a67c:	74 1e                	je     40a69c <_ZNK11sensor_msgs16CompressedImage_ISaIvEE9serializeEPhj+0xdc>
  40a67e:	4d 01 ec             	add    %r13,%r12
  40a681:	48 8b 73 38          	mov    0x38(%rbx),%rsi
  40a685:	4c 39 e5             	cmp    %r12,%rbp
  40a688:	0f 82 d2 00 00 00    	jb     40a760 <_ZNK11sensor_msgs16CompressedImage_ISaIvEE9serializeEPhj+0x1a0>
  40a68e:	4c 89 ef             	mov    %r13,%rdi
  40a691:	4c 89 fa             	mov    %r15,%rdx
  40a694:	4d 89 e5             	mov    %r12,%r13
  40a697:	e8 74 f0 ff ff       	callq  409710 <memcpy@plt>
  40a69c:	4d 8d 75 04          	lea    0x4(%r13),%r14
  40a6a0:	4c 8b 7b 48          	mov    0x48(%rbx),%r15
  40a6a4:	44 2b 7b 40          	sub    0x40(%rbx),%r15d
  40a6a8:	4c 39 f5             	cmp    %r14,%rbp
  40a6ab:	0f 82 7f 00 00 00    	jb     40a730 <_ZNK11sensor_msgs16CompressedImage_ISaIvEE9serializeEPhj+0x170>
  40a6b1:	45 89 7d 00          	mov    %r15d,0x0(%r13)
  40a6b5:	48 8b 73 40          	mov    0x40(%rbx),%rsi
  40a6b9:	4d 89 f4             	mov    %r14,%r12
  40a6bc:	48 39 73 48          	cmp    %rsi,0x48(%rbx)
  40a6c0:	74 14                	je     40a6d6 <_ZNK11sensor_msgs16CompressedImage_ISaIvEE9serializeEPhj+0x116>
  40a6c2:	44 89 fa             	mov    %r15d,%edx
  40a6c5:	4d 8d 24 16          	lea    (%r14,%rdx,1),%r12
  40a6c9:	4c 39 e5             	cmp    %r12,%rbp
  40a6cc:	72 72                	jb     40a740 <_ZNK11sensor_msgs16CompressedImage_ISaIvEE9serializeEPhj+0x180>
  40a6ce:	4c 89 f7             	mov    %r14,%rdi
  40a6d1:	e8 3a f0 ff ff       	callq  409710 <memcpy@plt>
  40a6d6:	4c 89 e0             	mov    %r12,%rax
  40a6d9:	48 8b 5c 24 18       	mov    0x18(%rsp),%rbx
  40a6de:	48 8b 6c 24 20       	mov    0x20(%rsp),%rbp
  40a6e3:	4c 8b 64 24 28       	mov    0x28(%rsp),%r12
  40a6e8:	4c 8b 6c 24 30       	mov    0x30(%rsp),%r13
  40a6ed:	4c 8b 74 24 38       	mov    0x38(%rsp),%r14
  40a6f2:	4c 8b 7c 24 40       	mov    0x40(%rsp),%r15
  40a6f7:	48 83 c4 48          	add    $0x48,%rsp
  40a6fb:	c3                   	retq   
  40a6fc:	0f 1f 40 00          	nopl   0x0(%rax)
  40a700:	e8 db ed ff ff       	callq  4094e0 <_ZN3ros13serialization18throwStreamOverrunEv@plt>
  40a705:	e9 6c ff ff ff       	jmpq   40a676 <_ZNK11sensor_msgs16CompressedImage_ISaIvEE9serializeEPhj+0xb6>
  40a70a:	66 0f 1f 44 00 00    	nopw   0x0(%rax,%rax,1)
  40a710:	e8 cb ed ff ff       	callq  4094e0 <_ZN3ros13serialization18throwStreamOverrunEv@plt>
  40a715:	e9 1d ff ff ff       	jmpq   40a637 <_ZNK11sensor_msgs16CompressedImage_ISaIvEE9serializeEPhj+0x77>
  40a71a:	66 0f 1f 44 00 00    	nopw   0x0(%rax,%rax,1)
  40a720:	e8 bb ed ff ff       	callq  4094e0 <_ZN3ros13serialization18throwStreamOverrunEv@plt>
  40a725:	e9 db fe ff ff       	jmpq   40a605 <_ZNK11sensor_msgs16CompressedImage_ISaIvEE9serializeEPhj+0x45>
  40a72a:	66 0f 1f 44 00 00    	nopw   0x0(%rax,%rax,1)
  40a730:	e8 ab ed ff ff       	callq  4094e0 <_ZN3ros13serialization18throwStreamOverrunEv@plt>
  40a735:	e9 77 ff ff ff       	jmpq   40a6b1 <_ZNK11sensor_msgs16CompressedImage_ISaIvEE9serializeEPhj+0xf1>
  40a73a:	66 0f 1f 44 00 00    	nopw   0x0(%rax,%rax,1)
  40a740:	48 89 54 24 08       	mov    %rdx,0x8(%rsp)
  40a745:	48 89 34 24          	mov    %rsi,(%rsp)
  40a749:	e8 92 ed ff ff       	callq  4094e0 <_ZN3ros13serialization18throwStreamOverrunEv@plt>
  40a74e:	48 8b 34 24          	mov    (%rsp),%rsi
  40a752:	48 8b 54 24 08       	mov    0x8(%rsp),%rdx
  40a757:	e9 72 ff ff ff       	jmpq   40a6ce <_ZNK11sensor_msgs16CompressedImage_ISaIvEE9serializeEPhj+0x10e>
  40a75c:	0f 1f 40 00          	nopl   0x0(%rax)
  40a760:	48 89 34 24          	mov    %rsi,(%rsp)
  40a764:	e8 77 ed ff ff       	callq  4094e0 <_ZN3ros13serialization18throwStreamOverrunEv@plt>
  40a769:	48 8b 34 24          	mov    (%rsp),%rsi
  40a76d:	e9 1c ff ff ff       	jmpq   40a68e <_ZNK11sensor_msgs16CompressedImage_ISaIvEE9serializeEPhj+0xce>
  40a772:	66 0f 1f 44 00 00    	nopw   0x0(%rax,%rax,1)
  40a778:	48 89 34 24          	mov    %rsi,(%rsp)
  40a77c:	e8 5f ed ff ff       	callq  4094e0 <_ZN3ros13serialization18throwStreamOverrunEv@plt>
  40a781:	48 8b 34 24          	mov    (%rsp),%rsi
  40a785:	e9 c6 fe ff ff       	jmpq   40a650 <_ZNK11sensor_msgs16CompressedImage_ISaIvEE9serializeEPhj+0x90>
  40a78a:	90                   	nop
  40a78b:	90                   	nop
  40a78c:	90                   	nop
  40a78d:	90                   	nop
  40a78e:	90                   	nop
  40a78f:	90                   	nop

000000000040a790 <_ZThn56_NK5boost16exception_detail10clone_implINS0_19error_info_injectorINS_17bad_function_callEEEE5cloneEv>:
  40a790:	48 83 ef 38          	sub    $0x38,%rdi
  40a794:	eb 0a                	jmp    40a7a0 <_ZNK5boost16exception_detail10clone_implINS0_19error_info_injectorINS_17bad_function_callEEEE5cloneEv>
  40a796:	66 2e 0f 1f 84 00 00 	nopw   %cs:0x0(%rax,%rax,1)
  40a79d:	00 00 00 

000000000040a7a0 <_ZNK5boost16exception_detail10clone_implINS0_19error_info_injectorINS_17bad_function_callEEEE5cloneEv>:
  40a7a0:	55                   	push   %rbp
  40a7a1:	48 89 fd             	mov    %rdi,%rbp
  40a7a4:	bf 40 00 00 00       	mov    $0x40,%edi
  40a7a9:	53                   	push   %rbx
  40a7aa:	48 83 ec 08          	sub    $0x8,%rsp
  40a7ae:	e8 6d ed ff ff       	callq  409520 <_Znwm@plt>
  40a7b3:	48 8d 75 08          	lea    0x8(%rbp),%rsi
  40a7b7:	48 8d 78 08          	lea    0x8(%rax),%rdi
  40a7bb:	48 c7 00 90 78 61 00 	movq   $0x617890,(%rax)
  40a7c2:	48 89 c3             	mov    %rax,%rbx
  40a7c5:	e8 46 ec ff ff       	callq  409410 <_ZNSsC1ERKSs@plt>
  40a7ca:	48 c7 03 f0 34 41 00 	movq   $0x4134f0,(%rbx)
  40a7d1:	48 c7 43 10 30 35 41 	movq   $0x413530,0x10(%rbx)
  40a7d8:	00 
  40a7d9:	48 8b 7d 18          	mov    0x18(%rbp),%rdi
  40a7dd:	48 85 ff             	test   %rdi,%rdi
  40a7e0:	48 89 7b 18          	mov    %rdi,0x18(%rbx)
  40a7e4:	74 06                	je     40a7ec <_ZNK5boost16exception_detail10clone_implINS0_19error_info_injectorINS_17bad_function_callEEEE5cloneEv+0x4c>
  40a7e6:	48 8b 07             	mov    (%rdi),%rax
  40a7e9:	ff 50 18             	callq  *0x18(%rax)
  40a7ec:	48 8b 45 20          	mov    0x20(%rbp),%rax
  40a7f0:	48 89 43 20          	mov    %rax,0x20(%rbx)
  40a7f4:	48 8b 45 28          	mov    0x28(%rbp),%rax
  40a7f8:	48 89 43 28          	mov    %rax,0x28(%rbx)
  40a7fc:	8b 45 30             	mov    0x30(%rbp),%eax
  40a7ff:	48 c7 03 f0 35 41 00 	movq   $0x4135f0,(%rbx)
  40a806:	48 c7 43 10 28 36 41 	movq   $0x413628,0x10(%rbx)
  40a80d:	00 
  40a80e:	48 c7 43 38 48 36 41 	movq   $0x413648,0x38(%rbx)
  40a815:	00 
  40a816:	89 43 30             	mov    %eax,0x30(%rbx)
  40a819:	48 83 c4 08          	add    $0x8,%rsp
  40a81d:	48 8d 43 38          	lea    0x38(%rbx),%rax
  40a821:	5b                   	pop    %rbx
  40a822:	5d                   	pop    %rbp
  40a823:	c3                   	retq   
  40a824:	48 89 df             	mov    %rbx,%rdi
  40a827:	48 89 c5             	mov    %rax,%rbp
  40a82a:	e8 21 ef ff ff       	callq  409750 <_ZNSt9exceptionD2Ev@plt>
  40a82f:	48 89 df             	mov    %rbx,%rdi
  40a832:	e8 b9 ec ff ff       	callq  4094f0 <_ZdlPv@plt>
  40a837:	48 89 ef             	mov    %rbp,%rdi
  40a83a:	e8 e1 ee ff ff       	callq  409720 <_Unwind_Resume@plt>
  40a83f:	48 89 df             	mov    %rbx,%rdi
  40a842:	48 89 c5             	mov    %rax,%rbp
  40a845:	e8 96 f9 ff ff       	callq  40a1e0 <_ZN5boost17bad_function_callD1Ev>
  40a84a:	eb e3                	jmp    40a82f <_ZNK5boost16exception_detail10clone_implINS0_19error_info_injectorINS_17bad_function_callEEEE5cloneEv+0x8f>
  40a84c:	90                   	nop
  40a84d:	90                   	nop
  40a84e:	90                   	nop
  40a84f:	90                   	nop

000000000040a850 <_ZN5boost6detail8function15functor_managerINS_8functionIFvRKNS_10shared_ptrIKN6SpyKee7Motion_ISaIvEEEEEEEEE6manageERKNS1_15function_bufferERSG_NS1_30functor_manager_operation_typeE>:
  40a850:	48 89 5c 24 e8       	mov    %rbx,-0x18(%rsp)
  40a855:	48 89 6c 24 f0       	mov    %rbp,-0x10(%rsp)
  40a85a:	48 89 f8             	mov    %rdi,%rax
  40a85d:	4c 89 64 24 f8       	mov    %r12,-0x8(%rsp)
  40a862:	48 83 ec 18          	sub    $0x18,%rsp
  40a866:	83 fa 04             	cmp    $0x4,%edx
  40a869:	48 89 f3             	mov    %rsi,%rbx
  40a86c:	74 1d                	je     40a88b <_ZN5boost6detail8function15functor_managerINS_8functionIFvRKNS_10shared_ptrIKN6SpyKee7Motion_ISaIvEEEEEEEEE6manageERKNS1_15function_bufferERSG_NS1_30functor_manager_operation_typeE+0x3b>
  40a86e:	85 d2                	test   %edx,%edx
  40a870:	74 3e                	je     40a8b0 <_ZN5boost6detail8function15functor_managerINS_8functionIFvRKNS_10shared_ptrIKN6SpyKee7Motion_ISaIvEEEEEEEEE6manageERKNS1_15function_bufferERSG_NS1_30functor_manager_operation_typeE+0x60>
  40a872:	83 fa 01             	cmp    $0x1,%edx
  40a875:	0f 84 05 01 00 00    	je     40a980 <_ZN5boost6detail8function15functor_managerINS_8functionIFvRKNS_10shared_ptrIKN6SpyKee7Motion_ISaIvEEEEEEEEE6manageERKNS1_15function_bufferERSG_NS1_30functor_manager_operation_typeE+0x130>
  40a87b:	83 fa 02             	cmp    $0x2,%edx
  40a87e:	66 90                	xchg   %ax,%ax
  40a880:	0f 84 aa 00 00 00    	je     40a930 <_ZN5boost6detail8function15functor_managerINS_8functionIFvRKNS_10shared_ptrIKN6SpyKee7Motion_ISaIvEEEEEEEEE6manageERKNS1_15function_bufferERSG_NS1_30functor_manager_operation_typeE+0xe0>
  40a886:	83 fa 03             	cmp    $0x3,%edx
  40a889:	74 75                	je     40a900 <_ZN5boost6detail8function15functor_managerINS_8functionIFvRKNS_10shared_ptrIKN6SpyKee7Motion_ISaIvEEEEEEEEE6manageERKNS1_15function_bufferERSG_NS1_30functor_manager_operation_typeE+0xb0>
  40a88b:	48 c7 03 c0 36 41 00 	movq   $0x4136c0,(%rbx)
  40a892:	c6 43 08 00          	movb   $0x0,0x8(%rbx)
  40a896:	c6 43 09 00          	movb   $0x0,0x9(%rbx)
  40a89a:	48 8b 1c 24          	mov    (%rsp),%rbx
  40a89e:	48 8b 6c 24 08       	mov    0x8(%rsp),%rbp
  40a8a3:	4c 8b 64 24 10       	mov    0x10(%rsp),%r12
  40a8a8:	48 83 c4 18          	add    $0x18,%rsp
  40a8ac:	c3                   	retq   
  40a8ad:	0f 1f 00             	nopl   (%rax)
  40a8b0:	4c 8b 27             	mov    (%rdi),%r12
  40a8b3:	bf 20 00 00 00       	mov    $0x20,%edi
  40a8b8:	e8 63 ec ff ff       	callq  409520 <_Znwm@plt>
  40a8bd:	48 89 c5             	mov    %rax,%rbp
  40a8c0:	48 c7 00 00 00 00 00 	movq   $0x0,(%rax)
  40a8c7:	49 8b 04 24          	mov    (%r12),%rax
  40a8cb:	48 85 c0             	test   %rax,%rax
  40a8ce:	74 27                	je     40a8f7 <_ZN5boost6detail8function15functor_managerINS_8functionIFvRKNS_10shared_ptrIKN6SpyKee7Motion_ISaIvEEEEEEEEE6manageERKNS1_15function_bufferERSG_NS1_30functor_manager_operation_typeE+0xa7>
  40a8d0:	a8 01                	test   $0x1,%al
  40a8d2:	48 89 45 00          	mov    %rax,0x0(%rbp)
  40a8d6:	0f 84 bc 00 00 00    	je     40a998 <_ZN5boost6detail8function15functor_managerINS_8functionIFvRKNS_10shared_ptrIKN6SpyKee7Motion_ISaIvEEEEEEEEE6manageERKNS1_15function_bufferERSG_NS1_30functor_manager_operation_typeE+0x148>
  40a8dc:	49 8b 44 24 08       	mov    0x8(%r12),%rax
  40a8e1:	48 89 45 08          	mov    %rax,0x8(%rbp)
  40a8e5:	49 8b 44 24 10       	mov    0x10(%r12),%rax
  40a8ea:	48 89 45 10          	mov    %rax,0x10(%rbp)
  40a8ee:	49 8b 44 24 18       	mov    0x18(%r12),%rax
  40a8f3:	48 89 45 18          	mov    %rax,0x18(%rbp)
  40a8f7:	48 89 2b             	mov    %rbp,(%rbx)
  40a8fa:	eb 9e                	jmp    40a89a <_ZN5boost6detail8function15functor_managerINS_8functionIFvRKNS_10shared_ptrIKN6SpyKee7Motion_ISaIvEEEEEEEEE6manageERKNS1_15function_bufferERSG_NS1_30functor_manager_operation_typeE+0x4a>
  40a8fc:	0f 1f 40 00          	nopl   0x0(%rax)
  40a900:	48 8b 16             	mov    (%rsi),%rdx
  40a903:	bf e0 36 41 00       	mov    $0x4136e0,%edi
  40a908:	b9 44 00 00 00       	mov    $0x44,%ecx
  40a90d:	48 8b 72 08          	mov    0x8(%rdx),%rsi
  40a911:	31 d2                	xor    %edx,%edx
  40a913:	80 3e 2a             	cmpb   $0x2a,(%rsi)
  40a916:	0f 94 c2             	sete   %dl
  40a919:	48 01 d6             	add    %rdx,%rsi
  40a91c:	f3 a6                	repz cmpsb %es:(%rdi),%ds:(%rsi)
  40a91e:	75 4a                	jne    40a96a <_ZN5boost6detail8function15functor_managerINS_8functionIFvRKNS_10shared_ptrIKN6SpyKee7Motion_ISaIvEEEEEEEEE6manageERKNS1_15function_bufferERSG_NS1_30functor_manager_operation_typeE+0x11a>
  40a920:	48 8b 00             	mov    (%rax),%rax
  40a923:	48 89 03             	mov    %rax,(%rbx)
  40a926:	e9 6f ff ff ff       	jmpq   40a89a <_ZN5boost6detail8function15functor_managerINS_8functionIFvRKNS_10shared_ptrIKN6SpyKee7Motion_ISaIvEEEEEEEEE6manageERKNS1_15function_bufferERSG_NS1_30functor_manager_operation_typeE+0x4a>
  40a92b:	0f 1f 44 00 00       	nopl   0x0(%rax,%rax,1)
  40a930:	48 8b 2e             	mov    (%rsi),%rbp
  40a933:	48 85 ed             	test   %rbp,%rbp
  40a936:	74 32                	je     40a96a <_ZN5boost6detail8function15functor_managerINS_8functionIFvRKNS_10shared_ptrIKN6SpyKee7Motion_ISaIvEEEEEEEEE6manageERKNS1_15function_bufferERSG_NS1_30functor_manager_operation_typeE+0x11a>
  40a938:	48 8b 45 00          	mov    0x0(%rbp),%rax
  40a93c:	48 85 c0             	test   %rax,%rax
  40a93f:	74 21                	je     40a962 <_ZN5boost6detail8function15functor_managerINS_8functionIFvRKNS_10shared_ptrIKN6SpyKee7Motion_ISaIvEEEEEEEEE6manageERKNS1_15function_bufferERSG_NS1_30functor_manager_operation_typeE+0x112>
  40a941:	a8 01                	test   $0x1,%al
  40a943:	75 15                	jne    40a95a <_ZN5boost6detail8function15functor_managerINS_8functionIFvRKNS_10shared_ptrIKN6SpyKee7Motion_ISaIvEEEEEEEEE6manageERKNS1_15function_bufferERSG_NS1_30functor_manager_operation_typeE+0x10a>
  40a945:	48 83 e0 fe          	and    $0xfffffffffffffffe,%rax
  40a949:	48 8b 00             	mov    (%rax),%rax
  40a94c:	48 85 c0             	test   %rax,%rax
  40a94f:	74 09                	je     40a95a <_ZN5boost6detail8function15functor_managerINS_8functionIFvRKNS_10shared_ptrIKN6SpyKee7Motion_ISaIvEEEEEEEEE6manageERKNS1_15function_bufferERSG_NS1_30functor_manager_operation_typeE+0x10a>
  40a951:	48 8d 7d 08          	lea    0x8(%rbp),%rdi
  40a955:	48 89 fe             	mov    %rdi,%rsi
  40a958:	ff d0                	callq  *%rax
  40a95a:	48 c7 45 00 00 00 00 	movq   $0x0,0x0(%rbp)
  40a961:	00 
  40a962:	48 89 ef             	mov    %rbp,%rdi
  40a965:	e8 86 eb ff ff       	callq  4094f0 <_ZdlPv@plt>
  40a96a:	48 c7 03 00 00 00 00 	movq   $0x0,(%rbx)
  40a971:	e9 24 ff ff ff       	jmpq   40a89a <_ZN5boost6detail8function15functor_managerINS_8functionIFvRKNS_10shared_ptrIKN6SpyKee7Motion_ISaIvEEEEEEEEE6manageERKNS1_15function_bufferERSG_NS1_30functor_manager_operation_typeE+0x4a>
  40a976:	66 2e 0f 1f 84 00 00 	nopw   %cs:0x0(%rax,%rax,1)
  40a97d:	00 00 00 
  40a980:	48 8b 17             	mov    (%rdi),%rdx
  40a983:	48 89 16             	mov    %rdx,(%rsi)
  40a986:	48 c7 07 00 00 00 00 	movq   $0x0,(%rdi)
  40a98d:	e9 08 ff ff ff       	jmpq   40a89a <_ZN5boost6detail8function15functor_managerINS_8functionIFvRKNS_10shared_ptrIKN6SpyKee7Motion_ISaIvEEEEEEEEE6manageERKNS1_15function_bufferERSG_NS1_30functor_manager_operation_typeE+0x4a>
  40a992:	66 0f 1f 44 00 00    	nopw   0x0(%rax,%rax,1)
  40a998:	48 83 e0 fe          	and    $0xfffffffffffffffe,%rax
  40a99c:	48 8d 75 08          	lea    0x8(%rbp),%rsi
  40a9a0:	49 8d 7c 24 08       	lea    0x8(%r12),%rdi
  40a9a5:	31 d2                	xor    %edx,%edx
  40a9a7:	ff 10                	callq  *(%rax)
  40a9a9:	e9 49 ff ff ff       	jmpq   40a8f7 <_ZN5boost6detail8function15functor_managerINS_8functionIFvRKNS_10shared_ptrIKN6SpyKee7Motion_ISaIvEEEEEEEEE6manageERKNS1_15function_bufferERSG_NS1_30functor_manager_operation_typeE+0xa7>
  40a9ae:	48 89 c3             	mov    %rax,%rbx
  40a9b1:	48 89 ef             	mov    %rbp,%rdi
  40a9b4:	e8 37 eb ff ff       	callq  4094f0 <_ZdlPv@plt>
  40a9b9:	48 89 df             	mov    %rbx,%rdi
  40a9bc:	e8 5f ed ff ff       	callq  409720 <_Unwind_Resume@plt>
  40a9c1:	90                   	nop
  40a9c2:	90                   	nop
  40a9c3:	90                   	nop
  40a9c4:	90                   	nop
  40a9c5:	90                   	nop
  40a9c6:	90                   	nop
  40a9c7:	90                   	nop
  40a9c8:	90                   	nop
  40a9c9:	90                   	nop
  40a9ca:	90                   	nop
  40a9cb:	90                   	nop
  40a9cc:	90                   	nop
  40a9cd:	90                   	nop
  40a9ce:	90                   	nop
  40a9cf:	90                   	nop

000000000040a9d0 <_ZThn16_N5boost16exception_detail19error_info_injectorINS_17bad_function_callEED1Ev>:
  40a9d0:	48 83 ef 10          	sub    $0x10,%rdi
  40a9d4:	e9 07 00 00 00       	jmpq   40a9e0 <_ZN5boost16exception_detail19error_info_injectorINS_17bad_function_callEED1Ev>
  40a9d9:	90                   	nop
  40a9da:	90                   	nop
  40a9db:	90                   	nop
  40a9dc:	90                   	nop
  40a9dd:	90                   	nop
  40a9de:	90                   	nop
  40a9df:	90                   	nop

000000000040a9e0 <_ZN5boost16exception_detail19error_info_injectorINS_17bad_function_callEED1Ev>:
  40a9e0:	53                   	push   %rbx
  40a9e1:	48 89 fb             	mov    %rdi,%rbx
  40a9e4:	48 c7 07 50 35 41 00 	movq   $0x413550,(%rdi)
  40a9eb:	48 c7 47 10 30 35 41 	movq   $0x413530,0x10(%rdi)
  40a9f2:	00 
  40a9f3:	48 8b 7f 18          	mov    0x18(%rdi),%rdi
  40a9f7:	48 85 ff             	test   %rdi,%rdi
  40a9fa:	74 12                	je     40aa0e <_ZN5boost16exception_detail19error_info_injectorINS_17bad_function_callEED1Ev+0x2e>
  40a9fc:	48 8b 07             	mov    (%rdi),%rax
  40a9ff:	ff 50 20             	callq  *0x20(%rax)
  40aa02:	84 c0                	test   %al,%al
  40aa04:	74 08                	je     40aa0e <_ZN5boost16exception_detail19error_info_injectorINS_17bad_function_callEED1Ev+0x2e>
  40aa06:	48 c7 43 18 00 00 00 	movq   $0x0,0x18(%rbx)
  40aa0d:	00 
  40aa0e:	48 c7 03 f0 34 41 00 	movq   $0x4134f0,(%rbx)
  40aa15:	48 89 df             	mov    %rbx,%rdi
  40aa18:	5b                   	pop    %rbx
  40aa19:	e9 32 eb ff ff       	jmpq   409550 <_ZNSt13runtime_errorD2Ev@plt>
  40aa1e:	48 83 c2 01          	add    $0x1,%rdx
  40aa22:	48 89 c7             	mov    %rax,%rdi
  40aa25:	74 05                	je     40aa2c <_ZN5boost16exception_detail19error_info_injectorINS_17bad_function_callEED1Ev+0x4c>
  40aa27:	e8 f4 ec ff ff       	callq  409720 <_Unwind_Resume@plt>
  40aa2c:	e8 8f eb ff ff       	callq  4095c0 <__cxa_call_unexpected@plt>
  40aa31:	90                   	nop
  40aa32:	90                   	nop
  40aa33:	90                   	nop
  40aa34:	90                   	nop
  40aa35:	90                   	nop
  40aa36:	90                   	nop
  40aa37:	90                   	nop
  40aa38:	90                   	nop
  40aa39:	90                   	nop
  40aa3a:	90                   	nop
  40aa3b:	90                   	nop
  40aa3c:	90                   	nop
  40aa3d:	90                   	nop
  40aa3e:	90                   	nop
  40aa3f:	90                   	nop

000000000040aa40 <_ZThn56_N5boost16exception_detail10clone_implINS0_19error_info_injectorINS_17bad_function_callEEEED1Ev>:
  40aa40:	48 83 ef 38          	sub    $0x38,%rdi
  40aa44:	e9 17 00 00 00       	jmpq   40aa60 <_ZN5boost16exception_detail10clone_implINS0_19error_info_injectorINS_17bad_function_callEEEED1Ev>
  40aa49:	0f 1f 80 00 00 00 00 	nopl   0x0(%rax)

000000000040aa50 <_ZThn16_N5boost16exception_detail10clone_implINS0_19error_info_injectorINS_17bad_function_callEEEED1Ev>:
  40aa50:	48 83 ef 10          	sub    $0x10,%rdi
  40aa54:	e9 07 00 00 00       	jmpq   40aa60 <_ZN5boost16exception_detail10clone_implINS0_19error_info_injectorINS_17bad_function_callEEEED1Ev>
  40aa59:	90                   	nop
  40aa5a:	90                   	nop
  40aa5b:	90                   	nop
  40aa5c:	90                   	nop
  40aa5d:	90                   	nop
  40aa5e:	90                   	nop
  40aa5f:	90                   	nop

000000000040aa60 <_ZN5boost16exception_detail10clone_implINS0_19error_info_injectorINS_17bad_function_callEEEED1Ev>:
  40aa60:	53                   	push   %rbx
  40aa61:	48 89 fb             	mov    %rdi,%rbx
  40aa64:	48 c7 47 38 b0 35 41 	movq   $0x4135b0,0x38(%rdi)
  40aa6b:	00 
  40aa6c:	48 c7 07 50 35 41 00 	movq   $0x413550,(%rdi)
  40aa73:	48 c7 47 10 30 35 41 	movq   $0x413530,0x10(%rdi)
  40aa7a:	00 
  40aa7b:	48 8b 7f 18          	mov    0x18(%rdi),%rdi
  40aa7f:	48 85 ff             	test   %rdi,%rdi
  40aa82:	74 12                	je     40aa96 <_ZN5boost16exception_detail10clone_implINS0_19error_info_injectorINS_17bad_function_callEEEED1Ev+0x36>
  40aa84:	48 8b 07             	mov    (%rdi),%rax
  40aa87:	ff 50 20             	callq  *0x20(%rax)
  40aa8a:	84 c0                	test   %al,%al
  40aa8c:	74 08                	je     40aa96 <_ZN5boost16exception_detail10clone_implINS0_19error_info_injectorINS_17bad_function_callEEEED1Ev+0x36>
  40aa8e:	48 c7 43 18 00 00 00 	movq   $0x0,0x18(%rbx)
  40aa95:	00 
  40aa96:	48 c7 03 f0 34 41 00 	movq   $0x4134f0,(%rbx)
  40aa9d:	48 89 df             	mov    %rbx,%rdi
  40aaa0:	5b                   	pop    %rbx
  40aaa1:	e9 aa ea ff ff       	jmpq   409550 <_ZNSt13runtime_errorD2Ev@plt>
  40aaa6:	48 83 c2 01          	add    $0x1,%rdx
  40aaaa:	48 89 c7             	mov    %rax,%rdi
  40aaad:	74 05                	je     40aab4 <_ZN5boost16exception_detail10clone_implINS0_19error_info_injectorINS_17bad_function_callEEEED1Ev+0x54>
  40aaaf:	e8 6c ec ff ff       	callq  409720 <_Unwind_Resume@plt>
  40aab4:	e8 07 eb ff ff       	callq  4095c0 <__cxa_call_unexpected@plt>
  40aab9:	90                   	nop
  40aaba:	90                   	nop
  40aabb:	90                   	nop
  40aabc:	90                   	nop
  40aabd:	90                   	nop
  40aabe:	90                   	nop
  40aabf:	90                   	nop

000000000040aac0 <_ZThn16_N5boost16exception_detail19error_info_injectorINS_17bad_function_callEED0Ev>:
  40aac0:	48 83 ef 10          	sub    $0x10,%rdi
  40aac4:	eb 0a                	jmp    40aad0 <_ZN5boost16exception_detail19error_info_injectorINS_17bad_function_callEED0Ev>
  40aac6:	66 2e 0f 1f 84 00 00 	nopw   %cs:0x0(%rax,%rax,1)
  40aacd:	00 00 00 

000000000040aad0 <_ZN5boost16exception_detail19error_info_injectorINS_17bad_function_callEED0Ev>:
  40aad0:	53                   	push   %rbx
  40aad1:	48 89 fb             	mov    %rdi,%rbx
  40aad4:	48 c7 07 50 35 41 00 	movq   $0x413550,(%rdi)
  40aadb:	48 c7 47 10 30 35 41 	movq   $0x413530,0x10(%rdi)
  40aae2:	00 
  40aae3:	48 8b 7f 18          	mov    0x18(%rdi),%rdi
  40aae7:	48 85 ff             	test   %rdi,%rdi
  40aaea:	74 12                	je     40aafe <_ZN5boost16exception_detail19error_info_injectorINS_17bad_function_callEED0Ev+0x2e>
  40aaec:	48 8b 07             	mov    (%rdi),%rax
  40aaef:	ff 50 20             	callq  *0x20(%rax)
  40aaf2:	84 c0                	test   %al,%al
  40aaf4:	74 08                	je     40aafe <_ZN5boost16exception_detail19error_info_injectorINS_17bad_function_callEED0Ev+0x2e>
  40aaf6:	48 c7 43 18 00 00 00 	movq   $0x0,0x18(%rbx)
  40aafd:	00 
  40aafe:	48 89 df             	mov    %rbx,%rdi
  40ab01:	48 c7 03 f0 34 41 00 	movq   $0x4134f0,(%rbx)
  40ab08:	e8 43 ea ff ff       	callq  409550 <_ZNSt13runtime_errorD2Ev@plt>
  40ab0d:	48 89 df             	mov    %rbx,%rdi
  40ab10:	5b                   	pop    %rbx
  40ab11:	e9 da e9 ff ff       	jmpq   4094f0 <_ZdlPv@plt>
  40ab16:	48 83 c2 01          	add    $0x1,%rdx
  40ab1a:	48 89 c7             	mov    %rax,%rdi
  40ab1d:	74 05                	je     40ab24 <_ZN5boost16exception_detail19error_info_injectorINS_17bad_function_callEED0Ev+0x54>
  40ab1f:	e8 fc eb ff ff       	callq  409720 <_Unwind_Resume@plt>
  40ab24:	e8 97 ea ff ff       	callq  4095c0 <__cxa_call_unexpected@plt>
  40ab29:	90                   	nop
  40ab2a:	90                   	nop
  40ab2b:	90                   	nop
  40ab2c:	90                   	nop
  40ab2d:	90                   	nop
  40ab2e:	90                   	nop
  40ab2f:	90                   	nop

000000000040ab30 <_ZThn56_N5boost16exception_detail10clone_implINS0_19error_info_injectorINS_17bad_function_callEEEED0Ev>:
  40ab30:	48 83 ef 38          	sub    $0x38,%rdi
  40ab34:	eb 1a                	jmp    40ab50 <_ZN5boost16exception_detail10clone_implINS0_19error_info_injectorINS_17bad_function_callEEEED0Ev>
  40ab36:	66 2e 0f 1f 84 00 00 	nopw   %cs:0x0(%rax,%rax,1)
  40ab3d:	00 00 00 

000000000040ab40 <_ZThn16_N5boost16exception_detail10clone_implINS0_19error_info_injectorINS_17bad_function_callEEEED0Ev>:
  40ab40:	48 83 ef 10          	sub    $0x10,%rdi
  40ab44:	eb 0a                	jmp    40ab50 <_ZN5boost16exception_detail10clone_implINS0_19error_info_injectorINS_17bad_function_callEEEED0Ev>
  40ab46:	66 2e 0f 1f 84 00 00 	nopw   %cs:0x0(%rax,%rax,1)
  40ab4d:	00 00 00 

000000000040ab50 <_ZN5boost16exception_detail10clone_implINS0_19error_info_injectorINS_17bad_function_callEEEED0Ev>:
  40ab50:	53                   	push   %rbx
  40ab51:	48 89 fb             	mov    %rdi,%rbx
  40ab54:	48 c7 47 38 b0 35 41 	movq   $0x4135b0,0x38(%rdi)
  40ab5b:	00 
  40ab5c:	48 c7 07 50 35 41 00 	movq   $0x413550,(%rdi)
  40ab63:	48 c7 47 10 30 35 41 	movq   $0x413530,0x10(%rdi)
  40ab6a:	00 
  40ab6b:	48 8b 7f 18          	mov    0x18(%rdi),%rdi
  40ab6f:	48 85 ff             	test   %rdi,%rdi
  40ab72:	74 12                	je     40ab86 <_ZN5boost16exception_detail10clone_implINS0_19error_info_injectorINS_17bad_function_callEEEED0Ev+0x36>
  40ab74:	48 8b 07             	mov    (%rdi),%rax
  40ab77:	ff 50 20             	callq  *0x20(%rax)
  40ab7a:	84 c0                	test   %al,%al
  40ab7c:	74 08                	je     40ab86 <_ZN5boost16exception_detail10clone_implINS0_19error_info_injectorINS_17bad_function_callEEEED0Ev+0x36>
  40ab7e:	48 c7 43 18 00 00 00 	movq   $0x0,0x18(%rbx)
  40ab85:	00 
  40ab86:	48 89 df             	mov    %rbx,%rdi
  40ab89:	48 c7 03 f0 34 41 00 	movq   $0x4134f0,(%rbx)
  40ab90:	e8 bb e9 ff ff       	callq  409550 <_ZNSt13runtime_errorD2Ev@plt>
  40ab95:	48 89 df             	mov    %rbx,%rdi
  40ab98:	5b                   	pop    %rbx
  40ab99:	e9 52 e9 ff ff       	jmpq   4094f0 <_ZdlPv@plt>
  40ab9e:	48 83 c2 01          	add    $0x1,%rdx
  40aba2:	48 89 c7             	mov    %rax,%rdi
  40aba5:	74 05                	je     40abac <_ZN5boost16exception_detail10clone_implINS0_19error_info_injectorINS_17bad_function_callEEEED0Ev+0x5c>
  40aba7:	e8 74 eb ff ff       	callq  409720 <_Unwind_Resume@plt>
  40abac:	e8 0f ea ff ff       	callq  4095c0 <__cxa_call_unexpected@plt>
  40abb1:	90                   	nop
  40abb2:	90                   	nop
  40abb3:	90                   	nop
  40abb4:	90                   	nop
  40abb5:	90                   	nop
  40abb6:	90                   	nop
  40abb7:	90                   	nop
  40abb8:	90                   	nop
  40abb9:	90                   	nop
  40abba:	90                   	nop
  40abbb:	90                   	nop
  40abbc:	90                   	nop
  40abbd:	90                   	nop
  40abbe:	90                   	nop
  40abbf:	90                   	nop

000000000040abc0 <_ZN8std_msgs7Header_ISaIvEE11deserializeEPh>:
  40abc0:	48 89 5c 24 d8       	mov    %rbx,-0x28(%rsp)
  40abc5:	4c 89 6c 24 f0       	mov    %r13,-0x10(%rsp)
  40abca:	48 89 fb             	mov    %rdi,%rbx
  40abcd:	4c 89 74 24 f8       	mov    %r14,-0x8(%rsp)
  40abd2:	48 89 6c 24 e0       	mov    %rbp,-0x20(%rsp)
  40abd7:	4c 8d b6 00 ca 9a 3b 	lea    0x3b9aca00(%rsi),%r14
  40abde:	4c 89 64 24 e8       	mov    %r12,-0x18(%rsp)
  40abe3:	48 83 ec 48          	sub    $0x48,%rsp
  40abe7:	8b 06                	mov    (%rsi),%eax
  40abe9:	49 89 f5             	mov    %rsi,%r13
  40abec:	89 47 08             	mov    %eax,0x8(%rdi)
  40abef:	48 8d 46 08          	lea    0x8(%rsi),%rax
  40abf3:	49 39 c6             	cmp    %rax,%r14
  40abf6:	73 05                	jae    40abfd <_ZN8std_msgs7Header_ISaIvEE11deserializeEPh+0x3d>
  40abf8:	e8 e3 e8 ff ff       	callq  4094e0 <_ZN3ros13serialization18throwStreamOverrunEv@plt>
  40abfd:	41 8b 45 04          	mov    0x4(%r13),%eax
  40ac01:	89 43 0c             	mov    %eax,0xc(%rbx)
  40ac04:	49 8d 45 0c          	lea    0xc(%r13),%rax
  40ac08:	49 39 c6             	cmp    %rax,%r14
  40ac0b:	73 05                	jae    40ac12 <_ZN8std_msgs7Header_ISaIvEE11deserializeEPh+0x52>
  40ac0d:	e8 ce e8 ff ff       	callq  4094e0 <_ZN3ros13serialization18throwStreamOverrunEv@plt>
  40ac12:	41 8b 45 08          	mov    0x8(%r13),%eax
  40ac16:	49 8d 6d 10          	lea    0x10(%r13),%rbp
  40ac1a:	4c 8d 63 18          	lea    0x18(%rbx),%r12
  40ac1e:	49 39 ee             	cmp    %rbp,%r14
  40ac21:	89 43 10             	mov    %eax,0x10(%rbx)
  40ac24:	73 05                	jae    40ac2b <_ZN8std_msgs7Header_ISaIvEE11deserializeEPh+0x6b>
  40ac26:	e8 b5 e8 ff ff       	callq  4094e0 <_ZN3ros13serialization18throwStreamOverrunEv@plt>
  40ac2b:	41 8b 55 0c          	mov    0xc(%r13),%edx
  40ac2f:	85 d2                	test   %edx,%edx
  40ac31:	74 75                	je     40aca8 <_ZN8std_msgs7Header_ISaIvEE11deserializeEPh+0xe8>
  40ac33:	48 8d 5c 15 00       	lea    0x0(%rbp,%rdx,1),%rbx
  40ac38:	49 39 de             	cmp    %rbx,%r14
  40ac3b:	72 53                	jb     40ac90 <_ZN8std_msgs7Header_ISaIvEE11deserializeEPh+0xd0>
  40ac3d:	48 8d 7c 24 10       	lea    0x10(%rsp),%rdi
  40ac42:	48 8d 4c 24 1e       	lea    0x1e(%rsp),%rcx
  40ac47:	48 89 ee             	mov    %rbp,%rsi
  40ac4a:	e8 81 e7 ff ff       	callq  4093d0 <_ZNSsC1EPKcmRKSaIcE@plt>
  40ac4f:	48 8d 74 24 10       	lea    0x10(%rsp),%rsi
  40ac54:	4c 89 e7             	mov    %r12,%rdi
  40ac57:	e8 84 e9 ff ff       	callq  4095e0 <_ZNSs6assignERKSs@plt>
  40ac5c:	48 8b 44 24 10       	mov    0x10(%rsp),%rax
  40ac61:	48 8d 78 e8          	lea    -0x18(%rax),%rdi
  40ac65:	48 81 ff 00 77 61 00 	cmp    $0x617700,%rdi
  40ac6c:	75 53                	jne    40acc1 <_ZN8std_msgs7Header_ISaIvEE11deserializeEPh+0x101>
  40ac6e:	48 89 d8             	mov    %rbx,%rax
  40ac71:	48 8b 6c 24 28       	mov    0x28(%rsp),%rbp
  40ac76:	48 8b 5c 24 20       	mov    0x20(%rsp),%rbx
  40ac7b:	4c 8b 64 24 30       	mov    0x30(%rsp),%r12
  40ac80:	4c 8b 6c 24 38       	mov    0x38(%rsp),%r13
  40ac85:	4c 8b 74 24 40       	mov    0x40(%rsp),%r14
  40ac8a:	48 83 c4 48          	add    $0x48,%rsp
  40ac8e:	c3                   	retq   
  40ac8f:	90                   	nop
  40ac90:	48 89 54 24 08       	mov    %rdx,0x8(%rsp)
  40ac95:	e8 46 e8 ff ff       	callq  4094e0 <_ZN3ros13serialization18throwStreamOverrunEv@plt>
  40ac9a:	48 8b 54 24 08       	mov    0x8(%rsp),%rdx
  40ac9f:	eb 9c                	jmp    40ac3d <_ZN8std_msgs7Header_ISaIvEE11deserializeEPh+0x7d>
  40aca1:	0f 1f 80 00 00 00 00 	nopl   0x0(%rax)
  40aca8:	48 8b 43 18          	mov    0x18(%rbx),%rax
  40acac:	31 c9                	xor    %ecx,%ecx
  40acae:	31 f6                	xor    %esi,%esi
  40acb0:	4c 89 e7             	mov    %r12,%rdi
  40acb3:	48 89 eb             	mov    %rbp,%rbx
  40acb6:	48 8b 50 e8          	mov    -0x18(%rax),%rdx
  40acba:	e8 31 e9 ff ff       	callq  4095f0 <_ZNSs9_M_mutateEmmm@plt>
  40acbf:	eb ad                	jmp    40ac6e <_ZN8std_msgs7Header_ISaIvEE11deserializeEPh+0xae>
  40acc1:	ba 80 92 40 00       	mov    $0x409280,%edx
  40acc6:	48 85 d2             	test   %rdx,%rdx
  40acc9:	74 2d                	je     40acf8 <_ZN8std_msgs7Header_ISaIvEE11deserializeEPh+0x138>
  40accb:	83 ca ff             	or     $0xffffffff,%edx
  40acce:	f0 0f c1 50 f8       	lock xadd %edx,-0x8(%rax)
  40acd3:	85 d2                	test   %edx,%edx
  40acd5:	7f 97                	jg     40ac6e <_ZN8std_msgs7Header_ISaIvEE11deserializeEPh+0xae>
  40acd7:	48 8d 74 24 1f       	lea    0x1f(%rsp),%rsi
  40acdc:	e8 af e7 ff ff       	callq  409490 <_ZNSs4_Rep10_M_destroyERKSaIcE@plt>
  40ace1:	eb 8b                	jmp    40ac6e <_ZN8std_msgs7Header_ISaIvEE11deserializeEPh+0xae>
  40ace3:	48 8d 7c 24 10       	lea    0x10(%rsp),%rdi
  40ace8:	48 89 c3             	mov    %rax,%rbx
  40aceb:	e8 a0 e9 ff ff       	callq  409690 <_ZNSsD1Ev@plt>
  40acf0:	48 89 df             	mov    %rbx,%rdi
  40acf3:	e8 28 ea ff ff       	callq  409720 <_Unwind_Resume@plt>
  40acf8:	8b 50 f8             	mov    -0x8(%rax),%edx
  40acfb:	8d 4a ff             	lea    -0x1(%rdx),%ecx
  40acfe:	89 48 f8             	mov    %ecx,-0x8(%rax)
  40ad01:	eb d0                	jmp    40acd3 <_ZN8std_msgs7Header_ISaIvEE11deserializeEPh+0x113>
  40ad03:	90                   	nop
  40ad04:	90                   	nop
  40ad05:	90                   	nop
  40ad06:	90                   	nop
  40ad07:	90                   	nop
  40ad08:	90                   	nop
  40ad09:	90                   	nop
  40ad0a:	90                   	nop
  40ad0b:	90                   	nop
  40ad0c:	90                   	nop
  40ad0d:	90                   	nop
  40ad0e:	90                   	nop
  40ad0f:	90                   	nop

000000000040ad10 <_ZN5boost6detail18sp_counted_impl_pdIPN6SpyKee7Motion_ISaIvEEENS0_13sp_ms_deleterIS5_EEE7disposeEv>:
  40ad10:	48 89 5c 24 e8       	mov    %rbx,-0x18(%rsp)
  40ad15:	48 89 6c 24 f0       	mov    %rbp,-0x10(%rsp)
  40ad1a:	48 89 fb             	mov    %rdi,%rbx
  40ad1d:	4c 89 64 24 f8       	mov    %r12,-0x8(%rsp)
  40ad22:	48 83 ec 18          	sub    $0x18,%rsp
  40ad26:	80 7f 18 00          	cmpb   $0x0,0x18(%rdi)
  40ad2a:	75 14                	jne    40ad40 <_ZN5boost6detail18sp_counted_impl_pdIPN6SpyKee7Motion_ISaIvEEENS0_13sp_ms_deleterIS5_EEE7disposeEv+0x30>
  40ad2c:	48 8b 1c 24          	mov    (%rsp),%rbx
  40ad30:	48 8b 6c 24 08       	mov    0x8(%rsp),%rbp
  40ad35:	4c 8b 64 24 10       	mov    0x10(%rsp),%r12
  40ad3a:	48 83 c4 18          	add    $0x18,%rsp
  40ad3e:	c3                   	retq   
  40ad3f:	90                   	nop
  40ad40:	48 8b 6f 38          	mov    0x38(%rdi),%rbp
  40ad44:	48 c7 47 20 70 32 41 	movq   $0x413270,0x20(%rdi)
  40ad4b:	00 
  40ad4c:	48 85 ed             	test   %rbp,%rbp
  40ad4f:	74 13                	je     40ad64 <_ZN5boost6detail18sp_counted_impl_pdIPN6SpyKee7Motion_ISaIvEEENS0_13sp_ms_deleterIS5_EEE7disposeEv+0x54>
  40ad51:	41 bc ff ff ff ff    	mov    $0xffffffff,%r12d
  40ad57:	44 89 e0             	mov    %r12d,%eax
  40ad5a:	f0 0f c1 45 08       	lock xadd %eax,0x8(%rbp)
  40ad5f:	83 f8 01             	cmp    $0x1,%eax
  40ad62:	74 0c                	je     40ad70 <_ZN5boost6detail18sp_counted_impl_pdIPN6SpyKee7Motion_ISaIvEEENS0_13sp_ms_deleterIS5_EEE7disposeEv+0x60>
  40ad64:	c6 43 18 00          	movb   $0x0,0x18(%rbx)
  40ad68:	eb c2                	jmp    40ad2c <_ZN5boost6detail18sp_counted_impl_pdIPN6SpyKee7Motion_ISaIvEEENS0_13sp_ms_deleterIS5_EEE7disposeEv+0x1c>
  40ad6a:	66 0f 1f 44 00 00    	nopw   0x0(%rax,%rax,1)
  40ad70:	48 8b 45 00          	mov    0x0(%rbp),%rax
  40ad74:	48 89 ef             	mov    %rbp,%rdi
  40ad77:	ff 50 10             	callq  *0x10(%rax)
  40ad7a:	f0 44 0f c1 65 0c    	lock xadd %r12d,0xc(%rbp)
  40ad80:	41 83 fc 01          	cmp    $0x1,%r12d
  40ad84:	75 de                	jne    40ad64 <_ZN5boost6detail18sp_counted_impl_pdIPN6SpyKee7Motion_ISaIvEEENS0_13sp_ms_deleterIS5_EEE7disposeEv+0x54>
  40ad86:	48 8b 45 00          	mov    0x0(%rbp),%rax
  40ad8a:	48 89 ef             	mov    %rbp,%rdi
  40ad8d:	ff 50 18             	callq  *0x18(%rax)
  40ad90:	eb d2                	jmp    40ad64 <_ZN5boost6detail18sp_counted_impl_pdIPN6SpyKee7Motion_ISaIvEEENS0_13sp_ms_deleterIS5_EEE7disposeEv+0x54>
  40ad92:	90                   	nop
  40ad93:	90                   	nop
  40ad94:	90                   	nop
  40ad95:	90                   	nop
  40ad96:	90                   	nop
  40ad97:	90                   	nop
  40ad98:	90                   	nop
  40ad99:	90                   	nop
  40ad9a:	90                   	nop
  40ad9b:	90                   	nop
  40ad9c:	90                   	nop
  40ad9d:	90                   	nop
  40ad9e:	90                   	nop
  40ad9f:	90                   	nop

000000000040ada0 <_ZN5boost6detail18sp_counted_impl_pdIPN6SpyKee7Motion_ISaIvEEENS0_13sp_ms_deleterIS5_EEED0Ev>:
  40ada0:	48 89 5c 24 f0       	mov    %rbx,-0x10(%rsp)
  40ada5:	48 89 6c 24 f8       	mov    %rbp,-0x8(%rsp)
  40adaa:	48 83 ec 18          	sub    $0x18,%rsp
  40adae:	80 7f 18 00          	cmpb   $0x0,0x18(%rdi)
  40adb2:	48 89 fb             	mov    %rdi,%rbx
  40adb5:	48 c7 07 30 33 41 00 	movq   $0x413330,(%rdi)
  40adbc:	75 22                	jne    40ade0 <_ZN5boost6detail18sp_counted_impl_pdIPN6SpyKee7Motion_ISaIvEEENS0_13sp_ms_deleterIS5_EEED0Ev+0x40>
  40adbe:	48 c7 03 f0 32 41 00 	movq   $0x4132f0,(%rbx)
  40adc5:	48 89 df             	mov    %rbx,%rdi
  40adc8:	48 8b 6c 24 10       	mov    0x10(%rsp),%rbp
  40adcd:	48 8b 5c 24 08       	mov    0x8(%rsp),%rbx
  40add2:	48 83 c4 18          	add    $0x18,%rsp
  40add6:	e9 15 e7 ff ff       	jmpq   4094f0 <_ZdlPv@plt>
  40addb:	0f 1f 44 00 00       	nopl   0x0(%rax,%rax,1)
  40ade0:	48 8b 6f 38          	mov    0x38(%rdi),%rbp
  40ade4:	48 c7 47 20 70 32 41 	movq   $0x413270,0x20(%rdi)
  40adeb:	00 
  40adec:	48 85 ed             	test   %rbp,%rbp
  40adef:	74 0f                	je     40ae00 <_ZN5boost6detail18sp_counted_impl_pdIPN6SpyKee7Motion_ISaIvEEENS0_13sp_ms_deleterIS5_EEED0Ev+0x60>
  40adf1:	b8 ff ff ff ff       	mov    $0xffffffff,%eax
  40adf6:	f0 0f c1 45 08       	lock xadd %eax,0x8(%rbp)
  40adfb:	83 f8 01             	cmp    $0x1,%eax
  40adfe:	74 10                	je     40ae10 <_ZN5boost6detail18sp_counted_impl_pdIPN6SpyKee7Motion_ISaIvEEENS0_13sp_ms_deleterIS5_EEED0Ev+0x70>
  40ae00:	c6 43 18 00          	movb   $0x0,0x18(%rbx)
  40ae04:	eb b8                	jmp    40adbe <_ZN5boost6detail18sp_counted_impl_pdIPN6SpyKee7Motion_ISaIvEEENS0_13sp_ms_deleterIS5_EEED0Ev+0x1e>
  40ae06:	66 2e 0f 1f 84 00 00 	nopw   %cs:0x0(%rax,%rax,1)
  40ae0d:	00 00 00 
  40ae10:	48 8b 45 00          	mov    0x0(%rbp),%rax
  40ae14:	48 89 ef             	mov    %rbp,%rdi
  40ae17:	ff 50 10             	callq  *0x10(%rax)
  40ae1a:	b8 ff ff ff ff       	mov    $0xffffffff,%eax
  40ae1f:	f0 0f c1 45 0c       	lock xadd %eax,0xc(%rbp)
  40ae24:	83 f8 01             	cmp    $0x1,%eax
  40ae27:	75 d7                	jne    40ae00 <_ZN5boost6detail18sp_counted_impl_pdIPN6SpyKee7Motion_ISaIvEEENS0_13sp_ms_deleterIS5_EEED0Ev+0x60>
  40ae29:	48 8b 45 00          	mov    0x0(%rbp),%rax
  40ae2d:	48 89 ef             	mov    %rbp,%rdi
  40ae30:	ff 50 18             	callq  *0x18(%rax)
  40ae33:	eb cb                	jmp    40ae00 <_ZN5boost6detail18sp_counted_impl_pdIPN6SpyKee7Motion_ISaIvEEENS0_13sp_ms_deleterIS5_EEED0Ev+0x60>
  40ae35:	48 c7 03 f0 32 41 00 	movq   $0x4132f0,(%rbx)
  40ae3c:	48 89 c7             	mov    %rax,%rdi
  40ae3f:	e8 dc e8 ff ff       	callq  409720 <_Unwind_Resume@plt>
  40ae44:	90                   	nop
  40ae45:	90                   	nop
  40ae46:	90                   	nop
  40ae47:	90                   	nop
  40ae48:	90                   	nop
  40ae49:	90                   	nop
  40ae4a:	90                   	nop
  40ae4b:	90                   	nop
  40ae4c:	90                   	nop
  40ae4d:	90                   	nop
  40ae4e:	90                   	nop
  40ae4f:	90                   	nop

000000000040ae50 <_ZN5boost6detail18sp_counted_impl_pdIPN6SpyKee7Motion_ISaIvEEENS0_13sp_ms_deleterIS5_EEED1Ev>:
  40ae50:	48 89 5c 24 f0       	mov    %rbx,-0x10(%rsp)
  40ae55:	48 89 6c 24 f8       	mov    %rbp,-0x8(%rsp)
  40ae5a:	48 83 ec 18          	sub    $0x18,%rsp
  40ae5e:	80 7f 18 00          	cmpb   $0x0,0x18(%rdi)
  40ae62:	48 89 fb             	mov    %rdi,%rbx
  40ae65:	48 c7 07 30 33 41 00 	movq   $0x413330,(%rdi)
  40ae6c:	75 1a                	jne    40ae88 <_ZN5boost6detail18sp_counted_impl_pdIPN6SpyKee7Motion_ISaIvEEENS0_13sp_ms_deleterIS5_EEED1Ev+0x38>
  40ae6e:	48 c7 03 f0 32 41 00 	movq   $0x4132f0,(%rbx)
  40ae75:	48 8b 6c 24 10       	mov    0x10(%rsp),%rbp
  40ae7a:	48 8b 5c 24 08       	mov    0x8(%rsp),%rbx
  40ae7f:	48 83 c4 18          	add    $0x18,%rsp
  40ae83:	c3                   	retq   
  40ae84:	0f 1f 40 00          	nopl   0x0(%rax)
  40ae88:	48 8b 6f 38          	mov    0x38(%rdi),%rbp
  40ae8c:	48 c7 47 20 70 32 41 	movq   $0x413270,0x20(%rdi)
  40ae93:	00 
  40ae94:	48 85 ed             	test   %rbp,%rbp
  40ae97:	74 0f                	je     40aea8 <_ZN5boost6detail18sp_counted_impl_pdIPN6SpyKee7Motion_ISaIvEEENS0_13sp_ms_deleterIS5_EEED1Ev+0x58>
  40ae99:	b8 ff ff ff ff       	mov    $0xffffffff,%eax
  40ae9e:	f0 0f c1 45 08       	lock xadd %eax,0x8(%rbp)
  40aea3:	83 f8 01             	cmp    $0x1,%eax
  40aea6:	74 08                	je     40aeb0 <_ZN5boost6detail18sp_counted_impl_pdIPN6SpyKee7Motion_ISaIvEEENS0_13sp_ms_deleterIS5_EEED1Ev+0x60>
  40aea8:	c6 43 18 00          	movb   $0x0,0x18(%rbx)
  40aeac:	eb c0                	jmp    40ae6e <_ZN5boost6detail18sp_counted_impl_pdIPN6SpyKee7Motion_ISaIvEEENS0_13sp_ms_deleterIS5_EEED1Ev+0x1e>
  40aeae:	66 90                	xchg   %ax,%ax
  40aeb0:	48 8b 45 00          	mov    0x0(%rbp),%rax
  40aeb4:	48 89 ef             	mov    %rbp,%rdi
  40aeb7:	ff 50 10             	callq  *0x10(%rax)
  40aeba:	b8 ff ff ff ff       	mov    $0xffffffff,%eax
  40aebf:	f0 0f c1 45 0c       	lock xadd %eax,0xc(%rbp)
  40aec4:	83 f8 01             	cmp    $0x1,%eax
  40aec7:	75 df                	jne    40aea8 <_ZN5boost6detail18sp_counted_impl_pdIPN6SpyKee7Motion_ISaIvEEENS0_13sp_ms_deleterIS5_EEED1Ev+0x58>
  40aec9:	48 8b 45 00          	mov    0x0(%rbp),%rax
  40aecd:	48 89 ef             	mov    %rbp,%rdi
  40aed0:	ff 50 18             	callq  *0x18(%rax)
  40aed3:	eb d3                	jmp    40aea8 <_ZN5boost6detail18sp_counted_impl_pdIPN6SpyKee7Motion_ISaIvEEENS0_13sp_ms_deleterIS5_EEED1Ev+0x58>
  40aed5:	48 c7 03 f0 32 41 00 	movq   $0x4132f0,(%rbx)
  40aedc:	48 89 c7             	mov    %rax,%rdi
  40aedf:	e8 3c e8 ff ff       	callq  409720 <_Unwind_Resume@plt>
  40aee4:	90                   	nop
  40aee5:	90                   	nop
  40aee6:	90                   	nop
  40aee7:	90                   	nop
  40aee8:	90                   	nop
  40aee9:	90                   	nop
  40aeea:	90                   	nop
  40aeeb:	90                   	nop
  40aeec:	90                   	nop
  40aeed:	90                   	nop
  40aeee:	90                   	nop
  40aeef:	90                   	nop

000000000040aef0 <_ZN5boost6detail12shared_countD1Ev>:
  40aef0:	48 89 5c 24 f0       	mov    %rbx,-0x10(%rsp)
  40aef5:	48 89 6c 24 f8       	mov    %rbp,-0x8(%rsp)
  40aefa:	48 83 ec 18          	sub    $0x18,%rsp
  40aefe:	48 8b 1f             	mov    (%rdi),%rbx
  40af01:	48 85 db             	test   %rbx,%rbx
  40af04:	74 11                	je     40af17 <_ZN5boost6detail12shared_countD1Ev+0x27>
  40af06:	bd ff ff ff ff       	mov    $0xffffffff,%ebp
  40af0b:	89 e8                	mov    %ebp,%eax
  40af0d:	f0 0f c1 43 08       	lock xadd %eax,0x8(%rbx)
  40af12:	83 f8 01             	cmp    $0x1,%eax
  40af15:	74 19                	je     40af30 <_ZN5boost6detail12shared_countD1Ev+0x40>
  40af17:	48 8b 5c 24 08       	mov    0x8(%rsp),%rbx
  40af1c:	48 8b 6c 24 10       	mov    0x10(%rsp),%rbp
  40af21:	48 83 c4 18          	add    $0x18,%rsp
  40af25:	c3                   	retq   
  40af26:	66 2e 0f 1f 84 00 00 	nopw   %cs:0x0(%rax,%rax,1)
  40af2d:	00 00 00 
  40af30:	48 8b 03             	mov    (%rbx),%rax
  40af33:	48 89 df             	mov    %rbx,%rdi
  40af36:	ff 50 10             	callq  *0x10(%rax)
  40af39:	f0 0f c1 6b 0c       	lock xadd %ebp,0xc(%rbx)
  40af3e:	83 fd 01             	cmp    $0x1,%ebp
  40af41:	75 d4                	jne    40af17 <_ZN5boost6detail12shared_countD1Ev+0x27>
  40af43:	48 8b 03             	mov    (%rbx),%rax
  40af46:	48 89 df             	mov    %rbx,%rdi
  40af49:	48 8b 6c 24 10       	mov    0x10(%rsp),%rbp
  40af4e:	48 8b 5c 24 08       	mov    0x8(%rsp),%rbx
  40af53:	48 8b 40 18          	mov    0x18(%rax),%rax
  40af57:	48 83 c4 18          	add    $0x18,%rsp
  40af5b:	ff e0                	jmpq   *%rax
  40af5d:	90                   	nop
  40af5e:	90                   	nop
  40af5f:	90                   	nop

000000000040af60 <_ZN5boost17bad_function_callC1Ev>:
  40af60:	53                   	push   %rbx
  40af61:	be 83 2d 41 00       	mov    $0x412d83,%esi
  40af66:	48 89 fb             	mov    %rdi,%rbx
  40af69:	48 83 ec 10          	sub    $0x10,%rsp
  40af6d:	48 8d 54 24 0e       	lea    0xe(%rsp),%rdx
  40af72:	48 89 e7             	mov    %rsp,%rdi
  40af75:	e8 f6 e5 ff ff       	callq  409570 <_ZNSsC1EPKcRKSaIcE@plt>
  40af7a:	48 89 e6             	mov    %rsp,%rsi
  40af7d:	48 89 df             	mov    %rbx,%rdi
  40af80:	e8 1b e7 ff ff       	callq  4096a0 <_ZNSt13runtime_errorC2ERKSs@plt>
  40af85:	48 8b 04 24          	mov    (%rsp),%rax
  40af89:	48 8d 78 e8          	lea    -0x18(%rax),%rdi
  40af8d:	48 81 ff 00 77 61 00 	cmp    $0x617700,%rdi
  40af94:	75 0d                	jne    40afa3 <_ZN5boost17bad_function_callC1Ev+0x43>
  40af96:	48 c7 03 f0 34 41 00 	movq   $0x4134f0,(%rbx)
  40af9d:	48 83 c4 10          	add    $0x10,%rsp
  40afa1:	5b                   	pop    %rbx
  40afa2:	c3                   	retq   
  40afa3:	ba 80 92 40 00       	mov    $0x409280,%edx
  40afa8:	48 85 d2             	test   %rdx,%rdx
  40afab:	74 2b                	je     40afd8 <_ZN5boost17bad_function_callC1Ev+0x78>
  40afad:	83 ca ff             	or     $0xffffffff,%edx
  40afb0:	f0 0f c1 50 f8       	lock xadd %edx,-0x8(%rax)
  40afb5:	85 d2                	test   %edx,%edx
  40afb7:	7f dd                	jg     40af96 <_ZN5boost17bad_function_callC1Ev+0x36>
  40afb9:	48 8d 74 24 0f       	lea    0xf(%rsp),%rsi
  40afbe:	e8 cd e4 ff ff       	callq  409490 <_ZNSs4_Rep10_M_destroyERKSaIcE@plt>
  40afc3:	eb d1                	jmp    40af96 <_ZN5boost17bad_function_callC1Ev+0x36>
  40afc5:	48 89 c3             	mov    %rax,%rbx
  40afc8:	48 89 e7             	mov    %rsp,%rdi
  40afcb:	e8 c0 e6 ff ff       	callq  409690 <_ZNSsD1Ev@plt>
  40afd0:	48 89 df             	mov    %rbx,%rdi
  40afd3:	e8 48 e7 ff ff       	callq  409720 <_Unwind_Resume@plt>
  40afd8:	8b 50 f8             	mov    -0x8(%rax),%edx
  40afdb:	8d 4a ff             	lea    -0x1(%rdx),%ecx
  40afde:	89 48 f8             	mov    %ecx,-0x8(%rax)
  40afe1:	eb d2                	jmp    40afb5 <_ZN5boost17bad_function_callC1Ev+0x55>
  40afe3:	90                   	nop
  40afe4:	90                   	nop
  40afe5:	90                   	nop
  40afe6:	90                   	nop
  40afe7:	90                   	nop
  40afe8:	90                   	nop
  40afe9:	90                   	nop
  40afea:	90                   	nop
  40afeb:	90                   	nop
  40afec:	90                   	nop
  40afed:	90                   	nop
  40afee:	90                   	nop
  40afef:	90                   	nop

000000000040aff0 <_ZN5boost6detail8function16has_empty_targetEz>:
  40aff0:	31 c0                	xor    %eax,%eax
  40aff2:	c3                   	retq   
  40aff3:	90                   	nop
  40aff4:	90                   	nop
  40aff5:	90                   	nop
  40aff6:	90                   	nop
  40aff7:	90                   	nop
  40aff8:	90                   	nop
  40aff9:	90                   	nop
  40affa:	90                   	nop
  40affb:	90                   	nop
  40affc:	90                   	nop
  40affd:	90                   	nop
  40affe:	90                   	nop
  40afff:	90                   	nop

000000000040b000 <_ZN8std_msgs7Header_ISaIvEED1Ev>:
  40b000:	48 89 6c 24 f8       	mov    %rbp,-0x8(%rsp)
  40b005:	48 89 5c 24 f0       	mov    %rbx,-0x10(%rsp)
  40b00a:	48 83 ec 28          	sub    $0x28,%rsp
  40b00e:	48 8b 5f 28          	mov    0x28(%rdi),%rbx
  40b012:	48 89 fd             	mov    %rdi,%rbp
  40b015:	48 c7 07 30 32 41 00 	movq   $0x413230,(%rdi)
  40b01c:	48 85 db             	test   %rbx,%rbx
  40b01f:	74 0f                	je     40b030 <_ZN8std_msgs7Header_ISaIvEED1Ev+0x30>
  40b021:	b8 ff ff ff ff       	mov    $0xffffffff,%eax
  40b026:	f0 0f c1 43 08       	lock xadd %eax,0x8(%rbx)
  40b02b:	83 f8 01             	cmp    $0x1,%eax
  40b02e:	74 20                	je     40b050 <_ZN8std_msgs7Header_ISaIvEED1Ev+0x50>
  40b030:	48 8b 45 18          	mov    0x18(%rbp),%rax
  40b034:	48 8d 78 e8          	lea    -0x18(%rax),%rdi
  40b038:	48 81 ff 00 77 61 00 	cmp    $0x617700,%rdi
  40b03f:	75 32                	jne    40b073 <_ZN8std_msgs7Header_ISaIvEED1Ev+0x73>
  40b041:	48 8b 5c 24 18       	mov    0x18(%rsp),%rbx
  40b046:	48 8b 6c 24 20       	mov    0x20(%rsp),%rbp
  40b04b:	48 83 c4 28          	add    $0x28,%rsp
  40b04f:	c3                   	retq   
  40b050:	48 8b 03             	mov    (%rbx),%rax
  40b053:	48 89 df             	mov    %rbx,%rdi
  40b056:	ff 50 10             	callq  *0x10(%rax)
  40b059:	b8 ff ff ff ff       	mov    $0xffffffff,%eax
  40b05e:	f0 0f c1 43 0c       	lock xadd %eax,0xc(%rbx)
  40b063:	83 f8 01             	cmp    $0x1,%eax
  40b066:	75 c8                	jne    40b030 <_ZN8std_msgs7Header_ISaIvEED1Ev+0x30>
  40b068:	48 8b 03             	mov    (%rbx),%rax
  40b06b:	48 89 df             	mov    %rbx,%rdi
  40b06e:	ff 50 18             	callq  *0x18(%rax)
  40b071:	eb bd                	jmp    40b030 <_ZN8std_msgs7Header_ISaIvEED1Ev+0x30>
  40b073:	ba 80 92 40 00       	mov    $0x409280,%edx
  40b078:	48 85 d2             	test   %rdx,%rdx
  40b07b:	74 2c                	je     40b0a9 <_ZN8std_msgs7Header_ISaIvEED1Ev+0xa9>
  40b07d:	83 ca ff             	or     $0xffffffff,%edx
  40b080:	f0 0f c1 50 f8       	lock xadd %edx,-0x8(%rax)
  40b085:	85 d2                	test   %edx,%edx
  40b087:	7f b8                	jg     40b041 <_ZN8std_msgs7Header_ISaIvEED1Ev+0x41>
  40b089:	48 8d 74 24 0f       	lea    0xf(%rsp),%rsi
  40b08e:	e8 fd e3 ff ff       	callq  409490 <_ZNSs4_Rep10_M_destroyERKSaIcE@plt>
  40b093:	eb ac                	jmp    40b041 <_ZN8std_msgs7Header_ISaIvEED1Ev+0x41>
  40b095:	48 8d 7d 18          	lea    0x18(%rbp),%rdi
  40b099:	48 89 c3             	mov    %rax,%rbx
  40b09c:	e8 ef e5 ff ff       	callq  409690 <_ZNSsD1Ev@plt>
  40b0a1:	48 89 df             	mov    %rbx,%rdi
  40b0a4:	e8 77 e6 ff ff       	callq  409720 <_Unwind_Resume@plt>
  40b0a9:	8b 50 f8             	mov    -0x8(%rax),%edx
  40b0ac:	8d 4a ff             	lea    -0x1(%rdx),%ecx
  40b0af:	89 48 f8             	mov    %ecx,-0x8(%rax)
  40b0b2:	eb d1                	jmp    40b085 <_ZN8std_msgs7Header_ISaIvEED1Ev+0x85>
  40b0b4:	90                   	nop
  40b0b5:	90                   	nop
  40b0b6:	90                   	nop
  40b0b7:	90                   	nop
  40b0b8:	90                   	nop
  40b0b9:	90                   	nop
  40b0ba:	90                   	nop
  40b0bb:	90                   	nop
  40b0bc:	90                   	nop
  40b0bd:	90                   	nop
  40b0be:	90                   	nop
  40b0bf:	90                   	nop

000000000040b0c0 <_ZN11sensor_msgs16CompressedImage_ISaIvEED1Ev>:
  40b0c0:	55                   	push   %rbp
  40b0c1:	53                   	push   %rbx
  40b0c2:	48 89 fb             	mov    %rdi,%rbx
  40b0c5:	48 83 ec 18          	sub    $0x18,%rsp
  40b0c9:	48 8b 6f 60          	mov    0x60(%rdi),%rbp
  40b0cd:	48 c7 07 f0 31 41 00 	movq   $0x4131f0,(%rdi)
  40b0d4:	48 85 ed             	test   %rbp,%rbp
  40b0d7:	74 0f                	je     40b0e8 <_ZN11sensor_msgs16CompressedImage_ISaIvEED1Ev+0x28>
  40b0d9:	b8 ff ff ff ff       	mov    $0xffffffff,%eax
  40b0de:	f0 0f c1 45 08       	lock xadd %eax,0x8(%rbp)
  40b0e3:	83 f8 01             	cmp    $0x1,%eax
  40b0e6:	74 60                	je     40b148 <_ZN11sensor_msgs16CompressedImage_ISaIvEED1Ev+0x88>
  40b0e8:	48 8b 7b 40          	mov    0x40(%rbx),%rdi
  40b0ec:	48 85 ff             	test   %rdi,%rdi
  40b0ef:	74 05                	je     40b0f6 <_ZN11sensor_msgs16CompressedImage_ISaIvEED1Ev+0x36>
  40b0f1:	e8 fa e3 ff ff       	callq  4094f0 <_ZdlPv@plt>
  40b0f6:	48 8b 43 38          	mov    0x38(%rbx),%rax
  40b0fa:	48 8d 78 e8          	lea    -0x18(%rax),%rdi
  40b0fe:	48 81 ff 00 77 61 00 	cmp    $0x617700,%rdi
  40b105:	0f 85 ac 00 00 00    	jne    40b1b7 <_ZN11sensor_msgs16CompressedImage_ISaIvEED1Ev+0xf7>
  40b10b:	48 8b 6b 30          	mov    0x30(%rbx),%rbp
  40b10f:	48 c7 43 08 30 32 41 	movq   $0x413230,0x8(%rbx)
  40b116:	00 
  40b117:	48 85 ed             	test   %rbp,%rbp
  40b11a:	74 0f                	je     40b12b <_ZN11sensor_msgs16CompressedImage_ISaIvEED1Ev+0x6b>
  40b11c:	b8 ff ff ff ff       	mov    $0xffffffff,%eax
  40b121:	f0 0f c1 45 08       	lock xadd %eax,0x8(%rbp)
  40b126:	83 f8 01             	cmp    $0x1,%eax
  40b129:	74 45                	je     40b170 <_ZN11sensor_msgs16CompressedImage_ISaIvEED1Ev+0xb0>
  40b12b:	48 8b 43 20          	mov    0x20(%rbx),%rax
  40b12f:	48 8d 78 e8          	lea    -0x18(%rax),%rdi
  40b133:	48 81 ff 00 77 61 00 	cmp    $0x617700,%rdi
  40b13a:	75 59                	jne    40b195 <_ZN11sensor_msgs16CompressedImage_ISaIvEED1Ev+0xd5>
  40b13c:	48 83 c4 18          	add    $0x18,%rsp
  40b140:	5b                   	pop    %rbx
  40b141:	5d                   	pop    %rbp
  40b142:	c3                   	retq   
  40b143:	0f 1f 44 00 00       	nopl   0x0(%rax,%rax,1)
  40b148:	48 8b 45 00          	mov    0x0(%rbp),%rax
  40b14c:	48 89 ef             	mov    %rbp,%rdi
  40b14f:	ff 50 10             	callq  *0x10(%rax)
  40b152:	b8 ff ff ff ff       	mov    $0xffffffff,%eax
  40b157:	f0 0f c1 45 0c       	lock xadd %eax,0xc(%rbp)
  40b15c:	83 f8 01             	cmp    $0x1,%eax
  40b15f:	75 87                	jne    40b0e8 <_ZN11sensor_msgs16CompressedImage_ISaIvEED1Ev+0x28>
  40b161:	48 8b 45 00          	mov    0x0(%rbp),%rax
  40b165:	48 89 ef             	mov    %rbp,%rdi
  40b168:	ff 50 18             	callq  *0x18(%rax)
  40b16b:	e9 78 ff ff ff       	jmpq   40b0e8 <_ZN11sensor_msgs16CompressedImage_ISaIvEED1Ev+0x28>
  40b170:	48 8b 45 00          	mov    0x0(%rbp),%rax
  40b174:	48 89 ef             	mov    %rbp,%rdi
  40b177:	ff 50 10             	callq  *0x10(%rax)
  40b17a:	b8 ff ff ff ff       	mov    $0xffffffff,%eax
  40b17f:	f0 0f c1 45 0c       	lock xadd %eax,0xc(%rbp)
  40b184:	83 f8 01             	cmp    $0x1,%eax
  40b187:	75 a2                	jne    40b12b <_ZN11sensor_msgs16CompressedImage_ISaIvEED1Ev+0x6b>
  40b189:	48 8b 45 00          	mov    0x0(%rbp),%rax
  40b18d:	48 89 ef             	mov    %rbp,%rdi
  40b190:	ff 50 18             	callq  *0x18(%rax)
  40b193:	eb 96                	jmp    40b12b <_ZN11sensor_msgs16CompressedImage_ISaIvEED1Ev+0x6b>
  40b195:	ba 80 92 40 00       	mov    $0x409280,%edx
  40b19a:	48 85 d2             	test   %rdx,%rdx
  40b19d:	74 41                	je     40b1e0 <_ZN11sensor_msgs16CompressedImage_ISaIvEED1Ev+0x120>
  40b19f:	83 ca ff             	or     $0xffffffff,%edx
  40b1a2:	f0 0f c1 50 f8       	lock xadd %edx,-0x8(%rax)
  40b1a7:	85 d2                	test   %edx,%edx
  40b1a9:	7f 91                	jg     40b13c <_ZN11sensor_msgs16CompressedImage_ISaIvEED1Ev+0x7c>
  40b1ab:	48 8d 74 24 0f       	lea    0xf(%rsp),%rsi
  40b1b0:	e8 db e2 ff ff       	callq  409490 <_ZNSs4_Rep10_M_destroyERKSaIcE@plt>
  40b1b5:	eb 85                	jmp    40b13c <_ZN11sensor_msgs16CompressedImage_ISaIvEED1Ev+0x7c>
  40b1b7:	ba 80 92 40 00       	mov    $0x409280,%edx
  40b1bc:	48 85 d2             	test   %rdx,%rdx
  40b1bf:	74 2a                	je     40b1eb <_ZN11sensor_msgs16CompressedImage_ISaIvEED1Ev+0x12b>
  40b1c1:	83 ca ff             	or     $0xffffffff,%edx
  40b1c4:	f0 0f c1 50 f8       	lock xadd %edx,-0x8(%rax)
  40b1c9:	85 d2                	test   %edx,%edx
  40b1cb:	0f 8f 3a ff ff ff    	jg     40b10b <_ZN11sensor_msgs16CompressedImage_ISaIvEED1Ev+0x4b>
  40b1d1:	48 8d 74 24 0e       	lea    0xe(%rsp),%rsi
  40b1d6:	e8 b5 e2 ff ff       	callq  409490 <_ZNSs4_Rep10_M_destroyERKSaIcE@plt>
  40b1db:	e9 2b ff ff ff       	jmpq   40b10b <_ZN11sensor_msgs16CompressedImage_ISaIvEED1Ev+0x4b>
  40b1e0:	8b 50 f8             	mov    -0x8(%rax),%edx
  40b1e3:	8d 4a ff             	lea    -0x1(%rdx),%ecx
  40b1e6:	89 48 f8             	mov    %ecx,-0x8(%rax)
  40b1e9:	eb bc                	jmp    40b1a7 <_ZN11sensor_msgs16CompressedImage_ISaIvEED1Ev+0xe7>
  40b1eb:	8b 50 f8             	mov    -0x8(%rax),%edx
  40b1ee:	8d 4a ff             	lea    -0x1(%rdx),%ecx
  40b1f1:	89 48 f8             	mov    %ecx,-0x8(%rax)
  40b1f4:	eb d3                	jmp    40b1c9 <_ZN11sensor_msgs16CompressedImage_ISaIvEED1Ev+0x109>
  40b1f6:	48 8d 7b 20          	lea    0x20(%rbx),%rdi
  40b1fa:	48 89 c5             	mov    %rax,%rbp
  40b1fd:	e8 8e e4 ff ff       	callq  409690 <_ZNSsD1Ev@plt>
  40b202:	48 89 ef             	mov    %rbp,%rdi
  40b205:	e8 16 e5 ff ff       	callq  409720 <_Unwind_Resume@plt>
  40b20a:	48 8b 7b 40          	mov    0x40(%rbx),%rdi
  40b20e:	48 89 c5             	mov    %rax,%rbp
  40b211:	48 85 ff             	test   %rdi,%rdi
  40b214:	74 05                	je     40b21b <_ZN11sensor_msgs16CompressedImage_ISaIvEED1Ev+0x15b>
  40b216:	e8 d5 e2 ff ff       	callq  4094f0 <_ZdlPv@plt>
  40b21b:	48 8d 7b 38          	lea    0x38(%rbx),%rdi
  40b21f:	e8 6c e4 ff ff       	callq  409690 <_ZNSsD1Ev@plt>
  40b224:	48 8d 7b 08          	lea    0x8(%rbx),%rdi
  40b228:	e8 d3 fd ff ff       	callq  40b000 <_ZN8std_msgs7Header_ISaIvEED1Ev>
  40b22d:	48 89 ef             	mov    %rbp,%rdi
  40b230:	e8 eb e4 ff ff       	callq  409720 <_Unwind_Resume@plt>
  40b235:	90                   	nop
  40b236:	90                   	nop
  40b237:	90                   	nop
  40b238:	90                   	nop
  40b239:	90                   	nop
  40b23a:	90                   	nop
  40b23b:	90                   	nop
  40b23c:	90                   	nop
  40b23d:	90                   	nop
  40b23e:	90                   	nop
  40b23f:	90                   	nop

000000000040b240 <_ZN5boost16exception_detail12refcount_ptrINS0_20error_info_containerEED1Ev>:
  40b240:	53                   	push   %rbx
  40b241:	48 89 fb             	mov    %rdi,%rbx
  40b244:	48 8b 3f             	mov    (%rdi),%rdi
  40b247:	48 85 ff             	test   %rdi,%rdi
  40b24a:	74 11                	je     40b25d <_ZN5boost16exception_detail12refcount_ptrINS0_20error_info_containerEED1Ev+0x1d>
  40b24c:	48 8b 07             	mov    (%rdi),%rax
  40b24f:	ff 50 20             	callq  *0x20(%rax)
  40b252:	84 c0                	test   %al,%al
  40b254:	74 07                	je     40b25d <_ZN5boost16exception_detail12refcount_ptrINS0_20error_info_containerEED1Ev+0x1d>
  40b256:	48 c7 03 00 00 00 00 	movq   $0x0,(%rbx)
  40b25d:	5b                   	pop    %rbx
  40b25e:	c3                   	retq   
  40b25f:	90                   	nop

000000000040b260 <_ZN5boost16exception_detail12refcount_ptrINS0_20error_info_containerEEaSERKS3_>:
  40b260:	48 89 5c 24 f0       	mov    %rbx,-0x10(%rsp)
  40b265:	48 89 6c 24 f8       	mov    %rbp,-0x8(%rsp)
  40b26a:	48 89 fb             	mov    %rdi,%rbx
  40b26d:	48 83 ec 18          	sub    $0x18,%rsp
  40b271:	48 8b 3f             	mov    (%rdi),%rdi
  40b274:	48 8b 2e             	mov    (%rsi),%rbp
  40b277:	48 85 ff             	test   %rdi,%rdi
  40b27a:	74 06                	je     40b282 <_ZN5boost16exception_detail12refcount_ptrINS0_20error_info_containerEEaSERKS3_+0x22>
  40b27c:	48 8b 07             	mov    (%rdi),%rax
  40b27f:	ff 50 20             	callq  *0x20(%rax)
  40b282:	48 85 ed             	test   %rbp,%rbp
  40b285:	48 89 2b             	mov    %rbp,(%rbx)
  40b288:	74 0a                	je     40b294 <_ZN5boost16exception_detail12refcount_ptrINS0_20error_info_containerEEaSERKS3_+0x34>
  40b28a:	48 8b 45 00          	mov    0x0(%rbp),%rax
  40b28e:	48 89 ef             	mov    %rbp,%rdi
  40b291:	ff 50 18             	callq  *0x18(%rax)
  40b294:	48 89 d8             	mov    %rbx,%rax
  40b297:	48 8b 6c 24 10       	mov    0x10(%rsp),%rbp
  40b29c:	48 8b 5c 24 08       	mov    0x8(%rsp),%rbx
  40b2a1:	48 83 c4 18          	add    $0x18,%rsp
  40b2a5:	c3                   	retq   
  40b2a6:	90                   	nop
  40b2a7:	90                   	nop
  40b2a8:	90                   	nop
  40b2a9:	90                   	nop
  40b2aa:	90                   	nop
  40b2ab:	90                   	nop
  40b2ac:	90                   	nop
  40b2ad:	90                   	nop
  40b2ae:	90                   	nop
  40b2af:	90                   	nop

000000000040b2b0 <_ZN5boost9function1IvRKN3ros25SingleSubscriberPublisherEED1Ev>:
  40b2b0:	53                   	push   %rbx
  40b2b1:	48 8b 07             	mov    (%rdi),%rax
  40b2b4:	48 89 fb             	mov    %rdi,%rbx
  40b2b7:	48 85 c0             	test   %rax,%rax
  40b2ba:	74 25                	je     40b2e1 <_ZN5boost9function1IvRKN3ros25SingleSubscriberPublisherEED1Ev+0x31>
  40b2bc:	a8 01                	test   $0x1,%al
  40b2be:	75 1a                	jne    40b2da <_ZN5boost9function1IvRKN3ros25SingleSubscriberPublisherEED1Ev+0x2a>
  40b2c0:	48 83 e0 fe          	and    $0xfffffffffffffffe,%rax
  40b2c4:	48 8b 00             	mov    (%rax),%rax
  40b2c7:	48 85 c0             	test   %rax,%rax
  40b2ca:	74 0e                	je     40b2da <_ZN5boost9function1IvRKN3ros25SingleSubscriberPublisherEED1Ev+0x2a>
  40b2cc:	48 8d 7f 08          	lea    0x8(%rdi),%rdi
  40b2d0:	ba 02 00 00 00       	mov    $0x2,%edx
  40b2d5:	48 89 fe             	mov    %rdi,%rsi
  40b2d8:	ff d0                	callq  *%rax
  40b2da:	48 c7 03 00 00 00 00 	movq   $0x0,(%rbx)
  40b2e1:	5b                   	pop    %rbx
  40b2e2:	c3                   	retq   
  40b2e3:	90                   	nop
  40b2e4:	90                   	nop
  40b2e5:	90                   	nop
  40b2e6:	90                   	nop
  40b2e7:	90                   	nop
  40b2e8:	90                   	nop
  40b2e9:	90                   	nop
  40b2ea:	90                   	nop
  40b2eb:	90                   	nop
  40b2ec:	90                   	nop
  40b2ed:	90                   	nop
  40b2ee:	90                   	nop
  40b2ef:	90                   	nop

000000000040b2f0 <_ZN5boost8functionIFvRKNS_10shared_ptrIKN6SpyKee7Motion_ISaIvEEEEEEED1Ev>:
  40b2f0:	53                   	push   %rbx
  40b2f1:	48 8b 07             	mov    (%rdi),%rax
  40b2f4:	48 89 fb             	mov    %rdi,%rbx
  40b2f7:	48 85 c0             	test   %rax,%rax
  40b2fa:	74 25                	je     40b321 <_ZN5boost8functionIFvRKNS_10shared_ptrIKN6SpyKee7Motion_ISaIvEEEEEEED1Ev+0x31>
  40b2fc:	a8 01                	test   $0x1,%al
  40b2fe:	75 1a                	jne    40b31a <_ZN5boost8functionIFvRKNS_10shared_ptrIKN6SpyKee7Motion_ISaIvEEEEEEED1Ev+0x2a>
  40b300:	48 83 e0 fe          	and    $0xfffffffffffffffe,%rax
  40b304:	48 8b 00             	mov    (%rax),%rax
  40b307:	48 85 c0             	test   %rax,%rax
  40b30a:	74 0e                	je     40b31a <_ZN5boost8functionIFvRKNS_10shared_ptrIKN6SpyKee7Motion_ISaIvEEEEEEED1Ev+0x2a>
  40b30c:	48 8d 7f 08          	lea    0x8(%rdi),%rdi
  40b310:	ba 02 00 00 00       	mov    $0x2,%edx
  40b315:	48 89 fe             	mov    %rdi,%rsi
  40b318:	ff d0                	callq  *%rax
  40b31a:	48 c7 03 00 00 00 00 	movq   $0x0,(%rbx)
  40b321:	5b                   	pop    %rbx
  40b322:	c3                   	retq   
  40b323:	90                   	nop
  40b324:	90                   	nop
  40b325:	90                   	nop
  40b326:	90                   	nop
  40b327:	90                   	nop
  40b328:	90                   	nop
  40b329:	90                   	nop
  40b32a:	90                   	nop
  40b32b:	90                   	nop
  40b32c:	90                   	nop
  40b32d:	90                   	nop
  40b32e:	90                   	nop
  40b32f:	90                   	nop

000000000040b330 <_ZN3ros16AdvertiseOptionsD1Ev>:
  40b330:	55                   	push   %rbp
  40b331:	53                   	push   %rbx
  40b332:	48 89 fb             	mov    %rdi,%rbx
  40b335:	48 83 ec 18          	sub    $0x18,%rsp
  40b339:	48 8b 6f 78          	mov    0x78(%rdi),%rbp
  40b33d:	48 85 ed             	test   %rbp,%rbp
  40b340:	74 13                	je     40b355 <_ZN3ros16AdvertiseOptionsD1Ev+0x25>
  40b342:	b8 ff ff ff ff       	mov    $0xffffffff,%eax
  40b347:	f0 0f c1 45 08       	lock xadd %eax,0x8(%rbp)
  40b34c:	83 f8 01             	cmp    $0x1,%eax
  40b34f:	0f 84 d3 00 00 00    	je     40b428 <_ZN3ros16AdvertiseOptionsD1Ev+0xf8>
  40b355:	48 8b 43 48          	mov    0x48(%rbx),%rax
  40b359:	48 85 c0             	test   %rax,%rax
  40b35c:	74 10                	je     40b36e <_ZN3ros16AdvertiseOptionsD1Ev+0x3e>
  40b35e:	a8 01                	test   $0x1,%al
  40b360:	0f 84 9a 00 00 00    	je     40b400 <_ZN3ros16AdvertiseOptionsD1Ev+0xd0>
  40b366:	48 c7 43 48 00 00 00 	movq   $0x0,0x48(%rbx)
  40b36d:	00 
  40b36e:	48 8b 43 28          	mov    0x28(%rbx),%rax
  40b372:	48 85 c0             	test   %rax,%rax
  40b375:	74 0c                	je     40b383 <_ZN3ros16AdvertiseOptionsD1Ev+0x53>
  40b377:	a8 01                	test   $0x1,%al
  40b379:	74 65                	je     40b3e0 <_ZN3ros16AdvertiseOptionsD1Ev+0xb0>
  40b37b:	48 c7 43 28 00 00 00 	movq   $0x0,0x28(%rbx)
  40b382:	00 
  40b383:	48 8b 43 20          	mov    0x20(%rbx),%rax
  40b387:	48 8d 78 e8          	lea    -0x18(%rax),%rdi
  40b38b:	48 81 ff 00 77 61 00 	cmp    $0x617700,%rdi
  40b392:	0f 85 43 01 00 00    	jne    40b4db <_ZN3ros16AdvertiseOptionsD1Ev+0x1ab>
  40b398:	48 8b 43 18          	mov    0x18(%rbx),%rax
  40b39c:	48 8d 78 e8          	lea    -0x18(%rax),%rdi
  40b3a0:	48 81 ff 00 77 61 00 	cmp    $0x617700,%rdi
  40b3a7:	0f 85 01 01 00 00    	jne    40b4ae <_ZN3ros16AdvertiseOptionsD1Ev+0x17e>
  40b3ad:	48 8b 43 10          	mov    0x10(%rbx),%rax
  40b3b1:	48 8d 78 e8          	lea    -0x18(%rax),%rdi
  40b3b5:	48 81 ff 00 77 61 00 	cmp    $0x617700,%rdi
  40b3bc:	0f 85 bf 00 00 00    	jne    40b481 <_ZN3ros16AdvertiseOptionsD1Ev+0x151>
  40b3c2:	48 8b 03             	mov    (%rbx),%rax
  40b3c5:	48 8d 78 e8          	lea    -0x18(%rax),%rdi
  40b3c9:	48 81 ff 00 77 61 00 	cmp    $0x617700,%rdi
  40b3d0:	0f 85 7e 00 00 00    	jne    40b454 <_ZN3ros16AdvertiseOptionsD1Ev+0x124>
  40b3d6:	48 83 c4 18          	add    $0x18,%rsp
  40b3da:	5b                   	pop    %rbx
  40b3db:	5d                   	pop    %rbp
  40b3dc:	c3                   	retq   
  40b3dd:	0f 1f 00             	nopl   (%rax)
  40b3e0:	48 83 e0 fe          	and    $0xfffffffffffffffe,%rax
  40b3e4:	48 8b 00             	mov    (%rax),%rax
  40b3e7:	48 85 c0             	test   %rax,%rax
  40b3ea:	74 8f                	je     40b37b <_ZN3ros16AdvertiseOptionsD1Ev+0x4b>
  40b3ec:	48 8d 7b 30          	lea    0x30(%rbx),%rdi
  40b3f0:	ba 02 00 00 00       	mov    $0x2,%edx
  40b3f5:	48 89 fe             	mov    %rdi,%rsi
  40b3f8:	ff d0                	callq  *%rax
  40b3fa:	e9 7c ff ff ff       	jmpq   40b37b <_ZN3ros16AdvertiseOptionsD1Ev+0x4b>
  40b3ff:	90                   	nop
  40b400:	48 83 e0 fe          	and    $0xfffffffffffffffe,%rax
  40b404:	48 8b 00             	mov    (%rax),%rax
  40b407:	48 85 c0             	test   %rax,%rax
  40b40a:	0f 84 56 ff ff ff    	je     40b366 <_ZN3ros16AdvertiseOptionsD1Ev+0x36>
  40b410:	48 8d 7b 50          	lea    0x50(%rbx),%rdi
  40b414:	ba 02 00 00 00       	mov    $0x2,%edx
  40b419:	48 89 fe             	mov    %rdi,%rsi
  40b41c:	ff d0                	callq  *%rax
  40b41e:	e9 43 ff ff ff       	jmpq   40b366 <_ZN3ros16AdvertiseOptionsD1Ev+0x36>
  40b423:	0f 1f 44 00 00       	nopl   0x0(%rax,%rax,1)
  40b428:	48 8b 45 00          	mov    0x0(%rbp),%rax
  40b42c:	48 89 ef             	mov    %rbp,%rdi
  40b42f:	ff 50 10             	callq  *0x10(%rax)
  40b432:	b8 ff ff ff ff       	mov    $0xffffffff,%eax
  40b437:	f0 0f c1 45 0c       	lock xadd %eax,0xc(%rbp)
  40b43c:	83 f8 01             	cmp    $0x1,%eax
  40b43f:	0f 85 10 ff ff ff    	jne    40b355 <_ZN3ros16AdvertiseOptionsD1Ev+0x25>
  40b445:	48 8b 45 00          	mov    0x0(%rbp),%rax
  40b449:	48 89 ef             	mov    %rbp,%rdi
  40b44c:	ff 50 18             	callq  *0x18(%rax)
  40b44f:	e9 01 ff ff ff       	jmpq   40b355 <_ZN3ros16AdvertiseOptionsD1Ev+0x25>
  40b454:	ba 80 92 40 00       	mov    $0x409280,%edx
  40b459:	48 85 d2             	test   %rdx,%rdx
  40b45c:	0f 84 f7 00 00 00    	je     40b559 <_ZN3ros16AdvertiseOptionsD1Ev+0x229>
  40b462:	83 ca ff             	or     $0xffffffff,%edx
  40b465:	f0 0f c1 50 f8       	lock xadd %edx,-0x8(%rax)
  40b46a:	85 d2                	test   %edx,%edx
  40b46c:	0f 8f 64 ff ff ff    	jg     40b3d6 <_ZN3ros16AdvertiseOptionsD1Ev+0xa6>
  40b472:	48 8d 74 24 0f       	lea    0xf(%rsp),%rsi
  40b477:	e8 14 e0 ff ff       	callq  409490 <_ZNSs4_Rep10_M_destroyERKSaIcE@plt>
  40b47c:	e9 55 ff ff ff       	jmpq   40b3d6 <_ZN3ros16AdvertiseOptionsD1Ev+0xa6>
  40b481:	ba 80 92 40 00       	mov    $0x409280,%edx
  40b486:	48 85 d2             	test   %rdx,%rdx
  40b489:	0f 84 d8 00 00 00    	je     40b567 <_ZN3ros16AdvertiseOptionsD1Ev+0x237>
  40b48f:	83 ca ff             	or     $0xffffffff,%edx
  40b492:	f0 0f c1 50 f8       	lock xadd %edx,-0x8(%rax)
  40b497:	85 d2                	test   %edx,%edx
  40b499:	0f 8f 23 ff ff ff    	jg     40b3c2 <_ZN3ros16AdvertiseOptionsD1Ev+0x92>
  40b49f:	48 8d 74 24 0e       	lea    0xe(%rsp),%rsi
  40b4a4:	e8 e7 df ff ff       	callq  409490 <_ZNSs4_Rep10_M_destroyERKSaIcE@plt>
  40b4a9:	e9 14 ff ff ff       	jmpq   40b3c2 <_ZN3ros16AdvertiseOptionsD1Ev+0x92>
  40b4ae:	ba 80 92 40 00       	mov    $0x409280,%edx
  40b4b3:	48 85 d2             	test   %rdx,%rdx
  40b4b6:	0f 84 b9 00 00 00    	je     40b575 <_ZN3ros16AdvertiseOptionsD1Ev+0x245>
  40b4bc:	83 ca ff             	or     $0xffffffff,%edx
  40b4bf:	f0 0f c1 50 f8       	lock xadd %edx,-0x8(%rax)
  40b4c4:	85 d2                	test   %edx,%edx
  40b4c6:	0f 8f e1 fe ff ff    	jg     40b3ad <_ZN3ros16AdvertiseOptionsD1Ev+0x7d>
  40b4cc:	48 8d 74 24 0d       	lea    0xd(%rsp),%rsi
  40b4d1:	e8 ba df ff ff       	callq  409490 <_ZNSs4_Rep10_M_destroyERKSaIcE@plt>
  40b4d6:	e9 d2 fe ff ff       	jmpq   40b3ad <_ZN3ros16AdvertiseOptionsD1Ev+0x7d>
  40b4db:	ba 80 92 40 00       	mov    $0x409280,%edx
  40b4e0:	48 85 d2             	test   %rdx,%rdx
  40b4e3:	74 5b                	je     40b540 <_ZN3ros16AdvertiseOptionsD1Ev+0x210>
  40b4e5:	83 ca ff             	or     $0xffffffff,%edx
  40b4e8:	f0 0f c1 50 f8       	lock xadd %edx,-0x8(%rax)
  40b4ed:	85 d2                	test   %edx,%edx
  40b4ef:	0f 8f a3 fe ff ff    	jg     40b398 <_ZN3ros16AdvertiseOptionsD1Ev+0x68>
  40b4f5:	48 8d 74 24 0c       	lea    0xc(%rsp),%rsi
  40b4fa:	e8 91 df ff ff       	callq  409490 <_ZNSs4_Rep10_M_destroyERKSaIcE@plt>
  40b4ff:	e9 94 fe ff ff       	jmpq   40b398 <_ZN3ros16AdvertiseOptionsD1Ev+0x68>
  40b504:	48 89 c5             	mov    %rax,%rbp
  40b507:	48 8d 7b 20          	lea    0x20(%rbx),%rdi
  40b50b:	e8 80 e1 ff ff       	callq  409690 <_ZNSsD1Ev@plt>
  40b510:	48 8d 7b 18          	lea    0x18(%rbx),%rdi
  40b514:	e8 77 e1 ff ff       	callq  409690 <_ZNSsD1Ev@plt>
  40b519:	48 8d 7b 10          	lea    0x10(%rbx),%rdi
  40b51d:	e8 6e e1 ff ff       	callq  409690 <_ZNSsD1Ev@plt>
  40b522:	48 89 df             	mov    %rbx,%rdi
  40b525:	e8 66 e1 ff ff       	callq  409690 <_ZNSsD1Ev@plt>
  40b52a:	48 89 ef             	mov    %rbp,%rdi
  40b52d:	e8 ee e1 ff ff       	callq  409720 <_Unwind_Resume@plt>
  40b532:	48 89 c5             	mov    %rax,%rbp
  40b535:	48 8d 7b 28          	lea    0x28(%rbx),%rdi
  40b539:	e8 72 fd ff ff       	callq  40b2b0 <_ZN5boost9function1IvRKN3ros25SingleSubscriberPublisherEED1Ev>
  40b53e:	eb c7                	jmp    40b507 <_ZN3ros16AdvertiseOptionsD1Ev+0x1d7>
  40b540:	8b 50 f8             	mov    -0x8(%rax),%edx
  40b543:	8d 4a ff             	lea    -0x1(%rdx),%ecx
  40b546:	89 48 f8             	mov    %ecx,-0x8(%rax)
  40b549:	eb a2                	jmp    40b4ed <_ZN3ros16AdvertiseOptionsD1Ev+0x1bd>
  40b54b:	48 8d 7b 48          	lea    0x48(%rbx),%rdi
  40b54f:	48 89 c5             	mov    %rax,%rbp
  40b552:	e8 59 fd ff ff       	callq  40b2b0 <_ZN5boost9function1IvRKN3ros25SingleSubscriberPublisherEED1Ev>
  40b557:	eb dc                	jmp    40b535 <_ZN3ros16AdvertiseOptionsD1Ev+0x205>
  40b559:	8b 50 f8             	mov    -0x8(%rax),%edx
  40b55c:	8d 4a ff             	lea    -0x1(%rdx),%ecx
  40b55f:	89 48 f8             	mov    %ecx,-0x8(%rax)
  40b562:	e9 03 ff ff ff       	jmpq   40b46a <_ZN3ros16AdvertiseOptionsD1Ev+0x13a>
  40b567:	8b 50 f8             	mov    -0x8(%rax),%edx
  40b56a:	8d 4a ff             	lea    -0x1(%rdx),%ecx
  40b56d:	89 48 f8             	mov    %ecx,-0x8(%rax)
  40b570:	e9 22 ff ff ff       	jmpq   40b497 <_ZN3ros16AdvertiseOptionsD1Ev+0x167>
  40b575:	8b 50 f8             	mov    -0x8(%rax),%edx
  40b578:	8d 4a ff             	lea    -0x1(%rdx),%ecx
  40b57b:	89 48 f8             	mov    %ecx,-0x8(%rax)
  40b57e:	e9 41 ff ff ff       	jmpq   40b4c4 <_ZN3ros16AdvertiseOptionsD1Ev+0x194>
  40b583:	90                   	nop
  40b584:	90                   	nop
  40b585:	90                   	nop
  40b586:	90                   	nop
  40b587:	90                   	nop
  40b588:	90                   	nop
  40b589:	90                   	nop
  40b58a:	90                   	nop
  40b58b:	90                   	nop
  40b58c:	90                   	nop
  40b58d:	90                   	nop
  40b58e:	90                   	nop
  40b58f:	90                   	nop

000000000040b590 <_ZN3ros10NodeHandle9advertiseIN11sensor_msgs16CompressedImage_ISaIvEEEEENS_9PublisherERKSsjb>:
  40b590:	41 57                	push   %r15
  40b592:	49 89 f7             	mov    %rsi,%r15
  40b595:	48 89 d6             	mov    %rdx,%rsi
  40b598:	41 56                	push   %r14
  40b59a:	45 89 c6             	mov    %r8d,%r14d
  40b59d:	41 55                	push   %r13
  40b59f:	41 89 cd             	mov    %ecx,%r13d
  40b5a2:	41 54                	push   %r12
  40b5a4:	55                   	push   %rbp
  40b5a5:	48 89 fd             	mov    %rdi,%rbp
  40b5a8:	53                   	push   %rbx
  40b5a9:	48 81 ec 78 01 00 00 	sub    $0x178,%rsp
  40b5b0:	48 8d 7c 24 10       	lea    0x10(%rsp),%rdi
  40b5b5:	48 c7 44 24 10 18 77 	movq   $0x617718,0x10(%rsp)
  40b5bc:	61 00 
  40b5be:	48 c7 44 24 20 18 77 	movq   $0x617718,0x20(%rsp)
  40b5c5:	61 00 
  40b5c7:	48 c7 44 24 28 18 77 	movq   $0x617718,0x28(%rsp)
  40b5ce:	61 00 
  40b5d0:	48 c7 44 24 30 18 77 	movq   $0x617718,0x30(%rsp)
  40b5d7:	61 00 
  40b5d9:	4c 8d a4 24 a0 00 00 	lea    0xa0(%rsp),%r12
  40b5e0:	00 
  40b5e1:	48 c7 44 24 38 00 00 	movq   $0x0,0x38(%rsp)
  40b5e8:	00 00 
  40b5ea:	48 c7 44 24 58 00 00 	movq   $0x0,0x58(%rsp)
  40b5f1:	00 00 
  40b5f3:	48 8d 9c 24 c0 00 00 	lea    0xc0(%rsp),%rbx
  40b5fa:	00 
  40b5fb:	48 c7 44 24 78 00 00 	movq   $0x0,0x78(%rsp)
  40b602:	00 00 
  40b604:	48 c7 84 24 80 00 00 	movq   $0x0,0x80(%rsp)
  40b60b:	00 00 00 00 00 
  40b610:	48 c7 84 24 88 00 00 	movq   $0x0,0x88(%rsp)
  40b617:	00 00 00 00 00 
  40b61c:	c6 84 24 90 00 00 00 	movb   $0x0,0x90(%rsp)
  40b623:	00 
  40b624:	48 c7 84 24 c0 00 00 	movq   $0x0,0xc0(%rsp)
  40b62b:	00 00 00 00 00 
  40b630:	48 c7 84 24 a0 00 00 	movq   $0x0,0xa0(%rsp)
  40b637:	00 00 00 00 00 
  40b63c:	e8 9f df ff ff       	callq  4095e0 <_ZNSs6assignERKSs@plt>
  40b641:	48 8b 84 24 a0 00 00 	mov    0xa0(%rsp),%rax
  40b648:	00 
  40b649:	44 89 6c 24 18       	mov    %r13d,0x18(%rsp)
  40b64e:	4c 8d a4 24 a0 00 00 	lea    0xa0(%rsp),%r12
  40b655:	00 
  40b656:	48 c7 84 24 00 01 00 	movq   $0x0,0x100(%rsp)
  40b65d:	00 00 00 00 00 
  40b662:	48 85 c0             	test   %rax,%rax
  40b665:	0f 84 9d 08 00 00    	je     40bf08 <_ZN3ros10NodeHandle9advertiseIN11sensor_msgs16CompressedImage_ISaIvEEEEENS_9PublisherERKSsjb+0x978>
  40b66b:	a8 01                	test   $0x1,%al
  40b66d:	48 89 84 24 00 01 00 	mov    %rax,0x100(%rsp)
  40b674:	00 
  40b675:	0f 84 95 06 00 00    	je     40bd10 <_ZN3ros10NodeHandle9advertiseIN11sensor_msgs16CompressedImage_ISaIvEEEEENS_9PublisherERKSsjb+0x780>
  40b67b:	48 8b 94 24 a8 00 00 	mov    0xa8(%rsp),%rdx
  40b682:	00 
  40b683:	48 89 94 24 08 01 00 	mov    %rdx,0x108(%rsp)
  40b68a:	00 
  40b68b:	48 8b 94 24 b0 00 00 	mov    0xb0(%rsp),%rdx
  40b692:	00 
  40b693:	48 89 94 24 10 01 00 	mov    %rdx,0x110(%rsp)
  40b69a:	00 
  40b69b:	48 8b 94 24 b8 00 00 	mov    0xb8(%rsp),%rdx
  40b6a2:	00 
  40b6a3:	48 89 94 24 18 01 00 	mov    %rdx,0x118(%rsp)
  40b6aa:	00 
  40b6ab:	a8 01                	test   $0x1,%al
  40b6ad:	48 89 84 24 e0 00 00 	mov    %rax,0xe0(%rsp)
  40b6b4:	00 
  40b6b5:	0f 84 2d 06 00 00    	je     40bce8 <_ZN3ros10NodeHandle9advertiseIN11sensor_msgs16CompressedImage_ISaIvEEEEENS_9PublisherERKSsjb+0x758>
  40b6bb:	48 8b 84 24 08 01 00 	mov    0x108(%rsp),%rax
  40b6c2:	00 
  40b6c3:	48 8d 9c 24 e0 00 00 	lea    0xe0(%rsp),%rbx
  40b6ca:	00 
  40b6cb:	48 89 84 24 e8 00 00 	mov    %rax,0xe8(%rsp)
  40b6d2:	00 
  40b6d3:	48 8b 84 24 10 01 00 	mov    0x110(%rsp),%rax
  40b6da:	00 
  40b6db:	48 89 84 24 f0 00 00 	mov    %rax,0xf0(%rsp)
  40b6e2:	00 
  40b6e3:	48 8b 84 24 18 01 00 	mov    0x118(%rsp),%rax
  40b6ea:	00 
  40b6eb:	48 89 84 24 f8 00 00 	mov    %rax,0xf8(%rsp)
  40b6f2:	00 
  40b6f3:	48 8b 44 24 38       	mov    0x38(%rsp),%rax
  40b6f8:	48 c7 84 24 00 01 00 	movq   $0x0,0x100(%rsp)
  40b6ff:	00 00 00 00 00 
  40b704:	48 85 c0             	test   %rax,%rax
  40b707:	0f 84 63 06 00 00    	je     40bd70 <_ZN3ros10NodeHandle9advertiseIN11sensor_msgs16CompressedImage_ISaIvEEEEENS_9PublisherERKSsjb+0x7e0>
  40b70d:	a8 01                	test   $0x1,%al
  40b70f:	48 89 84 24 00 01 00 	mov    %rax,0x100(%rsp)
  40b716:	00 
  40b717:	0f 84 93 07 00 00    	je     40beb0 <_ZN3ros10NodeHandle9advertiseIN11sensor_msgs16CompressedImage_ISaIvEEEEENS_9PublisherERKSsjb+0x920>
  40b71d:	48 8b 44 24 40       	mov    0x40(%rsp),%rax
  40b722:	48 89 84 24 08 01 00 	mov    %rax,0x108(%rsp)
  40b729:	00 
  40b72a:	48 8b 44 24 48       	mov    0x48(%rsp),%rax
  40b72f:	48 89 84 24 10 01 00 	mov    %rax,0x110(%rsp)
  40b736:	00 
  40b737:	48 8b 44 24 50       	mov    0x50(%rsp),%rax
  40b73c:	48 89 84 24 18 01 00 	mov    %rax,0x118(%rsp)
  40b743:	00 
  40b744:	48 c7 44 24 38 00 00 	movq   $0x0,0x38(%rsp)
  40b74b:	00 00 
  40b74d:	48 8b 84 24 e0 00 00 	mov    0xe0(%rsp),%rax
  40b754:	00 
  40b755:	48 85 c0             	test   %rax,%rax
  40b758:	0f 84 6a 06 00 00    	je     40bdc8 <_ZN3ros10NodeHandle9advertiseIN11sensor_msgs16CompressedImage_ISaIvEEEEENS_9PublisherERKSsjb+0x838>
  40b75e:	a8 01                	test   $0x1,%al
  40b760:	48 89 44 24 38       	mov    %rax,0x38(%rsp)
  40b765:	0f 84 25 07 00 00    	je     40be90 <_ZN3ros10NodeHandle9advertiseIN11sensor_msgs16CompressedImage_ISaIvEEEEENS_9PublisherERKSsjb+0x900>
  40b76b:	48 8b 84 24 e8 00 00 	mov    0xe8(%rsp),%rax
  40b772:	00 
  40b773:	48 89 44 24 40       	mov    %rax,0x40(%rsp)
  40b778:	48 8b 84 24 f0 00 00 	mov    0xf0(%rsp),%rax
  40b77f:	00 
  40b780:	48 89 44 24 48       	mov    %rax,0x48(%rsp)
  40b785:	48 8b 84 24 f8 00 00 	mov    0xf8(%rsp),%rax
  40b78c:	00 
  40b78d:	48 89 44 24 50       	mov    %rax,0x50(%rsp)
  40b792:	48 c7 84 24 e0 00 00 	movq   $0x0,0xe0(%rsp)
  40b799:	00 00 00 00 00 
  40b79e:	48 8b 84 24 00 01 00 	mov    0x100(%rsp),%rax
  40b7a5:	00 
  40b7a6:	48 85 c0             	test   %rax,%rax
  40b7a9:	74 14                	je     40b7bf <_ZN3ros10NodeHandle9advertiseIN11sensor_msgs16CompressedImage_ISaIvEEEEENS_9PublisherERKSsjb+0x22f>
  40b7ab:	a8 01                	test   $0x1,%al
  40b7ad:	0f 84 ad 03 00 00    	je     40bb60 <_ZN3ros10NodeHandle9advertiseIN11sensor_msgs16CompressedImage_ISaIvEEEEENS_9PublisherERKSsjb+0x5d0>
  40b7b3:	48 c7 84 24 00 01 00 	movq   $0x0,0x100(%rsp)
  40b7ba:	00 00 00 00 00 
  40b7bf:	48 8b 84 24 c0 00 00 	mov    0xc0(%rsp),%rax
  40b7c6:	00 
  40b7c7:	48 c7 84 24 40 01 00 	movq   $0x0,0x140(%rsp)
  40b7ce:	00 00 00 00 00 
  40b7d3:	48 8d 9c 24 c0 00 00 	lea    0xc0(%rsp),%rbx
  40b7da:	00 
  40b7db:	48 85 c0             	test   %rax,%rax
  40b7de:	0f 84 44 07 00 00    	je     40bf28 <_ZN3ros10NodeHandle9advertiseIN11sensor_msgs16CompressedImage_ISaIvEEEEENS_9PublisherERKSsjb+0x998>
  40b7e4:	a8 01                	test   $0x1,%al
  40b7e6:	48 89 84 24 40 01 00 	mov    %rax,0x140(%rsp)
  40b7ed:	00 
  40b7ee:	0f 84 cc 03 00 00    	je     40bbc0 <_ZN3ros10NodeHandle9advertiseIN11sensor_msgs16CompressedImage_ISaIvEEEEENS_9PublisherERKSsjb+0x630>
  40b7f4:	48 8b 94 24 c8 00 00 	mov    0xc8(%rsp),%rdx
  40b7fb:	00 
  40b7fc:	48 89 94 24 48 01 00 	mov    %rdx,0x148(%rsp)
  40b803:	00 
  40b804:	48 8b 94 24 d0 00 00 	mov    0xd0(%rsp),%rdx
  40b80b:	00 
  40b80c:	48 89 94 24 50 01 00 	mov    %rdx,0x150(%rsp)
  40b813:	00 
  40b814:	48 8b 94 24 d8 00 00 	mov    0xd8(%rsp),%rdx
  40b81b:	00 
  40b81c:	48 89 94 24 58 01 00 	mov    %rdx,0x158(%rsp)
  40b823:	00 
  40b824:	a8 01                	test   $0x1,%al
  40b826:	48 89 84 24 20 01 00 	mov    %rax,0x120(%rsp)
  40b82d:	00 
  40b82e:	0f 84 5c 03 00 00    	je     40bb90 <_ZN3ros10NodeHandle9advertiseIN11sensor_msgs16CompressedImage_ISaIvEEEEENS_9PublisherERKSsjb+0x600>
  40b834:	48 8b 84 24 48 01 00 	mov    0x148(%rsp),%rax
  40b83b:	00 
  40b83c:	4c 8d ac 24 20 01 00 	lea    0x120(%rsp),%r13
  40b843:	00 
  40b844:	48 89 84 24 28 01 00 	mov    %rax,0x128(%rsp)
  40b84b:	00 
  40b84c:	48 8b 84 24 50 01 00 	mov    0x150(%rsp),%rax
  40b853:	00 
  40b854:	48 89 84 24 30 01 00 	mov    %rax,0x130(%rsp)
  40b85b:	00 
  40b85c:	48 8b 84 24 58 01 00 	mov    0x158(%rsp),%rax
  40b863:	00 
  40b864:	48 89 84 24 38 01 00 	mov    %rax,0x138(%rsp)
  40b86b:	00 
  40b86c:	48 8b 44 24 58       	mov    0x58(%rsp),%rax
  40b871:	48 c7 84 24 40 01 00 	movq   $0x0,0x140(%rsp)
  40b878:	00 00 00 00 00 
  40b87d:	48 85 c0             	test   %rax,%rax
  40b880:	0f 84 8a 03 00 00    	je     40bc10 <_ZN3ros10NodeHandle9advertiseIN11sensor_msgs16CompressedImage_ISaIvEEEEENS_9PublisherERKSsjb+0x680>
  40b886:	a8 01                	test   $0x1,%al
  40b888:	48 89 84 24 40 01 00 	mov    %rax,0x140(%rsp)
  40b88f:	00 
  40b890:	0f 84 ca 05 00 00    	je     40be60 <_ZN3ros10NodeHandle9advertiseIN11sensor_msgs16CompressedImage_ISaIvEEEEENS_9PublisherERKSsjb+0x8d0>
  40b896:	48 8b 44 24 60       	mov    0x60(%rsp),%rax
  40b89b:	48 89 84 24 48 01 00 	mov    %rax,0x148(%rsp)
  40b8a2:	00 
  40b8a3:	48 8b 44 24 68       	mov    0x68(%rsp),%rax
  40b8a8:	48 89 84 24 50 01 00 	mov    %rax,0x150(%rsp)
  40b8af:	00 
  40b8b0:	48 8b 44 24 70       	mov    0x70(%rsp),%rax
  40b8b5:	48 89 84 24 58 01 00 	mov    %rax,0x158(%rsp)
  40b8bc:	00 
  40b8bd:	48 c7 44 24 58 00 00 	movq   $0x0,0x58(%rsp)
  40b8c4:	00 00 
  40b8c6:	48 8b 84 24 20 01 00 	mov    0x120(%rsp),%rax
  40b8cd:	00 
  40b8ce:	48 85 c0             	test   %rax,%rax
  40b8d1:	0f 84 99 03 00 00    	je     40bc70 <_ZN3ros10NodeHandle9advertiseIN11sensor_msgs16CompressedImage_ISaIvEEEEENS_9PublisherERKSsjb+0x6e0>
  40b8d7:	a8 01                	test   $0x1,%al
  40b8d9:	48 89 44 24 58       	mov    %rax,0x58(%rsp)
  40b8de:	0f 84 5c 05 00 00    	je     40be40 <_ZN3ros10NodeHandle9advertiseIN11sensor_msgs16CompressedImage_ISaIvEEEEENS_9PublisherERKSsjb+0x8b0>
  40b8e4:	48 8b 84 24 28 01 00 	mov    0x128(%rsp),%rax
  40b8eb:	00 
  40b8ec:	48 89 44 24 60       	mov    %rax,0x60(%rsp)
  40b8f1:	48 8b 84 24 30 01 00 	mov    0x130(%rsp),%rax
  40b8f8:	00 
  40b8f9:	48 89 44 24 68       	mov    %rax,0x68(%rsp)
  40b8fe:	48 8b 84 24 38 01 00 	mov    0x138(%rsp),%rax
  40b905:	00 
  40b906:	48 89 44 24 70       	mov    %rax,0x70(%rsp)
  40b90b:	48 c7 84 24 20 01 00 	movq   $0x0,0x120(%rsp)
  40b912:	00 00 00 00 00 
  40b917:	48 8b 84 24 40 01 00 	mov    0x140(%rsp),%rax
  40b91e:	00 
  40b91f:	48 85 c0             	test   %rax,%rax
  40b922:	74 14                	je     40b938 <_ZN3ros10NodeHandle9advertiseIN11sensor_msgs16CompressedImage_ISaIvEEEEENS_9PublisherERKSsjb+0x3a8>
  40b924:	a8 01                	test   $0x1,%al
  40b926:	0f 84 0c 02 00 00    	je     40bb38 <_ZN3ros10NodeHandle9advertiseIN11sensor_msgs16CompressedImage_ISaIvEEEEENS_9PublisherERKSsjb+0x5a8>
  40b92c:	48 c7 84 24 40 01 00 	movq   $0x0,0x140(%rsp)
  40b933:	00 00 00 00 00 
  40b938:	48 8d 7c 24 20       	lea    0x20(%rsp),%rdi
  40b93d:	ba 20 00 00 00       	mov    $0x20,%edx
  40b942:	be 98 25 41 00       	mov    $0x412598,%esi
  40b947:	e8 44 dc ff ff       	callq  409590 <_ZNSs6assignEPKcm@plt>
  40b94c:	48 8d 7c 24 28       	lea    0x28(%rsp),%rdi
  40b951:	ba 1b 00 00 00       	mov    $0x1b,%edx
  40b956:	be a1 2d 41 00       	mov    $0x412da1,%esi
  40b95b:	e8 30 dc ff ff       	callq  409590 <_ZNSs6assignEPKcm@plt>
  40b960:	48 8d 7c 24 30       	lea    0x30(%rsp),%rdi
  40b965:	ba dd 04 00 00       	mov    $0x4dd,%edx
  40b96a:	be c0 25 41 00       	mov    $0x4125c0,%esi
  40b96f:	e8 1c dc ff ff       	callq  409590 <_ZNSs6assignEPKcm@plt>
  40b974:	48 8b 84 24 a0 00 00 	mov    0xa0(%rsp),%rax
  40b97b:	00 
  40b97c:	c6 84 24 91 00 00 00 	movb   $0x1,0x91(%rsp)
  40b983:	01 
  40b984:	48 85 c0             	test   %rax,%rax
  40b987:	74 14                	je     40b99d <_ZN3ros10NodeHandle9advertiseIN11sensor_msgs16CompressedImage_ISaIvEEEEENS_9PublisherERKSsjb+0x40d>
  40b989:	a8 01                	test   $0x1,%al
  40b98b:	0f 84 7f 01 00 00    	je     40bb10 <_ZN3ros10NodeHandle9advertiseIN11sensor_msgs16CompressedImage_ISaIvEEEEENS_9PublisherERKSsjb+0x580>
  40b991:	48 c7 84 24 a0 00 00 	movq   $0x0,0xa0(%rsp)
  40b998:	00 00 00 00 00 
  40b99d:	48 8b 84 24 c0 00 00 	mov    0xc0(%rsp),%rax
  40b9a4:	00 
  40b9a5:	48 85 c0             	test   %rax,%rax
  40b9a8:	74 14                	je     40b9be <_ZN3ros10NodeHandle9advertiseIN11sensor_msgs16CompressedImage_ISaIvEEEEENS_9PublisherERKSsjb+0x42e>
  40b9aa:	a8 01                	test   $0x1,%al
  40b9ac:	0f 84 36 01 00 00    	je     40bae8 <_ZN3ros10NodeHandle9advertiseIN11sensor_msgs16CompressedImage_ISaIvEEEEENS_9PublisherERKSsjb+0x558>
  40b9b2:	48 c7 84 24 c0 00 00 	movq   $0x0,0xc0(%rsp)
  40b9b9:	00 00 00 00 00 
  40b9be:	48 8d 54 24 10       	lea    0x10(%rsp),%rdx
  40b9c3:	4c 89 fe             	mov    %r15,%rsi
  40b9c6:	48 89 ef             	mov    %rbp,%rdi
  40b9c9:	44 88 b4 24 90 00 00 	mov    %r14b,0x90(%rsp)
  40b9d0:	00 
  40b9d1:	e8 6a dd ff ff       	callq  409740 <_ZN3ros10NodeHandle9advertiseERNS_16AdvertiseOptionsE@plt>
  40b9d6:	48 8b 9c 24 88 00 00 	mov    0x88(%rsp),%rbx
  40b9dd:	00 
  40b9de:	48 85 db             	test   %rbx,%rbx
  40b9e1:	74 13                	je     40b9f6 <_ZN3ros10NodeHandle9advertiseIN11sensor_msgs16CompressedImage_ISaIvEEEEENS_9PublisherERKSsjb+0x466>
  40b9e3:	b8 ff ff ff ff       	mov    $0xffffffff,%eax
  40b9e8:	f0 0f c1 43 08       	lock xadd %eax,0x8(%rbx)
  40b9ed:	83 f8 01             	cmp    $0x1,%eax
  40b9f0:	0f 84 e2 04 00 00    	je     40bed8 <_ZN3ros10NodeHandle9advertiseIN11sensor_msgs16CompressedImage_ISaIvEEEEENS_9PublisherERKSsjb+0x948>
  40b9f6:	48 8b 44 24 58       	mov    0x58(%rsp),%rax
  40b9fb:	48 85 c0             	test   %rax,%rax
  40b9fe:	74 11                	je     40ba11 <_ZN3ros10NodeHandle9advertiseIN11sensor_msgs16CompressedImage_ISaIvEEEEENS_9PublisherERKSsjb+0x481>
  40ba00:	a8 01                	test   $0x1,%al
  40ba02:	0f 84 b8 00 00 00    	je     40bac0 <_ZN3ros10NodeHandle9advertiseIN11sensor_msgs16CompressedImage_ISaIvEEEEENS_9PublisherERKSsjb+0x530>
  40ba08:	48 c7 44 24 58 00 00 	movq   $0x0,0x58(%rsp)
  40ba0f:	00 00 
  40ba11:	48 8b 44 24 38       	mov    0x38(%rsp),%rax
  40ba16:	48 85 c0             	test   %rax,%rax
  40ba19:	74 0d                	je     40ba28 <_ZN3ros10NodeHandle9advertiseIN11sensor_msgs16CompressedImage_ISaIvEEEEENS_9PublisherERKSsjb+0x498>
  40ba1b:	a8 01                	test   $0x1,%al
  40ba1d:	74 79                	je     40ba98 <_ZN3ros10NodeHandle9advertiseIN11sensor_msgs16CompressedImage_ISaIvEEEEENS_9PublisherERKSsjb+0x508>
  40ba1f:	48 c7 44 24 38 00 00 	movq   $0x0,0x38(%rsp)
  40ba26:	00 00 
  40ba28:	48 8b 44 24 30       	mov    0x30(%rsp),%rax
  40ba2d:	48 8d 78 e8          	lea    -0x18(%rax),%rdi
  40ba31:	48 81 ff 00 77 61 00 	cmp    $0x617700,%rdi
  40ba38:	0f 85 33 05 00 00    	jne    40bf71 <_ZN3ros10NodeHandle9advertiseIN11sensor_msgs16CompressedImage_ISaIvEEEEENS_9PublisherERKSsjb+0x9e1>
  40ba3e:	48 8b 44 24 28       	mov    0x28(%rsp),%rax
  40ba43:	48 8d 78 e8          	lea    -0x18(%rax),%rdi
  40ba47:	48 81 ff 00 77 61 00 	cmp    $0x617700,%rdi
  40ba4e:	0f 85 ed 04 00 00    	jne    40bf41 <_ZN3ros10NodeHandle9advertiseIN11sensor_msgs16CompressedImage_ISaIvEEEEENS_9PublisherERKSsjb+0x9b1>
  40ba54:	48 8b 44 24 20       	mov    0x20(%rsp),%rax
  40ba59:	48 8d 78 e8          	lea    -0x18(%rax),%rdi
  40ba5d:	48 81 ff 00 77 61 00 	cmp    $0x617700,%rdi
  40ba64:	0f 85 37 05 00 00    	jne    40bfa1 <_ZN3ros10NodeHandle9advertiseIN11sensor_msgs16CompressedImage_ISaIvEEEEENS_9PublisherERKSsjb+0xa11>
  40ba6a:	48 8b 44 24 10       	mov    0x10(%rsp),%rax
  40ba6f:	48 8d 78 e8          	lea    -0x18(%rax),%rdi
  40ba73:	48 81 ff 00 77 61 00 	cmp    $0x617700,%rdi
  40ba7a:	0f 85 51 05 00 00    	jne    40bfd1 <_ZN3ros10NodeHandle9advertiseIN11sensor_msgs16CompressedImage_ISaIvEEEEENS_9PublisherERKSsjb+0xa41>
  40ba80:	48 81 c4 78 01 00 00 	add    $0x178,%rsp
  40ba87:	48 89 e8             	mov    %rbp,%rax
  40ba8a:	5b                   	pop    %rbx
  40ba8b:	5d                   	pop    %rbp
  40ba8c:	41 5c                	pop    %r12
  40ba8e:	41 5d                	pop    %r13
  40ba90:	41 5e                	pop    %r14
  40ba92:	41 5f                	pop    %r15
  40ba94:	c3                   	retq   
  40ba95:	0f 1f 00             	nopl   (%rax)
  40ba98:	48 83 e0 fe          	and    $0xfffffffffffffffe,%rax
  40ba9c:	48 8b 00             	mov    (%rax),%rax
  40ba9f:	48 85 c0             	test   %rax,%rax
  40baa2:	0f 84 77 ff ff ff    	je     40ba1f <_ZN3ros10NodeHandle9advertiseIN11sensor_msgs16CompressedImage_ISaIvEEEEENS_9PublisherERKSsjb+0x48f>
  40baa8:	48 8d 7c 24 40       	lea    0x40(%rsp),%rdi
  40baad:	ba 02 00 00 00       	mov    $0x2,%edx
  40bab2:	48 89 fe             	mov    %rdi,%rsi
  40bab5:	ff d0                	callq  *%rax
  40bab7:	e9 63 ff ff ff       	jmpq   40ba1f <_ZN3ros10NodeHandle9advertiseIN11sensor_msgs16CompressedImage_ISaIvEEEEENS_9PublisherERKSsjb+0x48f>
  40babc:	0f 1f 40 00          	nopl   0x0(%rax)
  40bac0:	48 83 e0 fe          	and    $0xfffffffffffffffe,%rax
  40bac4:	48 8b 00             	mov    (%rax),%rax
  40bac7:	48 85 c0             	test   %rax,%rax
  40baca:	0f 84 38 ff ff ff    	je     40ba08 <_ZN3ros10NodeHandle9advertiseIN11sensor_msgs16CompressedImage_ISaIvEEEEENS_9PublisherERKSsjb+0x478>
  40bad0:	48 8d 7c 24 60       	lea    0x60(%rsp),%rdi
  40bad5:	ba 02 00 00 00       	mov    $0x2,%edx
  40bada:	48 89 fe             	mov    %rdi,%rsi
  40badd:	ff d0                	callq  *%rax
  40badf:	e9 24 ff ff ff       	jmpq   40ba08 <_ZN3ros10NodeHandle9advertiseIN11sensor_msgs16CompressedImage_ISaIvEEEEENS_9PublisherERKSsjb+0x478>
  40bae4:	0f 1f 40 00          	nopl   0x0(%rax)
  40bae8:	48 83 e0 fe          	and    $0xfffffffffffffffe,%rax
  40baec:	48 8b 00             	mov    (%rax),%rax
  40baef:	48 85 c0             	test   %rax,%rax
  40baf2:	0f 84 ba fe ff ff    	je     40b9b2 <_ZN3ros10NodeHandle9advertiseIN11sensor_msgs16CompressedImage_ISaIvEEEEENS_9PublisherERKSsjb+0x422>
  40baf8:	48 8d 7b 08          	lea    0x8(%rbx),%rdi
  40bafc:	ba 02 00 00 00       	mov    $0x2,%edx
  40bb01:	48 89 fe             	mov    %rdi,%rsi
  40bb04:	ff d0                	callq  *%rax
  40bb06:	e9 a7 fe ff ff       	jmpq   40b9b2 <_ZN3ros10NodeHandle9advertiseIN11sensor_msgs16CompressedImage_ISaIvEEEEENS_9PublisherERKSsjb+0x422>
  40bb0b:	0f 1f 44 00 00       	nopl   0x0(%rax,%rax,1)
  40bb10:	48 83 e0 fe          	and    $0xfffffffffffffffe,%rax
  40bb14:	48 8b 00             	mov    (%rax),%rax
  40bb17:	48 85 c0             	test   %rax,%rax
  40bb1a:	0f 84 71 fe ff ff    	je     40b991 <_ZN3ros10NodeHandle9advertiseIN11sensor_msgs16CompressedImage_ISaIvEEEEENS_9PublisherERKSsjb+0x401>
  40bb20:	49 8d 7c 24 08       	lea    0x8(%r12),%rdi
  40bb25:	ba 02 00 00 00       	mov    $0x2,%edx
  40bb2a:	48 89 fe             	mov    %rdi,%rsi
  40bb2d:	ff d0                	callq  *%rax
  40bb2f:	e9 5d fe ff ff       	jmpq   40b991 <_ZN3ros10NodeHandle9advertiseIN11sensor_msgs16CompressedImage_ISaIvEEEEENS_9PublisherERKSsjb+0x401>
  40bb34:	0f 1f 40 00          	nopl   0x0(%rax)
  40bb38:	48 83 e0 fe          	and    $0xfffffffffffffffe,%rax
  40bb3c:	48 8b 00             	mov    (%rax),%rax
  40bb3f:	48 85 c0             	test   %rax,%rax
  40bb42:	0f 84 e4 fd ff ff    	je     40b92c <_ZN3ros10NodeHandle9advertiseIN11sensor_msgs16CompressedImage_ISaIvEEEEENS_9PublisherERKSsjb+0x39c>
  40bb48:	48 8d b4 24 48 01 00 	lea    0x148(%rsp),%rsi
  40bb4f:	00 
  40bb50:	ba 02 00 00 00       	mov    $0x2,%edx
  40bb55:	48 89 f7             	mov    %rsi,%rdi
  40bb58:	ff d0                	callq  *%rax
  40bb5a:	e9 cd fd ff ff       	jmpq   40b92c <_ZN3ros10NodeHandle9advertiseIN11sensor_msgs16CompressedImage_ISaIvEEEEENS_9PublisherERKSsjb+0x39c>
  40bb5f:	90                   	nop
  40bb60:	48 83 e0 fe          	and    $0xfffffffffffffffe,%rax
  40bb64:	48 8b 00             	mov    (%rax),%rax
  40bb67:	48 85 c0             	test   %rax,%rax
  40bb6a:	0f 84 43 fc ff ff    	je     40b7b3 <_ZN3ros10NodeHandle9advertiseIN11sensor_msgs16CompressedImage_ISaIvEEEEENS_9PublisherERKSsjb+0x223>
  40bb70:	48 8d b4 24 08 01 00 	lea    0x108(%rsp),%rsi
  40bb77:	00 
  40bb78:	48 8d 9c 24 c0 00 00 	lea    0xc0(%rsp),%rbx
  40bb7f:	00 
  40bb80:	ba 02 00 00 00       	mov    $0x2,%edx
  40bb85:	48 89 f7             	mov    %rsi,%rdi
  40bb88:	ff d0                	callq  *%rax
  40bb8a:	e9 24 fc ff ff       	jmpq   40b7b3 <_ZN3ros10NodeHandle9advertiseIN11sensor_msgs16CompressedImage_ISaIvEEEEENS_9PublisherERKSsjb+0x223>
  40bb8f:	90                   	nop
  40bb90:	48 8d 94 24 40 01 00 	lea    0x140(%rsp),%rdx
  40bb97:	00 
  40bb98:	4c 8d ac 24 20 01 00 	lea    0x120(%rsp),%r13
  40bb9f:	00 
  40bba0:	48 83 e0 fe          	and    $0xfffffffffffffffe,%rax
  40bba4:	48 89 d7             	mov    %rdx,%rdi
  40bba7:	48 89 54 24 08       	mov    %rdx,0x8(%rsp)
  40bbac:	49 8d 75 08          	lea    0x8(%r13),%rsi
  40bbb0:	48 83 c7 08          	add    $0x8,%rdi
  40bbb4:	ba 01 00 00 00       	mov    $0x1,%edx
  40bbb9:	ff 10                	callq  *(%rax)
  40bbbb:	e9 ac fc ff ff       	jmpq   40b86c <_ZN3ros10NodeHandle9advertiseIN11sensor_msgs16CompressedImage_ISaIvEEEEENS_9PublisherERKSsjb+0x2dc>
  40bbc0:	48 83 e0 fe          	and    $0xfffffffffffffffe,%rax
  40bbc4:	48 8d 7b 08          	lea    0x8(%rbx),%rdi
  40bbc8:	31 d2                	xor    %edx,%edx
  40bbca:	48 8d b4 24 48 01 00 	lea    0x148(%rsp),%rsi
  40bbd1:	00 
  40bbd2:	ff 10                	callq  *(%rax)
  40bbd4:	48 8b 84 24 40 01 00 	mov    0x140(%rsp),%rax
  40bbdb:	00 
  40bbdc:	48 c7 84 24 20 01 00 	movq   $0x0,0x120(%rsp)
  40bbe3:	00 00 00 00 00 
  40bbe8:	48 85 c0             	test   %rax,%rax
  40bbeb:	0f 85 33 fc ff ff    	jne    40b824 <_ZN3ros10NodeHandle9advertiseIN11sensor_msgs16CompressedImage_ISaIvEEEEENS_9PublisherERKSsjb+0x294>
  40bbf1:	4c 8d ac 24 20 01 00 	lea    0x120(%rsp),%r13
  40bbf8:	00 
  40bbf9:	0f 1f 80 00 00 00 00 	nopl   0x0(%rax)
  40bc00:	48 8b 44 24 58       	mov    0x58(%rsp),%rax
  40bc05:	48 85 c0             	test   %rax,%rax
  40bc08:	0f 85 78 fc ff ff    	jne    40b886 <_ZN3ros10NodeHandle9advertiseIN11sensor_msgs16CompressedImage_ISaIvEEEEENS_9PublisherERKSsjb+0x2f6>
  40bc0e:	66 90                	xchg   %ax,%ax
  40bc10:	48 8b 84 24 40 01 00 	mov    0x140(%rsp),%rax
  40bc17:	00 
  40bc18:	48 85 c0             	test   %rax,%rax
  40bc1b:	0f 84 a5 fc ff ff    	je     40b8c6 <_ZN3ros10NodeHandle9advertiseIN11sensor_msgs16CompressedImage_ISaIvEEEEENS_9PublisherERKSsjb+0x336>
  40bc21:	a8 01                	test   $0x1,%al
  40bc23:	75 2a                	jne    40bc4f <_ZN3ros10NodeHandle9advertiseIN11sensor_msgs16CompressedImage_ISaIvEEEEENS_9PublisherERKSsjb+0x6bf>
  40bc25:	48 83 e0 fe          	and    $0xfffffffffffffffe,%rax
  40bc29:	48 8b 00             	mov    (%rax),%rax
  40bc2c:	48 85 c0             	test   %rax,%rax
  40bc2f:	74 1e                	je     40bc4f <_ZN3ros10NodeHandle9advertiseIN11sensor_msgs16CompressedImage_ISaIvEEEEENS_9PublisherERKSsjb+0x6bf>
  40bc31:	48 8d 94 24 40 01 00 	lea    0x140(%rsp),%rdx
  40bc38:	00 
  40bc39:	48 89 d7             	mov    %rdx,%rdi
  40bc3c:	48 89 54 24 08       	mov    %rdx,0x8(%rsp)
  40bc41:	ba 02 00 00 00       	mov    $0x2,%edx
  40bc46:	48 83 c7 08          	add    $0x8,%rdi
  40bc4a:	48 89 fe             	mov    %rdi,%rsi
  40bc4d:	ff d0                	callq  *%rax
  40bc4f:	48 8b 84 24 20 01 00 	mov    0x120(%rsp),%rax
  40bc56:	00 
  40bc57:	48 c7 84 24 40 01 00 	movq   $0x0,0x140(%rsp)
  40bc5e:	00 00 00 00 00 
  40bc63:	48 85 c0             	test   %rax,%rax
  40bc66:	0f 85 6b fc ff ff    	jne    40b8d7 <_ZN3ros10NodeHandle9advertiseIN11sensor_msgs16CompressedImage_ISaIvEEEEENS_9PublisherERKSsjb+0x347>
  40bc6c:	0f 1f 40 00          	nopl   0x0(%rax)
  40bc70:	48 8b 44 24 58       	mov    0x58(%rsp),%rax
  40bc75:	48 85 c0             	test   %rax,%rax
  40bc78:	0f 84 99 fc ff ff    	je     40b917 <_ZN3ros10NodeHandle9advertiseIN11sensor_msgs16CompressedImage_ISaIvEEEEENS_9PublisherERKSsjb+0x387>
  40bc7e:	31 d2                	xor    %edx,%edx
  40bc80:	a8 01                	test   $0x1,%al
  40bc82:	75 20                	jne    40bca4 <_ZN3ros10NodeHandle9advertiseIN11sensor_msgs16CompressedImage_ISaIvEEEEENS_9PublisherERKSsjb+0x714>
  40bc84:	48 83 e0 fe          	and    $0xfffffffffffffffe,%rax
  40bc88:	48 8b 00             	mov    (%rax),%rax
  40bc8b:	48 85 c0             	test   %rax,%rax
  40bc8e:	74 14                	je     40bca4 <_ZN3ros10NodeHandle9advertiseIN11sensor_msgs16CompressedImage_ISaIvEEEEENS_9PublisherERKSsjb+0x714>
  40bc90:	48 8d 7c 24 60       	lea    0x60(%rsp),%rdi
  40bc95:	b2 02                	mov    $0x2,%dl
  40bc97:	48 89 fe             	mov    %rdi,%rsi
  40bc9a:	ff d0                	callq  *%rax
  40bc9c:	48 8b 94 24 20 01 00 	mov    0x120(%rsp),%rdx
  40bca3:	00 
  40bca4:	48 85 d2             	test   %rdx,%rdx
  40bca7:	48 c7 44 24 58 00 00 	movq   $0x0,0x58(%rsp)
  40bcae:	00 00 
  40bcb0:	0f 84 61 fc ff ff    	je     40b917 <_ZN3ros10NodeHandle9advertiseIN11sensor_msgs16CompressedImage_ISaIvEEEEENS_9PublisherERKSsjb+0x387>
  40bcb6:	f6 c2 01             	test   $0x1,%dl
  40bcb9:	0f 85 4c fc ff ff    	jne    40b90b <_ZN3ros10NodeHandle9advertiseIN11sensor_msgs16CompressedImage_ISaIvEEEEENS_9PublisherERKSsjb+0x37b>
  40bcbf:	48 83 e2 fe          	and    $0xfffffffffffffffe,%rdx
  40bcc3:	48 8b 02             	mov    (%rdx),%rax
  40bcc6:	48 85 c0             	test   %rax,%rax
  40bcc9:	0f 84 3c fc ff ff    	je     40b90b <_ZN3ros10NodeHandle9advertiseIN11sensor_msgs16CompressedImage_ISaIvEEEEENS_9PublisherERKSsjb+0x37b>
  40bccf:	49 8d 7d 08          	lea    0x8(%r13),%rdi
  40bcd3:	ba 02 00 00 00       	mov    $0x2,%edx
  40bcd8:	48 89 fe             	mov    %rdi,%rsi
  40bcdb:	ff d0                	callq  *%rax
  40bcdd:	e9 29 fc ff ff       	jmpq   40b90b <_ZN3ros10NodeHandle9advertiseIN11sensor_msgs16CompressedImage_ISaIvEEEEENS_9PublisherERKSsjb+0x37b>
  40bce2:	66 0f 1f 44 00 00    	nopw   0x0(%rax,%rax,1)
  40bce8:	48 8d 9c 24 e0 00 00 	lea    0xe0(%rsp),%rbx
  40bcef:	00 
  40bcf0:	4c 8d ac 24 00 01 00 	lea    0x100(%rsp),%r13
  40bcf7:	00 
  40bcf8:	48 83 e0 fe          	and    $0xfffffffffffffffe,%rax
  40bcfc:	ba 01 00 00 00       	mov    $0x1,%edx
  40bd01:	48 8d 73 08          	lea    0x8(%rbx),%rsi
  40bd05:	49 8d 7d 08          	lea    0x8(%r13),%rdi
  40bd09:	ff 10                	callq  *(%rax)
  40bd0b:	e9 e3 f9 ff ff       	jmpq   40b6f3 <_ZN3ros10NodeHandle9advertiseIN11sensor_msgs16CompressedImage_ISaIvEEEEENS_9PublisherERKSsjb+0x163>
  40bd10:	48 83 e0 fe          	and    $0xfffffffffffffffe,%rax
  40bd14:	49 8d 7c 24 08       	lea    0x8(%r12),%rdi
  40bd19:	48 8d 9c 24 c0 00 00 	lea    0xc0(%rsp),%rbx
  40bd20:	00 
  40bd21:	31 d2                	xor    %edx,%edx
  40bd23:	48 8d b4 24 08 01 00 	lea    0x108(%rsp),%rsi
  40bd2a:	00 
  40bd2b:	ff 10                	callq  *(%rax)
  40bd2d:	48 8b 84 24 00 01 00 	mov    0x100(%rsp),%rax
  40bd34:	00 
  40bd35:	48 c7 84 24 e0 00 00 	movq   $0x0,0xe0(%rsp)
  40bd3c:	00 00 00 00 00 
  40bd41:	48 85 c0             	test   %rax,%rax
  40bd44:	0f 85 61 f9 ff ff    	jne    40b6ab <_ZN3ros10NodeHandle9advertiseIN11sensor_msgs16CompressedImage_ISaIvEEEEENS_9PublisherERKSsjb+0x11b>
  40bd4a:	48 8d 9c 24 e0 00 00 	lea    0xe0(%rsp),%rbx
  40bd51:	00 
  40bd52:	66 0f 1f 44 00 00    	nopw   0x0(%rax,%rax,1)
  40bd58:	48 8b 44 24 38       	mov    0x38(%rsp),%rax
  40bd5d:	48 85 c0             	test   %rax,%rax
  40bd60:	0f 85 a7 f9 ff ff    	jne    40b70d <_ZN3ros10NodeHandle9advertiseIN11sensor_msgs16CompressedImage_ISaIvEEEEENS_9PublisherERKSsjb+0x17d>
  40bd66:	66 2e 0f 1f 84 00 00 	nopw   %cs:0x0(%rax,%rax,1)
  40bd6d:	00 00 00 
  40bd70:	48 8b 84 24 00 01 00 	mov    0x100(%rsp),%rax
  40bd77:	00 
  40bd78:	48 85 c0             	test   %rax,%rax
  40bd7b:	0f 84 cc f9 ff ff    	je     40b74d <_ZN3ros10NodeHandle9advertiseIN11sensor_msgs16CompressedImage_ISaIvEEEEENS_9PublisherERKSsjb+0x1bd>
  40bd81:	a8 01                	test   $0x1,%al
  40bd83:	75 22                	jne    40bda7 <_ZN3ros10NodeHandle9advertiseIN11sensor_msgs16CompressedImage_ISaIvEEEEENS_9PublisherERKSsjb+0x817>
  40bd85:	48 83 e0 fe          	and    $0xfffffffffffffffe,%rax
  40bd89:	48 8b 00             	mov    (%rax),%rax
  40bd8c:	48 85 c0             	test   %rax,%rax
  40bd8f:	74 16                	je     40bda7 <_ZN3ros10NodeHandle9advertiseIN11sensor_msgs16CompressedImage_ISaIvEEEEENS_9PublisherERKSsjb+0x817>
  40bd91:	4c 8d ac 24 00 01 00 	lea    0x100(%rsp),%r13
  40bd98:	00 
  40bd99:	ba 02 00 00 00       	mov    $0x2,%edx
  40bd9e:	49 8d 7d 08          	lea    0x8(%r13),%rdi
  40bda2:	48 89 fe             	mov    %rdi,%rsi
  40bda5:	ff d0                	callq  *%rax
  40bda7:	48 8b 84 24 e0 00 00 	mov    0xe0(%rsp),%rax
  40bdae:	00 
  40bdaf:	48 c7 84 24 00 01 00 	movq   $0x0,0x100(%rsp)
  40bdb6:	00 00 00 00 00 
  40bdbb:	48 85 c0             	test   %rax,%rax
  40bdbe:	0f 85 9a f9 ff ff    	jne    40b75e <_ZN3ros10NodeHandle9advertiseIN11sensor_msgs16CompressedImage_ISaIvEEEEENS_9PublisherERKSsjb+0x1ce>
  40bdc4:	0f 1f 40 00          	nopl   0x0(%rax)
  40bdc8:	48 8b 44 24 38       	mov    0x38(%rsp),%rax
  40bdcd:	48 85 c0             	test   %rax,%rax
  40bdd0:	0f 84 c8 f9 ff ff    	je     40b79e <_ZN3ros10NodeHandle9advertiseIN11sensor_msgs16CompressedImage_ISaIvEEEEENS_9PublisherERKSsjb+0x20e>
  40bdd6:	31 d2                	xor    %edx,%edx
  40bdd8:	a8 01                	test   $0x1,%al
  40bdda:	75 20                	jne    40bdfc <_ZN3ros10NodeHandle9advertiseIN11sensor_msgs16CompressedImage_ISaIvEEEEENS_9PublisherERKSsjb+0x86c>
  40bddc:	48 83 e0 fe          	and    $0xfffffffffffffffe,%rax
  40bde0:	48 8b 00             	mov    (%rax),%rax
  40bde3:	48 85 c0             	test   %rax,%rax
  40bde6:	74 14                	je     40bdfc <_ZN3ros10NodeHandle9advertiseIN11sensor_msgs16CompressedImage_ISaIvEEEEENS_9PublisherERKSsjb+0x86c>
  40bde8:	48 8d 7c 24 40       	lea    0x40(%rsp),%rdi
  40bded:	b2 02                	mov    $0x2,%dl
  40bdef:	48 89 fe             	mov    %rdi,%rsi
  40bdf2:	ff d0                	callq  *%rax
  40bdf4:	48 8b 94 24 e0 00 00 	mov    0xe0(%rsp),%rdx
  40bdfb:	00 
  40bdfc:	48 85 d2             	test   %rdx,%rdx
  40bdff:	48 c7 44 24 38 00 00 	movq   $0x0,0x38(%rsp)
  40be06:	00 00 
  40be08:	0f 84 90 f9 ff ff    	je     40b79e <_ZN3ros10NodeHandle9advertiseIN11sensor_msgs16CompressedImage_ISaIvEEEEENS_9PublisherERKSsjb+0x20e>
  40be0e:	f6 c2 01             	test   $0x1,%dl
  40be11:	0f 85 7b f9 ff ff    	jne    40b792 <_ZN3ros10NodeHandle9advertiseIN11sensor_msgs16CompressedImage_ISaIvEEEEENS_9PublisherERKSsjb+0x202>
  40be17:	48 83 e2 fe          	and    $0xfffffffffffffffe,%rdx
  40be1b:	48 8b 02             	mov    (%rdx),%rax
  40be1e:	48 85 c0             	test   %rax,%rax
  40be21:	0f 84 6b f9 ff ff    	je     40b792 <_ZN3ros10NodeHandle9advertiseIN11sensor_msgs16CompressedImage_ISaIvEEEEENS_9PublisherERKSsjb+0x202>
  40be27:	48 8d 7b 08          	lea    0x8(%rbx),%rdi
  40be2b:	ba 02 00 00 00       	mov    $0x2,%edx
  40be30:	48 89 fe             	mov    %rdi,%rsi
  40be33:	ff d0                	callq  *%rax
  40be35:	e9 58 f9 ff ff       	jmpq   40b792 <_ZN3ros10NodeHandle9advertiseIN11sensor_msgs16CompressedImage_ISaIvEEEEENS_9PublisherERKSsjb+0x202>
  40be3a:	66 0f 1f 44 00 00    	nopw   0x0(%rax,%rax,1)
  40be40:	48 83 e0 fe          	and    $0xfffffffffffffffe,%rax
  40be44:	48 8d 74 24 60       	lea    0x60(%rsp),%rsi
  40be49:	49 8d 7d 08          	lea    0x8(%r13),%rdi
  40be4d:	ba 01 00 00 00       	mov    $0x1,%edx
  40be52:	ff 10                	callq  *(%rax)
  40be54:	e9 b2 fa ff ff       	jmpq   40b90b <_ZN3ros10NodeHandle9advertiseIN11sensor_msgs16CompressedImage_ISaIvEEEEENS_9PublisherERKSsjb+0x37b>
  40be59:	0f 1f 80 00 00 00 00 	nopl   0x0(%rax)
  40be60:	48 8d 94 24 40 01 00 	lea    0x140(%rsp),%rdx
  40be67:	00 
  40be68:	48 83 e0 fe          	and    $0xfffffffffffffffe,%rax
  40be6c:	48 8d 7c 24 60       	lea    0x60(%rsp),%rdi
  40be71:	48 89 d6             	mov    %rdx,%rsi
  40be74:	48 89 54 24 08       	mov    %rdx,0x8(%rsp)
  40be79:	ba 01 00 00 00       	mov    $0x1,%edx
  40be7e:	48 83 c6 08          	add    $0x8,%rsi
  40be82:	ff 10                	callq  *(%rax)
  40be84:	e9 34 fa ff ff       	jmpq   40b8bd <_ZN3ros10NodeHandle9advertiseIN11sensor_msgs16CompressedImage_ISaIvEEEEENS_9PublisherERKSsjb+0x32d>
  40be89:	0f 1f 80 00 00 00 00 	nopl   0x0(%rax)
  40be90:	48 83 e0 fe          	and    $0xfffffffffffffffe,%rax
  40be94:	48 8d 74 24 40       	lea    0x40(%rsp),%rsi
  40be99:	48 8d 7b 08          	lea    0x8(%rbx),%rdi
  40be9d:	ba 01 00 00 00       	mov    $0x1,%edx
  40bea2:	ff 10                	callq  *(%rax)
  40bea4:	e9 e9 f8 ff ff       	jmpq   40b792 <_ZN3ros10NodeHandle9advertiseIN11sensor_msgs16CompressedImage_ISaIvEEEEENS_9PublisherERKSsjb+0x202>
  40bea9:	0f 1f 80 00 00 00 00 	nopl   0x0(%rax)
  40beb0:	4c 8d ac 24 00 01 00 	lea    0x100(%rsp),%r13
  40beb7:	00 
  40beb8:	48 83 e0 fe          	and    $0xfffffffffffffffe,%rax
  40bebc:	48 8d 7c 24 40       	lea    0x40(%rsp),%rdi
  40bec1:	ba 01 00 00 00       	mov    $0x1,%edx
  40bec6:	49 8d 75 08          	lea    0x8(%r13),%rsi
  40beca:	ff 10                	callq  *(%rax)
  40becc:	e9 73 f8 ff ff       	jmpq   40b744 <_ZN3ros10NodeHandle9advertiseIN11sensor_msgs16CompressedImage_ISaIvEEEEENS_9PublisherERKSsjb+0x1b4>
  40bed1:	0f 1f 80 00 00 00 00 	nopl   0x0(%rax)
  40bed8:	48 8b 03             	mov    (%rbx),%rax
  40bedb:	48 89 df             	mov    %rbx,%rdi
  40bede:	ff 50 10             	callq  *0x10(%rax)
  40bee1:	b8 ff ff ff ff       	mov    $0xffffffff,%eax
  40bee6:	f0 0f c1 43 0c       	lock xadd %eax,0xc(%rbx)
  40beeb:	83 f8 01             	cmp    $0x1,%eax
  40beee:	0f 85 02 fb ff ff    	jne    40b9f6 <_ZN3ros10NodeHandle9advertiseIN11sensor_msgs16CompressedImage_ISaIvEEEEENS_9PublisherERKSsjb+0x466>
  40bef4:	48 8b 03             	mov    (%rbx),%rax
  40bef7:	48 89 df             	mov    %rbx,%rdi
  40befa:	ff 50 18             	callq  *0x18(%rax)
  40befd:	e9 f4 fa ff ff       	jmpq   40b9f6 <_ZN3ros10NodeHandle9advertiseIN11sensor_msgs16CompressedImage_ISaIvEEEEENS_9PublisherERKSsjb+0x466>
  40bf02:	66 0f 1f 44 00 00    	nopw   0x0(%rax,%rax,1)
  40bf08:	48 c7 84 24 e0 00 00 	movq   $0x0,0xe0(%rsp)
  40bf0f:	00 00 00 00 00 
  40bf14:	48 8d 9c 24 e0 00 00 	lea    0xe0(%rsp),%rbx
  40bf1b:	00 
  40bf1c:	e9 37 fe ff ff       	jmpq   40bd58 <_ZN3ros10NodeHandle9advertiseIN11sensor_msgs16CompressedImage_ISaIvEEEEENS_9PublisherERKSsjb+0x7c8>
  40bf21:	0f 1f 80 00 00 00 00 	nopl   0x0(%rax)
  40bf28:	48 c7 84 24 20 01 00 	movq   $0x0,0x120(%rsp)
  40bf2f:	00 00 00 00 00 
  40bf34:	4c 8d ac 24 20 01 00 	lea    0x120(%rsp),%r13
  40bf3b:	00 
  40bf3c:	e9 bf fc ff ff       	jmpq   40bc00 <_ZN3ros10NodeHandle9advertiseIN11sensor_msgs16CompressedImage_ISaIvEEEEENS_9PublisherERKSsjb+0x670>
  40bf41:	ba 80 92 40 00       	mov    $0x409280,%edx
  40bf46:	48 85 d2             	test   %rdx,%rdx
  40bf49:	0f 84 8d 02 00 00    	je     40c1dc <_ZN3ros10NodeHandle9advertiseIN11sensor_msgs16CompressedImage_ISaIvEEEEENS_9PublisherERKSsjb+0xc4c>
  40bf4f:	83 ca ff             	or     $0xffffffff,%edx
  40bf52:	f0 0f c1 50 f8       	lock xadd %edx,-0x8(%rax)
  40bf57:	85 d2                	test   %edx,%edx
  40bf59:	0f 8f f5 fa ff ff    	jg     40ba54 <_ZN3ros10NodeHandle9advertiseIN11sensor_msgs16CompressedImage_ISaIvEEEEENS_9PublisherERKSsjb+0x4c4>
  40bf5f:	48 8d b4 24 6d 01 00 	lea    0x16d(%rsp),%rsi
  40bf66:	00 
  40bf67:	e8 24 d5 ff ff       	callq  409490 <_ZNSs4_Rep10_M_destroyERKSaIcE@plt>
  40bf6c:	e9 e3 fa ff ff       	jmpq   40ba54 <_ZN3ros10NodeHandle9advertiseIN11sensor_msgs16CompressedImage_ISaIvEEEEENS_9PublisherERKSsjb+0x4c4>
  40bf71:	ba 80 92 40 00       	mov    $0x409280,%edx
  40bf76:	48 85 d2             	test   %rdx,%rdx
  40bf79:	0f 84 4f 02 00 00    	je     40c1ce <_ZN3ros10NodeHandle9advertiseIN11sensor_msgs16CompressedImage_ISaIvEEEEENS_9PublisherERKSsjb+0xc3e>
  40bf7f:	83 ca ff             	or     $0xffffffff,%edx
  40bf82:	f0 0f c1 50 f8       	lock xadd %edx,-0x8(%rax)
  40bf87:	85 d2                	test   %edx,%edx
  40bf89:	0f 8f af fa ff ff    	jg     40ba3e <_ZN3ros10NodeHandle9advertiseIN11sensor_msgs16CompressedImage_ISaIvEEEEENS_9PublisherERKSsjb+0x4ae>
  40bf8f:	48 8d b4 24 6c 01 00 	lea    0x16c(%rsp),%rsi
  40bf96:	00 
  40bf97:	e8 f4 d4 ff ff       	callq  409490 <_ZNSs4_Rep10_M_destroyERKSaIcE@plt>
  40bf9c:	e9 9d fa ff ff       	jmpq   40ba3e <_ZN3ros10NodeHandle9advertiseIN11sensor_msgs16CompressedImage_ISaIvEEEEENS_9PublisherERKSsjb+0x4ae>
  40bfa1:	ba 80 92 40 00       	mov    $0x409280,%edx
  40bfa6:	48 85 d2             	test   %rdx,%rdx
  40bfa9:	0f 84 3b 02 00 00    	je     40c1ea <_ZN3ros10NodeHandle9advertiseIN11sensor_msgs16CompressedImage_ISaIvEEEEENS_9PublisherERKSsjb+0xc5a>
  40bfaf:	83 ca ff             	or     $0xffffffff,%edx
  40bfb2:	f0 0f c1 50 f8       	lock xadd %edx,-0x8(%rax)
  40bfb7:	85 d2                	test   %edx,%edx
  40bfb9:	0f 8f ab fa ff ff    	jg     40ba6a <_ZN3ros10NodeHandle9advertiseIN11sensor_msgs16CompressedImage_ISaIvEEEEENS_9PublisherERKSsjb+0x4da>
  40bfbf:	48 8d b4 24 6e 01 00 	lea    0x16e(%rsp),%rsi
  40bfc6:	00 
  40bfc7:	e8 c4 d4 ff ff       	callq  409490 <_ZNSs4_Rep10_M_destroyERKSaIcE@plt>
  40bfcc:	e9 99 fa ff ff       	jmpq   40ba6a <_ZN3ros10NodeHandle9advertiseIN11sensor_msgs16CompressedImage_ISaIvEEEEENS_9PublisherERKSsjb+0x4da>
  40bfd1:	ba 80 92 40 00       	mov    $0x409280,%edx
  40bfd6:	48 85 d2             	test   %rdx,%rdx
  40bfd9:	74 3b                	je     40c016 <_ZN3ros10NodeHandle9advertiseIN11sensor_msgs16CompressedImage_ISaIvEEEEENS_9PublisherERKSsjb+0xa86>
  40bfdb:	83 ca ff             	or     $0xffffffff,%edx
  40bfde:	f0 0f c1 50 f8       	lock xadd %edx,-0x8(%rax)
  40bfe3:	85 d2                	test   %edx,%edx
  40bfe5:	0f 8f 95 fa ff ff    	jg     40ba80 <_ZN3ros10NodeHandle9advertiseIN11sensor_msgs16CompressedImage_ISaIvEEEEENS_9PublisherERKSsjb+0x4f0>
  40bfeb:	48 8d b4 24 6f 01 00 	lea    0x16f(%rsp),%rsi
  40bff2:	00 
  40bff3:	e8 98 d4 ff ff       	callq  409490 <_ZNSs4_Rep10_M_destroyERKSaIcE@plt>
  40bff8:	e9 83 fa ff ff       	jmpq   40ba80 <_ZN3ros10NodeHandle9advertiseIN11sensor_msgs16CompressedImage_ISaIvEEEEENS_9PublisherERKSsjb+0x4f0>
  40bffd:	48 89 c7             	mov    %rax,%rdi
  40c000:	e8 6b d3 ff ff       	callq  409370 <__cxa_begin_catch@plt>
  40c005:	48 c7 84 24 e0 00 00 	movq   $0x0,0xe0(%rsp)
  40c00c:	00 00 00 00 00 
  40c011:	e8 2a d6 ff ff       	callq  409640 <__cxa_rethrow@plt>
  40c016:	8b 50 f8             	mov    -0x8(%rax),%edx
  40c019:	8d 4a ff             	lea    -0x1(%rdx),%ecx
  40c01c:	89 48 f8             	mov    %ecx,-0x8(%rax)
  40c01f:	eb c2                	jmp    40bfe3 <_ZN3ros10NodeHandle9advertiseIN11sensor_msgs16CompressedImage_ISaIvEEEEENS_9PublisherERKSsjb+0xa53>
  40c021:	48 89 c5             	mov    %rax,%rbp
  40c024:	e8 97 d6 ff ff       	callq  4096c0 <__cxa_end_catch@plt>
  40c029:	48 89 df             	mov    %rbx,%rdi
  40c02c:	e8 7f f2 ff ff       	callq  40b2b0 <_ZN5boost9function1IvRKN3ros25SingleSubscriberPublisherEED1Ev>
  40c031:	48 8d 9c 24 c0 00 00 	lea    0xc0(%rsp),%rbx
  40c038:	00 
  40c039:	4c 89 ef             	mov    %r13,%rdi
  40c03c:	e8 6f f2 ff ff       	callq  40b2b0 <_ZN5boost9function1IvRKN3ros25SingleSubscriberPublisherEED1Ev>
  40c041:	4c 89 e7             	mov    %r12,%rdi
  40c044:	e8 67 f2 ff ff       	callq  40b2b0 <_ZN5boost9function1IvRKN3ros25SingleSubscriberPublisherEED1Ev>
  40c049:	48 89 df             	mov    %rbx,%rdi
  40c04c:	48 89 eb             	mov    %rbp,%rbx
  40c04f:	e8 5c f2 ff ff       	callq  40b2b0 <_ZN5boost9function1IvRKN3ros25SingleSubscriberPublisherEED1Ev>
  40c054:	48 8d 7c 24 10       	lea    0x10(%rsp),%rdi
  40c059:	e8 d2 f2 ff ff       	callq  40b330 <_ZN3ros16AdvertiseOptionsD1Ev>
  40c05e:	48 89 df             	mov    %rbx,%rdi
  40c061:	e8 ba d6 ff ff       	callq  409720 <_Unwind_Resume@plt>
  40c066:	48 89 c3             	mov    %rax,%rbx
  40c069:	48 8d 7c 24 30       	lea    0x30(%rsp),%rdi
  40c06e:	e8 1d d6 ff ff       	callq  409690 <_ZNSsD1Ev@plt>
  40c073:	48 8d 7c 24 28       	lea    0x28(%rsp),%rdi
  40c078:	e8 13 d6 ff ff       	callq  409690 <_ZNSsD1Ev@plt>
  40c07d:	48 8d 7c 24 20       	lea    0x20(%rsp),%rdi
  40c082:	e8 09 d6 ff ff       	callq  409690 <_ZNSsD1Ev@plt>
  40c087:	48 8d 7c 24 10       	lea    0x10(%rsp),%rdi
  40c08c:	e8 ff d5 ff ff       	callq  409690 <_ZNSsD1Ev@plt>
  40c091:	48 89 df             	mov    %rbx,%rdi
  40c094:	e8 87 d6 ff ff       	callq  409720 <_Unwind_Resume@plt>
  40c099:	48 89 c3             	mov    %rax,%rbx
  40c09c:	48 8d 7c 24 38       	lea    0x38(%rsp),%rdi
  40c0a1:	e8 0a f2 ff ff       	callq  40b2b0 <_ZN5boost9function1IvRKN3ros25SingleSubscriberPublisherEED1Ev>
  40c0a6:	eb c1                	jmp    40c069 <_ZN3ros10NodeHandle9advertiseIN11sensor_msgs16CompressedImage_ISaIvEEEEENS_9PublisherERKSsjb+0xad9>
  40c0a8:	48 89 c5             	mov    %rax,%rbp
  40c0ab:	eb 9c                	jmp    40c049 <_ZN3ros10NodeHandle9advertiseIN11sensor_msgs16CompressedImage_ISaIvEEEEENS_9PublisherERKSsjb+0xab9>
  40c0ad:	48 89 c7             	mov    %rax,%rdi
  40c0b0:	e8 bb d2 ff ff       	callq  409370 <__cxa_begin_catch@plt>
  40c0b5:	48 c7 84 24 20 01 00 	movq   $0x0,0x120(%rsp)
  40c0bc:	00 00 00 00 00 
  40c0c1:	e8 7a d5 ff ff       	callq  409640 <__cxa_rethrow@plt>
  40c0c6:	48 89 c7             	mov    %rax,%rdi
  40c0c9:	e8 a2 d2 ff ff       	callq  409370 <__cxa_begin_catch@plt>
  40c0ce:	48 c7 44 24 58 00 00 	movq   $0x0,0x58(%rsp)
  40c0d5:	00 00 
  40c0d7:	e8 64 d5 ff ff       	callq  409640 <__cxa_rethrow@plt>
  40c0dc:	48 89 c7             	mov    %rax,%rdi
  40c0df:	e8 8c d2 ff ff       	callq  409370 <__cxa_begin_catch@plt>
  40c0e4:	48 c7 84 24 40 01 00 	movq   $0x0,0x140(%rsp)
  40c0eb:	00 00 00 00 00 
  40c0f0:	e8 4b d5 ff ff       	callq  409640 <__cxa_rethrow@plt>
  40c0f5:	48 89 c7             	mov    %rax,%rdi
  40c0f8:	e8 73 d2 ff ff       	callq  409370 <__cxa_begin_catch@plt>
  40c0fd:	48 c7 84 24 00 01 00 	movq   $0x0,0x100(%rsp)
  40c104:	00 00 00 00 00 
  40c109:	e8 32 d5 ff ff       	callq  409640 <__cxa_rethrow@plt>
  40c10e:	48 89 c7             	mov    %rax,%rdi
  40c111:	e8 5a d2 ff ff       	callq  409370 <__cxa_begin_catch@plt>
  40c116:	48 c7 44 24 38 00 00 	movq   $0x0,0x38(%rsp)
  40c11d:	00 00 
  40c11f:	e8 1c d5 ff ff       	callq  409640 <__cxa_rethrow@plt>
  40c124:	48 89 c5             	mov    %rax,%rbp
  40c127:	e8 94 d5 ff ff       	callq  4096c0 <__cxa_end_catch@plt>
  40c12c:	4c 89 ef             	mov    %r13,%rdi
  40c12f:	e8 7c f1 ff ff       	callq  40b2b0 <_ZN5boost9function1IvRKN3ros25SingleSubscriberPublisherEED1Ev>
  40c134:	48 8b 7c 24 08       	mov    0x8(%rsp),%rdi
  40c139:	e8 72 f1 ff ff       	callq  40b2b0 <_ZN5boost9function1IvRKN3ros25SingleSubscriberPublisherEED1Ev>
  40c13e:	e9 fe fe ff ff       	jmpq   40c041 <_ZN3ros10NodeHandle9advertiseIN11sensor_msgs16CompressedImage_ISaIvEEEEENS_9PublisherERKSsjb+0xab1>
  40c143:	48 89 c5             	mov    %rax,%rbp
  40c146:	e8 75 d5 ff ff       	callq  4096c0 <__cxa_end_catch@plt>
  40c14b:	48 8d 84 24 40 01 00 	lea    0x140(%rsp),%rax
  40c152:	00 
  40c153:	48 89 44 24 08       	mov    %rax,0x8(%rsp)
  40c158:	eb d2                	jmp    40c12c <_ZN3ros10NodeHandle9advertiseIN11sensor_msgs16CompressedImage_ISaIvEEEEENS_9PublisherERKSsjb+0xb9c>
  40c15a:	48 89 c5             	mov    %rax,%rbp
  40c15d:	e8 5e d5 ff ff       	callq  4096c0 <__cxa_end_catch@plt>
  40c162:	e9 c2 fe ff ff       	jmpq   40c029 <_ZN3ros10NodeHandle9advertiseIN11sensor_msgs16CompressedImage_ISaIvEEEEENS_9PublisherERKSsjb+0xa99>
  40c167:	48 89 c5             	mov    %rax,%rbp
  40c16a:	e8 51 d5 ff ff       	callq  4096c0 <__cxa_end_catch@plt>
  40c16f:	90                   	nop
  40c170:	eb ba                	jmp    40c12c <_ZN3ros10NodeHandle9advertiseIN11sensor_msgs16CompressedImage_ISaIvEEEEENS_9PublisherERKSsjb+0xb9c>
  40c172:	48 89 c5             	mov    %rax,%rbp
  40c175:	4c 8d ac 24 00 01 00 	lea    0x100(%rsp),%r13
  40c17c:	00 
  40c17d:	e8 3e d5 ff ff       	callq  4096c0 <__cxa_end_catch@plt>
  40c182:	e9 a2 fe ff ff       	jmpq   40c029 <_ZN3ros10NodeHandle9advertiseIN11sensor_msgs16CompressedImage_ISaIvEEEEENS_9PublisherERKSsjb+0xa99>
  40c187:	48 89 c5             	mov    %rax,%rbp
  40c18a:	4c 8d ac 24 00 01 00 	lea    0x100(%rsp),%r13
  40c191:	00 
  40c192:	e9 9a fe ff ff       	jmpq   40c031 <_ZN3ros10NodeHandle9advertiseIN11sensor_msgs16CompressedImage_ISaIvEEEEENS_9PublisherERKSsjb+0xaa1>
  40c197:	48 8d 7c 24 58       	lea    0x58(%rsp),%rdi
  40c19c:	48 89 c3             	mov    %rax,%rbx
  40c19f:	e8 0c f1 ff ff       	callq  40b2b0 <_ZN5boost9function1IvRKN3ros25SingleSubscriberPublisherEED1Ev>
  40c1a4:	e9 f3 fe ff ff       	jmpq   40c09c <_ZN3ros10NodeHandle9advertiseIN11sensor_msgs16CompressedImage_ISaIvEEEEENS_9PublisherERKSsjb+0xb0c>
  40c1a9:	48 89 c5             	mov    %rax,%rbp
  40c1ac:	e9 90 fe ff ff       	jmpq   40c041 <_ZN3ros10NodeHandle9advertiseIN11sensor_msgs16CompressedImage_ISaIvEEEEENS_9PublisherERKSsjb+0xab1>
  40c1b1:	48 89 c3             	mov    %rax,%rbx
  40c1b4:	e9 9b fe ff ff       	jmpq   40c054 <_ZN3ros10NodeHandle9advertiseIN11sensor_msgs16CompressedImage_ISaIvEEEEENS_9PublisherERKSsjb+0xac4>
  40c1b9:	48 8d 94 24 40 01 00 	lea    0x140(%rsp),%rdx
  40c1c0:	00 
  40c1c1:	48 89 c5             	mov    %rax,%rbp
  40c1c4:	48 89 54 24 08       	mov    %rdx,0x8(%rsp)
  40c1c9:	e9 66 ff ff ff       	jmpq   40c134 <_ZN3ros10NodeHandle9advertiseIN11sensor_msgs16CompressedImage_ISaIvEEEEENS_9PublisherERKSsjb+0xba4>
  40c1ce:	8b 50 f8             	mov    -0x8(%rax),%edx
  40c1d1:	8d 4a ff             	lea    -0x1(%rdx),%ecx
  40c1d4:	89 48 f8             	mov    %ecx,-0x8(%rax)
  40c1d7:	e9 ab fd ff ff       	jmpq   40bf87 <_ZN3ros10NodeHandle9advertiseIN11sensor_msgs16CompressedImage_ISaIvEEEEENS_9PublisherERKSsjb+0x9f7>
  40c1dc:	8b 50 f8             	mov    -0x8(%rax),%edx
  40c1df:	8d 4a ff             	lea    -0x1(%rdx),%ecx
  40c1e2:	89 48 f8             	mov    %ecx,-0x8(%rax)
  40c1e5:	e9 6d fd ff ff       	jmpq   40bf57 <_ZN3ros10NodeHandle9advertiseIN11sensor_msgs16CompressedImage_ISaIvEEEEENS_9PublisherERKSsjb+0x9c7>
  40c1ea:	8b 50 f8             	mov    -0x8(%rax),%edx
  40c1ed:	8d 4a ff             	lea    -0x1(%rdx),%ecx
  40c1f0:	89 48 f8             	mov    %ecx,-0x8(%rax)
  40c1f3:	e9 bf fd ff ff       	jmpq   40bfb7 <_ZN3ros10NodeHandle9advertiseIN11sensor_msgs16CompressedImage_ISaIvEEEEENS_9PublisherERKSsjb+0xa27>
  40c1f8:	90                   	nop
  40c1f9:	90                   	nop
  40c1fa:	90                   	nop
  40c1fb:	90                   	nop
  40c1fc:	90                   	nop
  40c1fd:	90                   	nop
  40c1fe:	90                   	nop
  40c1ff:	90                   	nop

000000000040c200 <_ZNSt6vectorIhSaIhEEaSERKS1_>:
  40c200:	48 89 5c 24 e0       	mov    %rbx,-0x20(%rsp)
  40c205:	4c 89 64 24 f0       	mov    %r12,-0x10(%rsp)
  40c20a:	48 89 fb             	mov    %rdi,%rbx
  40c20d:	48 89 6c 24 e8       	mov    %rbp,-0x18(%rsp)
  40c212:	4c 89 6c 24 f8       	mov    %r13,-0x8(%rsp)
  40c217:	48 83 ec 28          	sub    $0x28,%rsp
  40c21b:	48 39 fe             	cmp    %rdi,%rsi
  40c21e:	49 89 f4             	mov    %rsi,%r12
  40c221:	74 4c                	je     40c26f <_ZNSt6vectorIhSaIhEEaSERKS1_+0x6f>
  40c223:	48 8b 4e 08          	mov    0x8(%rsi),%rcx
  40c227:	4c 8b 2e             	mov    (%rsi),%r13
  40c22a:	48 8b 3f             	mov    (%rdi),%rdi
  40c22d:	48 8b 43 10          	mov    0x10(%rbx),%rax
  40c231:	48 89 cd             	mov    %rcx,%rbp
  40c234:	4c 29 ed             	sub    %r13,%rbp
  40c237:	48 29 f8             	sub    %rdi,%rax
  40c23a:	48 39 c5             	cmp    %rax,%rbp
  40c23d:	76 51                	jbe    40c290 <_ZNSt6vectorIhSaIhEEaSERKS1_+0x90>
  40c23f:	48 89 ef             	mov    %rbp,%rdi
  40c242:	e8 d9 d2 ff ff       	callq  409520 <_Znwm@plt>
  40c247:	48 85 ed             	test   %rbp,%rbp
  40c24a:	49 89 c4             	mov    %rax,%r12
  40c24d:	0f 85 bd 00 00 00    	jne    40c310 <_ZNSt6vectorIhSaIhEEaSERKS1_+0x110>
  40c253:	48 8b 3b             	mov    (%rbx),%rdi
  40c256:	48 85 ff             	test   %rdi,%rdi
  40c259:	74 05                	je     40c260 <_ZNSt6vectorIhSaIhEEaSERKS1_+0x60>
  40c25b:	e8 90 d2 ff ff       	callq  4094f0 <_ZdlPv@plt>
  40c260:	49 8d 3c 2c          	lea    (%r12,%rbp,1),%rdi
  40c264:	4c 89 23             	mov    %r12,(%rbx)
  40c267:	48 89 7b 10          	mov    %rdi,0x10(%rbx)
  40c26b:	48 89 7b 08          	mov    %rdi,0x8(%rbx)
  40c26f:	48 89 d8             	mov    %rbx,%rax
  40c272:	48 8b 6c 24 10       	mov    0x10(%rsp),%rbp
  40c277:	48 8b 5c 24 08       	mov    0x8(%rsp),%rbx
  40c27c:	4c 8b 64 24 18       	mov    0x18(%rsp),%r12
  40c281:	4c 8b 6c 24 20       	mov    0x20(%rsp),%r13
  40c286:	48 83 c4 28          	add    $0x28,%rsp
  40c28a:	c3                   	retq   
  40c28b:	0f 1f 44 00 00       	nopl   0x0(%rax,%rax,1)
  40c290:	48 8b 43 08          	mov    0x8(%rbx),%rax
  40c294:	48 89 c6             	mov    %rax,%rsi
  40c297:	48 29 fe             	sub    %rdi,%rsi
  40c29a:	48 39 f5             	cmp    %rsi,%rbp
  40c29d:	77 21                	ja     40c2c0 <_ZNSt6vectorIhSaIhEEaSERKS1_+0xc0>
  40c29f:	48 85 ed             	test   %rbp,%rbp
  40c2a2:	74 c7                	je     40c26b <_ZNSt6vectorIhSaIhEEaSERKS1_+0x6b>
  40c2a4:	48 89 ea             	mov    %rbp,%rdx
  40c2a7:	4c 89 ee             	mov    %r13,%rsi
  40c2aa:	e8 01 d4 ff ff       	callq  4096b0 <memmove@plt>
  40c2af:	48 89 ef             	mov    %rbp,%rdi
  40c2b2:	48 03 3b             	add    (%rbx),%rdi
  40c2b5:	eb b4                	jmp    40c26b <_ZNSt6vectorIhSaIhEEaSERKS1_+0x6b>
  40c2b7:	66 0f 1f 84 00 00 00 	nopw   0x0(%rax,%rax,1)
  40c2be:	00 00 
  40c2c0:	4c 01 ee             	add    %r13,%rsi
  40c2c3:	48 89 f2             	mov    %rsi,%rdx
  40c2c6:	4c 29 ea             	sub    %r13,%rdx
  40c2c9:	75 25                	jne    40c2f0 <_ZNSt6vectorIhSaIhEEaSERKS1_+0xf0>
  40c2cb:	48 29 f1             	sub    %rsi,%rcx
  40c2ce:	75 08                	jne    40c2d8 <_ZNSt6vectorIhSaIhEEaSERKS1_+0xd8>
  40c2d0:	48 01 ef             	add    %rbp,%rdi
  40c2d3:	eb 96                	jmp    40c26b <_ZNSt6vectorIhSaIhEEaSERKS1_+0x6b>
  40c2d5:	0f 1f 00             	nopl   (%rax)
  40c2d8:	48 89 c7             	mov    %rax,%rdi
  40c2db:	48 89 ca             	mov    %rcx,%rdx
  40c2de:	e8 cd d3 ff ff       	callq  4096b0 <memmove@plt>
  40c2e3:	48 8b 3b             	mov    (%rbx),%rdi
  40c2e6:	eb e8                	jmp    40c2d0 <_ZNSt6vectorIhSaIhEEaSERKS1_+0xd0>
  40c2e8:	0f 1f 84 00 00 00 00 	nopl   0x0(%rax,%rax,1)
  40c2ef:	00 
  40c2f0:	4c 89 ee             	mov    %r13,%rsi
  40c2f3:	e8 b8 d3 ff ff       	callq  4096b0 <memmove@plt>
  40c2f8:	48 8b 43 08          	mov    0x8(%rbx),%rax
  40c2fc:	48 8b 3b             	mov    (%rbx),%rdi
  40c2ff:	49 8b 4c 24 08       	mov    0x8(%r12),%rcx
  40c304:	48 89 c6             	mov    %rax,%rsi
  40c307:	48 29 fe             	sub    %rdi,%rsi
  40c30a:	49 03 34 24          	add    (%r12),%rsi
  40c30e:	eb bb                	jmp    40c2cb <_ZNSt6vectorIhSaIhEEaSERKS1_+0xcb>
  40c310:	48 89 ea             	mov    %rbp,%rdx
  40c313:	4c 89 ee             	mov    %r13,%rsi
  40c316:	48 89 c7             	mov    %rax,%rdi
  40c319:	e8 92 d3 ff ff       	callq  4096b0 <memmove@plt>
  40c31e:	e9 30 ff ff ff       	jmpq   40c253 <_ZNSt6vectorIhSaIhEEaSERKS1_+0x53>
  40c323:	90                   	nop
  40c324:	90                   	nop
  40c325:	90                   	nop
  40c326:	90                   	nop
  40c327:	90                   	nop
  40c328:	90                   	nop
  40c329:	90                   	nop
  40c32a:	90                   	nop
  40c32b:	90                   	nop
  40c32c:	90                   	nop
  40c32d:	90                   	nop
  40c32e:	90                   	nop
  40c32f:	90                   	nop

000000000040c330 <_ZN3ros17SerializedMessageD1Ev>:
  40c330:	48 89 6c 24 f8       	mov    %rbp,-0x8(%rsp)
  40c335:	48 89 5c 24 f0       	mov    %rbx,-0x10(%rsp)
  40c33a:	48 83 ec 18          	sub    $0x18,%rsp
  40c33e:	48 8b 5f 28          	mov    0x28(%rdi),%rbx
  40c342:	48 89 fd             	mov    %rdi,%rbp
  40c345:	48 85 db             	test   %rbx,%rbx
  40c348:	74 0f                	je     40c359 <_ZN3ros17SerializedMessageD1Ev+0x29>
  40c34a:	b8 ff ff ff ff       	mov    $0xffffffff,%eax
  40c34f:	f0 0f c1 43 08       	lock xadd %eax,0x8(%rbx)
  40c354:	83 f8 01             	cmp    $0x1,%eax
  40c357:	74 2f                	je     40c388 <_ZN3ros17SerializedMessageD1Ev+0x58>
  40c359:	48 8b 5d 08          	mov    0x8(%rbp),%rbx
  40c35d:	48 85 db             	test   %rbx,%rbx
  40c360:	74 11                	je     40c373 <_ZN3ros17SerializedMessageD1Ev+0x43>
  40c362:	bd ff ff ff ff       	mov    $0xffffffff,%ebp
  40c367:	89 e8                	mov    %ebp,%eax
  40c369:	f0 0f c1 43 08       	lock xadd %eax,0x8(%rbx)
  40c36e:	83 f8 01             	cmp    $0x1,%eax
  40c371:	74 3d                	je     40c3b0 <_ZN3ros17SerializedMessageD1Ev+0x80>
  40c373:	48 8b 5c 24 08       	mov    0x8(%rsp),%rbx
  40c378:	48 8b 6c 24 10       	mov    0x10(%rsp),%rbp
  40c37d:	48 83 c4 18          	add    $0x18,%rsp
  40c381:	c3                   	retq   
  40c382:	66 0f 1f 44 00 00    	nopw   0x0(%rax,%rax,1)
  40c388:	48 8b 03             	mov    (%rbx),%rax
  40c38b:	48 89 df             	mov    %rbx,%rdi
  40c38e:	ff 50 10             	callq  *0x10(%rax)
  40c391:	b8 ff ff ff ff       	mov    $0xffffffff,%eax
  40c396:	f0 0f c1 43 0c       	lock xadd %eax,0xc(%rbx)
  40c39b:	83 f8 01             	cmp    $0x1,%eax
  40c39e:	75 b9                	jne    40c359 <_ZN3ros17SerializedMessageD1Ev+0x29>
  40c3a0:	48 8b 03             	mov    (%rbx),%rax
  40c3a3:	48 89 df             	mov    %rbx,%rdi
  40c3a6:	ff 50 18             	callq  *0x18(%rax)
  40c3a9:	eb ae                	jmp    40c359 <_ZN3ros17SerializedMessageD1Ev+0x29>
  40c3ab:	0f 1f 44 00 00       	nopl   0x0(%rax,%rax,1)
  40c3b0:	48 8b 03             	mov    (%rbx),%rax
  40c3b3:	48 89 df             	mov    %rbx,%rdi
  40c3b6:	ff 50 10             	callq  *0x10(%rax)
  40c3b9:	f0 0f c1 6b 0c       	lock xadd %ebp,0xc(%rbx)
  40c3be:	83 fd 01             	cmp    $0x1,%ebp
  40c3c1:	75 b0                	jne    40c373 <_ZN3ros17SerializedMessageD1Ev+0x43>
  40c3c3:	48 8b 03             	mov    (%rbx),%rax
  40c3c6:	48 89 df             	mov    %rbx,%rdi
  40c3c9:	48 8b 6c 24 10       	mov    0x10(%rsp),%rbp
  40c3ce:	48 8b 5c 24 08       	mov    0x8(%rsp),%rbx
  40c3d3:	48 8b 40 18          	mov    0x18(%rax),%rax
  40c3d7:	48 83 c4 18          	add    $0x18,%rsp
  40c3db:	ff e0                	jmpq   *%rax
  40c3dd:	48 8d 7d 08          	lea    0x8(%rbp),%rdi
  40c3e1:	48 89 c3             	mov    %rax,%rbx
  40c3e4:	e8 07 eb ff ff       	callq  40aef0 <_ZN5boost6detail12shared_countD1Ev>
  40c3e9:	48 89 df             	mov    %rbx,%rdi
  40c3ec:	e8 2f d3 ff ff       	callq  409720 <_Unwind_Resume@plt>
  40c3f1:	90                   	nop
  40c3f2:	90                   	nop
  40c3f3:	90                   	nop
  40c3f4:	90                   	nop
  40c3f5:	90                   	nop
  40c3f6:	90                   	nop
  40c3f7:	90                   	nop
  40c3f8:	90                   	nop
  40c3f9:	90                   	nop
  40c3fa:	90                   	nop
  40c3fb:	90                   	nop
  40c3fc:	90                   	nop
  40c3fd:	90                   	nop
  40c3fe:	90                   	nop
  40c3ff:	90                   	nop

000000000040c400 <_ZN3ros13serialization16serializeMessageIN11sensor_msgs16CompressedImage_ISaIvEEEEENS_17SerializedMessageERKT_>:
  40c400:	41 57                	push   %r15
  40c402:	41 56                	push   %r14
  40c404:	41 55                	push   %r13
  40c406:	41 54                	push   %r12
  40c408:	49 89 fc             	mov    %rdi,%r12
  40c40b:	55                   	push   %rbp
  40c40c:	48 89 f5             	mov    %rsi,%rbp
  40c40f:	53                   	push   %rbx
  40c410:	48 83 ec 18          	sub    $0x18,%rsp
  40c414:	48 c7 07 00 00 00 00 	movq   $0x0,(%rdi)
  40c41b:	48 c7 47 08 00 00 00 	movq   $0x0,0x8(%rdi)
  40c422:	00 
  40c423:	bf 20 00 00 00       	mov    $0x20,%edi
  40c428:	e8 f3 d0 ff ff       	callq  409520 <_Znwm@plt>
  40c42d:	c7 40 08 01 00 00 00 	movl   $0x1,0x8(%rax)
  40c434:	c7 40 0c 01 00 00 00 	movl   $0x1,0xc(%rax)
  40c43b:	48 c7 00 f0 37 41 00 	movq   $0x4137f0,(%rax)
  40c442:	48 c7 40 10 00 00 00 	movq   $0x0,0x10(%rax)
  40c449:	00 
  40c44a:	49 c7 44 24 10 00 00 	movq   $0x0,0x10(%r12)
  40c451:	00 00 
  40c453:	49 89 44 24 08       	mov    %rax,0x8(%r12)
  40c458:	49 c7 44 24 18 00 00 	movq   $0x0,0x18(%r12)
  40c45f:	00 00 
  40c461:	49 c7 44 24 20 00 00 	movq   $0x0,0x20(%r12)
  40c468:	00 00 
  40c46a:	49 c7 44 24 28 00 00 	movq   $0x0,0x28(%r12)
  40c471:	00 00 
  40c473:	49 c7 44 24 30 00 00 	movq   $0x0,0x30(%r12)
  40c47a:	00 00 
  40c47c:	48 8b 45 20          	mov    0x20(%rbp),%rax
  40c480:	48 8b 55 38          	mov    0x38(%rbp),%rdx
  40c484:	48 8b 5a e8          	mov    -0x18(%rdx),%rbx
  40c488:	03 58 e8             	add    -0x18(%rax),%ebx
  40c48b:	48 8b 45 48          	mov    0x48(%rbp),%rax
  40c48f:	48 2b 45 40          	sub    0x40(%rbp),%rax
  40c493:	8d 5c 03 1c          	lea    0x1c(%rbx,%rax,1),%ebx
  40c497:	49 89 5c 24 10       	mov    %rbx,0x10(%r12)
  40c49c:	48 89 df             	mov    %rbx,%rdi
  40c49f:	e8 bc cd ff ff       	callq  409260 <_Znam@plt>
  40c4a4:	48 85 db             	test   %rbx,%rbx
  40c4a7:	49 89 c5             	mov    %rax,%r13
  40c4aa:	74 10                	je     40c4bc <_ZN3ros13serialization16serializeMessageIN11sensor_msgs16CompressedImage_ISaIvEEEEENS_17SerializedMessageERKT_+0xbc>
  40c4ac:	4c 01 eb             	add    %r13,%rbx
  40c4af:	90                   	nop
  40c4b0:	c6 00 00             	movb   $0x0,(%rax)
  40c4b3:	48 83 c0 01          	add    $0x1,%rax
  40c4b7:	48 39 d8             	cmp    %rbx,%rax
  40c4ba:	75 f4                	jne    40c4b0 <_ZN3ros13serialization16serializeMessageIN11sensor_msgs16CompressedImage_ISaIvEEEEENS_17SerializedMessageERKT_+0xb0>
  40c4bc:	4d 85 ed             	test   %r13,%r13
  40c4bf:	74 0a                	je     40c4cb <_ZN3ros13serialization16serializeMessageIN11sensor_msgs16CompressedImage_ISaIvEEEEENS_17SerializedMessageERKT_+0xcb>
  40c4c1:	4d 3b 2c 24          	cmp    (%r12),%r13
  40c4c5:	0f 84 79 02 00 00    	je     40c744 <_ZN3ros13serialization16serializeMessageIN11sensor_msgs16CompressedImage_ISaIvEEEEENS_17SerializedMessageERKT_+0x344>
  40c4cb:	bf 20 00 00 00       	mov    $0x20,%edi
  40c4d0:	e8 4b d0 ff ff       	callq  409520 <_Znwm@plt>
  40c4d5:	c7 40 08 01 00 00 00 	movl   $0x1,0x8(%rax)
  40c4dc:	c7 40 0c 01 00 00 00 	movl   $0x1,0xc(%rax)
  40c4e3:	48 c7 00 f0 37 41 00 	movq   $0x4137f0,(%rax)
  40c4ea:	4c 89 68 10          	mov    %r13,0x10(%rax)
  40c4ee:	49 8b 5c 24 08       	mov    0x8(%r12),%rbx
  40c4f3:	4d 89 2c 24          	mov    %r13,(%r12)
  40c4f7:	49 89 44 24 08       	mov    %rax,0x8(%r12)
  40c4fc:	48 85 db             	test   %rbx,%rbx
  40c4ff:	74 17                	je     40c518 <_ZN3ros13serialization16serializeMessageIN11sensor_msgs16CompressedImage_ISaIvEEEEENS_17SerializedMessageERKT_+0x118>
  40c501:	b8 ff ff ff ff       	mov    $0xffffffff,%eax
  40c506:	f0 0f c1 43 08       	lock xadd %eax,0x8(%rbx)
  40c50b:	83 f8 01             	cmp    $0x1,%eax
  40c50e:	0f 84 ec 01 00 00    	je     40c700 <_ZN3ros13serialization16serializeMessageIN11sensor_msgs16CompressedImage_ISaIvEEEEENS_17SerializedMessageERKT_+0x300>
  40c514:	4d 8b 2c 24          	mov    (%r12),%r13
  40c518:	45 8b 7c 24 10       	mov    0x10(%r12),%r15d
  40c51d:	4d 8d 75 04          	lea    0x4(%r13),%r14
  40c521:	44 89 fb             	mov    %r15d,%ebx
  40c524:	4c 01 eb             	add    %r13,%rbx
  40c527:	4c 39 f3             	cmp    %r14,%rbx
  40c52a:	73 05                	jae    40c531 <_ZN3ros13serialization16serializeMessageIN11sensor_msgs16CompressedImage_ISaIvEEEEENS_17SerializedMessageERKT_+0x131>
  40c52c:	e8 af cf ff ff       	callq  4094e0 <_ZN3ros13serialization18throwStreamOverrunEv@plt>
  40c531:	49 8d 45 08          	lea    0x8(%r13),%rax
  40c535:	41 83 ef 04          	sub    $0x4,%r15d
  40c539:	45 89 7d 00          	mov    %r15d,0x0(%r13)
  40c53d:	4d 89 74 24 18       	mov    %r14,0x18(%r12)
  40c542:	48 39 c3             	cmp    %rax,%rbx
  40c545:	44 8b 75 10          	mov    0x10(%rbp),%r14d
  40c549:	0f 82 31 01 00 00    	jb     40c680 <_ZN3ros13serialization16serializeMessageIN11sensor_msgs16CompressedImage_ISaIvEEEEENS_17SerializedMessageERKT_+0x280>
  40c54f:	49 8d 45 0c          	lea    0xc(%r13),%rax
  40c553:	45 89 75 04          	mov    %r14d,0x4(%r13)
  40c557:	44 8b 75 14          	mov    0x14(%rbp),%r14d
  40c55b:	48 39 c3             	cmp    %rax,%rbx
  40c55e:	0f 82 4c 01 00 00    	jb     40c6b0 <_ZN3ros13serialization16serializeMessageIN11sensor_msgs16CompressedImage_ISaIvEEEEENS_17SerializedMessageERKT_+0x2b0>
  40c564:	49 8d 45 10          	lea    0x10(%r13),%rax
  40c568:	45 89 75 08          	mov    %r14d,0x8(%r13)
  40c56c:	44 8b 75 18          	mov    0x18(%rbp),%r14d
  40c570:	48 39 c3             	cmp    %rax,%rbx
  40c573:	0f 82 f7 00 00 00    	jb     40c670 <_ZN3ros13serialization16serializeMessageIN11sensor_msgs16CompressedImage_ISaIvEEEEENS_17SerializedMessageERKT_+0x270>
  40c579:	45 89 75 0c          	mov    %r14d,0xc(%r13)
  40c57d:	4d 8d 75 14          	lea    0x14(%r13),%r14
  40c581:	48 8b 45 20          	mov    0x20(%rbp),%rax
  40c585:	4c 39 f3             	cmp    %r14,%rbx
  40c588:	4c 8b 78 e8          	mov    -0x18(%rax),%r15
  40c58c:	0f 82 0e 01 00 00    	jb     40c6a0 <_ZN3ros13serialization16serializeMessageIN11sensor_msgs16CompressedImage_ISaIvEEEEENS_17SerializedMessageERKT_+0x2a0>
  40c592:	4d 85 ff             	test   %r15,%r15
  40c595:	44 89 f8             	mov    %r15d,%eax
  40c598:	45 89 7d 10          	mov    %r15d,0x10(%r13)
  40c59c:	74 29                	je     40c5c7 <_ZN3ros13serialization16serializeMessageIN11sensor_msgs16CompressedImage_ISaIvEEEEENS_17SerializedMessageERKT_+0x1c7>
  40c59e:	48 8b 55 20          	mov    0x20(%rbp),%rdx
  40c5a2:	4d 8d 2c 06          	lea    (%r14,%rax,1),%r13
  40c5a6:	4c 39 eb             	cmp    %r13,%rbx
  40c5a9:	48 89 54 24 08       	mov    %rdx,0x8(%rsp)
  40c5ae:	0f 82 3c 01 00 00    	jb     40c6f0 <_ZN3ros13serialization16serializeMessageIN11sensor_msgs16CompressedImage_ISaIvEEEEENS_17SerializedMessageERKT_+0x2f0>
  40c5b4:	48 8b 74 24 08       	mov    0x8(%rsp),%rsi
  40c5b9:	4c 89 f7             	mov    %r14,%rdi
  40c5bc:	4c 89 fa             	mov    %r15,%rdx
  40c5bf:	4d 89 ee             	mov    %r13,%r14
  40c5c2:	e8 49 d1 ff ff       	callq  409710 <memcpy@plt>
  40c5c7:	48 8b 45 38          	mov    0x38(%rbp),%rax
  40c5cb:	4d 8d 6e 04          	lea    0x4(%r14),%r13
  40c5cf:	4c 39 eb             	cmp    %r13,%rbx
  40c5d2:	4c 8b 78 e8          	mov    -0x18(%rax),%r15
  40c5d6:	0f 82 b4 00 00 00    	jb     40c690 <_ZN3ros13serialization16serializeMessageIN11sensor_msgs16CompressedImage_ISaIvEEEEENS_17SerializedMessageERKT_+0x290>
  40c5dc:	4d 85 ff             	test   %r15,%r15
  40c5df:	44 89 f8             	mov    %r15d,%eax
  40c5e2:	45 89 3e             	mov    %r15d,(%r14)
  40c5e5:	74 2a                	je     40c611 <_ZN3ros13serialization16serializeMessageIN11sensor_msgs16CompressedImage_ISaIvEEEEENS_17SerializedMessageERKT_+0x211>
  40c5e7:	48 8b 55 38          	mov    0x38(%rbp),%rdx
  40c5eb:	4d 8d 74 05 00       	lea    0x0(%r13,%rax,1),%r14
  40c5f0:	4c 39 f3             	cmp    %r14,%rbx
  40c5f3:	48 89 54 24 08       	mov    %rdx,0x8(%rsp)
  40c5f8:	0f 82 e2 00 00 00    	jb     40c6e0 <_ZN3ros13serialization16serializeMessageIN11sensor_msgs16CompressedImage_ISaIvEEEEENS_17SerializedMessageERKT_+0x2e0>
  40c5fe:	48 8b 74 24 08       	mov    0x8(%rsp),%rsi
  40c603:	4c 89 ef             	mov    %r13,%rdi
  40c606:	4c 89 fa             	mov    %r15,%rdx
  40c609:	4d 89 f5             	mov    %r14,%r13
  40c60c:	e8 ff d0 ff ff       	callq  409710 <memcpy@plt>
  40c611:	48 8b 45 40          	mov    0x40(%rbp),%rax
  40c615:	4d 8d 75 04          	lea    0x4(%r13),%r14
  40c619:	4c 8b 7d 48          	mov    0x48(%rbp),%r15
  40c61d:	4c 39 f3             	cmp    %r14,%rbx
  40c620:	48 89 44 24 08       	mov    %rax,0x8(%rsp)
  40c625:	0f 82 95 00 00 00    	jb     40c6c0 <_ZN3ros13serialization16serializeMessageIN11sensor_msgs16CompressedImage_ISaIvEEEEENS_17SerializedMessageERKT_+0x2c0>
  40c62b:	4c 2b 7c 24 08       	sub    0x8(%rsp),%r15
  40c630:	45 89 7d 00          	mov    %r15d,0x0(%r13)
  40c634:	4c 8b 6d 40          	mov    0x40(%rbp),%r13
  40c638:	4c 39 6d 48          	cmp    %r13,0x48(%rbp)
  40c63c:	74 1e                	je     40c65c <_ZN3ros13serialization16serializeMessageIN11sensor_msgs16CompressedImage_ISaIvEEEEENS_17SerializedMessageERKT_+0x25c>
  40c63e:	44 89 fd             	mov    %r15d,%ebp
  40c641:	49 8d 04 2e          	lea    (%r14,%rbp,1),%rax
  40c645:	48 39 c3             	cmp    %rax,%rbx
  40c648:	0f 82 82 00 00 00    	jb     40c6d0 <_ZN3ros13serialization16serializeMessageIN11sensor_msgs16CompressedImage_ISaIvEEEEENS_17SerializedMessageERKT_+0x2d0>
  40c64e:	48 89 ea             	mov    %rbp,%rdx
  40c651:	4c 89 ee             	mov    %r13,%rsi
  40c654:	4c 89 f7             	mov    %r14,%rdi
  40c657:	e8 b4 d0 ff ff       	callq  409710 <memcpy@plt>
  40c65c:	48 83 c4 18          	add    $0x18,%rsp
  40c660:	4c 89 e0             	mov    %r12,%rax
  40c663:	5b                   	pop    %rbx
  40c664:	5d                   	pop    %rbp
  40c665:	41 5c                	pop    %r12
  40c667:	41 5d                	pop    %r13
  40c669:	41 5e                	pop    %r14
  40c66b:	41 5f                	pop    %r15
  40c66d:	c3                   	retq   
  40c66e:	66 90                	xchg   %ax,%ax
  40c670:	e8 6b ce ff ff       	callq  4094e0 <_ZN3ros13serialization18throwStreamOverrunEv@plt>
  40c675:	e9 ff fe ff ff       	jmpq   40c579 <_ZN3ros13serialization16serializeMessageIN11sensor_msgs16CompressedImage_ISaIvEEEEENS_17SerializedMessageERKT_+0x179>
  40c67a:	66 0f 1f 44 00 00    	nopw   0x0(%rax,%rax,1)
  40c680:	e8 5b ce ff ff       	callq  4094e0 <_ZN3ros13serialization18throwStreamOverrunEv@plt>
  40c685:	e9 c5 fe ff ff       	jmpq   40c54f <_ZN3ros13serialization16serializeMessageIN11sensor_msgs16CompressedImage_ISaIvEEEEENS_17SerializedMessageERKT_+0x14f>
  40c68a:	66 0f 1f 44 00 00    	nopw   0x0(%rax,%rax,1)
  40c690:	e8 4b ce ff ff       	callq  4094e0 <_ZN3ros13serialization18throwStreamOverrunEv@plt>
  40c695:	e9 42 ff ff ff       	jmpq   40c5dc <_ZN3ros13serialization16serializeMessageIN11sensor_msgs16CompressedImage_ISaIvEEEEENS_17SerializedMessageERKT_+0x1dc>
  40c69a:	66 0f 1f 44 00 00    	nopw   0x0(%rax,%rax,1)
  40c6a0:	e8 3b ce ff ff       	callq  4094e0 <_ZN3ros13serialization18throwStreamOverrunEv@plt>
  40c6a5:	e9 e8 fe ff ff       	jmpq   40c592 <_ZN3ros13serialization16serializeMessageIN11sensor_msgs16CompressedImage_ISaIvEEEEENS_17SerializedMessageERKT_+0x192>
  40c6aa:	66 0f 1f 44 00 00    	nopw   0x0(%rax,%rax,1)
  40c6b0:	e8 2b ce ff ff       	callq  4094e0 <_ZN3ros13serialization18throwStreamOverrunEv@plt>
  40c6b5:	e9 aa fe ff ff       	jmpq   40c564 <_ZN3ros13serialization16serializeMessageIN11sensor_msgs16CompressedImage_ISaIvEEEEENS_17SerializedMessageERKT_+0x164>
  40c6ba:	66 0f 1f 44 00 00    	nopw   0x0(%rax,%rax,1)
  40c6c0:	e8 1b ce ff ff       	callq  4094e0 <_ZN3ros13serialization18throwStreamOverrunEv@plt>
  40c6c5:	e9 61 ff ff ff       	jmpq   40c62b <_ZN3ros13serialization16serializeMessageIN11sensor_msgs16CompressedImage_ISaIvEEEEENS_17SerializedMessageERKT_+0x22b>
  40c6ca:	66 0f 1f 44 00 00    	nopw   0x0(%rax,%rax,1)
  40c6d0:	e8 0b ce ff ff       	callq  4094e0 <_ZN3ros13serialization18throwStreamOverrunEv@plt>
  40c6d5:	e9 74 ff ff ff       	jmpq   40c64e <_ZN3ros13serialization16serializeMessageIN11sensor_msgs16CompressedImage_ISaIvEEEEENS_17SerializedMessageERKT_+0x24e>
  40c6da:	66 0f 1f 44 00 00    	nopw   0x0(%rax,%rax,1)
  40c6e0:	e8 fb cd ff ff       	callq  4094e0 <_ZN3ros13serialization18throwStreamOverrunEv@plt>
  40c6e5:	e9 14 ff ff ff       	jmpq   40c5fe <_ZN3ros13serialization16serializeMessageIN11sensor_msgs16CompressedImage_ISaIvEEEEENS_17SerializedMessageERKT_+0x1fe>
  40c6ea:	66 0f 1f 44 00 00    	nopw   0x0(%rax,%rax,1)
  40c6f0:	e8 eb cd ff ff       	callq  4094e0 <_ZN3ros13serialization18throwStreamOverrunEv@plt>
  40c6f5:	e9 ba fe ff ff       	jmpq   40c5b4 <_ZN3ros13serialization16serializeMessageIN11sensor_msgs16CompressedImage_ISaIvEEEEENS_17SerializedMessageERKT_+0x1b4>
  40c6fa:	66 0f 1f 44 00 00    	nopw   0x0(%rax,%rax,1)
  40c700:	48 8b 03             	mov    (%rbx),%rax
  40c703:	48 89 df             	mov    %rbx,%rdi
  40c706:	ff 50 10             	callq  *0x10(%rax)
  40c709:	b8 ff ff ff ff       	mov    $0xffffffff,%eax
  40c70e:	f0 0f c1 43 0c       	lock xadd %eax,0xc(%rbx)
  40c713:	83 f8 01             	cmp    $0x1,%eax
  40c716:	0f 85 f8 fd ff ff    	jne    40c514 <_ZN3ros13serialization16serializeMessageIN11sensor_msgs16CompressedImage_ISaIvEEEEENS_17SerializedMessageERKT_+0x114>
  40c71c:	48 8b 03             	mov    (%rbx),%rax
  40c71f:	48 89 df             	mov    %rbx,%rdi
  40c722:	ff 50 18             	callq  *0x18(%rax)
  40c725:	e9 ea fd ff ff       	jmpq   40c514 <_ZN3ros13serialization16serializeMessageIN11sensor_msgs16CompressedImage_ISaIvEEEEENS_17SerializedMessageERKT_+0x114>
  40c72a:	48 89 c7             	mov    %rax,%rdi
  40c72d:	e8 3e cc ff ff       	callq  409370 <__cxa_begin_catch@plt>
  40c732:	4d 85 ed             	test   %r13,%r13
  40c735:	74 08                	je     40c73f <_ZN3ros13serialization16serializeMessageIN11sensor_msgs16CompressedImage_ISaIvEEEEENS_17SerializedMessageERKT_+0x33f>
  40c737:	4c 89 ef             	mov    %r13,%rdi
  40c73a:	e8 91 ce ff ff       	callq  4095d0 <_ZdaPv@plt>
  40c73f:	e8 fc ce ff ff       	callq  409640 <__cxa_rethrow@plt>
  40c744:	b9 40 31 41 00       	mov    $0x413140,%ecx
  40c749:	ba 5e 00 00 00       	mov    $0x5e,%edx
  40c74e:	be a0 2a 41 00       	mov    $0x412aa0,%esi
  40c753:	bf bd 2d 41 00       	mov    $0x412dbd,%edi
  40c758:	e8 e3 cc ff ff       	callq  409440 <__assert_fail@plt>
  40c75d:	48 89 c3             	mov    %rax,%rbx
  40c760:	e8 5b cf ff ff       	callq  4096c0 <__cxa_end_catch@plt>
  40c765:	4c 89 e7             	mov    %r12,%rdi
  40c768:	e8 c3 fb ff ff       	callq  40c330 <_ZN3ros17SerializedMessageD1Ev>
  40c76d:	48 89 df             	mov    %rbx,%rdi
  40c770:	e8 ab cf ff ff       	callq  409720 <_Unwind_Resume@plt>
  40c775:	48 89 c3             	mov    %rax,%rbx
  40c778:	eb eb                	jmp    40c765 <_ZN3ros13serialization16serializeMessageIN11sensor_msgs16CompressedImage_ISaIvEEEEENS_17SerializedMessageERKT_+0x365>
  40c77a:	48 89 c7             	mov    %rax,%rdi
  40c77d:	e8 ee cb ff ff       	callq  409370 <__cxa_begin_catch@plt>
  40c782:	e8 b9 ce ff ff       	callq  409640 <__cxa_rethrow@plt>
  40c787:	48 89 c3             	mov    %rax,%rbx
  40c78a:	e8 31 cf ff ff       	callq  4096c0 <__cxa_end_catch@plt>
  40c78f:	48 89 df             	mov    %rbx,%rdi
  40c792:	e8 89 cf ff ff       	callq  409720 <_Unwind_Resume@plt>
  40c797:	90                   	nop
  40c798:	90                   	nop
  40c799:	90                   	nop
  40c79a:	90                   	nop
  40c79b:	90                   	nop
  40c79c:	90                   	nop
  40c79d:	90                   	nop
  40c79e:	90                   	nop
  40c79f:	90                   	nop

000000000040c7a0 <_ZNK3ros9Publisher7publishIN11sensor_msgs16CompressedImage_ISaIvEEEEEvRKT_>:
  40c7a0:	55                   	push   %rbp
  40c7a1:	48 89 f5             	mov    %rsi,%rbp
  40c7a4:	53                   	push   %rbx
  40c7a5:	48 89 fb             	mov    %rdi,%rbx
  40c7a8:	48 81 ec 48 01 00 00 	sub    $0x148,%rsp
  40c7af:	48 8b 3f             	mov    (%rdi),%rdi
  40c7b2:	48 85 ff             	test   %rdi,%rdi
  40c7b5:	0f 84 0d 03 00 00    	je     40cac8 <_ZNK3ros9Publisher7publishIN11sensor_msgs16CompressedImage_ISaIvEEEEEvRKT_+0x328>
  40c7bb:	e8 f0 cc ff ff       	callq  4094b0 <_ZNK3ros9Publisher4Impl7isValidEv@plt>
  40c7c0:	84 c0                	test   %al,%al
  40c7c2:	0f 85 a8 00 00 00    	jne    40c870 <_ZNK3ros9Publisher7publishIN11sensor_msgs16CompressedImage_ISaIvEEEEEvRKT_+0xd0>
  40c7c8:	80 3d 69 b0 20 00 00 	cmpb   $0x0,0x20b069(%rip)        # 617838 <_ZN3ros7console13g_initializedE>
  40c7cf:	0f 84 4c 04 00 00    	je     40cc21 <_ZNK3ros9Publisher7publishIN11sensor_msgs16CompressedImage_ISaIvEEEEEvRKT_+0x481>
  40c7d5:	80 3d a4 ae 20 00 00 	cmpb   $0x0,0x20aea4(%rip)        # 617680 <_ZZNK3ros9Publisher7publishIN11sensor_msgs16CompressedImage_ISaIvEEEEEvRKT_E3loc_2>
  40c7dc:	0f 84 b9 04 00 00    	je     40cc9b <_ZNK3ros9Publisher7publishIN11sensor_msgs16CompressedImage_ISaIvEEEEEvRKT_+0x4fb>
  40c7e2:	83 3d 9b ae 20 00 04 	cmpl   $0x4,0x20ae9b(%rip)        # 617684 <_ZZNK3ros9Publisher7publishIN11sensor_msgs16CompressedImage_ISaIvEEEEEvRKT_E3loc_2+0x4>
  40c7e9:	0f 85 14 04 00 00    	jne    40cc03 <_ZNK3ros9Publisher7publishIN11sensor_msgs16CompressedImage_ISaIvEEEEEvRKT_+0x463>
  40c7ef:	80 3d 8b ae 20 00 00 	cmpb   $0x0,0x20ae8b(%rip)        # 617681 <_ZZNK3ros9Publisher7publishIN11sensor_msgs16CompressedImage_ISaIvEEEEEvRKT_E3loc_2+0x1>
  40c7f6:	0f 85 e2 04 00 00    	jne    40ccde <_ZNK3ros9Publisher7publishIN11sensor_msgs16CompressedImage_ISaIvEEEEEvRKT_+0x53e>
  40c7fc:	80 3d 35 b0 20 00 00 	cmpb   $0x0,0x20b035(%rip)        # 617838 <_ZN3ros7console13g_initializedE>
  40c803:	0f 84 23 05 00 00    	je     40cd2c <_ZNK3ros9Publisher7publishIN11sensor_msgs16CompressedImage_ISaIvEEEEEvRKT_+0x58c>
  40c809:	80 3d 80 ae 20 00 00 	cmpb   $0x0,0x20ae80(%rip)        # 617690 <_ZZNK3ros9Publisher7publishIN11sensor_msgs16CompressedImage_ISaIvEEEEEvRKT_E3loc_3>
  40c810:	0f 84 20 05 00 00    	je     40cd36 <_ZNK3ros9Publisher7publishIN11sensor_msgs16CompressedImage_ISaIvEEEEEvRKT_+0x596>
  40c816:	83 3d 77 ae 20 00 04 	cmpl   $0x4,0x20ae77(%rip)        # 617694 <_ZZNK3ros9Publisher7publishIN11sensor_msgs16CompressedImage_ISaIvEEEEEvRKT_E3loc_3+0x4>
  40c81d:	0f 85 56 05 00 00    	jne    40cd79 <_ZNK3ros9Publisher7publishIN11sensor_msgs16CompressedImage_ISaIvEEEEEvRKT_+0x5d9>
  40c823:	80 3d 67 ae 20 00 00 	cmpb   $0x0,0x20ae67(%rip)        # 617691 <_ZZNK3ros9Publisher7publishIN11sensor_msgs16CompressedImage_ISaIvEEEEEvRKT_E3loc_3+0x1>
  40c82a:	0f 85 67 05 00 00    	jne    40cd97 <_ZNK3ros9Publisher7publishIN11sensor_msgs16CompressedImage_ISaIvEEEEEvRKT_+0x5f7>
  40c830:	80 3d 01 b0 20 00 00 	cmpb   $0x0,0x20b001(%rip)        # 617838 <_ZN3ros7console13g_initializedE>
  40c837:	0f 84 ee 03 00 00    	je     40cc2b <_ZNK3ros9Publisher7publishIN11sensor_msgs16CompressedImage_ISaIvEEEEEvRKT_+0x48b>
  40c83d:	80 3d 5c ae 20 00 00 	cmpb   $0x0,0x20ae5c(%rip)        # 6176a0 <_ZZNK3ros9Publisher7publishIN11sensor_msgs16CompressedImage_ISaIvEEEEEvRKT_E3loc_4>
  40c844:	0f 84 f0 03 00 00    	je     40cc3a <_ZNK3ros9Publisher7publishIN11sensor_msgs16CompressedImage_ISaIvEEEEEvRKT_+0x49a>
  40c84a:	83 3d 53 ae 20 00 04 	cmpl   $0x4,0x20ae53(%rip)        # 6176a4 <_ZZNK3ros9Publisher7publishIN11sensor_msgs16CompressedImage_ISaIvEEEEEvRKT_E3loc_4+0x4>
  40c851:	0f 85 26 04 00 00    	jne    40cc7d <_ZNK3ros9Publisher7publishIN11sensor_msgs16CompressedImage_ISaIvEEEEEvRKT_+0x4dd>
  40c857:	80 3d 43 ae 20 00 00 	cmpb   $0x0,0x20ae43(%rip)        # 6176a1 <_ZZNK3ros9Publisher7publishIN11sensor_msgs16CompressedImage_ISaIvEEEEEvRKT_E3loc_4+0x1>
  40c85e:	0f 85 6b 03 00 00    	jne    40cbcf <_ZNK3ros9Publisher7publishIN11sensor_msgs16CompressedImage_ISaIvEEEEEvRKT_+0x42f>
  40c864:	cc                   	int3   
  40c865:	48 81 c4 48 01 00 00 	add    $0x148,%rsp
  40c86c:	5b                   	pop    %rbx
  40c86d:	5d                   	pop    %rbp
  40c86e:	c3                   	retq   
  40c86f:	90                   	nop
  40c870:	48 8b 3b             	mov    (%rbx),%rdi
  40c873:	48 85 ff             	test   %rdi,%rdi
  40c876:	0f 84 4e 03 00 00    	je     40cbca <_ZNK3ros9Publisher7publishIN11sensor_msgs16CompressedImage_ISaIvEEEEEvRKT_+0x42a>
  40c87c:	48 83 c7 08          	add    $0x8,%rdi
  40c880:	be e2 2d 41 00       	mov    $0x412de2,%esi
  40c885:	e8 46 ca ff ff       	callq  4092d0 <_ZNKSs7compareEPKc@plt>
  40c88a:	85 c0                	test   %eax,%eax
  40c88c:	0f 85 bf 00 00 00    	jne    40c951 <_ZNK3ros9Publisher7publishIN11sensor_msgs16CompressedImage_ISaIvEEEEEvRKT_+0x1b1>
  40c892:	48 8b 3b             	mov    (%rbx),%rdi
  40c895:	48 85 ff             	test   %rdi,%rdi
  40c898:	0f 84 2c 03 00 00    	je     40cbca <_ZNK3ros9Publisher7publishIN11sensor_msgs16CompressedImage_ISaIvEEEEEvRKT_+0x42a>
  40c89e:	48 83 c7 08          	add    $0x8,%rdi
  40c8a2:	be 98 25 41 00       	mov    $0x412598,%esi
  40c8a7:	e8 24 ca ff ff       	callq  4092d0 <_ZNKSs7compareEPKc@plt>
  40c8ac:	85 c0                	test   %eax,%eax
  40c8ae:	0f 84 9d 00 00 00    	je     40c951 <_ZNK3ros9Publisher7publishIN11sensor_msgs16CompressedImage_ISaIvEEEEEvRKT_+0x1b1>
  40c8b4:	80 3d 7d af 20 00 00 	cmpb   $0x0,0x20af7d(%rip)        # 617838 <_ZN3ros7console13g_initializedE>
  40c8bb:	0f 84 03 09 00 00    	je     40d1c4 <_ZNK3ros9Publisher7publishIN11sensor_msgs16CompressedImage_ISaIvEEEEEvRKT_+0xa24>
  40c8c1:	80 3d e8 ad 20 00 00 	cmpb   $0x0,0x20ade8(%rip)        # 6176b0 <_ZZNK3ros9Publisher7publishIN11sensor_msgs16CompressedImage_ISaIvEEEEEvRKT_E3loc_5>
  40c8c8:	0f 84 b3 08 00 00    	je     40d181 <_ZNK3ros9Publisher7publishIN11sensor_msgs16CompressedImage_ISaIvEEEEEvRKT_+0x9e1>
  40c8ce:	83 3d df ad 20 00 04 	cmpl   $0x4,0x20addf(%rip)        # 6176b4 <_ZZNK3ros9Publisher7publishIN11sensor_msgs16CompressedImage_ISaIvEEEEEvRKT_E3loc_5+0x4>
  40c8d5:	0f 85 88 08 00 00    	jne    40d163 <_ZNK3ros9Publisher7publishIN11sensor_msgs16CompressedImage_ISaIvEEEEEvRKT_+0x9c3>
  40c8db:	80 3d cf ad 20 00 00 	cmpb   $0x0,0x20adcf(%rip)        # 6176b1 <_ZZNK3ros9Publisher7publishIN11sensor_msgs16CompressedImage_ISaIvEEEEEvRKT_E3loc_5+0x1>
  40c8e2:	0f 85 2d 08 00 00    	jne    40d115 <_ZNK3ros9Publisher7publishIN11sensor_msgs16CompressedImage_ISaIvEEEEEvRKT_+0x975>
  40c8e8:	80 3d 49 af 20 00 00 	cmpb   $0x0,0x20af49(%rip)        # 617838 <_ZN3ros7console13g_initializedE>
  40c8ef:	0f 84 15 08 00 00    	je     40d10a <_ZNK3ros9Publisher7publishIN11sensor_msgs16CompressedImage_ISaIvEEEEEvRKT_+0x96a>
  40c8f5:	80 3d c4 ad 20 00 00 	cmpb   $0x0,0x20adc4(%rip)        # 6176c0 <_ZZNK3ros9Publisher7publishIN11sensor_msgs16CompressedImage_ISaIvEEEEEvRKT_E3loc_6>
  40c8fc:	0f 84 c5 07 00 00    	je     40d0c7 <_ZNK3ros9Publisher7publishIN11sensor_msgs16CompressedImage_ISaIvEEEEEvRKT_+0x927>
  40c902:	83 3d bb ad 20 00 04 	cmpl   $0x4,0x20adbb(%rip)        # 6176c4 <_ZZNK3ros9Publisher7publishIN11sensor_msgs16CompressedImage_ISaIvEEEEEvRKT_E3loc_6+0x4>
  40c909:	0f 85 9a 07 00 00    	jne    40d0a9 <_ZNK3ros9Publisher7publishIN11sensor_msgs16CompressedImage_ISaIvEEEEEvRKT_+0x909>
  40c90f:	80 3d ab ad 20 00 00 	cmpb   $0x0,0x20adab(%rip)        # 6176c1 <_ZZNK3ros9Publisher7publishIN11sensor_msgs16CompressedImage_ISaIvEEEEEvRKT_E3loc_6+0x1>
  40c916:	0f 85 29 07 00 00    	jne    40d045 <_ZNK3ros9Publisher7publishIN11sensor_msgs16CompressedImage_ISaIvEEEEEvRKT_+0x8a5>
  40c91c:	80 3d 15 af 20 00 00 	cmpb   $0x0,0x20af15(%rip)        # 617838 <_ZN3ros7console13g_initializedE>
  40c923:	0f 84 f4 06 00 00    	je     40d01d <_ZNK3ros9Publisher7publishIN11sensor_msgs16CompressedImage_ISaIvEEEEEvRKT_+0x87d>
  40c929:	80 3d a0 ad 20 00 00 	cmpb   $0x0,0x20ada0(%rip)        # 6176d0 <_ZZNK3ros9Publisher7publishIN11sensor_msgs16CompressedImage_ISaIvEEEEEvRKT_E3loc_7>
  40c930:	0f 84 a4 06 00 00    	je     40cfda <_ZNK3ros9Publisher7publishIN11sensor_msgs16CompressedImage_ISaIvEEEEEvRKT_+0x83a>
  40c936:	83 3d 97 ad 20 00 04 	cmpl   $0x4,0x20ad97(%rip)        # 6176d4 <_ZZNK3ros9Publisher7publishIN11sensor_msgs16CompressedImage_ISaIvEEEEEvRKT_E3loc_7+0x4>
  40c93d:	0f 85 e4 06 00 00    	jne    40d027 <_ZNK3ros9Publisher7publishIN11sensor_msgs16CompressedImage_ISaIvEEEEEvRKT_+0x887>
  40c943:	80 3d 87 ad 20 00 00 	cmpb   $0x0,0x20ad87(%rip)        # 6176d1 <_ZZNK3ros9Publisher7publishIN11sensor_msgs16CompressedImage_ISaIvEEEEEvRKT_E3loc_7+0x1>
  40c94a:	0f 85 56 06 00 00    	jne    40cfa6 <_ZNK3ros9Publisher7publishIN11sensor_msgs16CompressedImage_ISaIvEEEEEvRKT_+0x806>
  40c950:	cc                   	int3   
  40c951:	bf 20 00 00 00       	mov    $0x20,%edi
  40c956:	48 c7 44 24 30 00 00 	movq   $0x0,0x30(%rsp)
  40c95d:	00 00 
  40c95f:	48 c7 44 24 38 00 00 	movq   $0x0,0x38(%rsp)
  40c966:	00 00 
  40c968:	e8 b3 cb ff ff       	callq  409520 <_Znwm@plt>
  40c96d:	48 8d bc 24 90 00 00 	lea    0x90(%rsp),%rdi
  40c974:	00 
  40c975:	48 c7 00 f0 37 41 00 	movq   $0x4137f0,(%rax)
  40c97c:	c7 40 08 01 00 00 00 	movl   $0x1,0x8(%rax)
  40c983:	c7 40 0c 01 00 00 00 	movl   $0x1,0xc(%rax)
  40c98a:	48 c7 40 10 00 00 00 	movq   $0x0,0x10(%rax)
  40c991:	00 
  40c992:	48 89 44 24 38       	mov    %rax,0x38(%rsp)
  40c997:	31 c0                	xor    %eax,%eax
  40c999:	48 c7 44 24 40 00 00 	movq   $0x0,0x40(%rsp)
  40c9a0:	00 00 
  40c9a2:	48 c7 44 24 48 00 00 	movq   $0x0,0x48(%rsp)
  40c9a9:	00 00 
  40c9ab:	48 c7 44 24 50 00 00 	movq   $0x0,0x50(%rsp)
  40c9b2:	00 00 
  40c9b4:	48 c7 44 24 58 00 00 	movq   $0x0,0x58(%rsp)
  40c9bb:	00 00 
  40c9bd:	48 c7 44 24 60 00 00 	movq   $0x0,0x60(%rsp)
  40c9c4:	00 00 
  40c9c6:	48 c7 44 24 70 00 00 	movq   $0x0,0x70(%rsp)
  40c9cd:	00 00 
  40c9cf:	48 c7 84 24 90 00 00 	movq   $0x40c400,0x90(%rsp)
  40c9d6:	00 00 c4 40 00 
  40c9db:	48 89 ac 24 98 00 00 	mov    %rbp,0x98(%rsp)
  40c9e2:	00 
  40c9e3:	e8 08 e6 ff ff       	callq  40aff0 <_ZN5boost6detail8function16has_empty_targetEz>
  40c9e8:	84 c0                	test   %al,%al
  40c9ea:	75 1f                	jne    40ca0b <_ZNK3ros9Publisher7publishIN11sensor_msgs16CompressedImage_ISaIvEEEEEvRKT_+0x26b>
  40c9ec:	b8 e0 76 61 00       	mov    $0x6176e0,%eax
  40c9f1:	48 c7 44 24 78 00 c4 	movq   $0x40c400,0x78(%rsp)
  40c9f8:	40 00 
  40c9fa:	48 89 ac 24 80 00 00 	mov    %rbp,0x80(%rsp)
  40ca01:	00 
  40ca02:	48 83 c8 01          	or     $0x1,%rax
  40ca06:	48 89 44 24 70       	mov    %rax,0x70(%rsp)
  40ca0b:	48 8d 54 24 30       	lea    0x30(%rsp),%rdx
  40ca10:	48 8d 74 24 70       	lea    0x70(%rsp),%rsi
  40ca15:	48 89 df             	mov    %rbx,%rdi
  40ca18:	e8 c3 cc ff ff       	callq  4096e0 <_ZNK3ros9Publisher7publishERKN5boost8functionIFNS_17SerializedMessageEvEEERS3_@plt>
  40ca1d:	48 8b 44 24 70       	mov    0x70(%rsp),%rax
  40ca22:	48 85 c0             	test   %rax,%rax
  40ca25:	74 0d                	je     40ca34 <_ZNK3ros9Publisher7publishIN11sensor_msgs16CompressedImage_ISaIvEEEEEvRKT_+0x294>
  40ca27:	a8 01                	test   $0x1,%al
  40ca29:	74 75                	je     40caa0 <_ZNK3ros9Publisher7publishIN11sensor_msgs16CompressedImage_ISaIvEEEEEvRKT_+0x300>
  40ca2b:	48 c7 44 24 70 00 00 	movq   $0x0,0x70(%rsp)
  40ca32:	00 00 
  40ca34:	48 8b 5c 24 58       	mov    0x58(%rsp),%rbx
  40ca39:	48 85 db             	test   %rbx,%rbx
  40ca3c:	74 13                	je     40ca51 <_ZNK3ros9Publisher7publishIN11sensor_msgs16CompressedImage_ISaIvEEEEEvRKT_+0x2b1>
  40ca3e:	b8 ff ff ff ff       	mov    $0xffffffff,%eax
  40ca43:	f0 0f c1 43 08       	lock xadd %eax,0x8(%rbx)
  40ca48:	83 f8 01             	cmp    $0x1,%eax
  40ca4b:	0f 84 4f 01 00 00    	je     40cba0 <_ZNK3ros9Publisher7publishIN11sensor_msgs16CompressedImage_ISaIvEEEEEvRKT_+0x400>
  40ca51:	48 8b 5c 24 38       	mov    0x38(%rsp),%rbx
  40ca56:	48 85 db             	test   %rbx,%rbx
  40ca59:	0f 84 06 fe ff ff    	je     40c865 <_ZNK3ros9Publisher7publishIN11sensor_msgs16CompressedImage_ISaIvEEEEEvRKT_+0xc5>
  40ca5f:	bd ff ff ff ff       	mov    $0xffffffff,%ebp
  40ca64:	89 e8                	mov    %ebp,%eax
  40ca66:	f0 0f c1 43 08       	lock xadd %eax,0x8(%rbx)
  40ca6b:	83 f8 01             	cmp    $0x1,%eax
  40ca6e:	0f 85 f1 fd ff ff    	jne    40c865 <_ZNK3ros9Publisher7publishIN11sensor_msgs16CompressedImage_ISaIvEEEEEvRKT_+0xc5>
  40ca74:	48 8b 03             	mov    (%rbx),%rax
  40ca77:	48 89 df             	mov    %rbx,%rdi
  40ca7a:	ff 50 10             	callq  *0x10(%rax)
  40ca7d:	f0 0f c1 6b 0c       	lock xadd %ebp,0xc(%rbx)
  40ca82:	83 fd 01             	cmp    $0x1,%ebp
  40ca85:	0f 85 da fd ff ff    	jne    40c865 <_ZNK3ros9Publisher7publishIN11sensor_msgs16CompressedImage_ISaIvEEEEEvRKT_+0xc5>
  40ca8b:	48 8b 03             	mov    (%rbx),%rax
  40ca8e:	48 89 df             	mov    %rbx,%rdi
  40ca91:	ff 50 18             	callq  *0x18(%rax)
  40ca94:	e9 cc fd ff ff       	jmpq   40c865 <_ZNK3ros9Publisher7publishIN11sensor_msgs16CompressedImage_ISaIvEEEEEvRKT_+0xc5>
  40ca99:	0f 1f 80 00 00 00 00 	nopl   0x0(%rax)
  40caa0:	48 83 e0 fe          	and    $0xfffffffffffffffe,%rax
  40caa4:	48 8b 00             	mov    (%rax),%rax
  40caa7:	48 85 c0             	test   %rax,%rax
  40caaa:	0f 84 7b ff ff ff    	je     40ca2b <_ZNK3ros9Publisher7publishIN11sensor_msgs16CompressedImage_ISaIvEEEEEvRKT_+0x28b>
  40cab0:	48 8d 7c 24 78       	lea    0x78(%rsp),%rdi
  40cab5:	ba 02 00 00 00       	mov    $0x2,%edx
  40caba:	48 89 fe             	mov    %rdi,%rsi
  40cabd:	ff d0                	callq  *%rax
  40cabf:	e9 67 ff ff ff       	jmpq   40ca2b <_ZNK3ros9Publisher7publishIN11sensor_msgs16CompressedImage_ISaIvEEEEEvRKT_+0x28b>
  40cac4:	0f 1f 40 00          	nopl   0x0(%rax)
  40cac8:	80 3d 69 ad 20 00 00 	cmpb   $0x0,0x20ad69(%rip)        # 617838 <_ZN3ros7console13g_initializedE>
  40cacf:	0f 84 62 04 00 00    	je     40cf37 <_ZNK3ros9Publisher7publishIN11sensor_msgs16CompressedImage_ISaIvEEEEEvRKT_+0x797>
  40cad5:	80 3d 74 ab 20 00 00 	cmpb   $0x0,0x20ab74(%rip)        # 617650 <_ZZNK3ros9Publisher7publishIN11sensor_msgs16CompressedImage_ISaIvEEEEEvRKT_E3loc>
  40cadc:	0f 84 81 04 00 00    	je     40cf63 <_ZNK3ros9Publisher7publishIN11sensor_msgs16CompressedImage_ISaIvEEEEEvRKT_+0x7c3>
  40cae2:	83 3d 6b ab 20 00 04 	cmpl   $0x4,0x20ab6b(%rip)        # 617654 <_ZZNK3ros9Publisher7publishIN11sensor_msgs16CompressedImage_ISaIvEEEEEvRKT_E3loc+0x4>
  40cae9:	0f 85 56 04 00 00    	jne    40cf45 <_ZNK3ros9Publisher7publishIN11sensor_msgs16CompressedImage_ISaIvEEEEEvRKT_+0x7a5>
  40caef:	80 3d 5b ab 20 00 00 	cmpb   $0x0,0x20ab5b(%rip)        # 617651 <_ZZNK3ros9Publisher7publishIN11sensor_msgs16CompressedImage_ISaIvEEEEEvRKT_E3loc+0x1>
  40caf6:	0f 85 b9 03 00 00    	jne    40ceb5 <_ZNK3ros9Publisher7publishIN11sensor_msgs16CompressedImage_ISaIvEEEEEvRKT_+0x715>
  40cafc:	80 3d 35 ad 20 00 00 	cmpb   $0x0,0x20ad35(%rip)        # 617838 <_ZN3ros7console13g_initializedE>
  40cb03:	0f 84 a2 03 00 00    	je     40ceab <_ZNK3ros9Publisher7publishIN11sensor_msgs16CompressedImage_ISaIvEEEEEvRKT_+0x70b>
  40cb09:	80 3d 50 ab 20 00 00 	cmpb   $0x0,0x20ab50(%rip)        # 617660 <_ZZNK3ros9Publisher7publishIN11sensor_msgs16CompressedImage_ISaIvEEEEEvRKT_E3loc_0>
  40cb10:	0f 84 52 03 00 00    	je     40ce68 <_ZNK3ros9Publisher7publishIN11sensor_msgs16CompressedImage_ISaIvEEEEEvRKT_+0x6c8>
  40cb16:	83 3d 47 ab 20 00 04 	cmpl   $0x4,0x20ab47(%rip)        # 617664 <_ZZNK3ros9Publisher7publishIN11sensor_msgs16CompressedImage_ISaIvEEEEEvRKT_E3loc_0+0x4>
  40cb1d:	0f 85 27 03 00 00    	jne    40ce4a <_ZNK3ros9Publisher7publishIN11sensor_msgs16CompressedImage_ISaIvEEEEEvRKT_+0x6aa>
  40cb23:	80 3d 37 ab 20 00 00 	cmpb   $0x0,0x20ab37(%rip)        # 617661 <_ZZNK3ros9Publisher7publishIN11sensor_msgs16CompressedImage_ISaIvEEEEEvRKT_E3loc_0+0x1>
  40cb2a:	0f 85 d3 03 00 00    	jne    40cf03 <_ZNK3ros9Publisher7publishIN11sensor_msgs16CompressedImage_ISaIvEEEEEvRKT_+0x763>
